ARM GAS  /tmp/ccRhx9mK.s 			page 1


   1              		.cpu cortex-m7
   2              		.eabi_attribute 28, 1
   3              		.eabi_attribute 20, 1
   4              		.eabi_attribute 21, 1
   5              		.eabi_attribute 23, 3
   6              		.eabi_attribute 24, 1
   7              		.eabi_attribute 25, 1
   8              		.eabi_attribute 26, 1
   9              		.eabi_attribute 30, 4
  10              		.eabi_attribute 34, 1
  11              		.eabi_attribute 18, 4
  12              		.file	"diskio.c"
  13              		.text
  14              	.Ltext0:
  15              		.cfi_sections	.debug_frame
  16              		.section	.text.disk_status,"ax",%progbits
  17              		.align	1
  18              		.global	disk_status
  19              		.arch armv7e-m
  20              		.syntax unified
  21              		.thumb
  22              		.thumb_func
  23              		.fpu fpv5-d16
  25              	disk_status:
  26              	.LVL0:
  27              	.LFB320:
  28              		.file 1 "../libDaisy/Middlewares/Third_Party/FatFs/src/diskio.c"
   1:../libDaisy/Middlewares/Third_Party/FatFs/src/diskio.c **** /*-----------------------------------------------------------------------*/
   2:../libDaisy/Middlewares/Third_Party/FatFs/src/diskio.c **** /* Low level disk I/O module skeleton for FatFs     (C)ChaN, 2017        */
   3:../libDaisy/Middlewares/Third_Party/FatFs/src/diskio.c **** /*                                                                       */
   4:../libDaisy/Middlewares/Third_Party/FatFs/src/diskio.c **** /*   Portions COPYRIGHT 2017 STMicroelectronics                          */
   5:../libDaisy/Middlewares/Third_Party/FatFs/src/diskio.c **** /*   Portions Copyright (C) 2017, ChaN, all right reserved               */
   6:../libDaisy/Middlewares/Third_Party/FatFs/src/diskio.c **** /*-----------------------------------------------------------------------*/
   7:../libDaisy/Middlewares/Third_Party/FatFs/src/diskio.c **** /* If a working storage control module is available, it should be        */
   8:../libDaisy/Middlewares/Third_Party/FatFs/src/diskio.c **** /* attached to the FatFs via a glue function rather than modifying it.   */
   9:../libDaisy/Middlewares/Third_Party/FatFs/src/diskio.c **** /* This is an example of glue functions to attach various existing      */
  10:../libDaisy/Middlewares/Third_Party/FatFs/src/diskio.c **** /* storage control modules to the FatFs module with a defined API.       */
  11:../libDaisy/Middlewares/Third_Party/FatFs/src/diskio.c **** /*-----------------------------------------------------------------------*/
  12:../libDaisy/Middlewares/Third_Party/FatFs/src/diskio.c **** 
  13:../libDaisy/Middlewares/Third_Party/FatFs/src/diskio.c **** /* Includes ------------------------------------------------------------------*/
  14:../libDaisy/Middlewares/Third_Party/FatFs/src/diskio.c **** #include "diskio.h"
  15:../libDaisy/Middlewares/Third_Party/FatFs/src/diskio.c **** #include "ff_gen_drv.h"
  16:../libDaisy/Middlewares/Third_Party/FatFs/src/diskio.c **** 
  17:../libDaisy/Middlewares/Third_Party/FatFs/src/diskio.c **** #if defined ( __GNUC__ )
  18:../libDaisy/Middlewares/Third_Party/FatFs/src/diskio.c **** #ifndef __weak
  19:../libDaisy/Middlewares/Third_Party/FatFs/src/diskio.c **** #define __weak __attribute__((weak))
  20:../libDaisy/Middlewares/Third_Party/FatFs/src/diskio.c **** #endif
  21:../libDaisy/Middlewares/Third_Party/FatFs/src/diskio.c **** #endif
  22:../libDaisy/Middlewares/Third_Party/FatFs/src/diskio.c **** 
  23:../libDaisy/Middlewares/Third_Party/FatFs/src/diskio.c **** /* Private typedef -----------------------------------------------------------*/
  24:../libDaisy/Middlewares/Third_Party/FatFs/src/diskio.c **** /* Private define ------------------------------------------------------------*/
  25:../libDaisy/Middlewares/Third_Party/FatFs/src/diskio.c **** /* Private variables ---------------------------------------------------------*/
  26:../libDaisy/Middlewares/Third_Party/FatFs/src/diskio.c **** extern Disk_drvTypeDef  disk;
  27:../libDaisy/Middlewares/Third_Party/FatFs/src/diskio.c **** 
  28:../libDaisy/Middlewares/Third_Party/FatFs/src/diskio.c **** /* Private function prototypes -----------------------------------------------*/
  29:../libDaisy/Middlewares/Third_Party/FatFs/src/diskio.c **** /* Private functions ---------------------------------------------------------*/
  30:../libDaisy/Middlewares/Third_Party/FatFs/src/diskio.c **** 
ARM GAS  /tmp/ccRhx9mK.s 			page 2


  31:../libDaisy/Middlewares/Third_Party/FatFs/src/diskio.c **** /**
  32:../libDaisy/Middlewares/Third_Party/FatFs/src/diskio.c ****   * @brief  Gets Disk Status
  33:../libDaisy/Middlewares/Third_Party/FatFs/src/diskio.c ****   * @param  pdrv: Physical drive number (0..)
  34:../libDaisy/Middlewares/Third_Party/FatFs/src/diskio.c ****   * @retval DSTATUS: Operation status
  35:../libDaisy/Middlewares/Third_Party/FatFs/src/diskio.c ****   */
  36:../libDaisy/Middlewares/Third_Party/FatFs/src/diskio.c **** DSTATUS disk_status (
  37:../libDaisy/Middlewares/Third_Party/FatFs/src/diskio.c **** 	BYTE pdrv		/* Physical drive number to identify the drive */
  38:../libDaisy/Middlewares/Third_Party/FatFs/src/diskio.c **** )
  39:../libDaisy/Middlewares/Third_Party/FatFs/src/diskio.c **** {
  29              		.loc 1 39 1 view -0
  30              		.cfi_startproc
  31              		@ args = 0, pretend = 0, frame = 0
  32              		@ frame_needed = 0, uses_anonymous_args = 0
  33              		@ link register save eliminated.
  40:../libDaisy/Middlewares/Third_Party/FatFs/src/diskio.c ****   DSTATUS stat;
  34              		.loc 1 40 3 view .LVU1
  41:../libDaisy/Middlewares/Third_Party/FatFs/src/diskio.c **** 
  42:../libDaisy/Middlewares/Third_Party/FatFs/src/diskio.c ****   stat = disk.drv[pdrv]->disk_status(disk.lun[pdrv]);
  35              		.loc 1 42 3 view .LVU2
  36              		.loc 1 42 10 is_stmt 0 view .LVU3
  37 0000 034B     		ldr	r3, .L2
  38 0002 1A18     		adds	r2, r3, r0
  39              		.loc 1 42 18 view .LVU4
  40 0004 03EB8003 		add	r3, r3, r0, lsl #2
  41              		.loc 1 42 24 view .LVU5
  42 0008 5B68     		ldr	r3, [r3, #4]
  43              		.loc 1 42 10 view .LVU6
  44 000a 107B     		ldrb	r0, [r2, #12]	@ zero_extendqisi2
  45              	.LVL1:
  46              		.loc 1 42 10 view .LVU7
  47 000c 5B68     		ldr	r3, [r3, #4]
  48 000e 1847     		bx	r3
  49              	.LVL2:
  50              	.L3:
  51              		.align	2
  52              	.L2:
  53 0010 00000000 		.word	disk
  54              		.cfi_endproc
  55              	.LFE320:
  57              		.section	.text.disk_initialize,"ax",%progbits
  58              		.align	1
  59              		.global	disk_initialize
  60              		.syntax unified
  61              		.thumb
  62              		.thumb_func
  63              		.fpu fpv5-d16
  65              	disk_initialize:
  66              	.LVL3:
  67              	.LFB321:
  43:../libDaisy/Middlewares/Third_Party/FatFs/src/diskio.c ****   return stat;
  44:../libDaisy/Middlewares/Third_Party/FatFs/src/diskio.c **** }
  45:../libDaisy/Middlewares/Third_Party/FatFs/src/diskio.c **** 
  46:../libDaisy/Middlewares/Third_Party/FatFs/src/diskio.c **** /**
  47:../libDaisy/Middlewares/Third_Party/FatFs/src/diskio.c ****   * @brief  Initializes a Drive
  48:../libDaisy/Middlewares/Third_Party/FatFs/src/diskio.c ****   * @param  pdrv: Physical drive number (0..)
  49:../libDaisy/Middlewares/Third_Party/FatFs/src/diskio.c ****   * @retval DSTATUS: Operation status
  50:../libDaisy/Middlewares/Third_Party/FatFs/src/diskio.c ****   */
ARM GAS  /tmp/ccRhx9mK.s 			page 3


  51:../libDaisy/Middlewares/Third_Party/FatFs/src/diskio.c **** DSTATUS disk_initialize (
  52:../libDaisy/Middlewares/Third_Party/FatFs/src/diskio.c **** 	BYTE pdrv				/* Physical drive nmuber to identify the drive */
  53:../libDaisy/Middlewares/Third_Party/FatFs/src/diskio.c **** )
  54:../libDaisy/Middlewares/Third_Party/FatFs/src/diskio.c **** {
  68              		.loc 1 54 1 is_stmt 1 view -0
  69              		.cfi_startproc
  70              		@ args = 0, pretend = 0, frame = 0
  71              		@ frame_needed = 0, uses_anonymous_args = 0
  72              		@ link register save eliminated.
  55:../libDaisy/Middlewares/Third_Party/FatFs/src/diskio.c ****   DSTATUS stat = RES_OK;
  73              		.loc 1 55 3 view .LVU9
  56:../libDaisy/Middlewares/Third_Party/FatFs/src/diskio.c **** 
  57:../libDaisy/Middlewares/Third_Party/FatFs/src/diskio.c ****   if(disk.is_initialized[pdrv] == 0)
  74              		.loc 1 57 3 view .LVU10
  75              		.loc 1 57 25 is_stmt 0 view .LVU11
  76 0000 064B     		ldr	r3, .L6
  77              		.loc 1 57 5 view .LVU12
  78 0002 1A5C     		ldrb	r2, [r3, r0]	@ zero_extendqisi2
  79 0004 42B9     		cbnz	r2, .L5
  58:../libDaisy/Middlewares/Third_Party/FatFs/src/diskio.c ****   {
  59:../libDaisy/Middlewares/Third_Party/FatFs/src/diskio.c ****     disk.is_initialized[pdrv] = 1;
  80              		.loc 1 59 5 is_stmt 1 view .LVU13
  81              		.loc 1 59 31 is_stmt 0 view .LVU14
  82 0006 0122     		movs	r2, #1
  83 0008 1A54     		strb	r2, [r3, r0]
  60:../libDaisy/Middlewares/Third_Party/FatFs/src/diskio.c ****     stat = disk.drv[pdrv]->disk_initialize(disk.lun[pdrv]);
  84              		.loc 1 60 5 is_stmt 1 view .LVU15
  85              		.loc 1 60 12 is_stmt 0 view .LVU16
  86 000a 1A18     		adds	r2, r3, r0
  87              		.loc 1 60 20 view .LVU17
  88 000c 03EB8003 		add	r3, r3, r0, lsl #2
  89              		.loc 1 60 12 view .LVU18
  90 0010 107B     		ldrb	r0, [r2, #12]	@ zero_extendqisi2
  91              	.LVL4:
  92              		.loc 1 60 26 view .LVU19
  93 0012 5B68     		ldr	r3, [r3, #4]
  94              		.loc 1 60 12 view .LVU20
  95 0014 1B68     		ldr	r3, [r3]
  96 0016 1847     		bx	r3
  97              	.LVL5:
  98              	.L5:
  61:../libDaisy/Middlewares/Third_Party/FatFs/src/diskio.c ****   }
  62:../libDaisy/Middlewares/Third_Party/FatFs/src/diskio.c ****   return stat;
  99              		.loc 1 62 3 is_stmt 1 view .LVU21
  63:../libDaisy/Middlewares/Third_Party/FatFs/src/diskio.c **** }
 100              		.loc 1 63 1 is_stmt 0 view .LVU22
 101 0018 0020     		movs	r0, #0
 102              	.LVL6:
 103              		.loc 1 63 1 view .LVU23
 104 001a 7047     		bx	lr
 105              	.L7:
 106              		.align	2
 107              	.L6:
 108 001c 00000000 		.word	disk
 109              		.cfi_endproc
 110              	.LFE321:
 112              		.section	.text.disk_read,"ax",%progbits
ARM GAS  /tmp/ccRhx9mK.s 			page 4


 113              		.align	1
 114              		.global	disk_read
 115              		.syntax unified
 116              		.thumb
 117              		.thumb_func
 118              		.fpu fpv5-d16
 120              	disk_read:
 121              	.LVL7:
 122              	.LFB322:
  64:../libDaisy/Middlewares/Third_Party/FatFs/src/diskio.c **** 
  65:../libDaisy/Middlewares/Third_Party/FatFs/src/diskio.c **** /**
  66:../libDaisy/Middlewares/Third_Party/FatFs/src/diskio.c ****   * @brief  Reads Sector(s)
  67:../libDaisy/Middlewares/Third_Party/FatFs/src/diskio.c ****   * @param  pdrv: Physical drive number (0..)
  68:../libDaisy/Middlewares/Third_Party/FatFs/src/diskio.c ****   * @param  *buff: Data buffer to store read data
  69:../libDaisy/Middlewares/Third_Party/FatFs/src/diskio.c ****   * @param  sector: Sector address (LBA)
  70:../libDaisy/Middlewares/Third_Party/FatFs/src/diskio.c ****   * @param  count: Number of sectors to read (1..128)
  71:../libDaisy/Middlewares/Third_Party/FatFs/src/diskio.c ****   * @retval DRESULT: Operation result
  72:../libDaisy/Middlewares/Third_Party/FatFs/src/diskio.c ****   */
  73:../libDaisy/Middlewares/Third_Party/FatFs/src/diskio.c **** DRESULT disk_read (
  74:../libDaisy/Middlewares/Third_Party/FatFs/src/diskio.c **** 	BYTE pdrv,		/* Physical drive nmuber to identify the drive */
  75:../libDaisy/Middlewares/Third_Party/FatFs/src/diskio.c **** 	BYTE *buff,		/* Data buffer to store read data */
  76:../libDaisy/Middlewares/Third_Party/FatFs/src/diskio.c **** 	DWORD sector,	        /* Sector address in LBA */
  77:../libDaisy/Middlewares/Third_Party/FatFs/src/diskio.c **** 	UINT count		/* Number of sectors to read */
  78:../libDaisy/Middlewares/Third_Party/FatFs/src/diskio.c **** )
  79:../libDaisy/Middlewares/Third_Party/FatFs/src/diskio.c **** {
 123              		.loc 1 79 1 is_stmt 1 view -0
 124              		.cfi_startproc
 125              		@ args = 0, pretend = 0, frame = 0
 126              		@ frame_needed = 0, uses_anonymous_args = 0
 127              		@ link register save eliminated.
  80:../libDaisy/Middlewares/Third_Party/FatFs/src/diskio.c ****   DRESULT res;
 128              		.loc 1 80 3 view .LVU25
  81:../libDaisy/Middlewares/Third_Party/FatFs/src/diskio.c **** 
  82:../libDaisy/Middlewares/Third_Party/FatFs/src/diskio.c ****   res = disk.drv[pdrv]->disk_read(disk.lun[pdrv], buff, sector, count);
 129              		.loc 1 82 3 view .LVU26
  79:../libDaisy/Middlewares/Third_Party/FatFs/src/diskio.c ****   DRESULT res;
 130              		.loc 1 79 1 is_stmt 0 view .LVU27
 131 0000 30B4     		push	{r4, r5}
 132              		.cfi_def_cfa_offset 8
 133              		.cfi_offset 4, -8
 134              		.cfi_offset 5, -4
 135              		.loc 1 82 9 view .LVU28
 136 0002 054C     		ldr	r4, .L9
 137 0004 2518     		adds	r5, r4, r0
 138              		.loc 1 82 17 view .LVU29
 139 0006 04EB8004 		add	r4, r4, r0, lsl #2
 140              		.loc 1 82 23 view .LVU30
 141 000a 6068     		ldr	r0, [r4, #4]
 142              	.LVL8:
 143              		.loc 1 82 9 view .LVU31
 144 000c 8468     		ldr	r4, [r0, #8]
 145 000e 287B     		ldrb	r0, [r5, #12]	@ zero_extendqisi2
 146 0010 A446     		mov	ip, r4
  83:../libDaisy/Middlewares/Third_Party/FatFs/src/diskio.c ****   return res;
  84:../libDaisy/Middlewares/Third_Party/FatFs/src/diskio.c **** }
 147              		.loc 1 84 1 view .LVU32
 148 0012 30BC     		pop	{r4, r5}
ARM GAS  /tmp/ccRhx9mK.s 			page 5


 149              		.cfi_restore 5
 150              		.cfi_restore 4
 151              		.cfi_def_cfa_offset 0
  82:../libDaisy/Middlewares/Third_Party/FatFs/src/diskio.c ****   return res;
 152              		.loc 1 82 9 view .LVU33
 153 0014 6047     		bx	ip
 154              	.LVL9:
 155              	.L10:
  82:../libDaisy/Middlewares/Third_Party/FatFs/src/diskio.c ****   return res;
 156              		.loc 1 82 9 view .LVU34
 157 0016 00BF     		.align	2
 158              	.L9:
 159 0018 00000000 		.word	disk
 160              		.cfi_endproc
 161              	.LFE322:
 163              		.section	.text.disk_write,"ax",%progbits
 164              		.align	1
 165              		.global	disk_write
 166              		.syntax unified
 167              		.thumb
 168              		.thumb_func
 169              		.fpu fpv5-d16
 171              	disk_write:
 172              	.LVL10:
 173              	.LFB323:
  85:../libDaisy/Middlewares/Third_Party/FatFs/src/diskio.c **** 
  86:../libDaisy/Middlewares/Third_Party/FatFs/src/diskio.c **** /**
  87:../libDaisy/Middlewares/Third_Party/FatFs/src/diskio.c ****   * @brief  Writes Sector(s)
  88:../libDaisy/Middlewares/Third_Party/FatFs/src/diskio.c ****   * @param  pdrv: Physical drive number (0..)
  89:../libDaisy/Middlewares/Third_Party/FatFs/src/diskio.c ****   * @param  *buff: Data to be written
  90:../libDaisy/Middlewares/Third_Party/FatFs/src/diskio.c ****   * @param  sector: Sector address (LBA)
  91:../libDaisy/Middlewares/Third_Party/FatFs/src/diskio.c ****   * @param  count: Number of sectors to write (1..128)
  92:../libDaisy/Middlewares/Third_Party/FatFs/src/diskio.c ****   * @retval DRESULT: Operation result
  93:../libDaisy/Middlewares/Third_Party/FatFs/src/diskio.c ****   */
  94:../libDaisy/Middlewares/Third_Party/FatFs/src/diskio.c **** #if _USE_WRITE == 1
  95:../libDaisy/Middlewares/Third_Party/FatFs/src/diskio.c **** DRESULT disk_write (
  96:../libDaisy/Middlewares/Third_Party/FatFs/src/diskio.c **** 	BYTE pdrv,		/* Physical drive nmuber to identify the drive */
  97:../libDaisy/Middlewares/Third_Party/FatFs/src/diskio.c **** 	const BYTE *buff,	/* Data to be written */
  98:../libDaisy/Middlewares/Third_Party/FatFs/src/diskio.c **** 	DWORD sector,		/* Sector address in LBA */
  99:../libDaisy/Middlewares/Third_Party/FatFs/src/diskio.c **** 	UINT count        	/* Number of sectors to write */
 100:../libDaisy/Middlewares/Third_Party/FatFs/src/diskio.c **** )
 101:../libDaisy/Middlewares/Third_Party/FatFs/src/diskio.c **** {
 174              		.loc 1 101 1 is_stmt 1 view -0
 175              		.cfi_startproc
 176              		@ args = 0, pretend = 0, frame = 0
 177              		@ frame_needed = 0, uses_anonymous_args = 0
 178              		@ link register save eliminated.
 102:../libDaisy/Middlewares/Third_Party/FatFs/src/diskio.c ****   DRESULT res;
 179              		.loc 1 102 3 view .LVU36
 103:../libDaisy/Middlewares/Third_Party/FatFs/src/diskio.c **** 
 104:../libDaisy/Middlewares/Third_Party/FatFs/src/diskio.c ****   res = disk.drv[pdrv]->disk_write(disk.lun[pdrv], buff, sector, count);
 180              		.loc 1 104 3 view .LVU37
 101:../libDaisy/Middlewares/Third_Party/FatFs/src/diskio.c ****   DRESULT res;
 181              		.loc 1 101 1 is_stmt 0 view .LVU38
 182 0000 30B4     		push	{r4, r5}
 183              		.cfi_def_cfa_offset 8
 184              		.cfi_offset 4, -8
ARM GAS  /tmp/ccRhx9mK.s 			page 6


 185              		.cfi_offset 5, -4
 186              		.loc 1 104 9 view .LVU39
 187 0002 054C     		ldr	r4, .L12
 188 0004 2518     		adds	r5, r4, r0
 189              		.loc 1 104 17 view .LVU40
 190 0006 04EB8004 		add	r4, r4, r0, lsl #2
 191              		.loc 1 104 23 view .LVU41
 192 000a 6068     		ldr	r0, [r4, #4]
 193              	.LVL11:
 194              		.loc 1 104 9 view .LVU42
 195 000c C468     		ldr	r4, [r0, #12]
 196 000e 287B     		ldrb	r0, [r5, #12]	@ zero_extendqisi2
 197 0010 A446     		mov	ip, r4
 105:../libDaisy/Middlewares/Third_Party/FatFs/src/diskio.c ****   return res;
 106:../libDaisy/Middlewares/Third_Party/FatFs/src/diskio.c **** }
 198              		.loc 1 106 1 view .LVU43
 199 0012 30BC     		pop	{r4, r5}
 200              		.cfi_restore 5
 201              		.cfi_restore 4
 202              		.cfi_def_cfa_offset 0
 104:../libDaisy/Middlewares/Third_Party/FatFs/src/diskio.c ****   return res;
 203              		.loc 1 104 9 view .LVU44
 204 0014 6047     		bx	ip
 205              	.LVL12:
 206              	.L13:
 104:../libDaisy/Middlewares/Third_Party/FatFs/src/diskio.c ****   return res;
 207              		.loc 1 104 9 view .LVU45
 208 0016 00BF     		.align	2
 209              	.L12:
 210 0018 00000000 		.word	disk
 211              		.cfi_endproc
 212              	.LFE323:
 214              		.section	.text.disk_ioctl,"ax",%progbits
 215              		.align	1
 216              		.global	disk_ioctl
 217              		.syntax unified
 218              		.thumb
 219              		.thumb_func
 220              		.fpu fpv5-d16
 222              	disk_ioctl:
 223              	.LVL13:
 224              	.LFB324:
 107:../libDaisy/Middlewares/Third_Party/FatFs/src/diskio.c **** #endif /* _USE_WRITE == 1 */
 108:../libDaisy/Middlewares/Third_Party/FatFs/src/diskio.c **** 
 109:../libDaisy/Middlewares/Third_Party/FatFs/src/diskio.c **** /**
 110:../libDaisy/Middlewares/Third_Party/FatFs/src/diskio.c ****   * @brief  I/O control operation
 111:../libDaisy/Middlewares/Third_Party/FatFs/src/diskio.c ****   * @param  pdrv: Physical drive number (0..)
 112:../libDaisy/Middlewares/Third_Party/FatFs/src/diskio.c ****   * @param  cmd: Control code
 113:../libDaisy/Middlewares/Third_Party/FatFs/src/diskio.c ****   * @param  *buff: Buffer to send/receive control data
 114:../libDaisy/Middlewares/Third_Party/FatFs/src/diskio.c ****   * @retval DRESULT: Operation result
 115:../libDaisy/Middlewares/Third_Party/FatFs/src/diskio.c ****   */
 116:../libDaisy/Middlewares/Third_Party/FatFs/src/diskio.c **** #if _USE_IOCTL == 1
 117:../libDaisy/Middlewares/Third_Party/FatFs/src/diskio.c **** DRESULT disk_ioctl (
 118:../libDaisy/Middlewares/Third_Party/FatFs/src/diskio.c **** 	BYTE pdrv,		/* Physical drive nmuber (0..) */
 119:../libDaisy/Middlewares/Third_Party/FatFs/src/diskio.c **** 	BYTE cmd,		/* Control code */
 120:../libDaisy/Middlewares/Third_Party/FatFs/src/diskio.c **** 	void *buff		/* Buffer to send/receive control data */
 121:../libDaisy/Middlewares/Third_Party/FatFs/src/diskio.c **** )
ARM GAS  /tmp/ccRhx9mK.s 			page 7


 122:../libDaisy/Middlewares/Third_Party/FatFs/src/diskio.c **** {
 225              		.loc 1 122 1 is_stmt 1 view -0
 226              		.cfi_startproc
 227              		@ args = 0, pretend = 0, frame = 0
 228              		@ frame_needed = 0, uses_anonymous_args = 0
 229              		@ link register save eliminated.
 123:../libDaisy/Middlewares/Third_Party/FatFs/src/diskio.c ****   DRESULT res;
 230              		.loc 1 123 3 view .LVU47
 124:../libDaisy/Middlewares/Third_Party/FatFs/src/diskio.c **** 
 125:../libDaisy/Middlewares/Third_Party/FatFs/src/diskio.c ****   res = disk.drv[pdrv]->disk_ioctl(disk.lun[pdrv], cmd, buff);
 231              		.loc 1 125 3 view .LVU48
 232              		.loc 1 125 9 is_stmt 0 view .LVU49
 233 0000 054B     		ldr	r3, .L15
 122:../libDaisy/Middlewares/Third_Party/FatFs/src/diskio.c ****   DRESULT res;
 234              		.loc 1 122 1 view .LVU50
 235 0002 10B4     		push	{r4}
 236              		.cfi_def_cfa_offset 4
 237              		.cfi_offset 4, -4
 238              		.loc 1 125 9 view .LVU51
 239 0004 1C18     		adds	r4, r3, r0
 240              		.loc 1 125 17 view .LVU52
 241 0006 03EB8003 		add	r3, r3, r0, lsl #2
 242              		.loc 1 125 23 view .LVU53
 243 000a 5B68     		ldr	r3, [r3, #4]
 244              		.loc 1 125 9 view .LVU54
 245 000c 207B     		ldrb	r0, [r4, #12]	@ zero_extendqisi2
 246              	.LVL14:
 247              		.loc 1 125 9 view .LVU55
 248 000e 1B69     		ldr	r3, [r3, #16]
 126:../libDaisy/Middlewares/Third_Party/FatFs/src/diskio.c ****   return res;
 127:../libDaisy/Middlewares/Third_Party/FatFs/src/diskio.c **** }
 249              		.loc 1 127 1 view .LVU56
 250 0010 5DF8044B 		ldr	r4, [sp], #4
 251              		.cfi_restore 4
 252              		.cfi_def_cfa_offset 0
 125:../libDaisy/Middlewares/Third_Party/FatFs/src/diskio.c ****   return res;
 253              		.loc 1 125 9 view .LVU57
 254 0014 1847     		bx	r3
 255              	.LVL15:
 256              	.L16:
 125:../libDaisy/Middlewares/Third_Party/FatFs/src/diskio.c ****   return res;
 257              		.loc 1 125 9 view .LVU58
 258 0016 00BF     		.align	2
 259              	.L15:
 260 0018 00000000 		.word	disk
 261              		.cfi_endproc
 262              	.LFE324:
 264              		.section	.text.get_fattime,"ax",%progbits
 265              		.align	1
 266              		.weak	get_fattime
 267              		.syntax unified
 268              		.thumb
 269              		.thumb_func
 270              		.fpu fpv5-d16
 272              	get_fattime:
 273              	.LFB325:
 128:../libDaisy/Middlewares/Third_Party/FatFs/src/diskio.c **** #endif /* _USE_IOCTL == 1 */
ARM GAS  /tmp/ccRhx9mK.s 			page 8


 129:../libDaisy/Middlewares/Third_Party/FatFs/src/diskio.c **** 
 130:../libDaisy/Middlewares/Third_Party/FatFs/src/diskio.c **** /**
 131:../libDaisy/Middlewares/Third_Party/FatFs/src/diskio.c ****   * @brief  Gets Time from RTC
 132:../libDaisy/Middlewares/Third_Party/FatFs/src/diskio.c ****   * @param  None
 133:../libDaisy/Middlewares/Third_Party/FatFs/src/diskio.c ****   * @retval Time in DWORD
 134:../libDaisy/Middlewares/Third_Party/FatFs/src/diskio.c ****   */
 135:../libDaisy/Middlewares/Third_Party/FatFs/src/diskio.c **** __weak DWORD get_fattime (void)
 136:../libDaisy/Middlewares/Third_Party/FatFs/src/diskio.c **** {
 274              		.loc 1 136 1 is_stmt 1 view -0
 275              		.cfi_startproc
 276              		@ args = 0, pretend = 0, frame = 0
 277              		@ frame_needed = 0, uses_anonymous_args = 0
 278              		@ link register save eliminated.
 137:../libDaisy/Middlewares/Third_Party/FatFs/src/diskio.c ****   return 0;
 279              		.loc 1 137 3 view .LVU60
 138:../libDaisy/Middlewares/Third_Party/FatFs/src/diskio.c **** }
 280              		.loc 1 138 1 is_stmt 0 view .LVU61
 281 0000 0020     		movs	r0, #0
 282 0002 7047     		bx	lr
 283              		.cfi_endproc
 284              	.LFE325:
 286              		.text
 287              	.Letext0:
 288              		.file 2 "/home/hubert/daisy/gcc/arm-none-eabi/include/machine/_default_types.h"
 289              		.file 3 "/home/hubert/daisy/gcc/arm-none-eabi/include/sys/_stdint.h"
 290              		.file 4 "../libDaisy/Middlewares/Third_Party/FatFs/src/integer.h"
 291              		.file 5 "../libDaisy/Middlewares/Third_Party/FatFs/src/diskio.h"
 292              		.file 6 "../libDaisy/Middlewares/Third_Party/FatFs/src/ff_gen_drv.h"
ARM GAS  /tmp/ccRhx9mK.s 			page 9

