ARM GAS  /tmp/ccfXsGBh.s 			page 1


   1              		.cpu cortex-m7
   2              		.eabi_attribute 28, 1
   3              		.eabi_attribute 20, 1
   4              		.eabi_attribute 21, 1
   5              		.eabi_attribute 23, 3
   6              		.eabi_attribute 24, 1
   7              		.eabi_attribute 25, 1
   8              		.eabi_attribute 26, 1
   9              		.eabi_attribute 30, 4
  10              		.eabi_attribute 34, 1
  11              		.eabi_attribute 18, 4
  12              		.file	"kxmx_bluemchen.cpp"
  13              		.text
  14              	.Ltext0:
  15              		.cfi_sections	.debug_frame
  16              		.section	.text._ZN5daisy19SSD130xI2CTransport11SendCommandEh,"axG",%progbits,_ZN5daisy19SSD130xI2C
  17              		.align	1
  18              		.weak	_ZN5daisy19SSD130xI2CTransport11SendCommandEh
  19              		.arch armv7e-m
  20              		.syntax unified
  21              		.thumb
  22              		.thumb_func
  23              		.fpu fpv5-d16
  25              	_ZN5daisy19SSD130xI2CTransport11SendCommandEh:
  26              	.LVL0:
  27              	.LFB2565:
  28              		.file 1 "../libDaisy/src/dev/oled_ssd130x.h"
   1:../libDaisy/src/dev/oled_ssd130x.h **** #pragma once
   2:../libDaisy/src/dev/oled_ssd130x.h **** #ifndef SA_OLED_SSD130X_H
   3:../libDaisy/src/dev/oled_ssd130x.h **** #define SA_OLED_SSD130X_H /**< & */
   4:../libDaisy/src/dev/oled_ssd130x.h **** 
   5:../libDaisy/src/dev/oled_ssd130x.h **** #include "per/i2c.h"
   6:../libDaisy/src/dev/oled_ssd130x.h **** #include "per/spi.h"
   7:../libDaisy/src/dev/oled_ssd130x.h **** #include "per/gpio.h"
   8:../libDaisy/src/dev/oled_ssd130x.h **** #include "sys/system.h"
   9:../libDaisy/src/dev/oled_ssd130x.h **** 
  10:../libDaisy/src/dev/oled_ssd130x.h **** namespace daisy
  11:../libDaisy/src/dev/oled_ssd130x.h **** {
  12:../libDaisy/src/dev/oled_ssd130x.h **** /**
  13:../libDaisy/src/dev/oled_ssd130x.h ****  * I2C Transport for SSD1306 / SSD1309 OLED display devices
  14:../libDaisy/src/dev/oled_ssd130x.h ****  */
  15:../libDaisy/src/dev/oled_ssd130x.h **** class SSD130xI2CTransport
  16:../libDaisy/src/dev/oled_ssd130x.h **** {
  17:../libDaisy/src/dev/oled_ssd130x.h ****   public:
  18:../libDaisy/src/dev/oled_ssd130x.h ****     struct Config
  19:../libDaisy/src/dev/oled_ssd130x.h ****     {
  20:../libDaisy/src/dev/oled_ssd130x.h ****         Config()
  21:../libDaisy/src/dev/oled_ssd130x.h ****         {
  22:../libDaisy/src/dev/oled_ssd130x.h ****             // Intialize using defaults
  23:../libDaisy/src/dev/oled_ssd130x.h ****             Defaults();
  24:../libDaisy/src/dev/oled_ssd130x.h ****         }
  25:../libDaisy/src/dev/oled_ssd130x.h ****         I2CHandle::Config i2c_config;
  26:../libDaisy/src/dev/oled_ssd130x.h ****         uint8_t           i2c_address;
  27:../libDaisy/src/dev/oled_ssd130x.h ****         void              Defaults()
  28:../libDaisy/src/dev/oled_ssd130x.h ****         {
  29:../libDaisy/src/dev/oled_ssd130x.h ****             i2c_config.periph         = I2CHandle::Config::Peripheral::I2C_1;
  30:../libDaisy/src/dev/oled_ssd130x.h ****             i2c_config.speed          = I2CHandle::Config::Speed::I2C_1MHZ;
ARM GAS  /tmp/ccfXsGBh.s 			page 2


  31:../libDaisy/src/dev/oled_ssd130x.h ****             i2c_config.mode           = I2CHandle::Config::Mode::I2C_MASTER;
  32:../libDaisy/src/dev/oled_ssd130x.h ****             i2c_config.pin_config.scl = {DSY_GPIOB, 8};
  33:../libDaisy/src/dev/oled_ssd130x.h ****             i2c_config.pin_config.sda = {DSY_GPIOB, 9};
  34:../libDaisy/src/dev/oled_ssd130x.h ****             i2c_address               = 0x3C;
  35:../libDaisy/src/dev/oled_ssd130x.h ****         }
  36:../libDaisy/src/dev/oled_ssd130x.h ****     };
  37:../libDaisy/src/dev/oled_ssd130x.h ****     void Init(const Config& config)
  38:../libDaisy/src/dev/oled_ssd130x.h ****     {
  39:../libDaisy/src/dev/oled_ssd130x.h ****         i2c_address_ = config.i2c_address;
  40:../libDaisy/src/dev/oled_ssd130x.h ****         i2c_.Init(config.i2c_config);
  41:../libDaisy/src/dev/oled_ssd130x.h ****     };
  42:../libDaisy/src/dev/oled_ssd130x.h ****     void SendCommand(uint8_t cmd)
  29              		.loc 1 42 10 view -0
  30              		.cfi_startproc
  31              		@ args = 0, pretend = 0, frame = 8
  32              		@ frame_needed = 0, uses_anonymous_args = 0
  43:../libDaisy/src/dev/oled_ssd130x.h ****     {
  44:../libDaisy/src/dev/oled_ssd130x.h ****         uint8_t buf[2] = {0X00, cmd};
  33              		.loc 1 44 9 view .LVU1
  42:../libDaisy/src/dev/oled_ssd130x.h ****     {
  34              		.loc 1 42 10 is_stmt 0 view .LVU2
  35 0000 1FB5     		push	{r0, r1, r2, r3, r4, lr}
  36              		.cfi_def_cfa_offset 24
  37              		.cfi_offset 14, -4
  38              		.loc 1 44 17 view .LVU3
  39 0002 0023     		movs	r3, #0
  40              		.loc 1 44 36 view .LVU4
  41 0004 8DF80D10 		strb	r1, [sp, #13]
  45:../libDaisy/src/dev/oled_ssd130x.h ****         i2c_.TransmitBlocking(i2c_address_, buf, 2, 1000);
  42              		.loc 1 45 9 is_stmt 1 view .LVU5
  43              		.loc 1 45 30 is_stmt 0 view .LVU6
  44 0008 03AA     		add	r2, sp, #12
  45 000a 0179     		ldrb	r1, [r0, #4]	@ zero_extendqisi2
  46              	.LVL1:
  44:../libDaisy/src/dev/oled_ssd130x.h ****         i2c_.TransmitBlocking(i2c_address_, buf, 2, 1000);
  47              		.loc 1 44 17 view .LVU7
  48 000c 8DF80C30 		strb	r3, [sp, #12]
  49              		.loc 1 45 30 view .LVU8
  50 0010 4FF47A73 		mov	r3, #1000
  51 0014 0093     		str	r3, [sp]
  52 0016 0223     		movs	r3, #2
  53 0018 FFF7FEFF 		bl	_ZN5daisy9I2CHandle16TransmitBlockingEtPhtm
  54              	.LVL2:
  46:../libDaisy/src/dev/oled_ssd130x.h ****     };
  55              		.loc 1 46 5 view .LVU9
  56 001c 05B0     		add	sp, sp, #20
  57              		.cfi_def_cfa_offset 4
  58              		@ sp needed
  59 001e 5DF804FB 		ldr	pc, [sp], #4
  60              		.cfi_endproc
  61              	.LFE2565:
  63              		.section	.text._ZN4kxmx9Bluemchen18SetAudioSampleRateEN5daisy9SaiHandle6Config10SampleRateE,"ax",%
  64              		.align	1
  65              		.global	_ZN4kxmx9Bluemchen18SetAudioSampleRateEN5daisy9SaiHandle6Config10SampleRateE
  66              		.syntax unified
  67              		.thumb
  68              		.thumb_func
ARM GAS  /tmp/ccfXsGBh.s 			page 3


  69              		.fpu fpv5-d16
  71              	_ZN4kxmx9Bluemchen18SetAudioSampleRateEN5daisy9SaiHandle6Config10SampleRateE:
  72              	.LVL3:
  73              	.LFB2596:
  74              		.file 2 "../kxmx_bluemchen/src/kxmx_bluemchen.cpp"
   1:../kxmx_bluemchen/src/kxmx_bluemchen.cpp **** #include "kxmx_bluemchen.h"
   2:../kxmx_bluemchen/src/kxmx_bluemchen.cpp **** 
   3:../kxmx_bluemchen/src/kxmx_bluemchen.cpp **** using namespace kxmx;
   4:../kxmx_bluemchen/src/kxmx_bluemchen.cpp **** 
   5:../kxmx_bluemchen/src/kxmx_bluemchen.cpp **** #define PIN_ENC_CLICK 28
   6:../kxmx_bluemchen/src/kxmx_bluemchen.cpp **** #define PIN_ENC_B 26
   7:../kxmx_bluemchen/src/kxmx_bluemchen.cpp **** #define PIN_ENC_A 27
   8:../kxmx_bluemchen/src/kxmx_bluemchen.cpp **** 
   9:../kxmx_bluemchen/src/kxmx_bluemchen.cpp **** #define PIN_KNOB_1 16
  10:../kxmx_bluemchen/src/kxmx_bluemchen.cpp **** #define PIN_KNOB_2 15
  11:../kxmx_bluemchen/src/kxmx_bluemchen.cpp **** 
  12:../kxmx_bluemchen/src/kxmx_bluemchen.cpp **** #define PIN_CV_1 21
  13:../kxmx_bluemchen/src/kxmx_bluemchen.cpp **** #define PIN_CV_2 18
  14:../kxmx_bluemchen/src/kxmx_bluemchen.cpp **** 
  15:../kxmx_bluemchen/src/kxmx_bluemchen.cpp **** daisy::SdmmcHandler::Config sdmmc_cfg;
  16:../kxmx_bluemchen/src/kxmx_bluemchen.cpp **** 
  17:../kxmx_bluemchen/src/kxmx_bluemchen.cpp **** void Bluemchen::Init()
  18:../kxmx_bluemchen/src/kxmx_bluemchen.cpp **** {
  19:../kxmx_bluemchen/src/kxmx_bluemchen.cpp ****     seed.Configure();
  20:../kxmx_bluemchen/src/kxmx_bluemchen.cpp ****     seed.Init(true);
  21:../kxmx_bluemchen/src/kxmx_bluemchen.cpp ****     InitEncoder();
  22:../kxmx_bluemchen/src/kxmx_bluemchen.cpp ****     InitDisplay();
  23:../kxmx_bluemchen/src/kxmx_bluemchen.cpp ****     InitMidi();
  24:../kxmx_bluemchen/src/kxmx_bluemchen.cpp ****     InitControls();
  25:../kxmx_bluemchen/src/kxmx_bluemchen.cpp ****     InitMicroSD();
  26:../kxmx_bluemchen/src/kxmx_bluemchen.cpp **** 
  27:../kxmx_bluemchen/src/kxmx_bluemchen.cpp ****     daisy::DacHandle::Config cfg;
  28:../kxmx_bluemchen/src/kxmx_bluemchen.cpp ****     cfg.bitdepth   = daisy::DacHandle::BitDepth::BITS_12;
  29:../kxmx_bluemchen/src/kxmx_bluemchen.cpp ****     cfg.buff_state = daisy::DacHandle::BufferState::ENABLED;
  30:../kxmx_bluemchen/src/kxmx_bluemchen.cpp ****     cfg.mode       = daisy::DacHandle::Mode::POLLING;
  31:../kxmx_bluemchen/src/kxmx_bluemchen.cpp ****     cfg.chn        = daisy::DacHandle::Channel::BOTH;
  32:../kxmx_bluemchen/src/kxmx_bluemchen.cpp ****     seed.dac.Init(cfg);
  33:../kxmx_bluemchen/src/kxmx_bluemchen.cpp ****     seed.dac.WriteValue(daisy::DacHandle::Channel::BOTH, 0);
  34:../kxmx_bluemchen/src/kxmx_bluemchen.cpp **** }
  35:../kxmx_bluemchen/src/kxmx_bluemchen.cpp **** 
  36:../kxmx_bluemchen/src/kxmx_bluemchen.cpp **** void Bluemchen::SetAudioSampleRate(daisy::SaiHandle::Config::SampleRate sr)
  37:../kxmx_bluemchen/src/kxmx_bluemchen.cpp **** {
  75              		.loc 2 37 1 is_stmt 1 view -0
  76              		.cfi_startproc
  77              		@ args = 0, pretend = 0, frame = 0
  78              		@ frame_needed = 0, uses_anonymous_args = 0
  79              		@ link register save eliminated.
  38:../kxmx_bluemchen/src/kxmx_bluemchen.cpp ****     seed.SetAudioSampleRate(sr);
  80              		.loc 2 38 5 view .LVU11
  81              		.loc 2 38 28 is_stmt 0 view .LVU12
  82 0000 FFF7FEBF 		b	_ZN5daisy9DaisySeed18SetAudioSampleRateENS_9SaiHandle6Config10SampleRateE
  83              	.LVL4:
  84              		.loc 2 38 28 view .LVU13
  85              		.cfi_endproc
  86              	.LFE2596:
  88              		.section	.text._ZN4kxmx9Bluemchen15AudioSampleRateEv,"ax",%progbits
  89              		.align	1
ARM GAS  /tmp/ccfXsGBh.s 			page 4


  90              		.global	_ZN4kxmx9Bluemchen15AudioSampleRateEv
  91              		.syntax unified
  92              		.thumb
  93              		.thumb_func
  94              		.fpu fpv5-d16
  96              	_ZN4kxmx9Bluemchen15AudioSampleRateEv:
  97              	.LVL5:
  98              	.LFB2597:
  39:../kxmx_bluemchen/src/kxmx_bluemchen.cpp **** }
  40:../kxmx_bluemchen/src/kxmx_bluemchen.cpp **** 
  41:../kxmx_bluemchen/src/kxmx_bluemchen.cpp **** float Bluemchen::AudioSampleRate()
  42:../kxmx_bluemchen/src/kxmx_bluemchen.cpp **** {
  99              		.loc 2 42 1 is_stmt 1 view -0
 100              		.cfi_startproc
 101              		@ args = 0, pretend = 0, frame = 0
 102              		@ frame_needed = 0, uses_anonymous_args = 0
 103              		@ link register save eliminated.
  43:../kxmx_bluemchen/src/kxmx_bluemchen.cpp ****     return seed.AudioSampleRate();
 104              		.loc 2 43 5 view .LVU15
 105              		.loc 2 43 32 is_stmt 0 view .LVU16
 106 0000 FFF7FEBF 		b	_ZN5daisy9DaisySeed15AudioSampleRateEv
 107              	.LVL6:
 108              		.loc 2 43 32 view .LVU17
 109              		.cfi_endproc
 110              	.LFE2597:
 112              		.section	.text._ZN4kxmx9Bluemchen17SetAudioBlockSizeEj,"ax",%progbits
 113              		.align	1
 114              		.global	_ZN4kxmx9Bluemchen17SetAudioBlockSizeEj
 115              		.syntax unified
 116              		.thumb
 117              		.thumb_func
 118              		.fpu fpv5-d16
 120              	_ZN4kxmx9Bluemchen17SetAudioBlockSizeEj:
 121              	.LVL7:
 122              	.LFB2598:
  44:../kxmx_bluemchen/src/kxmx_bluemchen.cpp **** }
  45:../kxmx_bluemchen/src/kxmx_bluemchen.cpp **** 
  46:../kxmx_bluemchen/src/kxmx_bluemchen.cpp **** void Bluemchen::SetAudioBlockSize(size_t size)
  47:../kxmx_bluemchen/src/kxmx_bluemchen.cpp **** {
 123              		.loc 2 47 1 is_stmt 1 view -0
 124              		.cfi_startproc
 125              		@ args = 0, pretend = 0, frame = 0
 126              		@ frame_needed = 0, uses_anonymous_args = 0
 127              		@ link register save eliminated.
  48:../kxmx_bluemchen/src/kxmx_bluemchen.cpp ****     seed.SetAudioBlockSize(size);
 128              		.loc 2 48 5 view .LVU19
 129              		.loc 2 48 27 is_stmt 0 view .LVU20
 130 0000 FFF7FEBF 		b	_ZN5daisy9DaisySeed17SetAudioBlockSizeEj
 131              	.LVL8:
 132              		.loc 2 48 27 view .LVU21
 133              		.cfi_endproc
 134              	.LFE2598:
 136              		.section	.text._ZN4kxmx9Bluemchen14AudioBlockSizeEv,"ax",%progbits
 137              		.align	1
 138              		.global	_ZN4kxmx9Bluemchen14AudioBlockSizeEv
 139              		.syntax unified
 140              		.thumb
ARM GAS  /tmp/ccfXsGBh.s 			page 5


 141              		.thumb_func
 142              		.fpu fpv5-d16
 144              	_ZN4kxmx9Bluemchen14AudioBlockSizeEv:
 145              	.LVL9:
 146              	.LFB2599:
  49:../kxmx_bluemchen/src/kxmx_bluemchen.cpp **** }
  50:../kxmx_bluemchen/src/kxmx_bluemchen.cpp **** 
  51:../kxmx_bluemchen/src/kxmx_bluemchen.cpp **** size_t Bluemchen::AudioBlockSize()
  52:../kxmx_bluemchen/src/kxmx_bluemchen.cpp **** {
 147              		.loc 2 52 1 is_stmt 1 view -0
 148              		.cfi_startproc
 149              		@ args = 0, pretend = 0, frame = 0
 150              		@ frame_needed = 0, uses_anonymous_args = 0
 151              		@ link register save eliminated.
  53:../kxmx_bluemchen/src/kxmx_bluemchen.cpp ****     return seed.AudioBlockSize();
 152              		.loc 2 53 5 view .LVU23
 153              		.loc 2 53 31 is_stmt 0 view .LVU24
 154 0000 FFF7FEBF 		b	_ZN5daisy9DaisySeed14AudioBlockSizeEv
 155              	.LVL10:
 156              		.loc 2 53 31 view .LVU25
 157              		.cfi_endproc
 158              	.LFE2599:
 160              		.section	.text._ZN4kxmx9Bluemchen17AudioCallbackRateEv,"ax",%progbits
 161              		.align	1
 162              		.global	_ZN4kxmx9Bluemchen17AudioCallbackRateEv
 163              		.syntax unified
 164              		.thumb
 165              		.thumb_func
 166              		.fpu fpv5-d16
 168              	_ZN4kxmx9Bluemchen17AudioCallbackRateEv:
 169              	.LVL11:
 170              	.LFB2600:
  54:../kxmx_bluemchen/src/kxmx_bluemchen.cpp **** }
  55:../kxmx_bluemchen/src/kxmx_bluemchen.cpp **** 
  56:../kxmx_bluemchen/src/kxmx_bluemchen.cpp **** float Bluemchen::AudioCallbackRate()
  57:../kxmx_bluemchen/src/kxmx_bluemchen.cpp **** {
 171              		.loc 2 57 1 is_stmt 1 view -0
 172              		.cfi_startproc
 173              		@ args = 0, pretend = 0, frame = 0
 174              		@ frame_needed = 0, uses_anonymous_args = 0
 175              		@ link register save eliminated.
  58:../kxmx_bluemchen/src/kxmx_bluemchen.cpp ****     return seed.AudioCallbackRate();
 176              		.loc 2 58 5 view .LVU27
 177              		.loc 2 58 34 is_stmt 0 view .LVU28
 178 0000 FFF7FEBF 		b	_ZNK5daisy9DaisySeed17AudioCallbackRateEv
 179              	.LVL12:
 180              		.loc 2 58 34 view .LVU29
 181              		.cfi_endproc
 182              	.LFE2600:
 184              		.section	.text._ZN4kxmx9Bluemchen10StartAudioEPFvPKPKfPPfjE,"ax",%progbits
 185              		.align	1
 186              		.global	_ZN4kxmx9Bluemchen10StartAudioEPFvPKPKfPPfjE
 187              		.syntax unified
 188              		.thumb
 189              		.thumb_func
 190              		.fpu fpv5-d16
 192              	_ZN4kxmx9Bluemchen10StartAudioEPFvPKPKfPPfjE:
ARM GAS  /tmp/ccfXsGBh.s 			page 6


 193              	.LVL13:
 194              	.LFB2601:
  59:../kxmx_bluemchen/src/kxmx_bluemchen.cpp **** }
  60:../kxmx_bluemchen/src/kxmx_bluemchen.cpp **** 
  61:../kxmx_bluemchen/src/kxmx_bluemchen.cpp **** void Bluemchen::StartAudio(daisy::AudioHandle::AudioCallback cb)
  62:../kxmx_bluemchen/src/kxmx_bluemchen.cpp **** {
 195              		.loc 2 62 1 is_stmt 1 view -0
 196              		.cfi_startproc
 197              		@ args = 0, pretend = 0, frame = 0
 198              		@ frame_needed = 0, uses_anonymous_args = 0
 199              		@ link register save eliminated.
  63:../kxmx_bluemchen/src/kxmx_bluemchen.cpp ****     seed.StartAudio(cb);
 200              		.loc 2 63 5 view .LVU31
 201              		.loc 2 63 20 is_stmt 0 view .LVU32
 202 0000 FFF7FEBF 		b	_ZN5daisy9DaisySeed10StartAudioEPFvPKPKfPPfjE
 203              	.LVL14:
 204              		.loc 2 63 20 view .LVU33
 205              		.cfi_endproc
 206              	.LFE2601:
 208              		.section	.text._ZN4kxmx9Bluemchen10StartAudioEPFvPKfPfjE,"ax",%progbits
 209              		.align	1
 210              		.global	_ZN4kxmx9Bluemchen10StartAudioEPFvPKfPfjE
 211              		.syntax unified
 212              		.thumb
 213              		.thumb_func
 214              		.fpu fpv5-d16
 216              	_ZN4kxmx9Bluemchen10StartAudioEPFvPKfPfjE:
 217              	.LVL15:
 218              	.LFB2602:
  64:../kxmx_bluemchen/src/kxmx_bluemchen.cpp **** }
  65:../kxmx_bluemchen/src/kxmx_bluemchen.cpp **** 
  66:../kxmx_bluemchen/src/kxmx_bluemchen.cpp **** void Bluemchen::StartAudio(daisy::AudioHandle::InterleavingAudioCallback cb)
  67:../kxmx_bluemchen/src/kxmx_bluemchen.cpp **** {
 219              		.loc 2 67 1 is_stmt 1 view -0
 220              		.cfi_startproc
 221              		@ args = 0, pretend = 0, frame = 0
 222              		@ frame_needed = 0, uses_anonymous_args = 0
 223              		@ link register save eliminated.
  68:../kxmx_bluemchen/src/kxmx_bluemchen.cpp ****     seed.StartAudio(cb);
 224              		.loc 2 68 5 view .LVU35
 225              		.loc 2 68 20 is_stmt 0 view .LVU36
 226 0000 FFF7FEBF 		b	_ZN5daisy9DaisySeed10StartAudioEPFvPKfPfjE
 227              	.LVL16:
 228              		.loc 2 68 20 view .LVU37
 229              		.cfi_endproc
 230              	.LFE2602:
 232              		.section	.text._ZN4kxmx9Bluemchen9StopAudioEv,"ax",%progbits
 233              		.align	1
 234              		.global	_ZN4kxmx9Bluemchen9StopAudioEv
 235              		.syntax unified
 236              		.thumb
 237              		.thumb_func
 238              		.fpu fpv5-d16
 240              	_ZN4kxmx9Bluemchen9StopAudioEv:
 241              	.LVL17:
 242              	.LFB2603:
  69:../kxmx_bluemchen/src/kxmx_bluemchen.cpp **** }
ARM GAS  /tmp/ccfXsGBh.s 			page 7


  70:../kxmx_bluemchen/src/kxmx_bluemchen.cpp **** 
  71:../kxmx_bluemchen/src/kxmx_bluemchen.cpp **** void Bluemchen::StopAudio()
  72:../kxmx_bluemchen/src/kxmx_bluemchen.cpp **** {
 243              		.loc 2 72 1 is_stmt 1 view -0
 244              		.cfi_startproc
 245              		@ args = 0, pretend = 0, frame = 0
 246              		@ frame_needed = 0, uses_anonymous_args = 0
 247              		@ link register save eliminated.
  73:../kxmx_bluemchen/src/kxmx_bluemchen.cpp ****     seed.StopAudio();
 248              		.loc 2 73 5 view .LVU39
 249              		.loc 2 73 19 is_stmt 0 view .LVU40
 250 0000 FFF7FEBF 		b	_ZN5daisy9DaisySeed9StopAudioEv
 251              	.LVL18:
 252              		.loc 2 73 19 view .LVU41
 253              		.cfi_endproc
 254              	.LFE2603:
 256              		.section	.text._ZN4kxmx9Bluemchen19ChangeAudioCallbackEPFvPKPKfPPfjE,"ax",%progbits
 257              		.align	1
 258              		.global	_ZN4kxmx9Bluemchen19ChangeAudioCallbackEPFvPKPKfPPfjE
 259              		.syntax unified
 260              		.thumb
 261              		.thumb_func
 262              		.fpu fpv5-d16
 264              	_ZN4kxmx9Bluemchen19ChangeAudioCallbackEPFvPKPKfPPfjE:
 265              	.LVL19:
 266              	.LFB2604:
  74:../kxmx_bluemchen/src/kxmx_bluemchen.cpp **** }
  75:../kxmx_bluemchen/src/kxmx_bluemchen.cpp **** 
  76:../kxmx_bluemchen/src/kxmx_bluemchen.cpp **** void Bluemchen::ChangeAudioCallback(daisy::AudioHandle::AudioCallback cb)
  77:../kxmx_bluemchen/src/kxmx_bluemchen.cpp **** {
 267              		.loc 2 77 1 is_stmt 1 view -0
 268              		.cfi_startproc
 269              		@ args = 0, pretend = 0, frame = 0
 270              		@ frame_needed = 0, uses_anonymous_args = 0
 271              		@ link register save eliminated.
  78:../kxmx_bluemchen/src/kxmx_bluemchen.cpp ****     seed.ChangeAudioCallback(cb);
 272              		.loc 2 78 5 view .LVU43
 273              		.loc 2 78 29 is_stmt 0 view .LVU44
 274 0000 FFF7FEBF 		b	_ZN5daisy9DaisySeed19ChangeAudioCallbackEPFvPKPKfPPfjE
 275              	.LVL20:
 276              		.loc 2 78 29 view .LVU45
 277              		.cfi_endproc
 278              	.LFE2604:
 280              		.section	.text._ZN4kxmx9Bluemchen8StartAdcEv,"ax",%progbits
 281              		.align	1
 282              		.global	_ZN4kxmx9Bluemchen8StartAdcEv
 283              		.syntax unified
 284              		.thumb
 285              		.thumb_func
 286              		.fpu fpv5-d16
 288              	_ZN4kxmx9Bluemchen8StartAdcEv:
 289              	.LVL21:
 290              	.LFB2605:
  79:../kxmx_bluemchen/src/kxmx_bluemchen.cpp **** }
  80:../kxmx_bluemchen/src/kxmx_bluemchen.cpp **** 
  81:../kxmx_bluemchen/src/kxmx_bluemchen.cpp **** void Bluemchen::StartAdc()
  82:../kxmx_bluemchen/src/kxmx_bluemchen.cpp **** {
ARM GAS  /tmp/ccfXsGBh.s 			page 8


 291              		.loc 2 82 1 is_stmt 1 view -0
 292              		.cfi_startproc
 293              		@ args = 0, pretend = 0, frame = 0
 294              		@ frame_needed = 0, uses_anonymous_args = 0
 295              		@ link register save eliminated.
  83:../kxmx_bluemchen/src/kxmx_bluemchen.cpp ****     seed.adc.Start();
 296              		.loc 2 83 5 view .LVU47
 297              		.loc 2 83 19 is_stmt 0 view .LVU48
 298 0000 1830     		adds	r0, r0, #24
 299              	.LVL22:
 300              		.loc 2 83 19 view .LVU49
 301 0002 FFF7FEBF 		b	_ZN5daisy9AdcHandle5StartEv
 302              	.LVL23:
 303              		.loc 2 83 19 view .LVU50
 304              		.cfi_endproc
 305              	.LFE2605:
 307              		.section	.text._ZN4kxmx9Bluemchen7StopAdcEv,"ax",%progbits
 308              		.align	1
 309              		.global	_ZN4kxmx9Bluemchen7StopAdcEv
 310              		.syntax unified
 311              		.thumb
 312              		.thumb_func
 313              		.fpu fpv5-d16
 315              	_ZN4kxmx9Bluemchen7StopAdcEv:
 316              	.LVL24:
 317              	.LFB2606:
  84:../kxmx_bluemchen/src/kxmx_bluemchen.cpp **** }
  85:../kxmx_bluemchen/src/kxmx_bluemchen.cpp **** void Bluemchen::StopAdc()
  86:../kxmx_bluemchen/src/kxmx_bluemchen.cpp **** {
 318              		.loc 2 86 1 is_stmt 1 view -0
 319              		.cfi_startproc
 320              		@ args = 0, pretend = 0, frame = 0
 321              		@ frame_needed = 0, uses_anonymous_args = 0
 322              		@ link register save eliminated.
  87:../kxmx_bluemchen/src/kxmx_bluemchen.cpp ****     seed.adc.Stop();
 323              		.loc 2 87 5 view .LVU52
 324              		.loc 2 87 18 is_stmt 0 view .LVU53
 325 0000 1830     		adds	r0, r0, #24
 326              	.LVL25:
 327              		.loc 2 87 18 view .LVU54
 328 0002 FFF7FEBF 		b	_ZN5daisy9AdcHandle4StopEv
 329              	.LVL26:
 330              		.loc 2 87 18 view .LVU55
 331              		.cfi_endproc
 332              	.LFE2606:
 334              		.section	.text._ZN4kxmx9Bluemchen21ProcessAnalogControlsEv,"ax",%progbits
 335              		.align	1
 336              		.global	_ZN4kxmx9Bluemchen21ProcessAnalogControlsEv
 337              		.syntax unified
 338              		.thumb
 339              		.thumb_func
 340              		.fpu fpv5-d16
 342              	_ZN4kxmx9Bluemchen21ProcessAnalogControlsEv:
 343              	.LVL27:
 344              	.LFB2607:
  88:../kxmx_bluemchen/src/kxmx_bluemchen.cpp **** }
  89:../kxmx_bluemchen/src/kxmx_bluemchen.cpp **** 
ARM GAS  /tmp/ccfXsGBh.s 			page 9


  90:../kxmx_bluemchen/src/kxmx_bluemchen.cpp **** void Bluemchen::ProcessAnalogControls()
  91:../kxmx_bluemchen/src/kxmx_bluemchen.cpp **** {
 345              		.loc 2 91 1 is_stmt 1 view -0
 346              		.cfi_startproc
 347              		@ args = 0, pretend = 0, frame = 0
 348              		@ frame_needed = 0, uses_anonymous_args = 0
  92:../kxmx_bluemchen/src/kxmx_bluemchen.cpp ****     for(size_t i = 0; i < CTRL_LAST; i++)
 349              		.loc 2 92 5 view .LVU57
 350              	.LBB44:
 351              		.loc 2 92 25 view .LVU58
  93:../kxmx_bluemchen/src/kxmx_bluemchen.cpp ****     {
  94:../kxmx_bluemchen/src/kxmx_bluemchen.cpp ****         controls[i].Process();
 352              		.loc 2 94 9 view .LVU59
 353              	.LBE44:
  91:../kxmx_bluemchen/src/kxmx_bluemchen.cpp ****     for(size_t i = 0; i < CTRL_LAST; i++)
 354              		.loc 2 91 1 is_stmt 0 view .LVU60
 355 0000 10B5     		push	{r4, lr}
 356              		.cfi_def_cfa_offset 8
 357              		.cfi_offset 4, -8
 358              		.cfi_offset 14, -4
  91:../kxmx_bluemchen/src/kxmx_bluemchen.cpp ****     for(size_t i = 0; i < CTRL_LAST; i++)
 359              		.loc 2 91 1 view .LVU61
 360 0002 0446     		mov	r4, r0
 361              	.LBB45:
 362              		.loc 2 94 28 view .LVU62
 363 0004 6830     		adds	r0, r0, #104
 364              	.LVL28:
 365              		.loc 2 94 28 view .LVU63
 366 0006 FFF7FEFF 		bl	_ZN5daisy13AnalogControl7ProcessEv
 367              	.LVL29:
  92:../kxmx_bluemchen/src/kxmx_bluemchen.cpp ****     for(size_t i = 0; i < CTRL_LAST; i++)
 368              		.loc 2 92 5 is_stmt 1 view .LVU64
  92:../kxmx_bluemchen/src/kxmx_bluemchen.cpp ****     for(size_t i = 0; i < CTRL_LAST; i++)
 369              		.loc 2 92 25 view .LVU65
 370              		.loc 2 94 9 view .LVU66
 371              		.loc 2 94 28 is_stmt 0 view .LVU67
 372 000a 04F18800 		add	r0, r4, #136
 373 000e FFF7FEFF 		bl	_ZN5daisy13AnalogControl7ProcessEv
 374              	.LVL30:
  92:../kxmx_bluemchen/src/kxmx_bluemchen.cpp ****     for(size_t i = 0; i < CTRL_LAST; i++)
 375              		.loc 2 92 5 is_stmt 1 view .LVU68
  92:../kxmx_bluemchen/src/kxmx_bluemchen.cpp ****     for(size_t i = 0; i < CTRL_LAST; i++)
 376              		.loc 2 92 25 view .LVU69
 377              		.loc 2 94 9 view .LVU70
 378              		.loc 2 94 28 is_stmt 0 view .LVU71
 379 0012 04F1A800 		add	r0, r4, #168
 380 0016 FFF7FEFF 		bl	_ZN5daisy13AnalogControl7ProcessEv
 381              	.LVL31:
  92:../kxmx_bluemchen/src/kxmx_bluemchen.cpp ****     for(size_t i = 0; i < CTRL_LAST; i++)
 382              		.loc 2 92 5 is_stmt 1 view .LVU72
  92:../kxmx_bluemchen/src/kxmx_bluemchen.cpp ****     for(size_t i = 0; i < CTRL_LAST; i++)
 383              		.loc 2 92 25 view .LVU73
 384              		.loc 2 94 9 view .LVU74
 385              		.loc 2 94 28 is_stmt 0 view .LVU75
 386 001a 04F1C800 		add	r0, r4, #200
 387              	.LBE45:
  95:../kxmx_bluemchen/src/kxmx_bluemchen.cpp ****     }
ARM GAS  /tmp/ccfXsGBh.s 			page 10


  96:../kxmx_bluemchen/src/kxmx_bluemchen.cpp **** }
 388              		.loc 2 96 1 view .LVU76
 389 001e BDE81040 		pop	{r4, lr}
 390              		.cfi_restore 14
 391              		.cfi_restore 4
 392              		.cfi_def_cfa_offset 0
 393              	.LVL32:
 394              	.LBB46:
  94:../kxmx_bluemchen/src/kxmx_bluemchen.cpp ****     }
 395              		.loc 2 94 28 view .LVU77
 396 0022 FFF7FEBF 		b	_ZN5daisy13AnalogControl7ProcessEv
 397              	.LVL33:
  94:../kxmx_bluemchen/src/kxmx_bluemchen.cpp ****     }
 398              		.loc 2 94 28 view .LVU78
 399              	.LBE46:
 400              		.cfi_endproc
 401              	.LFE2607:
 403              		.section	.text._ZN4kxmx9Bluemchen22ProcessDigitalControlsEv,"ax",%progbits
 404              		.align	1
 405              		.global	_ZN4kxmx9Bluemchen22ProcessDigitalControlsEv
 406              		.syntax unified
 407              		.thumb
 408              		.thumb_func
 409              		.fpu fpv5-d16
 411              	_ZN4kxmx9Bluemchen22ProcessDigitalControlsEv:
 412              	.LVL34:
 413              	.LFB2608:
  97:../kxmx_bluemchen/src/kxmx_bluemchen.cpp **** void Bluemchen::ProcessDigitalControls()
  98:../kxmx_bluemchen/src/kxmx_bluemchen.cpp **** {
 414              		.loc 2 98 1 is_stmt 1 view -0
 415              		.cfi_startproc
 416              		@ args = 0, pretend = 0, frame = 0
 417              		@ frame_needed = 0, uses_anonymous_args = 0
 418              		@ link register save eliminated.
  99:../kxmx_bluemchen/src/kxmx_bluemchen.cpp ****     encoder.Debounce();
 419              		.loc 2 99 5 view .LVU80
 420              		.loc 2 99 21 is_stmt 0 view .LVU81
 421 0000 4030     		adds	r0, r0, #64
 422              	.LVL35:
 423              		.loc 2 99 21 view .LVU82
 424 0002 FFF7FEBF 		b	_ZN5daisy7Encoder8DebounceEv
 425              	.LVL36:
 426              		.loc 2 99 21 view .LVU83
 427              		.cfi_endproc
 428              	.LFE2608:
 430              		.section	.text._ZN4kxmx9Bluemchen12GetKnobValueENS0_4CtrlE,"ax",%progbits
 431              		.align	1
 432              		.global	_ZN4kxmx9Bluemchen12GetKnobValueENS0_4CtrlE
 433              		.syntax unified
 434              		.thumb
 435              		.thumb_func
 436              		.fpu fpv5-d16
 438              	_ZN4kxmx9Bluemchen12GetKnobValueENS0_4CtrlE:
 439              	.LVL37:
 440              	.LFB2609:
 100:../kxmx_bluemchen/src/kxmx_bluemchen.cpp **** }
 101:../kxmx_bluemchen/src/kxmx_bluemchen.cpp **** float Bluemchen::GetKnobValue(Ctrl c)
ARM GAS  /tmp/ccfXsGBh.s 			page 11


 102:../kxmx_bluemchen/src/kxmx_bluemchen.cpp **** {
 441              		.loc 2 102 1 is_stmt 1 view -0
 442              		.cfi_startproc
 443              		@ args = 0, pretend = 0, frame = 0
 444              		@ frame_needed = 0, uses_anonymous_args = 0
 445              		@ link register save eliminated.
 103:../kxmx_bluemchen/src/kxmx_bluemchen.cpp ****     return (controls[c].Value());
 446              		.loc 2 103 5 view .LVU85
 447              	.LBB47:
 448              	.LBI47:
 449              		.file 3 "../libDaisy/src/hid/ctrl.h"
   1:../libDaisy/src/hid/ctrl.h **** #pragma once
   2:../libDaisy/src/hid/ctrl.h **** #ifndef DSY_KNOB_H
   3:../libDaisy/src/hid/ctrl.h **** #define DSY_KNOB_H /**< & */
   4:../libDaisy/src/hid/ctrl.h **** #include <stdint.h>
   5:../libDaisy/src/hid/ctrl.h **** 
   6:../libDaisy/src/hid/ctrl.h **** #ifdef __cplusplus
   7:../libDaisy/src/hid/ctrl.h **** namespace daisy
   8:../libDaisy/src/hid/ctrl.h **** {
   9:../libDaisy/src/hid/ctrl.h **** /**
  10:../libDaisy/src/hid/ctrl.h ****     @brief Hardware Interface for control inputs \n 
  11:../libDaisy/src/hid/ctrl.h ****     Primarily designed for ADC input controls such as \n 
  12:../libDaisy/src/hid/ctrl.h ****     potentiometers, and control voltage. \n 
  13:../libDaisy/src/hid/ctrl.h ****     @author Stephen Hensley
  14:../libDaisy/src/hid/ctrl.h ****     @date November 2019
  15:../libDaisy/src/hid/ctrl.h ****     @ingroup controls
  16:../libDaisy/src/hid/ctrl.h **** */
  17:../libDaisy/src/hid/ctrl.h **** class AnalogControl
  18:../libDaisy/src/hid/ctrl.h **** {
  19:../libDaisy/src/hid/ctrl.h ****   public:
  20:../libDaisy/src/hid/ctrl.h ****     /** Constructor */
  21:../libDaisy/src/hid/ctrl.h ****     AnalogControl() {}
  22:../libDaisy/src/hid/ctrl.h ****     /** destructor */
  23:../libDaisy/src/hid/ctrl.h ****     ~AnalogControl() {}
  24:../libDaisy/src/hid/ctrl.h **** 
  25:../libDaisy/src/hid/ctrl.h ****     /** 
  26:../libDaisy/src/hid/ctrl.h ****     Initializes the control
  27:../libDaisy/src/hid/ctrl.h ****     \param *adcptr is a pointer to the raw adc read value -- This can be acquired with dsy_adc_get_
  28:../libDaisy/src/hid/ctrl.h ****     \param sr is the samplerate in Hz that the Process function will be called at.
  29:../libDaisy/src/hid/ctrl.h ****     \param flip determines whether the input is flipped (i.e. 1.f - input) or not before being proc
  30:../libDaisy/src/hid/ctrl.h ****     \param invert determines whether the input is inverted (i.e. -1.f * input) or note before being
  31:../libDaisy/src/hid/ctrl.h ****     \param slew_seconds is the slew time in seconds that it takes for the control to change to a ne
  32:../libDaisy/src/hid/ctrl.h ****     */
  33:../libDaisy/src/hid/ctrl.h ****     void Init(uint16_t *adcptr,
  34:../libDaisy/src/hid/ctrl.h ****               float     sr,
  35:../libDaisy/src/hid/ctrl.h ****               bool      flip         = false,
  36:../libDaisy/src/hid/ctrl.h ****               bool      invert       = false,
  37:../libDaisy/src/hid/ctrl.h ****               float     slew_seconds = 0.002f);
  38:../libDaisy/src/hid/ctrl.h **** 
  39:../libDaisy/src/hid/ctrl.h ****     /** 
  40:../libDaisy/src/hid/ctrl.h ****     This Initializes the AnalogControl for a -5V to 5V inverted input
  41:../libDaisy/src/hid/ctrl.h ****     All of the Init details are the same otherwise
  42:../libDaisy/src/hid/ctrl.h ****     \param *adcptr Pointer to analog digital converter
  43:../libDaisy/src/hid/ctrl.h ****     \param sr Audio engine sample rate
  44:../libDaisy/src/hid/ctrl.h ****     */
  45:../libDaisy/src/hid/ctrl.h ****     void InitBipolarCv(uint16_t *adcptr, float sr);
  46:../libDaisy/src/hid/ctrl.h **** 
ARM GAS  /tmp/ccfXsGBh.s 			page 12


  47:../libDaisy/src/hid/ctrl.h ****     /** 
  48:../libDaisy/src/hid/ctrl.h ****     Filters, and transforms a raw ADC read into a normalized range.
  49:../libDaisy/src/hid/ctrl.h ****     this should be called at the rate of specified by samplerate at Init time.   
  50:../libDaisy/src/hid/ctrl.h ****     Default Initializations will return 0.0 -> 1.0
  51:../libDaisy/src/hid/ctrl.h ****     Bi-polar CV inputs will return -1.0 -> 1.0
  52:../libDaisy/src/hid/ctrl.h ****     */
  53:../libDaisy/src/hid/ctrl.h ****     float Process();
  54:../libDaisy/src/hid/ctrl.h **** 
  55:../libDaisy/src/hid/ctrl.h ****     /** Returns the current stored value, without reprocessing */
  56:../libDaisy/src/hid/ctrl.h ****     inline float Value() const { return val_; }
 450              		.loc 3 56 18 view .LVU86
 451              	.LBB48:
 452              		.loc 3 56 34 view .LVU87
 453              		.loc 3 56 41 is_stmt 0 view .LVU88
 454 0000 00EB4111 		add	r1, r0, r1, lsl #5
 455              	.LVL38:
 456              		.loc 3 56 41 view .LVU89
 457              	.LBE48:
 458              	.LBE47:
 104:../kxmx_bluemchen/src/kxmx_bluemchen.cpp **** }
 459              		.loc 2 104 1 view .LVU90
 460 0004 91ED1D0A 		vldr.32	s0, [r1, #116]
 461 0008 7047     		bx	lr
 462              		.cfi_endproc
 463              	.LFE2609:
 465              		.section	.text._ZN4kxmx9Bluemchen7DelayMsEj,"ax",%progbits
 466              		.align	1
 467              		.global	_ZN4kxmx9Bluemchen7DelayMsEj
 468              		.syntax unified
 469              		.thumb
 470              		.thumb_func
 471              		.fpu fpv5-d16
 473              	_ZN4kxmx9Bluemchen7DelayMsEj:
 474              	.LVL39:
 475              	.LFB2610:
 105:../kxmx_bluemchen/src/kxmx_bluemchen.cpp **** void Bluemchen::DelayMs(size_t del)
 106:../kxmx_bluemchen/src/kxmx_bluemchen.cpp **** {
 476              		.loc 2 106 1 is_stmt 1 view -0
 477              		.cfi_startproc
 478              		@ args = 0, pretend = 0, frame = 0
 479              		@ frame_needed = 0, uses_anonymous_args = 0
 480              		@ link register save eliminated.
 107:../kxmx_bluemchen/src/kxmx_bluemchen.cpp ****     daisy::System::Delay(del);
 481              		.loc 2 107 5 view .LVU92
 482              		.loc 2 107 25 is_stmt 0 view .LVU93
 483 0000 0846     		mov	r0, r1
 484              	.LVL40:
 485              		.loc 2 107 25 view .LVU94
 486 0002 FFF7FEBF 		b	_ZN5daisy6System5DelayEm
 487              	.LVL41:
 488              		.loc 2 107 25 view .LVU95
 489              		.cfi_endproc
 490              	.LFE2610:
 492              		.section	.text._ZN4kxmx9Bluemchen12InitControlsEv,"ax",%progbits
 493              		.align	1
 494              		.global	_ZN4kxmx9Bluemchen12InitControlsEv
 495              		.syntax unified
ARM GAS  /tmp/ccfXsGBh.s 			page 13


 496              		.thumb
 497              		.thumb_func
 498              		.fpu fpv5-d16
 500              	_ZN4kxmx9Bluemchen12InitControlsEv:
 501              	.LVL42:
 502              	.LFB2611:
 108:../kxmx_bluemchen/src/kxmx_bluemchen.cpp **** }
 109:../kxmx_bluemchen/src/kxmx_bluemchen.cpp **** 
 110:../kxmx_bluemchen/src/kxmx_bluemchen.cpp **** void Bluemchen::InitControls()
 111:../kxmx_bluemchen/src/kxmx_bluemchen.cpp **** {
 503              		.loc 2 111 1 is_stmt 1 view -0
 504              		.cfi_startproc
 505              		@ args = 0, pretend = 0, frame = 96
 506              		@ frame_needed = 0, uses_anonymous_args = 0
 112:../kxmx_bluemchen/src/kxmx_bluemchen.cpp ****     daisy::AdcChannelConfig cfg[4];
 507              		.loc 2 112 5 view .LVU97
 113:../kxmx_bluemchen/src/kxmx_bluemchen.cpp **** 
 114:../kxmx_bluemchen/src/kxmx_bluemchen.cpp ****     // Init ADC channels for the knobs...
 115:../kxmx_bluemchen/src/kxmx_bluemchen.cpp ****     cfg[0].InitSingle(seed.GetPin(PIN_KNOB_1));
 508              		.loc 2 115 5 view .LVU98
 111:../kxmx_bluemchen/src/kxmx_bluemchen.cpp ****     daisy::AdcChannelConfig cfg[4];
 509              		.loc 2 111 1 is_stmt 0 view .LVU99
 510 0000 30B5     		push	{r4, r5, lr}
 511              		.cfi_def_cfa_offset 12
 512              		.cfi_offset 4, -12
 513              		.cfi_offset 5, -8
 514              		.cfi_offset 14, -4
 515 0002 99B0     		sub	sp, sp, #100
 516              		.cfi_def_cfa_offset 112
 111:../kxmx_bluemchen/src/kxmx_bluemchen.cpp ****     daisy::AdcChannelConfig cfg[4];
 517              		.loc 2 111 1 view .LVU100
 518 0004 0446     		mov	r4, r0
 519              		.loc 2 115 22 view .LVU101
 520 0006 1020     		movs	r0, #16
 521              	.LVL43:
 522              		.loc 2 115 22 view .LVU102
 523 0008 FFF7FEFF 		bl	_ZN5daisy9DaisySeed6GetPinEh
 524              	.LVL44:
 525 000c ADF80800 		strh	r0, [sp, #8]	@ movhi
 526 0010 0299     		ldr	r1, [sp, #8]
 527 0012 0222     		movs	r2, #2
 528 0014 06A8     		add	r0, sp, #24
 116:../kxmx_bluemchen/src/kxmx_bluemchen.cpp ****     cfg[1].InitSingle(seed.GetPin(PIN_KNOB_2));
 117:../kxmx_bluemchen/src/kxmx_bluemchen.cpp **** 
 118:../kxmx_bluemchen/src/kxmx_bluemchen.cpp ****     // ...and the CV inputs.
 119:../kxmx_bluemchen/src/kxmx_bluemchen.cpp ****     cfg[2].InitSingle(seed.GetPin(PIN_CV_1));
 120:../kxmx_bluemchen/src/kxmx_bluemchen.cpp ****     cfg[3].InitSingle(seed.GetPin(PIN_CV_2));
 121:../kxmx_bluemchen/src/kxmx_bluemchen.cpp **** 
 122:../kxmx_bluemchen/src/kxmx_bluemchen.cpp ****     // Initialize ADC config
 123:../kxmx_bluemchen/src/kxmx_bluemchen.cpp ****     seed.adc.Init(cfg, 4);
 529              		.loc 2 123 18 view .LVU103
 530 0016 04F11805 		add	r5, r4, #24
 115:../kxmx_bluemchen/src/kxmx_bluemchen.cpp ****     cfg[1].InitSingle(seed.GetPin(PIN_KNOB_2));
 531              		.loc 2 115 22 view .LVU104
 532 001a FFF7FEFF 		bl	_ZN5daisy16AdcChannelConfig10InitSingleE12dsy_gpio_pinNS0_15ConversionSpeedE
 533              	.LVL45:
 116:../kxmx_bluemchen/src/kxmx_bluemchen.cpp ****     cfg[1].InitSingle(seed.GetPin(PIN_KNOB_2));
ARM GAS  /tmp/ccfXsGBh.s 			page 14


 534              		.loc 2 116 5 is_stmt 1 view .LVU105
 116:../kxmx_bluemchen/src/kxmx_bluemchen.cpp ****     cfg[1].InitSingle(seed.GetPin(PIN_KNOB_2));
 535              		.loc 2 116 22 is_stmt 0 view .LVU106
 536 001e 0F20     		movs	r0, #15
 537 0020 FFF7FEFF 		bl	_ZN5daisy9DaisySeed6GetPinEh
 538              	.LVL46:
 539 0024 ADF80C00 		strh	r0, [sp, #12]	@ movhi
 540 0028 0399     		ldr	r1, [sp, #12]
 541 002a 0222     		movs	r2, #2
 542 002c 0DF12A00 		add	r0, sp, #42
 543 0030 FFF7FEFF 		bl	_ZN5daisy16AdcChannelConfig10InitSingleE12dsy_gpio_pinNS0_15ConversionSpeedE
 544              	.LVL47:
 119:../kxmx_bluemchen/src/kxmx_bluemchen.cpp ****     cfg[3].InitSingle(seed.GetPin(PIN_CV_2));
 545              		.loc 2 119 5 is_stmt 1 view .LVU107
 119:../kxmx_bluemchen/src/kxmx_bluemchen.cpp ****     cfg[3].InitSingle(seed.GetPin(PIN_CV_2));
 546              		.loc 2 119 22 is_stmt 0 view .LVU108
 547 0034 1520     		movs	r0, #21
 548 0036 FFF7FEFF 		bl	_ZN5daisy9DaisySeed6GetPinEh
 549              	.LVL48:
 550 003a ADF81000 		strh	r0, [sp, #16]	@ movhi
 551 003e 0499     		ldr	r1, [sp, #16]
 552 0040 0222     		movs	r2, #2
 553 0042 0FA8     		add	r0, sp, #60
 554 0044 FFF7FEFF 		bl	_ZN5daisy16AdcChannelConfig10InitSingleE12dsy_gpio_pinNS0_15ConversionSpeedE
 555              	.LVL49:
 120:../kxmx_bluemchen/src/kxmx_bluemchen.cpp **** 
 556              		.loc 2 120 5 is_stmt 1 view .LVU109
 120:../kxmx_bluemchen/src/kxmx_bluemchen.cpp **** 
 557              		.loc 2 120 22 is_stmt 0 view .LVU110
 558 0048 1220     		movs	r0, #18
 559 004a FFF7FEFF 		bl	_ZN5daisy9DaisySeed6GetPinEh
 560              	.LVL50:
 561 004e ADF81400 		strh	r0, [sp, #20]	@ movhi
 562 0052 0599     		ldr	r1, [sp, #20]
 563 0054 0DF14E00 		add	r0, sp, #78
 564 0058 0222     		movs	r2, #2
 565 005a FFF7FEFF 		bl	_ZN5daisy16AdcChannelConfig10InitSingleE12dsy_gpio_pinNS0_15ConversionSpeedE
 566              	.LVL51:
 567              		.loc 2 123 5 is_stmt 1 view .LVU111
 568              		.loc 2 123 18 is_stmt 0 view .LVU112
 569 005e 0423     		movs	r3, #4
 570 0060 06A9     		add	r1, sp, #24
 571 0062 2846     		mov	r0, r5
 572 0064 1A46     		mov	r2, r3
 573 0066 FFF7FEFF 		bl	_ZN5daisy9AdcHandle4InitEPNS_16AdcChannelConfigEjNS0_12OverSamplingE
 574              	.LVL52:
 124:../kxmx_bluemchen/src/kxmx_bluemchen.cpp **** 
 125:../kxmx_bluemchen/src/kxmx_bluemchen.cpp ****     // Initialize the Knob controls
 126:../kxmx_bluemchen/src/kxmx_bluemchen.cpp ****     controls[CTRL_1].Init(seed.adc.GetPtr(0), AudioCallbackRate(), false);
 575              		.loc 2 126 5 is_stmt 1 view .LVU113
 576              		.loc 2 126 26 is_stmt 0 view .LVU114
 577 006a 0021     		movs	r1, #0
 578 006c 2846     		mov	r0, r5
 579 006e FFF7FEFF 		bl	_ZNK5daisy9AdcHandle6GetPtrEh
 580              	.LVL53:
 581 0072 0090     		str	r0, [sp]
 582              	.LVL54:
ARM GAS  /tmp/ccfXsGBh.s 			page 15


 583              	.LBB49:
 584              	.LBI49:
  56:../kxmx_bluemchen/src/kxmx_bluemchen.cpp **** {
 585              		.loc 2 56 7 is_stmt 1 view .LVU115
 586              	.LBB50:
  58:../kxmx_bluemchen/src/kxmx_bluemchen.cpp **** }
 587              		.loc 2 58 5 view .LVU116
  58:../kxmx_bluemchen/src/kxmx_bluemchen.cpp **** }
 588              		.loc 2 58 34 is_stmt 0 view .LVU117
 589 0074 2046     		mov	r0, r4
 590 0076 FFF7FEFF 		bl	_ZNK5daisy9DaisySeed17AudioCallbackRateEv
 591              	.LVL55:
  58:../kxmx_bluemchen/src/kxmx_bluemchen.cpp **** }
 592              		.loc 2 58 34 view .LVU118
 593              	.LBE50:
 594              	.LBE49:
 595              		.loc 2 126 26 view .LVU119
 596 007a 0023     		movs	r3, #0
 597 007c DFED1F0A 		vldr.32	s1, .L18
 598 0080 04F16800 		add	r0, r4, #104
 599 0084 1A46     		mov	r2, r3
 600 0086 0099     		ldr	r1, [sp]
 601 0088 CDED010A 		vstr.32	s1, [sp, #4]	@ int
 602 008c FFF7FEFF 		bl	_ZN5daisy13AnalogControl4InitEPtfbbf
 603              	.LVL56:
 127:../kxmx_bluemchen/src/kxmx_bluemchen.cpp ****     controls[CTRL_2].Init(seed.adc.GetPtr(1), AudioCallbackRate(), false);
 604              		.loc 2 127 5 is_stmt 1 view .LVU120
 605              		.loc 2 127 26 is_stmt 0 view .LVU121
 606 0090 0121     		movs	r1, #1
 607 0092 2846     		mov	r0, r5
 608 0094 FFF7FEFF 		bl	_ZNK5daisy9AdcHandle6GetPtrEh
 609              	.LVL57:
 610 0098 0090     		str	r0, [sp]
 611              	.LVL58:
 612              	.LBB51:
 613              	.LBI51:
  56:../kxmx_bluemchen/src/kxmx_bluemchen.cpp **** {
 614              		.loc 2 56 7 is_stmt 1 view .LVU122
 615              	.LBB52:
  58:../kxmx_bluemchen/src/kxmx_bluemchen.cpp **** }
 616              		.loc 2 58 5 view .LVU123
  58:../kxmx_bluemchen/src/kxmx_bluemchen.cpp **** }
 617              		.loc 2 58 34 is_stmt 0 view .LVU124
 618 009a 2046     		mov	r0, r4
 619 009c FFF7FEFF 		bl	_ZNK5daisy9DaisySeed17AudioCallbackRateEv
 620              	.LVL59:
  58:../kxmx_bluemchen/src/kxmx_bluemchen.cpp **** }
 621              		.loc 2 58 34 view .LVU125
 622              	.LBE52:
 623              	.LBE51:
 624              		.loc 2 127 26 view .LVU126
 625 00a0 0023     		movs	r3, #0
 626 00a2 DDED010A 		vldr.32	s1, [sp, #4]	@ int
 627 00a6 04F18800 		add	r0, r4, #136
 628 00aa 1A46     		mov	r2, r3
 629 00ac 0099     		ldr	r1, [sp]
 630 00ae FFF7FEFF 		bl	_ZN5daisy13AnalogControl4InitEPtfbbf
ARM GAS  /tmp/ccfXsGBh.s 			page 16


 631              	.LVL60:
 128:../kxmx_bluemchen/src/kxmx_bluemchen.cpp ****     // Initialize the CV controls
 129:../kxmx_bluemchen/src/kxmx_bluemchen.cpp ****     controls[CTRL_3].Init(seed.adc.GetPtr(2), AudioCallbackRate(), true);
 632              		.loc 2 129 5 is_stmt 1 view .LVU127
 633              		.loc 2 129 26 is_stmt 0 view .LVU128
 634 00b2 0221     		movs	r1, #2
 635 00b4 2846     		mov	r0, r5
 636 00b6 FFF7FEFF 		bl	_ZNK5daisy9AdcHandle6GetPtrEh
 637              	.LVL61:
 638 00ba 0090     		str	r0, [sp]
 639              	.LVL62:
 640              	.LBB53:
 641              	.LBI53:
  56:../kxmx_bluemchen/src/kxmx_bluemchen.cpp **** {
 642              		.loc 2 56 7 is_stmt 1 view .LVU129
 643              	.LBB54:
  58:../kxmx_bluemchen/src/kxmx_bluemchen.cpp **** }
 644              		.loc 2 58 5 view .LVU130
  58:../kxmx_bluemchen/src/kxmx_bluemchen.cpp **** }
 645              		.loc 2 58 34 is_stmt 0 view .LVU131
 646 00bc 2046     		mov	r0, r4
 647 00be FFF7FEFF 		bl	_ZNK5daisy9DaisySeed17AudioCallbackRateEv
 648              	.LVL63:
  58:../kxmx_bluemchen/src/kxmx_bluemchen.cpp **** }
 649              		.loc 2 58 34 view .LVU132
 650              	.LBE54:
 651              	.LBE53:
 652              		.loc 2 129 26 view .LVU133
 653 00c2 DDED010A 		vldr.32	s1, [sp, #4]	@ int
 654 00c6 0023     		movs	r3, #0
 655 00c8 0122     		movs	r2, #1
 656 00ca 0099     		ldr	r1, [sp]
 657 00cc 04F1A800 		add	r0, r4, #168
 658 00d0 FFF7FEFF 		bl	_ZN5daisy13AnalogControl4InitEPtfbbf
 659              	.LVL64:
 130:../kxmx_bluemchen/src/kxmx_bluemchen.cpp ****     controls[CTRL_4].Init(seed.adc.GetPtr(3), AudioCallbackRate(), true);
 660              		.loc 2 130 5 is_stmt 1 view .LVU134
 661              		.loc 2 130 26 is_stmt 0 view .LVU135
 662 00d4 0321     		movs	r1, #3
 663 00d6 2846     		mov	r0, r5
 664 00d8 FFF7FEFF 		bl	_ZNK5daisy9AdcHandle6GetPtrEh
 665              	.LVL65:
 666 00dc 0090     		str	r0, [sp]
 667              	.LVL66:
 668              	.LBB55:
 669              	.LBI55:
  56:../kxmx_bluemchen/src/kxmx_bluemchen.cpp **** {
 670              		.loc 2 56 7 is_stmt 1 view .LVU136
 671              	.LBB56:
  58:../kxmx_bluemchen/src/kxmx_bluemchen.cpp **** }
 672              		.loc 2 58 5 view .LVU137
  58:../kxmx_bluemchen/src/kxmx_bluemchen.cpp **** }
 673              		.loc 2 58 34 is_stmt 0 view .LVU138
 674 00de 2046     		mov	r0, r4
 675 00e0 FFF7FEFF 		bl	_ZNK5daisy9DaisySeed17AudioCallbackRateEv
 676              	.LVL67:
  58:../kxmx_bluemchen/src/kxmx_bluemchen.cpp **** }
ARM GAS  /tmp/ccfXsGBh.s 			page 17


 677              		.loc 2 58 34 view .LVU139
 678              	.LBE56:
 679              	.LBE55:
 680              		.loc 2 130 26 view .LVU140
 681 00e4 DDED010A 		vldr.32	s1, [sp, #4]	@ int
 682 00e8 0023     		movs	r3, #0
 683 00ea 0122     		movs	r2, #1
 684 00ec 0099     		ldr	r1, [sp]
 685 00ee 04F1C800 		add	r0, r4, #200
 686 00f2 FFF7FEFF 		bl	_ZN5daisy13AnalogControl4InitEPtfbbf
 687              	.LVL68:
 131:../kxmx_bluemchen/src/kxmx_bluemchen.cpp **** }
 688              		.loc 2 131 1 view .LVU141
 689 00f6 19B0     		add	sp, sp, #100
 690              		.cfi_def_cfa_offset 12
 691              		@ sp needed
 692 00f8 30BD     		pop	{r4, r5, pc}
 693              	.LVL69:
 694              	.L19:
 695              		.loc 2 131 1 view .LVU142
 696 00fa 00BF     		.align	2
 697              	.L18:
 698 00fc 6F12033B 		.word	990057071
 699              		.cfi_endproc
 700              	.LFE2611:
 702              		.section	.text._ZN4kxmx9Bluemchen8InitMidiEv,"ax",%progbits
 703              		.align	1
 704              		.global	_ZN4kxmx9Bluemchen8InitMidiEv
 705              		.syntax unified
 706              		.thumb
 707              		.thumb_func
 708              		.fpu fpv5-d16
 710              	_ZN4kxmx9Bluemchen8InitMidiEv:
 711              	.LVL70:
 712              	.LFB2619:
 132:../kxmx_bluemchen/src/kxmx_bluemchen.cpp **** 
 133:../kxmx_bluemchen/src/kxmx_bluemchen.cpp **** void Bluemchen::InitDisplay()
 134:../kxmx_bluemchen/src/kxmx_bluemchen.cpp **** {
 135:../kxmx_bluemchen/src/kxmx_bluemchen.cpp ****     daisy::OledDisplay<daisy::SSD130xI2c64x32Driver>::Config display_config;
 136:../kxmx_bluemchen/src/kxmx_bluemchen.cpp ****     display_config.driver_config.transport_config.Defaults();
 137:../kxmx_bluemchen/src/kxmx_bluemchen.cpp ****     display.Init(display_config);
 138:../kxmx_bluemchen/src/kxmx_bluemchen.cpp **** }
 139:../kxmx_bluemchen/src/kxmx_bluemchen.cpp **** 
 140:../kxmx_bluemchen/src/kxmx_bluemchen.cpp **** void Bluemchen::InitMidi()
 141:../kxmx_bluemchen/src/kxmx_bluemchen.cpp **** {
 713              		.loc 2 141 1 is_stmt 1 view -0
 714              		.cfi_startproc
 715              		@ args = 0, pretend = 0, frame = 80
 716              		@ frame_needed = 0, uses_anonymous_args = 0
 142:../kxmx_bluemchen/src/kxmx_bluemchen.cpp ****     daisy::MidiUartHandler::Config midi_config;
 717              		.loc 2 142 5 view .LVU144
 141:../kxmx_bluemchen/src/kxmx_bluemchen.cpp ****     daisy::MidiUartHandler::Config midi_config;
 718              		.loc 2 141 1 is_stmt 0 view .LVU145
 719 0000 70B5     		push	{r4, r5, r6, lr}
 720              		.cfi_def_cfa_offset 16
 721              		.cfi_offset 4, -16
 722              		.cfi_offset 5, -12
ARM GAS  /tmp/ccfXsGBh.s 			page 18


 723              		.cfi_offset 6, -8
 724              		.cfi_offset 14, -4
 725 0002 94B0     		sub	sp, sp, #80
 726              		.cfi_def_cfa_offset 96
 727              	.LVL71:
 728              	.LBB73:
 729              	.LBI73:
 730              		.file 4 "../libDaisy/src/hid/midi.h"
   1:../libDaisy/src/hid/midi.h **** #pragma once
   2:../libDaisy/src/hid/midi.h **** #ifndef DSY_MIDI_H
   3:../libDaisy/src/hid/midi.h **** #define DSY_MIDI_H
   4:../libDaisy/src/hid/midi.h **** 
   5:../libDaisy/src/hid/midi.h **** #include <stdint.h>
   6:../libDaisy/src/hid/midi.h **** #include <stdlib.h>
   7:../libDaisy/src/hid/midi.h **** #include <algorithm>
   8:../libDaisy/src/hid/midi.h **** #include "per/uart.h"
   9:../libDaisy/src/hid/midi.h **** #include "util/ringbuffer.h"
  10:../libDaisy/src/hid/midi.h **** #include "util/FIFO.h"
  11:../libDaisy/src/hid/midi.h **** #include "hid/midi_parser.h"
  12:../libDaisy/src/hid/midi.h **** #include "hid/usb_midi.h"
  13:../libDaisy/src/hid/midi.h **** #include "sys/dma.h"
  14:../libDaisy/src/hid/midi.h **** #include "sys/system.h"
  15:../libDaisy/src/hid/midi.h **** 
  16:../libDaisy/src/hid/midi.h **** namespace daisy
  17:../libDaisy/src/hid/midi.h **** {
  18:../libDaisy/src/hid/midi.h **** /** @brief   Transport layer for sending and receiving MIDI data over UART
  19:../libDaisy/src/hid/midi.h ****  *  @details This is the mode of communication used for TRS and DIN MIDI
  20:../libDaisy/src/hid/midi.h ****  *           There is an additional 2kB of RAM data used within this class
  21:../libDaisy/src/hid/midi.h ****  *           for processing bulk data from the UART peripheral
  22:../libDaisy/src/hid/midi.h ****  *  @ingroup midi
  23:../libDaisy/src/hid/midi.h **** */
  24:../libDaisy/src/hid/midi.h **** class MidiUartTransport
  25:../libDaisy/src/hid/midi.h **** {
  26:../libDaisy/src/hid/midi.h ****   public:
  27:../libDaisy/src/hid/midi.h ****     typedef void (*MidiRxParseCallback)(uint8_t* data,
  28:../libDaisy/src/hid/midi.h ****                                         size_t   size,
  29:../libDaisy/src/hid/midi.h ****                                         void*    context);
  30:../libDaisy/src/hid/midi.h **** 
  31:../libDaisy/src/hid/midi.h ****     MidiUartTransport() {}
  32:../libDaisy/src/hid/midi.h ****     ~MidiUartTransport() {}
  33:../libDaisy/src/hid/midi.h **** 
  34:../libDaisy/src/hid/midi.h ****     /** @brief Configuration structure for UART MIDI */
  35:../libDaisy/src/hid/midi.h ****     struct Config
  36:../libDaisy/src/hid/midi.h ****     {
  37:../libDaisy/src/hid/midi.h ****         UartHandler::Config::Peripheral periph;
  38:../libDaisy/src/hid/midi.h ****         dsy_gpio_pin                    rx;
  39:../libDaisy/src/hid/midi.h ****         dsy_gpio_pin                    tx;
  40:../libDaisy/src/hid/midi.h **** 
  41:../libDaisy/src/hid/midi.h ****         /** Pointer to buffer for DMA UART rx byte transfer in background.
  42:../libDaisy/src/hid/midi.h ****          *
  43:../libDaisy/src/hid/midi.h ****          *  @details By default this uses a shared buffer in DMA_BUFFER_MEM_SECTION,
  44:../libDaisy/src/hid/midi.h ****          *           which can only be utilized for a single UART peripheral. To
  45:../libDaisy/src/hid/midi.h ****          *           use MIDI with multiple UART peripherals, you must provide your own
  46:../libDaisy/src/hid/midi.h ****          *           buffer, allocated to a DMA-capable memory section.
  47:../libDaisy/src/hid/midi.h ****          */
  48:../libDaisy/src/hid/midi.h ****         uint8_t* rx_buffer;
  49:../libDaisy/src/hid/midi.h **** 
ARM GAS  /tmp/ccfXsGBh.s 			page 19


  50:../libDaisy/src/hid/midi.h ****         /** Size in bytes of rx_buffer.
  51:../libDaisy/src/hid/midi.h ****          *
  52:../libDaisy/src/hid/midi.h ****          *  @details This size determines the maximum Rx bytes readable by the UART in the backgrou
  53:../libDaisy/src/hid/midi.h ****          *           By default it's set to the size of the default shared rx_buffer (256 bytes).
  54:../libDaisy/src/hid/midi.h ****          *           While much smaller sizes can be used, data can get missed if the buffer is too
  55:../libDaisy/src/hid/midi.h ****          */
  56:../libDaisy/src/hid/midi.h ****         size_t rx_buffer_size;
  57:../libDaisy/src/hid/midi.h **** 
  58:../libDaisy/src/hid/midi.h ****         Config();
  59:../libDaisy/src/hid/midi.h ****     };
  60:../libDaisy/src/hid/midi.h **** 
  61:../libDaisy/src/hid/midi.h ****     /** @brief Initialization of UART using config struct */
  62:../libDaisy/src/hid/midi.h ****     inline void Init(Config config)
  63:../libDaisy/src/hid/midi.h ****     {
  64:../libDaisy/src/hid/midi.h ****         UartHandler::Config uart_config;
  65:../libDaisy/src/hid/midi.h **** 
  66:../libDaisy/src/hid/midi.h ****         //defaults
  67:../libDaisy/src/hid/midi.h ****         uart_config.baudrate   = 31250;
  68:../libDaisy/src/hid/midi.h ****         uart_config.stopbits   = UartHandler::Config::StopBits::BITS_1;
  69:../libDaisy/src/hid/midi.h ****         uart_config.parity     = UartHandler::Config::Parity::NONE;
  70:../libDaisy/src/hid/midi.h ****         uart_config.mode       = UartHandler::Config::Mode::TX_RX;
  71:../libDaisy/src/hid/midi.h ****         uart_config.wordlength = UartHandler::Config::WordLength::BITS_8;
  72:../libDaisy/src/hid/midi.h **** 
  73:../libDaisy/src/hid/midi.h ****         //user settings
  74:../libDaisy/src/hid/midi.h ****         uart_config.periph        = config.periph;
  75:../libDaisy/src/hid/midi.h ****         uart_config.pin_config.rx = config.rx;
  76:../libDaisy/src/hid/midi.h ****         uart_config.pin_config.tx = config.tx;
  77:../libDaisy/src/hid/midi.h **** 
  78:../libDaisy/src/hid/midi.h ****         rx_buffer      = config.rx_buffer;
  79:../libDaisy/src/hid/midi.h ****         rx_buffer_size = config.rx_buffer_size;
  80:../libDaisy/src/hid/midi.h **** 
  81:../libDaisy/src/hid/midi.h ****         /** zero the buffer to ensure emptiness regardless of source memory */
  82:../libDaisy/src/hid/midi.h ****         std::fill(rx_buffer, rx_buffer + rx_buffer_size, 0);
  83:../libDaisy/src/hid/midi.h **** 
  84:../libDaisy/src/hid/midi.h ****         uart_.Init(uart_config);
  85:../libDaisy/src/hid/midi.h ****     }
  86:../libDaisy/src/hid/midi.h **** 
  87:../libDaisy/src/hid/midi.h ****     /** @brief Start the UART peripheral in listening mode.
  88:../libDaisy/src/hid/midi.h ****      *  This will fill an internal data structure in the background */
  89:../libDaisy/src/hid/midi.h ****     inline void StartRx(MidiRxParseCallback parse_callback, void* context)
  90:../libDaisy/src/hid/midi.h ****     {
  91:../libDaisy/src/hid/midi.h ****         parse_context_  = context;
  92:../libDaisy/src/hid/midi.h ****         parse_callback_ = parse_callback;
  93:../libDaisy/src/hid/midi.h ****         dsy_dma_clear_cache_for_buffer((uint8_t*)this,
  94:../libDaisy/src/hid/midi.h ****                                        sizeof(MidiUartTransport));
  95:../libDaisy/src/hid/midi.h ****         uart_.DmaListenStart(
  96:../libDaisy/src/hid/midi.h ****             rx_buffer, rx_buffer_size, MidiUartTransport::rxCallback, this);
  97:../libDaisy/src/hid/midi.h ****     }
  98:../libDaisy/src/hid/midi.h **** 
  99:../libDaisy/src/hid/midi.h ****     /** @brief returns whether the UART peripheral is actively listening in the background or not *
 100:../libDaisy/src/hid/midi.h ****     inline bool RxActive() { return uart_.IsListening(); }
 101:../libDaisy/src/hid/midi.h **** 
 102:../libDaisy/src/hid/midi.h ****     /** @brief This is a no-op for UART transport - Rx is via DMA callback with circular buffer */
 103:../libDaisy/src/hid/midi.h ****     inline void FlushRx() {}
 104:../libDaisy/src/hid/midi.h **** 
 105:../libDaisy/src/hid/midi.h ****     /** @brief sends the buffer of bytes out of the UART peripheral */
 106:../libDaisy/src/hid/midi.h ****     inline void Tx(uint8_t* buff, size_t size) { uart_.PollTx(buff, size); }
ARM GAS  /tmp/ccfXsGBh.s 			page 20


 107:../libDaisy/src/hid/midi.h **** 
 108:../libDaisy/src/hid/midi.h ****   private:
 109:../libDaisy/src/hid/midi.h ****     UartHandler         uart_;
 110:../libDaisy/src/hid/midi.h ****     uint8_t*            rx_buffer;
 111:../libDaisy/src/hid/midi.h ****     size_t              rx_buffer_size;
 112:../libDaisy/src/hid/midi.h ****     void*               parse_context_;
 113:../libDaisy/src/hid/midi.h ****     MidiRxParseCallback parse_callback_;
 114:../libDaisy/src/hid/midi.h **** 
 115:../libDaisy/src/hid/midi.h ****     /** Static callback for Uart MIDI that occurs when
 116:../libDaisy/src/hid/midi.h ****          *  new data is available from the peripheral.
 117:../libDaisy/src/hid/midi.h ****          *  The new data is transferred from the peripheral to the
 118:../libDaisy/src/hid/midi.h ****          *  MIDI instance's byte FIFO that feeds the MIDI parser.
 119:../libDaisy/src/hid/midi.h ****          *
 120:../libDaisy/src/hid/midi.h ****          *  TODO: Handle UartHandler errors better/at all.
 121:../libDaisy/src/hid/midi.h ****          *  (If there is a UART error, there's not really any recovery
 122:../libDaisy/src/hid/midi.h ****          *  option at the moment)
 123:../libDaisy/src/hid/midi.h ****          */
 124:../libDaisy/src/hid/midi.h ****     static void rxCallback(uint8_t*            data,
 125:../libDaisy/src/hid/midi.h ****                            size_t              size,
 126:../libDaisy/src/hid/midi.h ****                            void*               context,
 127:../libDaisy/src/hid/midi.h ****                            UartHandler::Result res)
 128:../libDaisy/src/hid/midi.h ****     {
 129:../libDaisy/src/hid/midi.h ****         /** Read context as transport type */
 130:../libDaisy/src/hid/midi.h ****         MidiUartTransport* transport
 131:../libDaisy/src/hid/midi.h ****             = reinterpret_cast<MidiUartTransport*>(context);
 132:../libDaisy/src/hid/midi.h ****         if(res == UartHandler::Result::OK)
 133:../libDaisy/src/hid/midi.h ****         {
 134:../libDaisy/src/hid/midi.h ****             if(transport->parse_callback_)
 135:../libDaisy/src/hid/midi.h ****             {
 136:../libDaisy/src/hid/midi.h ****                 transport->parse_callback_(
 137:../libDaisy/src/hid/midi.h ****                     data, size, transport->parse_context_);
 138:../libDaisy/src/hid/midi.h ****             }
 139:../libDaisy/src/hid/midi.h ****         }
 140:../libDaisy/src/hid/midi.h ****     }
 141:../libDaisy/src/hid/midi.h **** };
 142:../libDaisy/src/hid/midi.h **** 
 143:../libDaisy/src/hid/midi.h **** /**
 144:../libDaisy/src/hid/midi.h ****     @brief Simple MIDI Handler \n
 145:../libDaisy/src/hid/midi.h ****     Parses bytes from an input into valid MidiEvents. \n
 146:../libDaisy/src/hid/midi.h ****     The MidiEvents fill a FIFO queue that the user can pop messages from.
 147:../libDaisy/src/hid/midi.h ****     @author shensley
 148:../libDaisy/src/hid/midi.h ****     @date March 2020
 149:../libDaisy/src/hid/midi.h ****     @ingroup midi
 150:../libDaisy/src/hid/midi.h **** */
 151:../libDaisy/src/hid/midi.h **** template <typename Transport>
 152:../libDaisy/src/hid/midi.h **** class MidiHandler
 153:../libDaisy/src/hid/midi.h **** {
 154:../libDaisy/src/hid/midi.h ****   public:
 155:../libDaisy/src/hid/midi.h ****     MidiHandler() {}
 156:../libDaisy/src/hid/midi.h ****     ~MidiHandler() {}
 157:../libDaisy/src/hid/midi.h **** 
 158:../libDaisy/src/hid/midi.h ****     struct Config
 731              		.loc 4 158 12 is_stmt 1 view .LVU146
 732              	.LBE73:
 141:../kxmx_bluemchen/src/kxmx_bluemchen.cpp ****     daisy::MidiUartHandler::Config midi_config;
 733              		.loc 2 141 1 is_stmt 0 view .LVU147
 734 0004 0446     		mov	r4, r0
ARM GAS  /tmp/ccfXsGBh.s 			page 21


 735              	.LBB75:
 736              	.LBB74:
 737              		.loc 4 158 12 view .LVU148
 738 0006 01AD     		add	r5, sp, #4
 739              	.LVL72:
 740              		.loc 4 158 12 view .LVU149
 741 0008 05AE     		add	r6, sp, #20
 742 000a 2846     		mov	r0, r5
 743              	.LVL73:
 744              		.loc 4 158 12 view .LVU150
 745 000c FFF7FEFF 		bl	_ZN5daisy17MidiUartTransport6ConfigC1Ev
 746              	.LVL74:
 747              		.loc 4 158 12 view .LVU151
 748              	.LBE74:
 749              	.LBE75:
 143:../kxmx_bluemchen/src/kxmx_bluemchen.cpp ****     midi.Init(midi_config);
 750              		.loc 2 143 5 is_stmt 1 view .LVU152
 751              		.loc 2 143 5 is_stmt 0 view .LVU153
 752 0010 95E80F00 		ldm	r5, {r0, r1, r2, r3}
 753              	.LBB76:
 754              	.LBB77:
 159:../libDaisy/src/hid/midi.h ****     {
 160:../libDaisy/src/hid/midi.h ****         typename Transport::Config transport_config;
 161:../libDaisy/src/hid/midi.h ****     };
 162:../libDaisy/src/hid/midi.h **** 
 163:../libDaisy/src/hid/midi.h ****     /** Initializes the MidiHandler
 164:../libDaisy/src/hid/midi.h ****      *  \param config Configuration structure used to define specifics to the MIDI Handler.
 165:../libDaisy/src/hid/midi.h ****      */
 166:../libDaisy/src/hid/midi.h ****     void Init(Config config)
 167:../libDaisy/src/hid/midi.h ****     {
 168:../libDaisy/src/hid/midi.h ****         config_ = config;
 755              		.loc 4 168 9 view .LVU154
 756 0014 04F1E805 		add	r5, r4, #232
 757              	.LVL75:
 758              		.loc 4 168 9 view .LVU155
 759 0018 86E80F00 		stm	r6, {r0, r1, r2, r3}
 760              	.LBE77:
 761              	.LBI76:
 166:../libDaisy/src/hid/midi.h ****     {
 762              		.loc 4 166 10 is_stmt 1 view .LVU156
 763 001c 09AE     		add	r6, sp, #36
 764              	.LBB96:
 765              		.loc 4 168 9 is_stmt 0 view .LVU157
 766 001e 85E80F00 		stm	r5, {r0, r1, r2, r3}
 767              	.LVL76:
 768              		.loc 4 168 9 view .LVU158
 769 0022 86E80F00 		stm	r6, {r0, r1, r2, r3}
 770              	.LBB78:
 771              	.LBB79:
 772              	.LBB80:
 773              	.LBB81:
 774              	.LBB82:
 775              		.file 5 "../libDaisy/src/per/uart.h"
   1:../libDaisy/src/per/uart.h **** /* 
   2:../libDaisy/src/per/uart.h **** TODO
   3:../libDaisy/src/per/uart.h **** - Overflow handling, etc. for Rx Queue.
   4:../libDaisy/src/per/uart.h **** */
ARM GAS  /tmp/ccfXsGBh.s 			page 22


   5:../libDaisy/src/per/uart.h **** 
   6:../libDaisy/src/per/uart.h **** #pragma once
   7:../libDaisy/src/per/uart.h **** #ifndef DSY_UART_H
   8:../libDaisy/src/per/uart.h **** #define DSY_UART_H /**< macro */
   9:../libDaisy/src/per/uart.h **** #include "daisy_core.h"
  10:../libDaisy/src/per/uart.h **** 
  11:../libDaisy/src/per/uart.h **** 
  12:../libDaisy/src/per/uart.h **** namespace daisy
  13:../libDaisy/src/per/uart.h **** {
  14:../libDaisy/src/per/uart.h **** /** @addtogroup serial
  15:../libDaisy/src/per/uart.h ****     @{
  16:../libDaisy/src/per/uart.h ****     */
  17:../libDaisy/src/per/uart.h **** 
  18:../libDaisy/src/per/uart.h **** /** 
  19:../libDaisy/src/per/uart.h ****     Uart Peripheral
  20:../libDaisy/src/per/uart.h ****     @author shensley
  21:../libDaisy/src/per/uart.h ****     @date March 2020
  22:../libDaisy/src/per/uart.h ****     */
  23:../libDaisy/src/per/uart.h **** class UartHandler
  24:../libDaisy/src/per/uart.h **** {
  25:../libDaisy/src/per/uart.h ****   public:
  26:../libDaisy/src/per/uart.h ****     struct Config
  27:../libDaisy/src/per/uart.h ****     {
  28:../libDaisy/src/per/uart.h ****         enum class Peripheral
  29:../libDaisy/src/per/uart.h ****         {
  30:../libDaisy/src/per/uart.h ****             USART_1,
  31:../libDaisy/src/per/uart.h ****             USART_2,
  32:../libDaisy/src/per/uart.h ****             USART_3,
  33:../libDaisy/src/per/uart.h ****             UART_4,
  34:../libDaisy/src/per/uart.h ****             UART_5,
  35:../libDaisy/src/per/uart.h ****             USART_6,
  36:../libDaisy/src/per/uart.h ****             UART_7,
  37:../libDaisy/src/per/uart.h ****             UART_8,
  38:../libDaisy/src/per/uart.h ****             LPUART_1,
  39:../libDaisy/src/per/uart.h ****         };
  40:../libDaisy/src/per/uart.h **** 
  41:../libDaisy/src/per/uart.h ****         enum class StopBits
  42:../libDaisy/src/per/uart.h ****         {
  43:../libDaisy/src/per/uart.h ****             BITS_0_5,
  44:../libDaisy/src/per/uart.h ****             BITS_1,
  45:../libDaisy/src/per/uart.h ****             BITS_1_5,
  46:../libDaisy/src/per/uart.h ****             BITS_2,
  47:../libDaisy/src/per/uart.h ****         };
  48:../libDaisy/src/per/uart.h **** 
  49:../libDaisy/src/per/uart.h ****         enum class Parity
  50:../libDaisy/src/per/uart.h ****         {
  51:../libDaisy/src/per/uart.h ****             NONE,
  52:../libDaisy/src/per/uart.h ****             EVEN,
  53:../libDaisy/src/per/uart.h ****             ODD,
  54:../libDaisy/src/per/uart.h ****         };
  55:../libDaisy/src/per/uart.h **** 
  56:../libDaisy/src/per/uart.h ****         enum class Mode
  57:../libDaisy/src/per/uart.h ****         {
  58:../libDaisy/src/per/uart.h ****             RX,
  59:../libDaisy/src/per/uart.h ****             TX,
  60:../libDaisy/src/per/uart.h ****             TX_RX,
  61:../libDaisy/src/per/uart.h ****         };
ARM GAS  /tmp/ccfXsGBh.s 			page 23


  62:../libDaisy/src/per/uart.h **** 
  63:../libDaisy/src/per/uart.h ****         enum class WordLength
  64:../libDaisy/src/per/uart.h ****         {
  65:../libDaisy/src/per/uart.h ****             BITS_7,
  66:../libDaisy/src/per/uart.h ****             BITS_8,
  67:../libDaisy/src/per/uart.h ****             BITS_9,
  68:../libDaisy/src/per/uart.h ****         };
  69:../libDaisy/src/per/uart.h **** 
  70:../libDaisy/src/per/uart.h ****         struct
  71:../libDaisy/src/per/uart.h ****         {
  72:../libDaisy/src/per/uart.h ****             dsy_gpio_pin tx; /**< & */
  73:../libDaisy/src/per/uart.h ****             dsy_gpio_pin rx; /**< & */
  74:../libDaisy/src/per/uart.h ****         } pin_config;        /**< & */
  75:../libDaisy/src/per/uart.h **** 
  76:../libDaisy/src/per/uart.h ****         Config()
  77:../libDaisy/src/per/uart.h ****         {
  78:../libDaisy/src/per/uart.h ****             // user must init periph, pin_config, and mode
  79:../libDaisy/src/per/uart.h ****             stopbits   = StopBits::BITS_1;
  80:../libDaisy/src/per/uart.h ****             parity     = Parity::NONE;
 776              		.loc 5 80 24 view .LVU159
 777 0026 0123     		movs	r3, #1
 778 0028 0021     		movs	r1, #0
 779 002a 0546     		mov	r5, r0
 780              	.LVL77:
  81:../libDaisy/src/per/uart.h ****             wordlength = WordLength::BITS_8;
 781              		.loc 5 81 24 view .LVU160
 782 002c 1293     		str	r3, [sp, #72]
 783              	.LBE82:
 784              	.LBE81:
 785              	.LBE80:
  74:../libDaisy/src/hid/midi.h ****         uart_config.pin_config.rx = config.rx;
 786              		.loc 4 74 35 view .LVU161
 787 002e 0E95     		str	r5, [sp, #56]
 788              	.LBB87:
 789              	.LBB85:
 790              	.LBB83:
  80:../libDaisy/src/per/uart.h ****             wordlength = WordLength::BITS_8;
 791              		.loc 5 80 24 view .LVU162
 792 0030 CDE90F31 		strd	r3, r1, [sp, #60]
  82:../libDaisy/src/per/uart.h ****             baudrate   = 31250;
 793              		.loc 5 82 24 view .LVU163
 794 0034 47F61223 		movw	r3, #31250
 795 0038 1393     		str	r3, [sp, #76]
 796              	.LBE83:
 797              	.LBE85:
 798              	.LBE87:
  70:../libDaisy/src/hid/midi.h ****         uart_config.wordlength = UartHandler::Config::WordLength::BITS_8;
 799              		.loc 4 70 32 view .LVU164
 800 003a 0223     		movs	r3, #2
 801 003c 1193     		str	r3, [sp, #68]
  75:../libDaisy/src/hid/midi.h ****         uart_config.pin_config.tx = config.tx;
 802              		.loc 4 75 35 view .LVU165
 803 003e BDF82830 		ldrh	r3, [sp, #40]
 804 0042 D4E93C02 		ldrd	r0, r2, [r4, #240]
 805              	.LVL78:
  75:../libDaisy/src/hid/midi.h ****         uart_config.pin_config.tx = config.tx;
 806              		.loc 4 75 35 view .LVU166
ARM GAS  /tmp/ccfXsGBh.s 			page 24


 807              	.LBE79:
 808              	.LBI78:
  62:../libDaisy/src/hid/midi.h ****     {
 809              		.loc 4 62 17 is_stmt 1 view .LVU167
 810              	.LBB93:
  64:../libDaisy/src/hid/midi.h **** 
 811              		.loc 4 64 9 view .LVU168
 812              	.LBB88:
 813              	.LBI80:
  76:../libDaisy/src/per/uart.h ****         {
 814              		.loc 5 76 9 view .LVU169
 815              	.LBB86:
 816              	.LBB84:
  79:../libDaisy/src/per/uart.h ****             parity     = Parity::NONE;
 817              		.loc 5 79 13 view .LVU170
  81:../libDaisy/src/per/uart.h ****             baudrate   = 31250;
 818              		.loc 5 81 13 view .LVU171
 819              		.loc 5 82 13 view .LVU172
 820              		.loc 5 82 13 is_stmt 0 view .LVU173
 821              	.LBE84:
 822              	.LBE86:
 823              	.LBE88:
  67:../libDaisy/src/hid/midi.h ****         uart_config.stopbits   = UartHandler::Config::StopBits::BITS_1;
 824              		.loc 4 67 9 is_stmt 1 view .LVU174
  68:../libDaisy/src/hid/midi.h ****         uart_config.parity     = UartHandler::Config::Parity::NONE;
 825              		.loc 4 68 9 view .LVU175
  69:../libDaisy/src/hid/midi.h ****         uart_config.mode       = UartHandler::Config::Mode::TX_RX;
 826              		.loc 4 69 9 view .LVU176
  70:../libDaisy/src/hid/midi.h ****         uart_config.wordlength = UartHandler::Config::WordLength::BITS_8;
 827              		.loc 4 70 9 view .LVU177
  71:../libDaisy/src/hid/midi.h **** 
 828              		.loc 4 71 9 view .LVU178
  74:../libDaisy/src/hid/midi.h ****         uart_config.pin_config.rx = config.rx;
 829              		.loc 4 74 9 view .LVU179
  75:../libDaisy/src/hid/midi.h ****         uart_config.pin_config.tx = config.tx;
 830              		.loc 4 75 9 view .LVU180
  75:../libDaisy/src/hid/midi.h ****         uart_config.pin_config.tx = config.tx;
 831              		.loc 4 75 35 is_stmt 0 view .LVU181
 832 0046 ADF83630 		strh	r3, [sp, #54]	@ movhi
  76:../libDaisy/src/hid/midi.h **** 
 833              		.loc 4 76 9 is_stmt 1 view .LVU182
  76:../libDaisy/src/hid/midi.h **** 
 834              		.loc 4 76 35 is_stmt 0 view .LVU183
 835 004a BDF82A30 		ldrh	r3, [sp, #42]
  79:../libDaisy/src/hid/midi.h **** 
 836              		.loc 4 79 24 view .LVU184
 837 004e C4E93F02 		strd	r0, r2, [r4, #252]
  76:../libDaisy/src/hid/midi.h **** 
 838              		.loc 4 76 35 view .LVU185
 839 0052 ADF83430 		strh	r3, [sp, #52]	@ movhi
  78:../libDaisy/src/hid/midi.h ****         rx_buffer_size = config.rx_buffer_size;
 840              		.loc 4 78 9 is_stmt 1 view .LVU186
  82:../libDaisy/src/hid/midi.h **** 
 841              		.loc 4 82 9 view .LVU187
 842              	.LVL79:
 843              	.LBB89:
 844              	.LBI89:
ARM GAS  /tmp/ccfXsGBh.s 			page 25


 845              		.file 6 "/home/hubert/daisy/gcc/arm-none-eabi/include/c++/10.2.1/bits/stl_algobase.h"
   1:/home/hubert/daisy/gcc/arm-none-eabi/include/c++/10.2.1/bits/stl_algobase.h **** // Core algorithmic facilities -*- C++ -*-
   2:/home/hubert/daisy/gcc/arm-none-eabi/include/c++/10.2.1/bits/stl_algobase.h **** 
   3:/home/hubert/daisy/gcc/arm-none-eabi/include/c++/10.2.1/bits/stl_algobase.h **** // Copyright (C) 2001-2020 Free Software Foundation, Inc.
   4:/home/hubert/daisy/gcc/arm-none-eabi/include/c++/10.2.1/bits/stl_algobase.h **** //
   5:/home/hubert/daisy/gcc/arm-none-eabi/include/c++/10.2.1/bits/stl_algobase.h **** // This file is part of the GNU ISO C++ Library.  This library is free
   6:/home/hubert/daisy/gcc/arm-none-eabi/include/c++/10.2.1/bits/stl_algobase.h **** // software; you can redistribute it and/or modify it under the
   7:/home/hubert/daisy/gcc/arm-none-eabi/include/c++/10.2.1/bits/stl_algobase.h **** // terms of the GNU General Public License as published by the
   8:/home/hubert/daisy/gcc/arm-none-eabi/include/c++/10.2.1/bits/stl_algobase.h **** // Free Software Foundation; either version 3, or (at your option)
   9:/home/hubert/daisy/gcc/arm-none-eabi/include/c++/10.2.1/bits/stl_algobase.h **** // any later version.
  10:/home/hubert/daisy/gcc/arm-none-eabi/include/c++/10.2.1/bits/stl_algobase.h **** 
  11:/home/hubert/daisy/gcc/arm-none-eabi/include/c++/10.2.1/bits/stl_algobase.h **** // This library is distributed in the hope that it will be useful,
  12:/home/hubert/daisy/gcc/arm-none-eabi/include/c++/10.2.1/bits/stl_algobase.h **** // but WITHOUT ANY WARRANTY; without even the implied warranty of
  13:/home/hubert/daisy/gcc/arm-none-eabi/include/c++/10.2.1/bits/stl_algobase.h **** // MERCHANTABILITY or FITNESS FOR A PARTICULAR PURPOSE.  See the
  14:/home/hubert/daisy/gcc/arm-none-eabi/include/c++/10.2.1/bits/stl_algobase.h **** // GNU General Public License for more details.
  15:/home/hubert/daisy/gcc/arm-none-eabi/include/c++/10.2.1/bits/stl_algobase.h **** 
  16:/home/hubert/daisy/gcc/arm-none-eabi/include/c++/10.2.1/bits/stl_algobase.h **** // Under Section 7 of GPL version 3, you are granted additional
  17:/home/hubert/daisy/gcc/arm-none-eabi/include/c++/10.2.1/bits/stl_algobase.h **** // permissions described in the GCC Runtime Library Exception, version
  18:/home/hubert/daisy/gcc/arm-none-eabi/include/c++/10.2.1/bits/stl_algobase.h **** // 3.1, as published by the Free Software Foundation.
  19:/home/hubert/daisy/gcc/arm-none-eabi/include/c++/10.2.1/bits/stl_algobase.h **** 
  20:/home/hubert/daisy/gcc/arm-none-eabi/include/c++/10.2.1/bits/stl_algobase.h **** // You should have received a copy of the GNU General Public License and
  21:/home/hubert/daisy/gcc/arm-none-eabi/include/c++/10.2.1/bits/stl_algobase.h **** // a copy of the GCC Runtime Library Exception along with this program;
  22:/home/hubert/daisy/gcc/arm-none-eabi/include/c++/10.2.1/bits/stl_algobase.h **** // see the files COPYING3 and COPYING.RUNTIME respectively.  If not, see
  23:/home/hubert/daisy/gcc/arm-none-eabi/include/c++/10.2.1/bits/stl_algobase.h **** // <http://www.gnu.org/licenses/>.
  24:/home/hubert/daisy/gcc/arm-none-eabi/include/c++/10.2.1/bits/stl_algobase.h **** 
  25:/home/hubert/daisy/gcc/arm-none-eabi/include/c++/10.2.1/bits/stl_algobase.h **** /*
  26:/home/hubert/daisy/gcc/arm-none-eabi/include/c++/10.2.1/bits/stl_algobase.h ****  *
  27:/home/hubert/daisy/gcc/arm-none-eabi/include/c++/10.2.1/bits/stl_algobase.h ****  * Copyright (c) 1994
  28:/home/hubert/daisy/gcc/arm-none-eabi/include/c++/10.2.1/bits/stl_algobase.h ****  * Hewlett-Packard Company
  29:/home/hubert/daisy/gcc/arm-none-eabi/include/c++/10.2.1/bits/stl_algobase.h ****  *
  30:/home/hubert/daisy/gcc/arm-none-eabi/include/c++/10.2.1/bits/stl_algobase.h ****  * Permission to use, copy, modify, distribute and sell this software
  31:/home/hubert/daisy/gcc/arm-none-eabi/include/c++/10.2.1/bits/stl_algobase.h ****  * and its documentation for any purpose is hereby granted without fee,
  32:/home/hubert/daisy/gcc/arm-none-eabi/include/c++/10.2.1/bits/stl_algobase.h ****  * provided that the above copyright notice appear in all copies and
  33:/home/hubert/daisy/gcc/arm-none-eabi/include/c++/10.2.1/bits/stl_algobase.h ****  * that both that copyright notice and this permission notice appear
  34:/home/hubert/daisy/gcc/arm-none-eabi/include/c++/10.2.1/bits/stl_algobase.h ****  * in supporting documentation.  Hewlett-Packard Company makes no
  35:/home/hubert/daisy/gcc/arm-none-eabi/include/c++/10.2.1/bits/stl_algobase.h ****  * representations about the suitability of this software for any
  36:/home/hubert/daisy/gcc/arm-none-eabi/include/c++/10.2.1/bits/stl_algobase.h ****  * purpose.  It is provided "as is" without express or implied warranty.
  37:/home/hubert/daisy/gcc/arm-none-eabi/include/c++/10.2.1/bits/stl_algobase.h ****  *
  38:/home/hubert/daisy/gcc/arm-none-eabi/include/c++/10.2.1/bits/stl_algobase.h ****  *
  39:/home/hubert/daisy/gcc/arm-none-eabi/include/c++/10.2.1/bits/stl_algobase.h ****  * Copyright (c) 1996-1998
  40:/home/hubert/daisy/gcc/arm-none-eabi/include/c++/10.2.1/bits/stl_algobase.h ****  * Silicon Graphics Computer Systems, Inc.
  41:/home/hubert/daisy/gcc/arm-none-eabi/include/c++/10.2.1/bits/stl_algobase.h ****  *
  42:/home/hubert/daisy/gcc/arm-none-eabi/include/c++/10.2.1/bits/stl_algobase.h ****  * Permission to use, copy, modify, distribute and sell this software
  43:/home/hubert/daisy/gcc/arm-none-eabi/include/c++/10.2.1/bits/stl_algobase.h ****  * and its documentation for any purpose is hereby granted without fee,
  44:/home/hubert/daisy/gcc/arm-none-eabi/include/c++/10.2.1/bits/stl_algobase.h ****  * provided that the above copyright notice appear in all copies and
  45:/home/hubert/daisy/gcc/arm-none-eabi/include/c++/10.2.1/bits/stl_algobase.h ****  * that both that copyright notice and this permission notice appear
  46:/home/hubert/daisy/gcc/arm-none-eabi/include/c++/10.2.1/bits/stl_algobase.h ****  * in supporting documentation.  Silicon Graphics makes no
  47:/home/hubert/daisy/gcc/arm-none-eabi/include/c++/10.2.1/bits/stl_algobase.h ****  * representations about the suitability of this software for any
  48:/home/hubert/daisy/gcc/arm-none-eabi/include/c++/10.2.1/bits/stl_algobase.h ****  * purpose.  It is provided "as is" without express or implied warranty.
  49:/home/hubert/daisy/gcc/arm-none-eabi/include/c++/10.2.1/bits/stl_algobase.h ****  */
  50:/home/hubert/daisy/gcc/arm-none-eabi/include/c++/10.2.1/bits/stl_algobase.h **** 
  51:/home/hubert/daisy/gcc/arm-none-eabi/include/c++/10.2.1/bits/stl_algobase.h **** /** @file bits/stl_algobase.h
  52:/home/hubert/daisy/gcc/arm-none-eabi/include/c++/10.2.1/bits/stl_algobase.h ****  *  This is an internal header file, included by other library headers.
  53:/home/hubert/daisy/gcc/arm-none-eabi/include/c++/10.2.1/bits/stl_algobase.h ****  *  Do not attempt to use it directly. @headername{algorithm}
  54:/home/hubert/daisy/gcc/arm-none-eabi/include/c++/10.2.1/bits/stl_algobase.h ****  */
  55:/home/hubert/daisy/gcc/arm-none-eabi/include/c++/10.2.1/bits/stl_algobase.h **** 
  56:/home/hubert/daisy/gcc/arm-none-eabi/include/c++/10.2.1/bits/stl_algobase.h **** #ifndef _STL_ALGOBASE_H
ARM GAS  /tmp/ccfXsGBh.s 			page 26


  57:/home/hubert/daisy/gcc/arm-none-eabi/include/c++/10.2.1/bits/stl_algobase.h **** #define _STL_ALGOBASE_H 1
  58:/home/hubert/daisy/gcc/arm-none-eabi/include/c++/10.2.1/bits/stl_algobase.h **** 
  59:/home/hubert/daisy/gcc/arm-none-eabi/include/c++/10.2.1/bits/stl_algobase.h **** #include <bits/c++config.h>
  60:/home/hubert/daisy/gcc/arm-none-eabi/include/c++/10.2.1/bits/stl_algobase.h **** #include <bits/functexcept.h>
  61:/home/hubert/daisy/gcc/arm-none-eabi/include/c++/10.2.1/bits/stl_algobase.h **** #include <bits/cpp_type_traits.h>
  62:/home/hubert/daisy/gcc/arm-none-eabi/include/c++/10.2.1/bits/stl_algobase.h **** #include <ext/type_traits.h>
  63:/home/hubert/daisy/gcc/arm-none-eabi/include/c++/10.2.1/bits/stl_algobase.h **** #include <ext/numeric_traits.h>
  64:/home/hubert/daisy/gcc/arm-none-eabi/include/c++/10.2.1/bits/stl_algobase.h **** #include <bits/stl_pair.h>
  65:/home/hubert/daisy/gcc/arm-none-eabi/include/c++/10.2.1/bits/stl_algobase.h **** #include <bits/stl_iterator_base_types.h>
  66:/home/hubert/daisy/gcc/arm-none-eabi/include/c++/10.2.1/bits/stl_algobase.h **** #include <bits/stl_iterator_base_funcs.h>
  67:/home/hubert/daisy/gcc/arm-none-eabi/include/c++/10.2.1/bits/stl_algobase.h **** #include <bits/stl_iterator.h>
  68:/home/hubert/daisy/gcc/arm-none-eabi/include/c++/10.2.1/bits/stl_algobase.h **** #include <bits/concept_check.h>
  69:/home/hubert/daisy/gcc/arm-none-eabi/include/c++/10.2.1/bits/stl_algobase.h **** #include <debug/debug.h>
  70:/home/hubert/daisy/gcc/arm-none-eabi/include/c++/10.2.1/bits/stl_algobase.h **** #include <bits/move.h> // For std::swap
  71:/home/hubert/daisy/gcc/arm-none-eabi/include/c++/10.2.1/bits/stl_algobase.h **** #include <bits/predefined_ops.h>
  72:/home/hubert/daisy/gcc/arm-none-eabi/include/c++/10.2.1/bits/stl_algobase.h **** #if __cplusplus >= 201103L
  73:/home/hubert/daisy/gcc/arm-none-eabi/include/c++/10.2.1/bits/stl_algobase.h **** # include <type_traits>
  74:/home/hubert/daisy/gcc/arm-none-eabi/include/c++/10.2.1/bits/stl_algobase.h **** #endif
  75:/home/hubert/daisy/gcc/arm-none-eabi/include/c++/10.2.1/bits/stl_algobase.h **** #if __cplusplus > 201703L
  76:/home/hubert/daisy/gcc/arm-none-eabi/include/c++/10.2.1/bits/stl_algobase.h **** # include <compare>
  77:/home/hubert/daisy/gcc/arm-none-eabi/include/c++/10.2.1/bits/stl_algobase.h **** #endif
  78:/home/hubert/daisy/gcc/arm-none-eabi/include/c++/10.2.1/bits/stl_algobase.h **** 
  79:/home/hubert/daisy/gcc/arm-none-eabi/include/c++/10.2.1/bits/stl_algobase.h **** namespace std _GLIBCXX_VISIBILITY(default)
  80:/home/hubert/daisy/gcc/arm-none-eabi/include/c++/10.2.1/bits/stl_algobase.h **** {
  81:/home/hubert/daisy/gcc/arm-none-eabi/include/c++/10.2.1/bits/stl_algobase.h **** _GLIBCXX_BEGIN_NAMESPACE_VERSION
  82:/home/hubert/daisy/gcc/arm-none-eabi/include/c++/10.2.1/bits/stl_algobase.h **** 
  83:/home/hubert/daisy/gcc/arm-none-eabi/include/c++/10.2.1/bits/stl_algobase.h ****   /*
  84:/home/hubert/daisy/gcc/arm-none-eabi/include/c++/10.2.1/bits/stl_algobase.h ****    * A constexpr wrapper for __builtin_memcmp.
  85:/home/hubert/daisy/gcc/arm-none-eabi/include/c++/10.2.1/bits/stl_algobase.h ****    * @param __num The number of elements of type _Tp (not bytes).
  86:/home/hubert/daisy/gcc/arm-none-eabi/include/c++/10.2.1/bits/stl_algobase.h ****    */
  87:/home/hubert/daisy/gcc/arm-none-eabi/include/c++/10.2.1/bits/stl_algobase.h ****   template<typename _Tp, typename _Up>
  88:/home/hubert/daisy/gcc/arm-none-eabi/include/c++/10.2.1/bits/stl_algobase.h ****     _GLIBCXX14_CONSTEXPR
  89:/home/hubert/daisy/gcc/arm-none-eabi/include/c++/10.2.1/bits/stl_algobase.h ****     inline int
  90:/home/hubert/daisy/gcc/arm-none-eabi/include/c++/10.2.1/bits/stl_algobase.h ****     __memcmp(const _Tp* __first1, const _Up* __first2, size_t __num)
  91:/home/hubert/daisy/gcc/arm-none-eabi/include/c++/10.2.1/bits/stl_algobase.h ****     {
  92:/home/hubert/daisy/gcc/arm-none-eabi/include/c++/10.2.1/bits/stl_algobase.h **** #if __cplusplus >= 201103L
  93:/home/hubert/daisy/gcc/arm-none-eabi/include/c++/10.2.1/bits/stl_algobase.h ****       static_assert(sizeof(_Tp) == sizeof(_Up), "can be compared with memcmp");
  94:/home/hubert/daisy/gcc/arm-none-eabi/include/c++/10.2.1/bits/stl_algobase.h **** #endif
  95:/home/hubert/daisy/gcc/arm-none-eabi/include/c++/10.2.1/bits/stl_algobase.h **** #ifdef __cpp_lib_is_constant_evaluated
  96:/home/hubert/daisy/gcc/arm-none-eabi/include/c++/10.2.1/bits/stl_algobase.h ****       if (std::is_constant_evaluated())
  97:/home/hubert/daisy/gcc/arm-none-eabi/include/c++/10.2.1/bits/stl_algobase.h **** 	{
  98:/home/hubert/daisy/gcc/arm-none-eabi/include/c++/10.2.1/bits/stl_algobase.h **** 	  for(; __num > 0; ++__first1, ++__first2, --__num)
  99:/home/hubert/daisy/gcc/arm-none-eabi/include/c++/10.2.1/bits/stl_algobase.h **** 	    if (*__first1 != *__first2)
 100:/home/hubert/daisy/gcc/arm-none-eabi/include/c++/10.2.1/bits/stl_algobase.h **** 	      return *__first1 < *__first2 ? -1 : 1;
 101:/home/hubert/daisy/gcc/arm-none-eabi/include/c++/10.2.1/bits/stl_algobase.h **** 	  return 0;
 102:/home/hubert/daisy/gcc/arm-none-eabi/include/c++/10.2.1/bits/stl_algobase.h **** 	}
 103:/home/hubert/daisy/gcc/arm-none-eabi/include/c++/10.2.1/bits/stl_algobase.h ****       else
 104:/home/hubert/daisy/gcc/arm-none-eabi/include/c++/10.2.1/bits/stl_algobase.h **** #endif
 105:/home/hubert/daisy/gcc/arm-none-eabi/include/c++/10.2.1/bits/stl_algobase.h **** 	return __builtin_memcmp(__first1, __first2, sizeof(_Tp) * __num);
 106:/home/hubert/daisy/gcc/arm-none-eabi/include/c++/10.2.1/bits/stl_algobase.h ****     }
 107:/home/hubert/daisy/gcc/arm-none-eabi/include/c++/10.2.1/bits/stl_algobase.h **** 
 108:/home/hubert/daisy/gcc/arm-none-eabi/include/c++/10.2.1/bits/stl_algobase.h **** #if __cplusplus < 201103L
 109:/home/hubert/daisy/gcc/arm-none-eabi/include/c++/10.2.1/bits/stl_algobase.h ****   // See http://gcc.gnu.org/ml/libstdc++/2004-08/msg00167.html: in a
 110:/home/hubert/daisy/gcc/arm-none-eabi/include/c++/10.2.1/bits/stl_algobase.h ****   // nutshell, we are partially implementing the resolution of DR 187,
 111:/home/hubert/daisy/gcc/arm-none-eabi/include/c++/10.2.1/bits/stl_algobase.h ****   // when it's safe, i.e., the value_types are equal.
 112:/home/hubert/daisy/gcc/arm-none-eabi/include/c++/10.2.1/bits/stl_algobase.h ****   template<bool _BoolType>
 113:/home/hubert/daisy/gcc/arm-none-eabi/include/c++/10.2.1/bits/stl_algobase.h ****     struct __iter_swap
ARM GAS  /tmp/ccfXsGBh.s 			page 27


 114:/home/hubert/daisy/gcc/arm-none-eabi/include/c++/10.2.1/bits/stl_algobase.h ****     {
 115:/home/hubert/daisy/gcc/arm-none-eabi/include/c++/10.2.1/bits/stl_algobase.h ****       template<typename _ForwardIterator1, typename _ForwardIterator2>
 116:/home/hubert/daisy/gcc/arm-none-eabi/include/c++/10.2.1/bits/stl_algobase.h **** 	static void
 117:/home/hubert/daisy/gcc/arm-none-eabi/include/c++/10.2.1/bits/stl_algobase.h **** 	iter_swap(_ForwardIterator1 __a, _ForwardIterator2 __b)
 118:/home/hubert/daisy/gcc/arm-none-eabi/include/c++/10.2.1/bits/stl_algobase.h **** 	{
 119:/home/hubert/daisy/gcc/arm-none-eabi/include/c++/10.2.1/bits/stl_algobase.h **** 	  typedef typename iterator_traits<_ForwardIterator1>::value_type
 120:/home/hubert/daisy/gcc/arm-none-eabi/include/c++/10.2.1/bits/stl_algobase.h **** 	    _ValueType1;
 121:/home/hubert/daisy/gcc/arm-none-eabi/include/c++/10.2.1/bits/stl_algobase.h **** 	  _ValueType1 __tmp = *__a;
 122:/home/hubert/daisy/gcc/arm-none-eabi/include/c++/10.2.1/bits/stl_algobase.h **** 	  *__a = *__b;
 123:/home/hubert/daisy/gcc/arm-none-eabi/include/c++/10.2.1/bits/stl_algobase.h **** 	  *__b = __tmp;
 124:/home/hubert/daisy/gcc/arm-none-eabi/include/c++/10.2.1/bits/stl_algobase.h **** 	}
 125:/home/hubert/daisy/gcc/arm-none-eabi/include/c++/10.2.1/bits/stl_algobase.h ****     };
 126:/home/hubert/daisy/gcc/arm-none-eabi/include/c++/10.2.1/bits/stl_algobase.h **** 
 127:/home/hubert/daisy/gcc/arm-none-eabi/include/c++/10.2.1/bits/stl_algobase.h ****   template<>
 128:/home/hubert/daisy/gcc/arm-none-eabi/include/c++/10.2.1/bits/stl_algobase.h ****     struct __iter_swap<true>
 129:/home/hubert/daisy/gcc/arm-none-eabi/include/c++/10.2.1/bits/stl_algobase.h ****     {
 130:/home/hubert/daisy/gcc/arm-none-eabi/include/c++/10.2.1/bits/stl_algobase.h ****       template<typename _ForwardIterator1, typename _ForwardIterator2>
 131:/home/hubert/daisy/gcc/arm-none-eabi/include/c++/10.2.1/bits/stl_algobase.h **** 	static void
 132:/home/hubert/daisy/gcc/arm-none-eabi/include/c++/10.2.1/bits/stl_algobase.h **** 	iter_swap(_ForwardIterator1 __a, _ForwardIterator2 __b)
 133:/home/hubert/daisy/gcc/arm-none-eabi/include/c++/10.2.1/bits/stl_algobase.h **** 	{
 134:/home/hubert/daisy/gcc/arm-none-eabi/include/c++/10.2.1/bits/stl_algobase.h **** 	  swap(*__a, *__b);
 135:/home/hubert/daisy/gcc/arm-none-eabi/include/c++/10.2.1/bits/stl_algobase.h **** 	}
 136:/home/hubert/daisy/gcc/arm-none-eabi/include/c++/10.2.1/bits/stl_algobase.h ****     };
 137:/home/hubert/daisy/gcc/arm-none-eabi/include/c++/10.2.1/bits/stl_algobase.h **** #endif // C++03
 138:/home/hubert/daisy/gcc/arm-none-eabi/include/c++/10.2.1/bits/stl_algobase.h **** 
 139:/home/hubert/daisy/gcc/arm-none-eabi/include/c++/10.2.1/bits/stl_algobase.h ****   /**
 140:/home/hubert/daisy/gcc/arm-none-eabi/include/c++/10.2.1/bits/stl_algobase.h ****    *  @brief Swaps the contents of two iterators.
 141:/home/hubert/daisy/gcc/arm-none-eabi/include/c++/10.2.1/bits/stl_algobase.h ****    *  @ingroup mutating_algorithms
 142:/home/hubert/daisy/gcc/arm-none-eabi/include/c++/10.2.1/bits/stl_algobase.h ****    *  @param  __a  An iterator.
 143:/home/hubert/daisy/gcc/arm-none-eabi/include/c++/10.2.1/bits/stl_algobase.h ****    *  @param  __b  Another iterator.
 144:/home/hubert/daisy/gcc/arm-none-eabi/include/c++/10.2.1/bits/stl_algobase.h ****    *  @return   Nothing.
 145:/home/hubert/daisy/gcc/arm-none-eabi/include/c++/10.2.1/bits/stl_algobase.h ****    *
 146:/home/hubert/daisy/gcc/arm-none-eabi/include/c++/10.2.1/bits/stl_algobase.h ****    *  This function swaps the values pointed to by two iterators, not the
 147:/home/hubert/daisy/gcc/arm-none-eabi/include/c++/10.2.1/bits/stl_algobase.h ****    *  iterators themselves.
 148:/home/hubert/daisy/gcc/arm-none-eabi/include/c++/10.2.1/bits/stl_algobase.h ****   */
 149:/home/hubert/daisy/gcc/arm-none-eabi/include/c++/10.2.1/bits/stl_algobase.h ****   template<typename _ForwardIterator1, typename _ForwardIterator2>
 150:/home/hubert/daisy/gcc/arm-none-eabi/include/c++/10.2.1/bits/stl_algobase.h ****     _GLIBCXX20_CONSTEXPR
 151:/home/hubert/daisy/gcc/arm-none-eabi/include/c++/10.2.1/bits/stl_algobase.h ****     inline void
 152:/home/hubert/daisy/gcc/arm-none-eabi/include/c++/10.2.1/bits/stl_algobase.h ****     iter_swap(_ForwardIterator1 __a, _ForwardIterator2 __b)
 153:/home/hubert/daisy/gcc/arm-none-eabi/include/c++/10.2.1/bits/stl_algobase.h ****     {
 154:/home/hubert/daisy/gcc/arm-none-eabi/include/c++/10.2.1/bits/stl_algobase.h ****       // concept requirements
 155:/home/hubert/daisy/gcc/arm-none-eabi/include/c++/10.2.1/bits/stl_algobase.h ****       __glibcxx_function_requires(_Mutable_ForwardIteratorConcept<
 156:/home/hubert/daisy/gcc/arm-none-eabi/include/c++/10.2.1/bits/stl_algobase.h **** 				  _ForwardIterator1>)
 157:/home/hubert/daisy/gcc/arm-none-eabi/include/c++/10.2.1/bits/stl_algobase.h ****       __glibcxx_function_requires(_Mutable_ForwardIteratorConcept<
 158:/home/hubert/daisy/gcc/arm-none-eabi/include/c++/10.2.1/bits/stl_algobase.h **** 				  _ForwardIterator2>)
 159:/home/hubert/daisy/gcc/arm-none-eabi/include/c++/10.2.1/bits/stl_algobase.h **** 
 160:/home/hubert/daisy/gcc/arm-none-eabi/include/c++/10.2.1/bits/stl_algobase.h **** #if __cplusplus < 201103L
 161:/home/hubert/daisy/gcc/arm-none-eabi/include/c++/10.2.1/bits/stl_algobase.h ****       typedef typename iterator_traits<_ForwardIterator1>::value_type
 162:/home/hubert/daisy/gcc/arm-none-eabi/include/c++/10.2.1/bits/stl_algobase.h **** 	_ValueType1;
 163:/home/hubert/daisy/gcc/arm-none-eabi/include/c++/10.2.1/bits/stl_algobase.h ****       typedef typename iterator_traits<_ForwardIterator2>::value_type
 164:/home/hubert/daisy/gcc/arm-none-eabi/include/c++/10.2.1/bits/stl_algobase.h **** 	_ValueType2;
 165:/home/hubert/daisy/gcc/arm-none-eabi/include/c++/10.2.1/bits/stl_algobase.h **** 
 166:/home/hubert/daisy/gcc/arm-none-eabi/include/c++/10.2.1/bits/stl_algobase.h ****       __glibcxx_function_requires(_ConvertibleConcept<_ValueType1,
 167:/home/hubert/daisy/gcc/arm-none-eabi/include/c++/10.2.1/bits/stl_algobase.h **** 				  _ValueType2>)
 168:/home/hubert/daisy/gcc/arm-none-eabi/include/c++/10.2.1/bits/stl_algobase.h ****       __glibcxx_function_requires(_ConvertibleConcept<_ValueType2,
 169:/home/hubert/daisy/gcc/arm-none-eabi/include/c++/10.2.1/bits/stl_algobase.h **** 				  _ValueType1>)
 170:/home/hubert/daisy/gcc/arm-none-eabi/include/c++/10.2.1/bits/stl_algobase.h **** 
ARM GAS  /tmp/ccfXsGBh.s 			page 28


 171:/home/hubert/daisy/gcc/arm-none-eabi/include/c++/10.2.1/bits/stl_algobase.h ****       typedef typename iterator_traits<_ForwardIterator1>::reference
 172:/home/hubert/daisy/gcc/arm-none-eabi/include/c++/10.2.1/bits/stl_algobase.h **** 	_ReferenceType1;
 173:/home/hubert/daisy/gcc/arm-none-eabi/include/c++/10.2.1/bits/stl_algobase.h ****       typedef typename iterator_traits<_ForwardIterator2>::reference
 174:/home/hubert/daisy/gcc/arm-none-eabi/include/c++/10.2.1/bits/stl_algobase.h **** 	_ReferenceType2;
 175:/home/hubert/daisy/gcc/arm-none-eabi/include/c++/10.2.1/bits/stl_algobase.h ****       std::__iter_swap<__are_same<_ValueType1, _ValueType2>::__value
 176:/home/hubert/daisy/gcc/arm-none-eabi/include/c++/10.2.1/bits/stl_algobase.h **** 	&& __are_same<_ValueType1&, _ReferenceType1>::__value
 177:/home/hubert/daisy/gcc/arm-none-eabi/include/c++/10.2.1/bits/stl_algobase.h **** 	&& __are_same<_ValueType2&, _ReferenceType2>::__value>::
 178:/home/hubert/daisy/gcc/arm-none-eabi/include/c++/10.2.1/bits/stl_algobase.h **** 	iter_swap(__a, __b);
 179:/home/hubert/daisy/gcc/arm-none-eabi/include/c++/10.2.1/bits/stl_algobase.h **** #else
 180:/home/hubert/daisy/gcc/arm-none-eabi/include/c++/10.2.1/bits/stl_algobase.h ****       // _GLIBCXX_RESOLVE_LIB_DEFECTS
 181:/home/hubert/daisy/gcc/arm-none-eabi/include/c++/10.2.1/bits/stl_algobase.h ****       // 187. iter_swap underspecified
 182:/home/hubert/daisy/gcc/arm-none-eabi/include/c++/10.2.1/bits/stl_algobase.h ****       swap(*__a, *__b);
 183:/home/hubert/daisy/gcc/arm-none-eabi/include/c++/10.2.1/bits/stl_algobase.h **** #endif
 184:/home/hubert/daisy/gcc/arm-none-eabi/include/c++/10.2.1/bits/stl_algobase.h ****     }
 185:/home/hubert/daisy/gcc/arm-none-eabi/include/c++/10.2.1/bits/stl_algobase.h **** 
 186:/home/hubert/daisy/gcc/arm-none-eabi/include/c++/10.2.1/bits/stl_algobase.h ****   /**
 187:/home/hubert/daisy/gcc/arm-none-eabi/include/c++/10.2.1/bits/stl_algobase.h ****    *  @brief Swap the elements of two sequences.
 188:/home/hubert/daisy/gcc/arm-none-eabi/include/c++/10.2.1/bits/stl_algobase.h ****    *  @ingroup mutating_algorithms
 189:/home/hubert/daisy/gcc/arm-none-eabi/include/c++/10.2.1/bits/stl_algobase.h ****    *  @param  __first1  A forward iterator.
 190:/home/hubert/daisy/gcc/arm-none-eabi/include/c++/10.2.1/bits/stl_algobase.h ****    *  @param  __last1   A forward iterator.
 191:/home/hubert/daisy/gcc/arm-none-eabi/include/c++/10.2.1/bits/stl_algobase.h ****    *  @param  __first2  A forward iterator.
 192:/home/hubert/daisy/gcc/arm-none-eabi/include/c++/10.2.1/bits/stl_algobase.h ****    *  @return   An iterator equal to @p first2+(last1-first1).
 193:/home/hubert/daisy/gcc/arm-none-eabi/include/c++/10.2.1/bits/stl_algobase.h ****    *
 194:/home/hubert/daisy/gcc/arm-none-eabi/include/c++/10.2.1/bits/stl_algobase.h ****    *  Swaps each element in the range @p [first1,last1) with the
 195:/home/hubert/daisy/gcc/arm-none-eabi/include/c++/10.2.1/bits/stl_algobase.h ****    *  corresponding element in the range @p [first2,(last1-first1)).
 196:/home/hubert/daisy/gcc/arm-none-eabi/include/c++/10.2.1/bits/stl_algobase.h ****    *  The ranges must not overlap.
 197:/home/hubert/daisy/gcc/arm-none-eabi/include/c++/10.2.1/bits/stl_algobase.h ****   */
 198:/home/hubert/daisy/gcc/arm-none-eabi/include/c++/10.2.1/bits/stl_algobase.h ****   template<typename _ForwardIterator1, typename _ForwardIterator2>
 199:/home/hubert/daisy/gcc/arm-none-eabi/include/c++/10.2.1/bits/stl_algobase.h ****     _GLIBCXX20_CONSTEXPR
 200:/home/hubert/daisy/gcc/arm-none-eabi/include/c++/10.2.1/bits/stl_algobase.h ****     _ForwardIterator2
 201:/home/hubert/daisy/gcc/arm-none-eabi/include/c++/10.2.1/bits/stl_algobase.h ****     swap_ranges(_ForwardIterator1 __first1, _ForwardIterator1 __last1,
 202:/home/hubert/daisy/gcc/arm-none-eabi/include/c++/10.2.1/bits/stl_algobase.h **** 		_ForwardIterator2 __first2)
 203:/home/hubert/daisy/gcc/arm-none-eabi/include/c++/10.2.1/bits/stl_algobase.h ****     {
 204:/home/hubert/daisy/gcc/arm-none-eabi/include/c++/10.2.1/bits/stl_algobase.h ****       // concept requirements
 205:/home/hubert/daisy/gcc/arm-none-eabi/include/c++/10.2.1/bits/stl_algobase.h ****       __glibcxx_function_requires(_Mutable_ForwardIteratorConcept<
 206:/home/hubert/daisy/gcc/arm-none-eabi/include/c++/10.2.1/bits/stl_algobase.h **** 				  _ForwardIterator1>)
 207:/home/hubert/daisy/gcc/arm-none-eabi/include/c++/10.2.1/bits/stl_algobase.h ****       __glibcxx_function_requires(_Mutable_ForwardIteratorConcept<
 208:/home/hubert/daisy/gcc/arm-none-eabi/include/c++/10.2.1/bits/stl_algobase.h **** 				  _ForwardIterator2>)
 209:/home/hubert/daisy/gcc/arm-none-eabi/include/c++/10.2.1/bits/stl_algobase.h ****       __glibcxx_requires_valid_range(__first1, __last1);
 210:/home/hubert/daisy/gcc/arm-none-eabi/include/c++/10.2.1/bits/stl_algobase.h **** 
 211:/home/hubert/daisy/gcc/arm-none-eabi/include/c++/10.2.1/bits/stl_algobase.h ****       for (; __first1 != __last1; ++__first1, (void)++__first2)
 212:/home/hubert/daisy/gcc/arm-none-eabi/include/c++/10.2.1/bits/stl_algobase.h **** 	std::iter_swap(__first1, __first2);
 213:/home/hubert/daisy/gcc/arm-none-eabi/include/c++/10.2.1/bits/stl_algobase.h ****       return __first2;
 214:/home/hubert/daisy/gcc/arm-none-eabi/include/c++/10.2.1/bits/stl_algobase.h ****     }
 215:/home/hubert/daisy/gcc/arm-none-eabi/include/c++/10.2.1/bits/stl_algobase.h **** 
 216:/home/hubert/daisy/gcc/arm-none-eabi/include/c++/10.2.1/bits/stl_algobase.h ****   /**
 217:/home/hubert/daisy/gcc/arm-none-eabi/include/c++/10.2.1/bits/stl_algobase.h ****    *  @brief This does what you think it does.
 218:/home/hubert/daisy/gcc/arm-none-eabi/include/c++/10.2.1/bits/stl_algobase.h ****    *  @ingroup sorting_algorithms
 219:/home/hubert/daisy/gcc/arm-none-eabi/include/c++/10.2.1/bits/stl_algobase.h ****    *  @param  __a  A thing of arbitrary type.
 220:/home/hubert/daisy/gcc/arm-none-eabi/include/c++/10.2.1/bits/stl_algobase.h ****    *  @param  __b  Another thing of arbitrary type.
 221:/home/hubert/daisy/gcc/arm-none-eabi/include/c++/10.2.1/bits/stl_algobase.h ****    *  @return   The lesser of the parameters.
 222:/home/hubert/daisy/gcc/arm-none-eabi/include/c++/10.2.1/bits/stl_algobase.h ****    *
 223:/home/hubert/daisy/gcc/arm-none-eabi/include/c++/10.2.1/bits/stl_algobase.h ****    *  This is the simple classic generic implementation.  It will work on
 224:/home/hubert/daisy/gcc/arm-none-eabi/include/c++/10.2.1/bits/stl_algobase.h ****    *  temporary expressions, since they are only evaluated once, unlike a
 225:/home/hubert/daisy/gcc/arm-none-eabi/include/c++/10.2.1/bits/stl_algobase.h ****    *  preprocessor macro.
 226:/home/hubert/daisy/gcc/arm-none-eabi/include/c++/10.2.1/bits/stl_algobase.h ****   */
 227:/home/hubert/daisy/gcc/arm-none-eabi/include/c++/10.2.1/bits/stl_algobase.h ****   template<typename _Tp>
ARM GAS  /tmp/ccfXsGBh.s 			page 29


 228:/home/hubert/daisy/gcc/arm-none-eabi/include/c++/10.2.1/bits/stl_algobase.h ****     _GLIBCXX14_CONSTEXPR
 229:/home/hubert/daisy/gcc/arm-none-eabi/include/c++/10.2.1/bits/stl_algobase.h ****     inline const _Tp&
 230:/home/hubert/daisy/gcc/arm-none-eabi/include/c++/10.2.1/bits/stl_algobase.h ****     min(const _Tp& __a, const _Tp& __b)
 231:/home/hubert/daisy/gcc/arm-none-eabi/include/c++/10.2.1/bits/stl_algobase.h ****     {
 232:/home/hubert/daisy/gcc/arm-none-eabi/include/c++/10.2.1/bits/stl_algobase.h ****       // concept requirements
 233:/home/hubert/daisy/gcc/arm-none-eabi/include/c++/10.2.1/bits/stl_algobase.h ****       __glibcxx_function_requires(_LessThanComparableConcept<_Tp>)
 234:/home/hubert/daisy/gcc/arm-none-eabi/include/c++/10.2.1/bits/stl_algobase.h ****       //return __b < __a ? __b : __a;
 235:/home/hubert/daisy/gcc/arm-none-eabi/include/c++/10.2.1/bits/stl_algobase.h ****       if (__b < __a)
 236:/home/hubert/daisy/gcc/arm-none-eabi/include/c++/10.2.1/bits/stl_algobase.h **** 	return __b;
 237:/home/hubert/daisy/gcc/arm-none-eabi/include/c++/10.2.1/bits/stl_algobase.h ****       return __a;
 238:/home/hubert/daisy/gcc/arm-none-eabi/include/c++/10.2.1/bits/stl_algobase.h ****     }
 239:/home/hubert/daisy/gcc/arm-none-eabi/include/c++/10.2.1/bits/stl_algobase.h **** 
 240:/home/hubert/daisy/gcc/arm-none-eabi/include/c++/10.2.1/bits/stl_algobase.h ****   /**
 241:/home/hubert/daisy/gcc/arm-none-eabi/include/c++/10.2.1/bits/stl_algobase.h ****    *  @brief This does what you think it does.
 242:/home/hubert/daisy/gcc/arm-none-eabi/include/c++/10.2.1/bits/stl_algobase.h ****    *  @ingroup sorting_algorithms
 243:/home/hubert/daisy/gcc/arm-none-eabi/include/c++/10.2.1/bits/stl_algobase.h ****    *  @param  __a  A thing of arbitrary type.
 244:/home/hubert/daisy/gcc/arm-none-eabi/include/c++/10.2.1/bits/stl_algobase.h ****    *  @param  __b  Another thing of arbitrary type.
 245:/home/hubert/daisy/gcc/arm-none-eabi/include/c++/10.2.1/bits/stl_algobase.h ****    *  @return   The greater of the parameters.
 246:/home/hubert/daisy/gcc/arm-none-eabi/include/c++/10.2.1/bits/stl_algobase.h ****    *
 247:/home/hubert/daisy/gcc/arm-none-eabi/include/c++/10.2.1/bits/stl_algobase.h ****    *  This is the simple classic generic implementation.  It will work on
 248:/home/hubert/daisy/gcc/arm-none-eabi/include/c++/10.2.1/bits/stl_algobase.h ****    *  temporary expressions, since they are only evaluated once, unlike a
 249:/home/hubert/daisy/gcc/arm-none-eabi/include/c++/10.2.1/bits/stl_algobase.h ****    *  preprocessor macro.
 250:/home/hubert/daisy/gcc/arm-none-eabi/include/c++/10.2.1/bits/stl_algobase.h ****   */
 251:/home/hubert/daisy/gcc/arm-none-eabi/include/c++/10.2.1/bits/stl_algobase.h ****   template<typename _Tp>
 252:/home/hubert/daisy/gcc/arm-none-eabi/include/c++/10.2.1/bits/stl_algobase.h ****     _GLIBCXX14_CONSTEXPR
 253:/home/hubert/daisy/gcc/arm-none-eabi/include/c++/10.2.1/bits/stl_algobase.h ****     inline const _Tp&
 254:/home/hubert/daisy/gcc/arm-none-eabi/include/c++/10.2.1/bits/stl_algobase.h ****     max(const _Tp& __a, const _Tp& __b)
 255:/home/hubert/daisy/gcc/arm-none-eabi/include/c++/10.2.1/bits/stl_algobase.h ****     {
 256:/home/hubert/daisy/gcc/arm-none-eabi/include/c++/10.2.1/bits/stl_algobase.h ****       // concept requirements
 257:/home/hubert/daisy/gcc/arm-none-eabi/include/c++/10.2.1/bits/stl_algobase.h ****       __glibcxx_function_requires(_LessThanComparableConcept<_Tp>)
 258:/home/hubert/daisy/gcc/arm-none-eabi/include/c++/10.2.1/bits/stl_algobase.h ****       //return  __a < __b ? __b : __a;
 259:/home/hubert/daisy/gcc/arm-none-eabi/include/c++/10.2.1/bits/stl_algobase.h ****       if (__a < __b)
 260:/home/hubert/daisy/gcc/arm-none-eabi/include/c++/10.2.1/bits/stl_algobase.h **** 	return __b;
 261:/home/hubert/daisy/gcc/arm-none-eabi/include/c++/10.2.1/bits/stl_algobase.h ****       return __a;
 262:/home/hubert/daisy/gcc/arm-none-eabi/include/c++/10.2.1/bits/stl_algobase.h ****     }
 263:/home/hubert/daisy/gcc/arm-none-eabi/include/c++/10.2.1/bits/stl_algobase.h **** 
 264:/home/hubert/daisy/gcc/arm-none-eabi/include/c++/10.2.1/bits/stl_algobase.h ****   /**
 265:/home/hubert/daisy/gcc/arm-none-eabi/include/c++/10.2.1/bits/stl_algobase.h ****    *  @brief This does what you think it does.
 266:/home/hubert/daisy/gcc/arm-none-eabi/include/c++/10.2.1/bits/stl_algobase.h ****    *  @ingroup sorting_algorithms
 267:/home/hubert/daisy/gcc/arm-none-eabi/include/c++/10.2.1/bits/stl_algobase.h ****    *  @param  __a  A thing of arbitrary type.
 268:/home/hubert/daisy/gcc/arm-none-eabi/include/c++/10.2.1/bits/stl_algobase.h ****    *  @param  __b  Another thing of arbitrary type.
 269:/home/hubert/daisy/gcc/arm-none-eabi/include/c++/10.2.1/bits/stl_algobase.h ****    *  @param  __comp  A @link comparison_functors comparison functor@endlink.
 270:/home/hubert/daisy/gcc/arm-none-eabi/include/c++/10.2.1/bits/stl_algobase.h ****    *  @return   The lesser of the parameters.
 271:/home/hubert/daisy/gcc/arm-none-eabi/include/c++/10.2.1/bits/stl_algobase.h ****    *
 272:/home/hubert/daisy/gcc/arm-none-eabi/include/c++/10.2.1/bits/stl_algobase.h ****    *  This will work on temporary expressions, since they are only evaluated
 273:/home/hubert/daisy/gcc/arm-none-eabi/include/c++/10.2.1/bits/stl_algobase.h ****    *  once, unlike a preprocessor macro.
 274:/home/hubert/daisy/gcc/arm-none-eabi/include/c++/10.2.1/bits/stl_algobase.h ****   */
 275:/home/hubert/daisy/gcc/arm-none-eabi/include/c++/10.2.1/bits/stl_algobase.h ****   template<typename _Tp, typename _Compare>
 276:/home/hubert/daisy/gcc/arm-none-eabi/include/c++/10.2.1/bits/stl_algobase.h ****     _GLIBCXX14_CONSTEXPR
 277:/home/hubert/daisy/gcc/arm-none-eabi/include/c++/10.2.1/bits/stl_algobase.h ****     inline const _Tp&
 278:/home/hubert/daisy/gcc/arm-none-eabi/include/c++/10.2.1/bits/stl_algobase.h ****     min(const _Tp& __a, const _Tp& __b, _Compare __comp)
 279:/home/hubert/daisy/gcc/arm-none-eabi/include/c++/10.2.1/bits/stl_algobase.h ****     {
 280:/home/hubert/daisy/gcc/arm-none-eabi/include/c++/10.2.1/bits/stl_algobase.h ****       //return __comp(__b, __a) ? __b : __a;
 281:/home/hubert/daisy/gcc/arm-none-eabi/include/c++/10.2.1/bits/stl_algobase.h ****       if (__comp(__b, __a))
 282:/home/hubert/daisy/gcc/arm-none-eabi/include/c++/10.2.1/bits/stl_algobase.h **** 	return __b;
 283:/home/hubert/daisy/gcc/arm-none-eabi/include/c++/10.2.1/bits/stl_algobase.h ****       return __a;
 284:/home/hubert/daisy/gcc/arm-none-eabi/include/c++/10.2.1/bits/stl_algobase.h ****     }
ARM GAS  /tmp/ccfXsGBh.s 			page 30


 285:/home/hubert/daisy/gcc/arm-none-eabi/include/c++/10.2.1/bits/stl_algobase.h **** 
 286:/home/hubert/daisy/gcc/arm-none-eabi/include/c++/10.2.1/bits/stl_algobase.h ****   /**
 287:/home/hubert/daisy/gcc/arm-none-eabi/include/c++/10.2.1/bits/stl_algobase.h ****    *  @brief This does what you think it does.
 288:/home/hubert/daisy/gcc/arm-none-eabi/include/c++/10.2.1/bits/stl_algobase.h ****    *  @ingroup sorting_algorithms
 289:/home/hubert/daisy/gcc/arm-none-eabi/include/c++/10.2.1/bits/stl_algobase.h ****    *  @param  __a  A thing of arbitrary type.
 290:/home/hubert/daisy/gcc/arm-none-eabi/include/c++/10.2.1/bits/stl_algobase.h ****    *  @param  __b  Another thing of arbitrary type.
 291:/home/hubert/daisy/gcc/arm-none-eabi/include/c++/10.2.1/bits/stl_algobase.h ****    *  @param  __comp  A @link comparison_functors comparison functor@endlink.
 292:/home/hubert/daisy/gcc/arm-none-eabi/include/c++/10.2.1/bits/stl_algobase.h ****    *  @return   The greater of the parameters.
 293:/home/hubert/daisy/gcc/arm-none-eabi/include/c++/10.2.1/bits/stl_algobase.h ****    *
 294:/home/hubert/daisy/gcc/arm-none-eabi/include/c++/10.2.1/bits/stl_algobase.h ****    *  This will work on temporary expressions, since they are only evaluated
 295:/home/hubert/daisy/gcc/arm-none-eabi/include/c++/10.2.1/bits/stl_algobase.h ****    *  once, unlike a preprocessor macro.
 296:/home/hubert/daisy/gcc/arm-none-eabi/include/c++/10.2.1/bits/stl_algobase.h ****   */
 297:/home/hubert/daisy/gcc/arm-none-eabi/include/c++/10.2.1/bits/stl_algobase.h ****   template<typename _Tp, typename _Compare>
 298:/home/hubert/daisy/gcc/arm-none-eabi/include/c++/10.2.1/bits/stl_algobase.h ****     _GLIBCXX14_CONSTEXPR
 299:/home/hubert/daisy/gcc/arm-none-eabi/include/c++/10.2.1/bits/stl_algobase.h ****     inline const _Tp&
 300:/home/hubert/daisy/gcc/arm-none-eabi/include/c++/10.2.1/bits/stl_algobase.h ****     max(const _Tp& __a, const _Tp& __b, _Compare __comp)
 301:/home/hubert/daisy/gcc/arm-none-eabi/include/c++/10.2.1/bits/stl_algobase.h ****     {
 302:/home/hubert/daisy/gcc/arm-none-eabi/include/c++/10.2.1/bits/stl_algobase.h ****       //return __comp(__a, __b) ? __b : __a;
 303:/home/hubert/daisy/gcc/arm-none-eabi/include/c++/10.2.1/bits/stl_algobase.h ****       if (__comp(__a, __b))
 304:/home/hubert/daisy/gcc/arm-none-eabi/include/c++/10.2.1/bits/stl_algobase.h **** 	return __b;
 305:/home/hubert/daisy/gcc/arm-none-eabi/include/c++/10.2.1/bits/stl_algobase.h ****       return __a;
 306:/home/hubert/daisy/gcc/arm-none-eabi/include/c++/10.2.1/bits/stl_algobase.h ****     }
 307:/home/hubert/daisy/gcc/arm-none-eabi/include/c++/10.2.1/bits/stl_algobase.h **** 
 308:/home/hubert/daisy/gcc/arm-none-eabi/include/c++/10.2.1/bits/stl_algobase.h ****   // Fallback implementation of the function in bits/stl_iterator.h used to
 309:/home/hubert/daisy/gcc/arm-none-eabi/include/c++/10.2.1/bits/stl_algobase.h ****   // remove the __normal_iterator wrapper. See copy, fill, ...
 310:/home/hubert/daisy/gcc/arm-none-eabi/include/c++/10.2.1/bits/stl_algobase.h ****   template<typename _Iterator>
 311:/home/hubert/daisy/gcc/arm-none-eabi/include/c++/10.2.1/bits/stl_algobase.h ****     _GLIBCXX20_CONSTEXPR
 312:/home/hubert/daisy/gcc/arm-none-eabi/include/c++/10.2.1/bits/stl_algobase.h ****     inline _Iterator
 313:/home/hubert/daisy/gcc/arm-none-eabi/include/c++/10.2.1/bits/stl_algobase.h ****     __niter_base(_Iterator __it)
 314:/home/hubert/daisy/gcc/arm-none-eabi/include/c++/10.2.1/bits/stl_algobase.h ****     _GLIBCXX_NOEXCEPT_IF(std::is_nothrow_copy_constructible<_Iterator>::value)
 315:/home/hubert/daisy/gcc/arm-none-eabi/include/c++/10.2.1/bits/stl_algobase.h ****     { return __it; }
 316:/home/hubert/daisy/gcc/arm-none-eabi/include/c++/10.2.1/bits/stl_algobase.h **** 
 317:/home/hubert/daisy/gcc/arm-none-eabi/include/c++/10.2.1/bits/stl_algobase.h ****   // Reverse the __niter_base transformation to get a
 318:/home/hubert/daisy/gcc/arm-none-eabi/include/c++/10.2.1/bits/stl_algobase.h ****   // __normal_iterator back again (this assumes that __normal_iterator
 319:/home/hubert/daisy/gcc/arm-none-eabi/include/c++/10.2.1/bits/stl_algobase.h ****   // is only used to wrap random access iterators, like pointers).
 320:/home/hubert/daisy/gcc/arm-none-eabi/include/c++/10.2.1/bits/stl_algobase.h ****   template<typename _From, typename _To>
 321:/home/hubert/daisy/gcc/arm-none-eabi/include/c++/10.2.1/bits/stl_algobase.h ****     _GLIBCXX20_CONSTEXPR
 322:/home/hubert/daisy/gcc/arm-none-eabi/include/c++/10.2.1/bits/stl_algobase.h ****     inline _From
 323:/home/hubert/daisy/gcc/arm-none-eabi/include/c++/10.2.1/bits/stl_algobase.h ****     __niter_wrap(_From __from, _To __res)
 324:/home/hubert/daisy/gcc/arm-none-eabi/include/c++/10.2.1/bits/stl_algobase.h ****     { return __from + (__res - std::__niter_base(__from)); }
 325:/home/hubert/daisy/gcc/arm-none-eabi/include/c++/10.2.1/bits/stl_algobase.h **** 
 326:/home/hubert/daisy/gcc/arm-none-eabi/include/c++/10.2.1/bits/stl_algobase.h ****   // No need to wrap, iterator already has the right type.
 327:/home/hubert/daisy/gcc/arm-none-eabi/include/c++/10.2.1/bits/stl_algobase.h ****   template<typename _Iterator>
 328:/home/hubert/daisy/gcc/arm-none-eabi/include/c++/10.2.1/bits/stl_algobase.h ****     _GLIBCXX20_CONSTEXPR
 329:/home/hubert/daisy/gcc/arm-none-eabi/include/c++/10.2.1/bits/stl_algobase.h ****     inline _Iterator
 330:/home/hubert/daisy/gcc/arm-none-eabi/include/c++/10.2.1/bits/stl_algobase.h ****     __niter_wrap(const _Iterator&, _Iterator __res)
 331:/home/hubert/daisy/gcc/arm-none-eabi/include/c++/10.2.1/bits/stl_algobase.h ****     { return __res; }
 332:/home/hubert/daisy/gcc/arm-none-eabi/include/c++/10.2.1/bits/stl_algobase.h **** 
 333:/home/hubert/daisy/gcc/arm-none-eabi/include/c++/10.2.1/bits/stl_algobase.h ****   // All of these auxiliary structs serve two purposes.  (1) Replace
 334:/home/hubert/daisy/gcc/arm-none-eabi/include/c++/10.2.1/bits/stl_algobase.h ****   // calls to copy with memmove whenever possible.  (Memmove, not memcpy,
 335:/home/hubert/daisy/gcc/arm-none-eabi/include/c++/10.2.1/bits/stl_algobase.h ****   // because the input and output ranges are permitted to overlap.)
 336:/home/hubert/daisy/gcc/arm-none-eabi/include/c++/10.2.1/bits/stl_algobase.h ****   // (2) If we're using random access iterators, then write the loop as
 337:/home/hubert/daisy/gcc/arm-none-eabi/include/c++/10.2.1/bits/stl_algobase.h ****   // a for loop with an explicit count.
 338:/home/hubert/daisy/gcc/arm-none-eabi/include/c++/10.2.1/bits/stl_algobase.h **** 
 339:/home/hubert/daisy/gcc/arm-none-eabi/include/c++/10.2.1/bits/stl_algobase.h ****   template<bool _IsMove, bool _IsSimple, typename _Category>
 340:/home/hubert/daisy/gcc/arm-none-eabi/include/c++/10.2.1/bits/stl_algobase.h ****     struct __copy_move
 341:/home/hubert/daisy/gcc/arm-none-eabi/include/c++/10.2.1/bits/stl_algobase.h ****     {
ARM GAS  /tmp/ccfXsGBh.s 			page 31


 342:/home/hubert/daisy/gcc/arm-none-eabi/include/c++/10.2.1/bits/stl_algobase.h ****       template<typename _II, typename _OI>
 343:/home/hubert/daisy/gcc/arm-none-eabi/include/c++/10.2.1/bits/stl_algobase.h **** 	_GLIBCXX20_CONSTEXPR
 344:/home/hubert/daisy/gcc/arm-none-eabi/include/c++/10.2.1/bits/stl_algobase.h **** 	static _OI
 345:/home/hubert/daisy/gcc/arm-none-eabi/include/c++/10.2.1/bits/stl_algobase.h **** 	__copy_m(_II __first, _II __last, _OI __result)
 346:/home/hubert/daisy/gcc/arm-none-eabi/include/c++/10.2.1/bits/stl_algobase.h **** 	{
 347:/home/hubert/daisy/gcc/arm-none-eabi/include/c++/10.2.1/bits/stl_algobase.h **** 	  for (; __first != __last; ++__result, (void)++__first)
 348:/home/hubert/daisy/gcc/arm-none-eabi/include/c++/10.2.1/bits/stl_algobase.h **** 	    *__result = *__first;
 349:/home/hubert/daisy/gcc/arm-none-eabi/include/c++/10.2.1/bits/stl_algobase.h **** 	  return __result;
 350:/home/hubert/daisy/gcc/arm-none-eabi/include/c++/10.2.1/bits/stl_algobase.h **** 	}
 351:/home/hubert/daisy/gcc/arm-none-eabi/include/c++/10.2.1/bits/stl_algobase.h ****     };
 352:/home/hubert/daisy/gcc/arm-none-eabi/include/c++/10.2.1/bits/stl_algobase.h **** 
 353:/home/hubert/daisy/gcc/arm-none-eabi/include/c++/10.2.1/bits/stl_algobase.h **** #if __cplusplus >= 201103L
 354:/home/hubert/daisy/gcc/arm-none-eabi/include/c++/10.2.1/bits/stl_algobase.h ****   template<typename _Category>
 355:/home/hubert/daisy/gcc/arm-none-eabi/include/c++/10.2.1/bits/stl_algobase.h ****     struct __copy_move<true, false, _Category>
 356:/home/hubert/daisy/gcc/arm-none-eabi/include/c++/10.2.1/bits/stl_algobase.h ****     {
 357:/home/hubert/daisy/gcc/arm-none-eabi/include/c++/10.2.1/bits/stl_algobase.h ****       template<typename _II, typename _OI>
 358:/home/hubert/daisy/gcc/arm-none-eabi/include/c++/10.2.1/bits/stl_algobase.h **** 	_GLIBCXX20_CONSTEXPR
 359:/home/hubert/daisy/gcc/arm-none-eabi/include/c++/10.2.1/bits/stl_algobase.h **** 	static _OI
 360:/home/hubert/daisy/gcc/arm-none-eabi/include/c++/10.2.1/bits/stl_algobase.h **** 	__copy_m(_II __first, _II __last, _OI __result)
 361:/home/hubert/daisy/gcc/arm-none-eabi/include/c++/10.2.1/bits/stl_algobase.h **** 	{
 362:/home/hubert/daisy/gcc/arm-none-eabi/include/c++/10.2.1/bits/stl_algobase.h **** 	  for (; __first != __last; ++__result, (void)++__first)
 363:/home/hubert/daisy/gcc/arm-none-eabi/include/c++/10.2.1/bits/stl_algobase.h **** 	    *__result = std::move(*__first);
 364:/home/hubert/daisy/gcc/arm-none-eabi/include/c++/10.2.1/bits/stl_algobase.h **** 	  return __result;
 365:/home/hubert/daisy/gcc/arm-none-eabi/include/c++/10.2.1/bits/stl_algobase.h **** 	}
 366:/home/hubert/daisy/gcc/arm-none-eabi/include/c++/10.2.1/bits/stl_algobase.h ****     };
 367:/home/hubert/daisy/gcc/arm-none-eabi/include/c++/10.2.1/bits/stl_algobase.h **** #endif
 368:/home/hubert/daisy/gcc/arm-none-eabi/include/c++/10.2.1/bits/stl_algobase.h **** 
 369:/home/hubert/daisy/gcc/arm-none-eabi/include/c++/10.2.1/bits/stl_algobase.h ****   template<>
 370:/home/hubert/daisy/gcc/arm-none-eabi/include/c++/10.2.1/bits/stl_algobase.h ****     struct __copy_move<false, false, random_access_iterator_tag>
 371:/home/hubert/daisy/gcc/arm-none-eabi/include/c++/10.2.1/bits/stl_algobase.h ****     {
 372:/home/hubert/daisy/gcc/arm-none-eabi/include/c++/10.2.1/bits/stl_algobase.h ****       template<typename _II, typename _OI>
 373:/home/hubert/daisy/gcc/arm-none-eabi/include/c++/10.2.1/bits/stl_algobase.h **** 	_GLIBCXX20_CONSTEXPR
 374:/home/hubert/daisy/gcc/arm-none-eabi/include/c++/10.2.1/bits/stl_algobase.h **** 	static _OI
 375:/home/hubert/daisy/gcc/arm-none-eabi/include/c++/10.2.1/bits/stl_algobase.h **** 	__copy_m(_II __first, _II __last, _OI __result)
 376:/home/hubert/daisy/gcc/arm-none-eabi/include/c++/10.2.1/bits/stl_algobase.h **** 	{
 377:/home/hubert/daisy/gcc/arm-none-eabi/include/c++/10.2.1/bits/stl_algobase.h **** 	  typedef typename iterator_traits<_II>::difference_type _Distance;
 378:/home/hubert/daisy/gcc/arm-none-eabi/include/c++/10.2.1/bits/stl_algobase.h **** 	  for(_Distance __n = __last - __first; __n > 0; --__n)
 379:/home/hubert/daisy/gcc/arm-none-eabi/include/c++/10.2.1/bits/stl_algobase.h **** 	    {
 380:/home/hubert/daisy/gcc/arm-none-eabi/include/c++/10.2.1/bits/stl_algobase.h **** 	      *__result = *__first;
 381:/home/hubert/daisy/gcc/arm-none-eabi/include/c++/10.2.1/bits/stl_algobase.h **** 	      ++__first;
 382:/home/hubert/daisy/gcc/arm-none-eabi/include/c++/10.2.1/bits/stl_algobase.h **** 	      ++__result;
 383:/home/hubert/daisy/gcc/arm-none-eabi/include/c++/10.2.1/bits/stl_algobase.h **** 	    }
 384:/home/hubert/daisy/gcc/arm-none-eabi/include/c++/10.2.1/bits/stl_algobase.h **** 	  return __result;
 385:/home/hubert/daisy/gcc/arm-none-eabi/include/c++/10.2.1/bits/stl_algobase.h **** 	}
 386:/home/hubert/daisy/gcc/arm-none-eabi/include/c++/10.2.1/bits/stl_algobase.h ****     };
 387:/home/hubert/daisy/gcc/arm-none-eabi/include/c++/10.2.1/bits/stl_algobase.h **** 
 388:/home/hubert/daisy/gcc/arm-none-eabi/include/c++/10.2.1/bits/stl_algobase.h **** #if __cplusplus >= 201103L
 389:/home/hubert/daisy/gcc/arm-none-eabi/include/c++/10.2.1/bits/stl_algobase.h ****   template<>
 390:/home/hubert/daisy/gcc/arm-none-eabi/include/c++/10.2.1/bits/stl_algobase.h ****     struct __copy_move<true, false, random_access_iterator_tag>
 391:/home/hubert/daisy/gcc/arm-none-eabi/include/c++/10.2.1/bits/stl_algobase.h ****     {
 392:/home/hubert/daisy/gcc/arm-none-eabi/include/c++/10.2.1/bits/stl_algobase.h ****       template<typename _II, typename _OI>
 393:/home/hubert/daisy/gcc/arm-none-eabi/include/c++/10.2.1/bits/stl_algobase.h **** 	_GLIBCXX20_CONSTEXPR
 394:/home/hubert/daisy/gcc/arm-none-eabi/include/c++/10.2.1/bits/stl_algobase.h **** 	static _OI
 395:/home/hubert/daisy/gcc/arm-none-eabi/include/c++/10.2.1/bits/stl_algobase.h **** 	__copy_m(_II __first, _II __last, _OI __result)
 396:/home/hubert/daisy/gcc/arm-none-eabi/include/c++/10.2.1/bits/stl_algobase.h **** 	{
 397:/home/hubert/daisy/gcc/arm-none-eabi/include/c++/10.2.1/bits/stl_algobase.h **** 	  typedef typename iterator_traits<_II>::difference_type _Distance;
 398:/home/hubert/daisy/gcc/arm-none-eabi/include/c++/10.2.1/bits/stl_algobase.h **** 	  for(_Distance __n = __last - __first; __n > 0; --__n)
ARM GAS  /tmp/ccfXsGBh.s 			page 32


 399:/home/hubert/daisy/gcc/arm-none-eabi/include/c++/10.2.1/bits/stl_algobase.h **** 	    {
 400:/home/hubert/daisy/gcc/arm-none-eabi/include/c++/10.2.1/bits/stl_algobase.h **** 	      *__result = std::move(*__first);
 401:/home/hubert/daisy/gcc/arm-none-eabi/include/c++/10.2.1/bits/stl_algobase.h **** 	      ++__first;
 402:/home/hubert/daisy/gcc/arm-none-eabi/include/c++/10.2.1/bits/stl_algobase.h **** 	      ++__result;
 403:/home/hubert/daisy/gcc/arm-none-eabi/include/c++/10.2.1/bits/stl_algobase.h **** 	    }
 404:/home/hubert/daisy/gcc/arm-none-eabi/include/c++/10.2.1/bits/stl_algobase.h **** 	  return __result;
 405:/home/hubert/daisy/gcc/arm-none-eabi/include/c++/10.2.1/bits/stl_algobase.h **** 	}
 406:/home/hubert/daisy/gcc/arm-none-eabi/include/c++/10.2.1/bits/stl_algobase.h ****     };
 407:/home/hubert/daisy/gcc/arm-none-eabi/include/c++/10.2.1/bits/stl_algobase.h **** #endif
 408:/home/hubert/daisy/gcc/arm-none-eabi/include/c++/10.2.1/bits/stl_algobase.h **** 
 409:/home/hubert/daisy/gcc/arm-none-eabi/include/c++/10.2.1/bits/stl_algobase.h ****   template<bool _IsMove>
 410:/home/hubert/daisy/gcc/arm-none-eabi/include/c++/10.2.1/bits/stl_algobase.h ****     struct __copy_move<_IsMove, true, random_access_iterator_tag>
 411:/home/hubert/daisy/gcc/arm-none-eabi/include/c++/10.2.1/bits/stl_algobase.h ****     {
 412:/home/hubert/daisy/gcc/arm-none-eabi/include/c++/10.2.1/bits/stl_algobase.h ****       template<typename _Tp>
 413:/home/hubert/daisy/gcc/arm-none-eabi/include/c++/10.2.1/bits/stl_algobase.h **** 	_GLIBCXX20_CONSTEXPR
 414:/home/hubert/daisy/gcc/arm-none-eabi/include/c++/10.2.1/bits/stl_algobase.h **** 	static _Tp*
 415:/home/hubert/daisy/gcc/arm-none-eabi/include/c++/10.2.1/bits/stl_algobase.h **** 	__copy_m(const _Tp* __first, const _Tp* __last, _Tp* __result)
 416:/home/hubert/daisy/gcc/arm-none-eabi/include/c++/10.2.1/bits/stl_algobase.h **** 	{
 417:/home/hubert/daisy/gcc/arm-none-eabi/include/c++/10.2.1/bits/stl_algobase.h **** #if __cplusplus >= 201103L
 418:/home/hubert/daisy/gcc/arm-none-eabi/include/c++/10.2.1/bits/stl_algobase.h **** 	  using __assignable = conditional<_IsMove,
 419:/home/hubert/daisy/gcc/arm-none-eabi/include/c++/10.2.1/bits/stl_algobase.h **** 					   is_move_assignable<_Tp>,
 420:/home/hubert/daisy/gcc/arm-none-eabi/include/c++/10.2.1/bits/stl_algobase.h **** 					   is_copy_assignable<_Tp>>;
 421:/home/hubert/daisy/gcc/arm-none-eabi/include/c++/10.2.1/bits/stl_algobase.h **** 	  // trivial types can have deleted assignment
 422:/home/hubert/daisy/gcc/arm-none-eabi/include/c++/10.2.1/bits/stl_algobase.h **** 	  static_assert( __assignable::type::value, "type is not assignable" );
 423:/home/hubert/daisy/gcc/arm-none-eabi/include/c++/10.2.1/bits/stl_algobase.h **** #endif
 424:/home/hubert/daisy/gcc/arm-none-eabi/include/c++/10.2.1/bits/stl_algobase.h **** 	  const ptrdiff_t _Num = __last - __first;
 425:/home/hubert/daisy/gcc/arm-none-eabi/include/c++/10.2.1/bits/stl_algobase.h **** 	  if (_Num)
 426:/home/hubert/daisy/gcc/arm-none-eabi/include/c++/10.2.1/bits/stl_algobase.h **** 	    __builtin_memmove(__result, __first, sizeof(_Tp) * _Num);
 427:/home/hubert/daisy/gcc/arm-none-eabi/include/c++/10.2.1/bits/stl_algobase.h **** 	  return __result + _Num;
 428:/home/hubert/daisy/gcc/arm-none-eabi/include/c++/10.2.1/bits/stl_algobase.h **** 	}
 429:/home/hubert/daisy/gcc/arm-none-eabi/include/c++/10.2.1/bits/stl_algobase.h ****     };
 430:/home/hubert/daisy/gcc/arm-none-eabi/include/c++/10.2.1/bits/stl_algobase.h **** 
 431:/home/hubert/daisy/gcc/arm-none-eabi/include/c++/10.2.1/bits/stl_algobase.h ****   // Helpers for streambuf iterators (either istream or ostream).
 432:/home/hubert/daisy/gcc/arm-none-eabi/include/c++/10.2.1/bits/stl_algobase.h ****   // NB: avoid including <iosfwd>, relatively large.
 433:/home/hubert/daisy/gcc/arm-none-eabi/include/c++/10.2.1/bits/stl_algobase.h ****   template<typename _CharT>
 434:/home/hubert/daisy/gcc/arm-none-eabi/include/c++/10.2.1/bits/stl_algobase.h ****     struct char_traits;
 435:/home/hubert/daisy/gcc/arm-none-eabi/include/c++/10.2.1/bits/stl_algobase.h **** 
 436:/home/hubert/daisy/gcc/arm-none-eabi/include/c++/10.2.1/bits/stl_algobase.h ****   template<typename _CharT, typename _Traits>
 437:/home/hubert/daisy/gcc/arm-none-eabi/include/c++/10.2.1/bits/stl_algobase.h ****     class istreambuf_iterator;
 438:/home/hubert/daisy/gcc/arm-none-eabi/include/c++/10.2.1/bits/stl_algobase.h **** 
 439:/home/hubert/daisy/gcc/arm-none-eabi/include/c++/10.2.1/bits/stl_algobase.h ****   template<typename _CharT, typename _Traits>
 440:/home/hubert/daisy/gcc/arm-none-eabi/include/c++/10.2.1/bits/stl_algobase.h ****     class ostreambuf_iterator;
 441:/home/hubert/daisy/gcc/arm-none-eabi/include/c++/10.2.1/bits/stl_algobase.h **** 
 442:/home/hubert/daisy/gcc/arm-none-eabi/include/c++/10.2.1/bits/stl_algobase.h ****   template<bool _IsMove, typename _CharT>
 443:/home/hubert/daisy/gcc/arm-none-eabi/include/c++/10.2.1/bits/stl_algobase.h ****     typename __gnu_cxx::__enable_if<__is_char<_CharT>::__value,
 444:/home/hubert/daisy/gcc/arm-none-eabi/include/c++/10.2.1/bits/stl_algobase.h **** 	     ostreambuf_iterator<_CharT, char_traits<_CharT> > >::__type
 445:/home/hubert/daisy/gcc/arm-none-eabi/include/c++/10.2.1/bits/stl_algobase.h ****     __copy_move_a2(_CharT*, _CharT*,
 446:/home/hubert/daisy/gcc/arm-none-eabi/include/c++/10.2.1/bits/stl_algobase.h **** 		   ostreambuf_iterator<_CharT, char_traits<_CharT> >);
 447:/home/hubert/daisy/gcc/arm-none-eabi/include/c++/10.2.1/bits/stl_algobase.h **** 
 448:/home/hubert/daisy/gcc/arm-none-eabi/include/c++/10.2.1/bits/stl_algobase.h ****   template<bool _IsMove, typename _CharT>
 449:/home/hubert/daisy/gcc/arm-none-eabi/include/c++/10.2.1/bits/stl_algobase.h ****     typename __gnu_cxx::__enable_if<__is_char<_CharT>::__value,
 450:/home/hubert/daisy/gcc/arm-none-eabi/include/c++/10.2.1/bits/stl_algobase.h **** 	     ostreambuf_iterator<_CharT, char_traits<_CharT> > >::__type
 451:/home/hubert/daisy/gcc/arm-none-eabi/include/c++/10.2.1/bits/stl_algobase.h ****     __copy_move_a2(const _CharT*, const _CharT*,
 452:/home/hubert/daisy/gcc/arm-none-eabi/include/c++/10.2.1/bits/stl_algobase.h **** 		   ostreambuf_iterator<_CharT, char_traits<_CharT> >);
 453:/home/hubert/daisy/gcc/arm-none-eabi/include/c++/10.2.1/bits/stl_algobase.h **** 
 454:/home/hubert/daisy/gcc/arm-none-eabi/include/c++/10.2.1/bits/stl_algobase.h ****   template<bool _IsMove, typename _CharT>
 455:/home/hubert/daisy/gcc/arm-none-eabi/include/c++/10.2.1/bits/stl_algobase.h ****     typename __gnu_cxx::__enable_if<__is_char<_CharT>::__value,
ARM GAS  /tmp/ccfXsGBh.s 			page 33


 456:/home/hubert/daisy/gcc/arm-none-eabi/include/c++/10.2.1/bits/stl_algobase.h **** 				    _CharT*>::__type
 457:/home/hubert/daisy/gcc/arm-none-eabi/include/c++/10.2.1/bits/stl_algobase.h ****     __copy_move_a2(istreambuf_iterator<_CharT, char_traits<_CharT> >,
 458:/home/hubert/daisy/gcc/arm-none-eabi/include/c++/10.2.1/bits/stl_algobase.h **** 		   istreambuf_iterator<_CharT, char_traits<_CharT> >, _CharT*);
 459:/home/hubert/daisy/gcc/arm-none-eabi/include/c++/10.2.1/bits/stl_algobase.h **** 
 460:/home/hubert/daisy/gcc/arm-none-eabi/include/c++/10.2.1/bits/stl_algobase.h ****   template<bool _IsMove, typename _II, typename _OI>
 461:/home/hubert/daisy/gcc/arm-none-eabi/include/c++/10.2.1/bits/stl_algobase.h ****     _GLIBCXX20_CONSTEXPR
 462:/home/hubert/daisy/gcc/arm-none-eabi/include/c++/10.2.1/bits/stl_algobase.h ****     inline _OI
 463:/home/hubert/daisy/gcc/arm-none-eabi/include/c++/10.2.1/bits/stl_algobase.h ****     __copy_move_a2(_II __first, _II __last, _OI __result)
 464:/home/hubert/daisy/gcc/arm-none-eabi/include/c++/10.2.1/bits/stl_algobase.h ****     {
 465:/home/hubert/daisy/gcc/arm-none-eabi/include/c++/10.2.1/bits/stl_algobase.h ****       typedef typename iterator_traits<_II>::iterator_category _Category;
 466:/home/hubert/daisy/gcc/arm-none-eabi/include/c++/10.2.1/bits/stl_algobase.h **** #ifdef __cpp_lib_is_constant_evaluated
 467:/home/hubert/daisy/gcc/arm-none-eabi/include/c++/10.2.1/bits/stl_algobase.h ****       if (std::is_constant_evaluated())
 468:/home/hubert/daisy/gcc/arm-none-eabi/include/c++/10.2.1/bits/stl_algobase.h **** 	return std::__copy_move<_IsMove, false, _Category>::
 469:/home/hubert/daisy/gcc/arm-none-eabi/include/c++/10.2.1/bits/stl_algobase.h **** 	  __copy_m(__first, __last, __result);
 470:/home/hubert/daisy/gcc/arm-none-eabi/include/c++/10.2.1/bits/stl_algobase.h **** #endif
 471:/home/hubert/daisy/gcc/arm-none-eabi/include/c++/10.2.1/bits/stl_algobase.h ****       return std::__copy_move<_IsMove, __memcpyable<_OI, _II>::__value,
 472:/home/hubert/daisy/gcc/arm-none-eabi/include/c++/10.2.1/bits/stl_algobase.h **** 			      _Category>::__copy_m(__first, __last, __result);
 473:/home/hubert/daisy/gcc/arm-none-eabi/include/c++/10.2.1/bits/stl_algobase.h ****     }
 474:/home/hubert/daisy/gcc/arm-none-eabi/include/c++/10.2.1/bits/stl_algobase.h **** 
 475:/home/hubert/daisy/gcc/arm-none-eabi/include/c++/10.2.1/bits/stl_algobase.h **** _GLIBCXX_BEGIN_NAMESPACE_CONTAINER
 476:/home/hubert/daisy/gcc/arm-none-eabi/include/c++/10.2.1/bits/stl_algobase.h **** 
 477:/home/hubert/daisy/gcc/arm-none-eabi/include/c++/10.2.1/bits/stl_algobase.h ****   template<typename _Tp, typename _Ref, typename _Ptr>
 478:/home/hubert/daisy/gcc/arm-none-eabi/include/c++/10.2.1/bits/stl_algobase.h ****     struct _Deque_iterator;
 479:/home/hubert/daisy/gcc/arm-none-eabi/include/c++/10.2.1/bits/stl_algobase.h **** 
 480:/home/hubert/daisy/gcc/arm-none-eabi/include/c++/10.2.1/bits/stl_algobase.h **** _GLIBCXX_END_NAMESPACE_CONTAINER
 481:/home/hubert/daisy/gcc/arm-none-eabi/include/c++/10.2.1/bits/stl_algobase.h **** 
 482:/home/hubert/daisy/gcc/arm-none-eabi/include/c++/10.2.1/bits/stl_algobase.h ****   template<bool _IsMove,
 483:/home/hubert/daisy/gcc/arm-none-eabi/include/c++/10.2.1/bits/stl_algobase.h **** 	   typename _Tp, typename _Ref, typename _Ptr, typename _OI>
 484:/home/hubert/daisy/gcc/arm-none-eabi/include/c++/10.2.1/bits/stl_algobase.h ****     _OI
 485:/home/hubert/daisy/gcc/arm-none-eabi/include/c++/10.2.1/bits/stl_algobase.h ****     __copy_move_a1(_GLIBCXX_STD_C::_Deque_iterator<_Tp, _Ref, _Ptr>,
 486:/home/hubert/daisy/gcc/arm-none-eabi/include/c++/10.2.1/bits/stl_algobase.h **** 		   _GLIBCXX_STD_C::_Deque_iterator<_Tp, _Ref, _Ptr>,
 487:/home/hubert/daisy/gcc/arm-none-eabi/include/c++/10.2.1/bits/stl_algobase.h **** 		   _OI);
 488:/home/hubert/daisy/gcc/arm-none-eabi/include/c++/10.2.1/bits/stl_algobase.h **** 
 489:/home/hubert/daisy/gcc/arm-none-eabi/include/c++/10.2.1/bits/stl_algobase.h ****   template<bool _IsMove,
 490:/home/hubert/daisy/gcc/arm-none-eabi/include/c++/10.2.1/bits/stl_algobase.h **** 	   typename _ITp, typename _IRef, typename _IPtr, typename _OTp>
 491:/home/hubert/daisy/gcc/arm-none-eabi/include/c++/10.2.1/bits/stl_algobase.h ****     _GLIBCXX_STD_C::_Deque_iterator<_OTp, _OTp&, _OTp*>
 492:/home/hubert/daisy/gcc/arm-none-eabi/include/c++/10.2.1/bits/stl_algobase.h ****     __copy_move_a1(_GLIBCXX_STD_C::_Deque_iterator<_ITp, _IRef, _IPtr>,
 493:/home/hubert/daisy/gcc/arm-none-eabi/include/c++/10.2.1/bits/stl_algobase.h **** 		   _GLIBCXX_STD_C::_Deque_iterator<_ITp, _IRef, _IPtr>,
 494:/home/hubert/daisy/gcc/arm-none-eabi/include/c++/10.2.1/bits/stl_algobase.h **** 		   _GLIBCXX_STD_C::_Deque_iterator<_OTp, _OTp&, _OTp*>);
 495:/home/hubert/daisy/gcc/arm-none-eabi/include/c++/10.2.1/bits/stl_algobase.h **** 
 496:/home/hubert/daisy/gcc/arm-none-eabi/include/c++/10.2.1/bits/stl_algobase.h ****   template<bool _IsMove, typename _II, typename _Tp>
 497:/home/hubert/daisy/gcc/arm-none-eabi/include/c++/10.2.1/bits/stl_algobase.h ****     typename __gnu_cxx::__enable_if<
 498:/home/hubert/daisy/gcc/arm-none-eabi/include/c++/10.2.1/bits/stl_algobase.h ****       __is_random_access_iter<_II>::__value,
 499:/home/hubert/daisy/gcc/arm-none-eabi/include/c++/10.2.1/bits/stl_algobase.h ****       _GLIBCXX_STD_C::_Deque_iterator<_Tp, _Tp&, _Tp*> >::__type
 500:/home/hubert/daisy/gcc/arm-none-eabi/include/c++/10.2.1/bits/stl_algobase.h ****     __copy_move_a1(_II, _II, _GLIBCXX_STD_C::_Deque_iterator<_Tp, _Tp&, _Tp*>);
 501:/home/hubert/daisy/gcc/arm-none-eabi/include/c++/10.2.1/bits/stl_algobase.h **** 
 502:/home/hubert/daisy/gcc/arm-none-eabi/include/c++/10.2.1/bits/stl_algobase.h ****   template<bool _IsMove, typename _II, typename _OI>
 503:/home/hubert/daisy/gcc/arm-none-eabi/include/c++/10.2.1/bits/stl_algobase.h ****     _GLIBCXX20_CONSTEXPR
 504:/home/hubert/daisy/gcc/arm-none-eabi/include/c++/10.2.1/bits/stl_algobase.h ****     inline _OI
 505:/home/hubert/daisy/gcc/arm-none-eabi/include/c++/10.2.1/bits/stl_algobase.h ****     __copy_move_a1(_II __first, _II __last, _OI __result)
 506:/home/hubert/daisy/gcc/arm-none-eabi/include/c++/10.2.1/bits/stl_algobase.h ****     { return std::__copy_move_a2<_IsMove>(__first, __last, __result); }
 507:/home/hubert/daisy/gcc/arm-none-eabi/include/c++/10.2.1/bits/stl_algobase.h **** 
 508:/home/hubert/daisy/gcc/arm-none-eabi/include/c++/10.2.1/bits/stl_algobase.h ****   template<bool _IsMove, typename _II, typename _OI>
 509:/home/hubert/daisy/gcc/arm-none-eabi/include/c++/10.2.1/bits/stl_algobase.h ****     _GLIBCXX20_CONSTEXPR
 510:/home/hubert/daisy/gcc/arm-none-eabi/include/c++/10.2.1/bits/stl_algobase.h ****     inline _OI
 511:/home/hubert/daisy/gcc/arm-none-eabi/include/c++/10.2.1/bits/stl_algobase.h ****     __copy_move_a(_II __first, _II __last, _OI __result)
 512:/home/hubert/daisy/gcc/arm-none-eabi/include/c++/10.2.1/bits/stl_algobase.h ****     {
ARM GAS  /tmp/ccfXsGBh.s 			page 34


 513:/home/hubert/daisy/gcc/arm-none-eabi/include/c++/10.2.1/bits/stl_algobase.h ****       return std::__niter_wrap(__result,
 514:/home/hubert/daisy/gcc/arm-none-eabi/include/c++/10.2.1/bits/stl_algobase.h **** 		std::__copy_move_a1<_IsMove>(std::__niter_base(__first),
 515:/home/hubert/daisy/gcc/arm-none-eabi/include/c++/10.2.1/bits/stl_algobase.h **** 					     std::__niter_base(__last),
 516:/home/hubert/daisy/gcc/arm-none-eabi/include/c++/10.2.1/bits/stl_algobase.h **** 					     std::__niter_base(__result)));
 517:/home/hubert/daisy/gcc/arm-none-eabi/include/c++/10.2.1/bits/stl_algobase.h ****     }
 518:/home/hubert/daisy/gcc/arm-none-eabi/include/c++/10.2.1/bits/stl_algobase.h **** 
 519:/home/hubert/daisy/gcc/arm-none-eabi/include/c++/10.2.1/bits/stl_algobase.h ****   template<bool _IsMove,
 520:/home/hubert/daisy/gcc/arm-none-eabi/include/c++/10.2.1/bits/stl_algobase.h **** 	   typename _Ite, typename _Seq, typename _Cat, typename _OI>
 521:/home/hubert/daisy/gcc/arm-none-eabi/include/c++/10.2.1/bits/stl_algobase.h ****     _OI
 522:/home/hubert/daisy/gcc/arm-none-eabi/include/c++/10.2.1/bits/stl_algobase.h ****     __copy_move_a(const ::__gnu_debug::_Safe_iterator<_Ite, _Seq, _Cat>&,
 523:/home/hubert/daisy/gcc/arm-none-eabi/include/c++/10.2.1/bits/stl_algobase.h **** 		  const ::__gnu_debug::_Safe_iterator<_Ite, _Seq, _Cat>&,
 524:/home/hubert/daisy/gcc/arm-none-eabi/include/c++/10.2.1/bits/stl_algobase.h **** 		  _OI);
 525:/home/hubert/daisy/gcc/arm-none-eabi/include/c++/10.2.1/bits/stl_algobase.h **** 
 526:/home/hubert/daisy/gcc/arm-none-eabi/include/c++/10.2.1/bits/stl_algobase.h ****   template<bool _IsMove,
 527:/home/hubert/daisy/gcc/arm-none-eabi/include/c++/10.2.1/bits/stl_algobase.h **** 	   typename _II, typename _Ite, typename _Seq, typename _Cat>
 528:/home/hubert/daisy/gcc/arm-none-eabi/include/c++/10.2.1/bits/stl_algobase.h ****     __gnu_debug::_Safe_iterator<_Ite, _Seq, _Cat>
 529:/home/hubert/daisy/gcc/arm-none-eabi/include/c++/10.2.1/bits/stl_algobase.h ****     __copy_move_a(_II, _II,
 530:/home/hubert/daisy/gcc/arm-none-eabi/include/c++/10.2.1/bits/stl_algobase.h **** 		  const ::__gnu_debug::_Safe_iterator<_Ite, _Seq, _Cat>&);
 531:/home/hubert/daisy/gcc/arm-none-eabi/include/c++/10.2.1/bits/stl_algobase.h **** 
 532:/home/hubert/daisy/gcc/arm-none-eabi/include/c++/10.2.1/bits/stl_algobase.h ****   template<bool _IsMove,
 533:/home/hubert/daisy/gcc/arm-none-eabi/include/c++/10.2.1/bits/stl_algobase.h **** 	   typename _IIte, typename _ISeq, typename _ICat,
 534:/home/hubert/daisy/gcc/arm-none-eabi/include/c++/10.2.1/bits/stl_algobase.h **** 	   typename _OIte, typename _OSeq, typename _OCat>
 535:/home/hubert/daisy/gcc/arm-none-eabi/include/c++/10.2.1/bits/stl_algobase.h ****     ::__gnu_debug::_Safe_iterator<_OIte, _OSeq, _OCat>
 536:/home/hubert/daisy/gcc/arm-none-eabi/include/c++/10.2.1/bits/stl_algobase.h ****     __copy_move_a(const ::__gnu_debug::_Safe_iterator<_IIte, _ISeq, _ICat>&,
 537:/home/hubert/daisy/gcc/arm-none-eabi/include/c++/10.2.1/bits/stl_algobase.h **** 		  const ::__gnu_debug::_Safe_iterator<_IIte, _ISeq, _ICat>&,
 538:/home/hubert/daisy/gcc/arm-none-eabi/include/c++/10.2.1/bits/stl_algobase.h **** 		  const ::__gnu_debug::_Safe_iterator<_OIte, _OSeq, _OCat>&);
 539:/home/hubert/daisy/gcc/arm-none-eabi/include/c++/10.2.1/bits/stl_algobase.h **** 
 540:/home/hubert/daisy/gcc/arm-none-eabi/include/c++/10.2.1/bits/stl_algobase.h ****   /**
 541:/home/hubert/daisy/gcc/arm-none-eabi/include/c++/10.2.1/bits/stl_algobase.h ****    *  @brief Copies the range [first,last) into result.
 542:/home/hubert/daisy/gcc/arm-none-eabi/include/c++/10.2.1/bits/stl_algobase.h ****    *  @ingroup mutating_algorithms
 543:/home/hubert/daisy/gcc/arm-none-eabi/include/c++/10.2.1/bits/stl_algobase.h ****    *  @param  __first  An input iterator.
 544:/home/hubert/daisy/gcc/arm-none-eabi/include/c++/10.2.1/bits/stl_algobase.h ****    *  @param  __last   An input iterator.
 545:/home/hubert/daisy/gcc/arm-none-eabi/include/c++/10.2.1/bits/stl_algobase.h ****    *  @param  __result An output iterator.
 546:/home/hubert/daisy/gcc/arm-none-eabi/include/c++/10.2.1/bits/stl_algobase.h ****    *  @return   result + (last - first)
 547:/home/hubert/daisy/gcc/arm-none-eabi/include/c++/10.2.1/bits/stl_algobase.h ****    *
 548:/home/hubert/daisy/gcc/arm-none-eabi/include/c++/10.2.1/bits/stl_algobase.h ****    *  This inline function will boil down to a call to @c memmove whenever
 549:/home/hubert/daisy/gcc/arm-none-eabi/include/c++/10.2.1/bits/stl_algobase.h ****    *  possible.  Failing that, if random access iterators are passed, then the
 550:/home/hubert/daisy/gcc/arm-none-eabi/include/c++/10.2.1/bits/stl_algobase.h ****    *  loop count will be known (and therefore a candidate for compiler
 551:/home/hubert/daisy/gcc/arm-none-eabi/include/c++/10.2.1/bits/stl_algobase.h ****    *  optimizations such as unrolling).  Result may not be contained within
 552:/home/hubert/daisy/gcc/arm-none-eabi/include/c++/10.2.1/bits/stl_algobase.h ****    *  [first,last); the copy_backward function should be used instead.
 553:/home/hubert/daisy/gcc/arm-none-eabi/include/c++/10.2.1/bits/stl_algobase.h ****    *
 554:/home/hubert/daisy/gcc/arm-none-eabi/include/c++/10.2.1/bits/stl_algobase.h ****    *  Note that the end of the output range is permitted to be contained
 555:/home/hubert/daisy/gcc/arm-none-eabi/include/c++/10.2.1/bits/stl_algobase.h ****    *  within [first,last).
 556:/home/hubert/daisy/gcc/arm-none-eabi/include/c++/10.2.1/bits/stl_algobase.h ****   */
 557:/home/hubert/daisy/gcc/arm-none-eabi/include/c++/10.2.1/bits/stl_algobase.h ****   template<typename _II, typename _OI>
 558:/home/hubert/daisy/gcc/arm-none-eabi/include/c++/10.2.1/bits/stl_algobase.h ****     _GLIBCXX20_CONSTEXPR
 559:/home/hubert/daisy/gcc/arm-none-eabi/include/c++/10.2.1/bits/stl_algobase.h ****     inline _OI
 560:/home/hubert/daisy/gcc/arm-none-eabi/include/c++/10.2.1/bits/stl_algobase.h ****     copy(_II __first, _II __last, _OI __result)
 561:/home/hubert/daisy/gcc/arm-none-eabi/include/c++/10.2.1/bits/stl_algobase.h ****     {
 562:/home/hubert/daisy/gcc/arm-none-eabi/include/c++/10.2.1/bits/stl_algobase.h ****       // concept requirements
 563:/home/hubert/daisy/gcc/arm-none-eabi/include/c++/10.2.1/bits/stl_algobase.h ****       __glibcxx_function_requires(_InputIteratorConcept<_II>)
 564:/home/hubert/daisy/gcc/arm-none-eabi/include/c++/10.2.1/bits/stl_algobase.h ****       __glibcxx_function_requires(_OutputIteratorConcept<_OI,
 565:/home/hubert/daisy/gcc/arm-none-eabi/include/c++/10.2.1/bits/stl_algobase.h **** 	    typename iterator_traits<_II>::value_type>)
 566:/home/hubert/daisy/gcc/arm-none-eabi/include/c++/10.2.1/bits/stl_algobase.h ****       __glibcxx_requires_can_increment_range(__first, __last, __result);
 567:/home/hubert/daisy/gcc/arm-none-eabi/include/c++/10.2.1/bits/stl_algobase.h **** 
 568:/home/hubert/daisy/gcc/arm-none-eabi/include/c++/10.2.1/bits/stl_algobase.h ****       return std::__copy_move_a<__is_move_iterator<_II>::__value>
 569:/home/hubert/daisy/gcc/arm-none-eabi/include/c++/10.2.1/bits/stl_algobase.h **** 	     (std::__miter_base(__first), std::__miter_base(__last), __result);
ARM GAS  /tmp/ccfXsGBh.s 			page 35


 570:/home/hubert/daisy/gcc/arm-none-eabi/include/c++/10.2.1/bits/stl_algobase.h ****     }
 571:/home/hubert/daisy/gcc/arm-none-eabi/include/c++/10.2.1/bits/stl_algobase.h **** 
 572:/home/hubert/daisy/gcc/arm-none-eabi/include/c++/10.2.1/bits/stl_algobase.h **** #if __cplusplus >= 201103L
 573:/home/hubert/daisy/gcc/arm-none-eabi/include/c++/10.2.1/bits/stl_algobase.h ****   /**
 574:/home/hubert/daisy/gcc/arm-none-eabi/include/c++/10.2.1/bits/stl_algobase.h ****    *  @brief Moves the range [first,last) into result.
 575:/home/hubert/daisy/gcc/arm-none-eabi/include/c++/10.2.1/bits/stl_algobase.h ****    *  @ingroup mutating_algorithms
 576:/home/hubert/daisy/gcc/arm-none-eabi/include/c++/10.2.1/bits/stl_algobase.h ****    *  @param  __first  An input iterator.
 577:/home/hubert/daisy/gcc/arm-none-eabi/include/c++/10.2.1/bits/stl_algobase.h ****    *  @param  __last   An input iterator.
 578:/home/hubert/daisy/gcc/arm-none-eabi/include/c++/10.2.1/bits/stl_algobase.h ****    *  @param  __result An output iterator.
 579:/home/hubert/daisy/gcc/arm-none-eabi/include/c++/10.2.1/bits/stl_algobase.h ****    *  @return   result + (last - first)
 580:/home/hubert/daisy/gcc/arm-none-eabi/include/c++/10.2.1/bits/stl_algobase.h ****    *
 581:/home/hubert/daisy/gcc/arm-none-eabi/include/c++/10.2.1/bits/stl_algobase.h ****    *  This inline function will boil down to a call to @c memmove whenever
 582:/home/hubert/daisy/gcc/arm-none-eabi/include/c++/10.2.1/bits/stl_algobase.h ****    *  possible.  Failing that, if random access iterators are passed, then the
 583:/home/hubert/daisy/gcc/arm-none-eabi/include/c++/10.2.1/bits/stl_algobase.h ****    *  loop count will be known (and therefore a candidate for compiler
 584:/home/hubert/daisy/gcc/arm-none-eabi/include/c++/10.2.1/bits/stl_algobase.h ****    *  optimizations such as unrolling).  Result may not be contained within
 585:/home/hubert/daisy/gcc/arm-none-eabi/include/c++/10.2.1/bits/stl_algobase.h ****    *  [first,last); the move_backward function should be used instead.
 586:/home/hubert/daisy/gcc/arm-none-eabi/include/c++/10.2.1/bits/stl_algobase.h ****    *
 587:/home/hubert/daisy/gcc/arm-none-eabi/include/c++/10.2.1/bits/stl_algobase.h ****    *  Note that the end of the output range is permitted to be contained
 588:/home/hubert/daisy/gcc/arm-none-eabi/include/c++/10.2.1/bits/stl_algobase.h ****    *  within [first,last).
 589:/home/hubert/daisy/gcc/arm-none-eabi/include/c++/10.2.1/bits/stl_algobase.h ****   */
 590:/home/hubert/daisy/gcc/arm-none-eabi/include/c++/10.2.1/bits/stl_algobase.h ****   template<typename _II, typename _OI>
 591:/home/hubert/daisy/gcc/arm-none-eabi/include/c++/10.2.1/bits/stl_algobase.h ****     _GLIBCXX20_CONSTEXPR
 592:/home/hubert/daisy/gcc/arm-none-eabi/include/c++/10.2.1/bits/stl_algobase.h ****     inline _OI
 593:/home/hubert/daisy/gcc/arm-none-eabi/include/c++/10.2.1/bits/stl_algobase.h ****     move(_II __first, _II __last, _OI __result)
 594:/home/hubert/daisy/gcc/arm-none-eabi/include/c++/10.2.1/bits/stl_algobase.h ****     {
 595:/home/hubert/daisy/gcc/arm-none-eabi/include/c++/10.2.1/bits/stl_algobase.h ****       // concept requirements
 596:/home/hubert/daisy/gcc/arm-none-eabi/include/c++/10.2.1/bits/stl_algobase.h ****       __glibcxx_function_requires(_InputIteratorConcept<_II>)
 597:/home/hubert/daisy/gcc/arm-none-eabi/include/c++/10.2.1/bits/stl_algobase.h ****       __glibcxx_function_requires(_OutputIteratorConcept<_OI,
 598:/home/hubert/daisy/gcc/arm-none-eabi/include/c++/10.2.1/bits/stl_algobase.h **** 	    typename iterator_traits<_II>::value_type>)
 599:/home/hubert/daisy/gcc/arm-none-eabi/include/c++/10.2.1/bits/stl_algobase.h ****       __glibcxx_requires_can_increment_range(__first, __last, __result);
 600:/home/hubert/daisy/gcc/arm-none-eabi/include/c++/10.2.1/bits/stl_algobase.h **** 
 601:/home/hubert/daisy/gcc/arm-none-eabi/include/c++/10.2.1/bits/stl_algobase.h ****       return std::__copy_move_a<true>(std::__miter_base(__first),
 602:/home/hubert/daisy/gcc/arm-none-eabi/include/c++/10.2.1/bits/stl_algobase.h **** 				      std::__miter_base(__last), __result);
 603:/home/hubert/daisy/gcc/arm-none-eabi/include/c++/10.2.1/bits/stl_algobase.h ****     }
 604:/home/hubert/daisy/gcc/arm-none-eabi/include/c++/10.2.1/bits/stl_algobase.h **** 
 605:/home/hubert/daisy/gcc/arm-none-eabi/include/c++/10.2.1/bits/stl_algobase.h **** #define _GLIBCXX_MOVE3(_Tp, _Up, _Vp) std::move(_Tp, _Up, _Vp)
 606:/home/hubert/daisy/gcc/arm-none-eabi/include/c++/10.2.1/bits/stl_algobase.h **** #else
 607:/home/hubert/daisy/gcc/arm-none-eabi/include/c++/10.2.1/bits/stl_algobase.h **** #define _GLIBCXX_MOVE3(_Tp, _Up, _Vp) std::copy(_Tp, _Up, _Vp)
 608:/home/hubert/daisy/gcc/arm-none-eabi/include/c++/10.2.1/bits/stl_algobase.h **** #endif
 609:/home/hubert/daisy/gcc/arm-none-eabi/include/c++/10.2.1/bits/stl_algobase.h **** 
 610:/home/hubert/daisy/gcc/arm-none-eabi/include/c++/10.2.1/bits/stl_algobase.h ****   template<bool _IsMove, bool _IsSimple, typename _Category>
 611:/home/hubert/daisy/gcc/arm-none-eabi/include/c++/10.2.1/bits/stl_algobase.h ****     struct __copy_move_backward
 612:/home/hubert/daisy/gcc/arm-none-eabi/include/c++/10.2.1/bits/stl_algobase.h ****     {
 613:/home/hubert/daisy/gcc/arm-none-eabi/include/c++/10.2.1/bits/stl_algobase.h ****       template<typename _BI1, typename _BI2>
 614:/home/hubert/daisy/gcc/arm-none-eabi/include/c++/10.2.1/bits/stl_algobase.h **** 	_GLIBCXX20_CONSTEXPR
 615:/home/hubert/daisy/gcc/arm-none-eabi/include/c++/10.2.1/bits/stl_algobase.h **** 	static _BI2
 616:/home/hubert/daisy/gcc/arm-none-eabi/include/c++/10.2.1/bits/stl_algobase.h **** 	__copy_move_b(_BI1 __first, _BI1 __last, _BI2 __result)
 617:/home/hubert/daisy/gcc/arm-none-eabi/include/c++/10.2.1/bits/stl_algobase.h **** 	{
 618:/home/hubert/daisy/gcc/arm-none-eabi/include/c++/10.2.1/bits/stl_algobase.h **** 	  while (__first != __last)
 619:/home/hubert/daisy/gcc/arm-none-eabi/include/c++/10.2.1/bits/stl_algobase.h **** 	    *--__result = *--__last;
 620:/home/hubert/daisy/gcc/arm-none-eabi/include/c++/10.2.1/bits/stl_algobase.h **** 	  return __result;
 621:/home/hubert/daisy/gcc/arm-none-eabi/include/c++/10.2.1/bits/stl_algobase.h **** 	}
 622:/home/hubert/daisy/gcc/arm-none-eabi/include/c++/10.2.1/bits/stl_algobase.h ****     };
 623:/home/hubert/daisy/gcc/arm-none-eabi/include/c++/10.2.1/bits/stl_algobase.h **** 
 624:/home/hubert/daisy/gcc/arm-none-eabi/include/c++/10.2.1/bits/stl_algobase.h **** #if __cplusplus >= 201103L
 625:/home/hubert/daisy/gcc/arm-none-eabi/include/c++/10.2.1/bits/stl_algobase.h ****   template<typename _Category>
 626:/home/hubert/daisy/gcc/arm-none-eabi/include/c++/10.2.1/bits/stl_algobase.h ****     struct __copy_move_backward<true, false, _Category>
ARM GAS  /tmp/ccfXsGBh.s 			page 36


 627:/home/hubert/daisy/gcc/arm-none-eabi/include/c++/10.2.1/bits/stl_algobase.h ****     {
 628:/home/hubert/daisy/gcc/arm-none-eabi/include/c++/10.2.1/bits/stl_algobase.h ****       template<typename _BI1, typename _BI2>
 629:/home/hubert/daisy/gcc/arm-none-eabi/include/c++/10.2.1/bits/stl_algobase.h **** 	_GLIBCXX20_CONSTEXPR
 630:/home/hubert/daisy/gcc/arm-none-eabi/include/c++/10.2.1/bits/stl_algobase.h **** 	static _BI2
 631:/home/hubert/daisy/gcc/arm-none-eabi/include/c++/10.2.1/bits/stl_algobase.h **** 	__copy_move_b(_BI1 __first, _BI1 __last, _BI2 __result)
 632:/home/hubert/daisy/gcc/arm-none-eabi/include/c++/10.2.1/bits/stl_algobase.h **** 	{
 633:/home/hubert/daisy/gcc/arm-none-eabi/include/c++/10.2.1/bits/stl_algobase.h **** 	  while (__first != __last)
 634:/home/hubert/daisy/gcc/arm-none-eabi/include/c++/10.2.1/bits/stl_algobase.h **** 	    *--__result = std::move(*--__last);
 635:/home/hubert/daisy/gcc/arm-none-eabi/include/c++/10.2.1/bits/stl_algobase.h **** 	  return __result;
 636:/home/hubert/daisy/gcc/arm-none-eabi/include/c++/10.2.1/bits/stl_algobase.h **** 	}
 637:/home/hubert/daisy/gcc/arm-none-eabi/include/c++/10.2.1/bits/stl_algobase.h ****     };
 638:/home/hubert/daisy/gcc/arm-none-eabi/include/c++/10.2.1/bits/stl_algobase.h **** #endif
 639:/home/hubert/daisy/gcc/arm-none-eabi/include/c++/10.2.1/bits/stl_algobase.h **** 
 640:/home/hubert/daisy/gcc/arm-none-eabi/include/c++/10.2.1/bits/stl_algobase.h ****   template<>
 641:/home/hubert/daisy/gcc/arm-none-eabi/include/c++/10.2.1/bits/stl_algobase.h ****     struct __copy_move_backward<false, false, random_access_iterator_tag>
 642:/home/hubert/daisy/gcc/arm-none-eabi/include/c++/10.2.1/bits/stl_algobase.h ****     {
 643:/home/hubert/daisy/gcc/arm-none-eabi/include/c++/10.2.1/bits/stl_algobase.h ****       template<typename _BI1, typename _BI2>
 644:/home/hubert/daisy/gcc/arm-none-eabi/include/c++/10.2.1/bits/stl_algobase.h **** 	_GLIBCXX20_CONSTEXPR
 645:/home/hubert/daisy/gcc/arm-none-eabi/include/c++/10.2.1/bits/stl_algobase.h **** 	static _BI2
 646:/home/hubert/daisy/gcc/arm-none-eabi/include/c++/10.2.1/bits/stl_algobase.h **** 	__copy_move_b(_BI1 __first, _BI1 __last, _BI2 __result)
 647:/home/hubert/daisy/gcc/arm-none-eabi/include/c++/10.2.1/bits/stl_algobase.h **** 	{
 648:/home/hubert/daisy/gcc/arm-none-eabi/include/c++/10.2.1/bits/stl_algobase.h **** 	  typename iterator_traits<_BI1>::difference_type
 649:/home/hubert/daisy/gcc/arm-none-eabi/include/c++/10.2.1/bits/stl_algobase.h **** 	    __n = __last - __first;
 650:/home/hubert/daisy/gcc/arm-none-eabi/include/c++/10.2.1/bits/stl_algobase.h **** 	  for (; __n > 0; --__n)
 651:/home/hubert/daisy/gcc/arm-none-eabi/include/c++/10.2.1/bits/stl_algobase.h **** 	    *--__result = *--__last;
 652:/home/hubert/daisy/gcc/arm-none-eabi/include/c++/10.2.1/bits/stl_algobase.h **** 	  return __result;
 653:/home/hubert/daisy/gcc/arm-none-eabi/include/c++/10.2.1/bits/stl_algobase.h **** 	}
 654:/home/hubert/daisy/gcc/arm-none-eabi/include/c++/10.2.1/bits/stl_algobase.h ****     };
 655:/home/hubert/daisy/gcc/arm-none-eabi/include/c++/10.2.1/bits/stl_algobase.h **** 
 656:/home/hubert/daisy/gcc/arm-none-eabi/include/c++/10.2.1/bits/stl_algobase.h **** #if __cplusplus >= 201103L
 657:/home/hubert/daisy/gcc/arm-none-eabi/include/c++/10.2.1/bits/stl_algobase.h ****   template<>
 658:/home/hubert/daisy/gcc/arm-none-eabi/include/c++/10.2.1/bits/stl_algobase.h ****     struct __copy_move_backward<true, false, random_access_iterator_tag>
 659:/home/hubert/daisy/gcc/arm-none-eabi/include/c++/10.2.1/bits/stl_algobase.h ****     {
 660:/home/hubert/daisy/gcc/arm-none-eabi/include/c++/10.2.1/bits/stl_algobase.h ****       template<typename _BI1, typename _BI2>
 661:/home/hubert/daisy/gcc/arm-none-eabi/include/c++/10.2.1/bits/stl_algobase.h **** 	_GLIBCXX20_CONSTEXPR
 662:/home/hubert/daisy/gcc/arm-none-eabi/include/c++/10.2.1/bits/stl_algobase.h **** 	static _BI2
 663:/home/hubert/daisy/gcc/arm-none-eabi/include/c++/10.2.1/bits/stl_algobase.h **** 	__copy_move_b(_BI1 __first, _BI1 __last, _BI2 __result)
 664:/home/hubert/daisy/gcc/arm-none-eabi/include/c++/10.2.1/bits/stl_algobase.h **** 	{
 665:/home/hubert/daisy/gcc/arm-none-eabi/include/c++/10.2.1/bits/stl_algobase.h **** 	  typename iterator_traits<_BI1>::difference_type
 666:/home/hubert/daisy/gcc/arm-none-eabi/include/c++/10.2.1/bits/stl_algobase.h **** 	    __n = __last - __first;
 667:/home/hubert/daisy/gcc/arm-none-eabi/include/c++/10.2.1/bits/stl_algobase.h **** 	  for (; __n > 0; --__n)
 668:/home/hubert/daisy/gcc/arm-none-eabi/include/c++/10.2.1/bits/stl_algobase.h **** 	    *--__result = std::move(*--__last);
 669:/home/hubert/daisy/gcc/arm-none-eabi/include/c++/10.2.1/bits/stl_algobase.h **** 	  return __result;
 670:/home/hubert/daisy/gcc/arm-none-eabi/include/c++/10.2.1/bits/stl_algobase.h **** 	}
 671:/home/hubert/daisy/gcc/arm-none-eabi/include/c++/10.2.1/bits/stl_algobase.h ****     };
 672:/home/hubert/daisy/gcc/arm-none-eabi/include/c++/10.2.1/bits/stl_algobase.h **** #endif
 673:/home/hubert/daisy/gcc/arm-none-eabi/include/c++/10.2.1/bits/stl_algobase.h **** 
 674:/home/hubert/daisy/gcc/arm-none-eabi/include/c++/10.2.1/bits/stl_algobase.h ****   template<bool _IsMove>
 675:/home/hubert/daisy/gcc/arm-none-eabi/include/c++/10.2.1/bits/stl_algobase.h ****     struct __copy_move_backward<_IsMove, true, random_access_iterator_tag>
 676:/home/hubert/daisy/gcc/arm-none-eabi/include/c++/10.2.1/bits/stl_algobase.h ****     {
 677:/home/hubert/daisy/gcc/arm-none-eabi/include/c++/10.2.1/bits/stl_algobase.h ****       template<typename _Tp>
 678:/home/hubert/daisy/gcc/arm-none-eabi/include/c++/10.2.1/bits/stl_algobase.h **** 	_GLIBCXX20_CONSTEXPR
 679:/home/hubert/daisy/gcc/arm-none-eabi/include/c++/10.2.1/bits/stl_algobase.h **** 	static _Tp*
 680:/home/hubert/daisy/gcc/arm-none-eabi/include/c++/10.2.1/bits/stl_algobase.h **** 	__copy_move_b(const _Tp* __first, const _Tp* __last, _Tp* __result)
 681:/home/hubert/daisy/gcc/arm-none-eabi/include/c++/10.2.1/bits/stl_algobase.h **** 	{
 682:/home/hubert/daisy/gcc/arm-none-eabi/include/c++/10.2.1/bits/stl_algobase.h **** #if __cplusplus >= 201103L
 683:/home/hubert/daisy/gcc/arm-none-eabi/include/c++/10.2.1/bits/stl_algobase.h **** 	  using __assignable = conditional<_IsMove,
ARM GAS  /tmp/ccfXsGBh.s 			page 37


 684:/home/hubert/daisy/gcc/arm-none-eabi/include/c++/10.2.1/bits/stl_algobase.h **** 					   is_move_assignable<_Tp>,
 685:/home/hubert/daisy/gcc/arm-none-eabi/include/c++/10.2.1/bits/stl_algobase.h **** 					   is_copy_assignable<_Tp>>;
 686:/home/hubert/daisy/gcc/arm-none-eabi/include/c++/10.2.1/bits/stl_algobase.h **** 	  // trivial types can have deleted assignment
 687:/home/hubert/daisy/gcc/arm-none-eabi/include/c++/10.2.1/bits/stl_algobase.h **** 	  static_assert( __assignable::type::value, "type is not assignable" );
 688:/home/hubert/daisy/gcc/arm-none-eabi/include/c++/10.2.1/bits/stl_algobase.h **** #endif
 689:/home/hubert/daisy/gcc/arm-none-eabi/include/c++/10.2.1/bits/stl_algobase.h **** 	  const ptrdiff_t _Num = __last - __first;
 690:/home/hubert/daisy/gcc/arm-none-eabi/include/c++/10.2.1/bits/stl_algobase.h **** 	  if (_Num)
 691:/home/hubert/daisy/gcc/arm-none-eabi/include/c++/10.2.1/bits/stl_algobase.h **** 	    __builtin_memmove(__result - _Num, __first, sizeof(_Tp) * _Num);
 692:/home/hubert/daisy/gcc/arm-none-eabi/include/c++/10.2.1/bits/stl_algobase.h **** 	  return __result - _Num;
 693:/home/hubert/daisy/gcc/arm-none-eabi/include/c++/10.2.1/bits/stl_algobase.h **** 	}
 694:/home/hubert/daisy/gcc/arm-none-eabi/include/c++/10.2.1/bits/stl_algobase.h ****     };
 695:/home/hubert/daisy/gcc/arm-none-eabi/include/c++/10.2.1/bits/stl_algobase.h **** 
 696:/home/hubert/daisy/gcc/arm-none-eabi/include/c++/10.2.1/bits/stl_algobase.h ****   template<bool _IsMove, typename _BI1, typename _BI2>
 697:/home/hubert/daisy/gcc/arm-none-eabi/include/c++/10.2.1/bits/stl_algobase.h ****     _GLIBCXX20_CONSTEXPR
 698:/home/hubert/daisy/gcc/arm-none-eabi/include/c++/10.2.1/bits/stl_algobase.h ****     inline _BI2
 699:/home/hubert/daisy/gcc/arm-none-eabi/include/c++/10.2.1/bits/stl_algobase.h ****     __copy_move_backward_a2(_BI1 __first, _BI1 __last, _BI2 __result)
 700:/home/hubert/daisy/gcc/arm-none-eabi/include/c++/10.2.1/bits/stl_algobase.h ****     {
 701:/home/hubert/daisy/gcc/arm-none-eabi/include/c++/10.2.1/bits/stl_algobase.h ****       typedef typename iterator_traits<_BI1>::iterator_category _Category;
 702:/home/hubert/daisy/gcc/arm-none-eabi/include/c++/10.2.1/bits/stl_algobase.h **** #ifdef __cpp_lib_is_constant_evaluated
 703:/home/hubert/daisy/gcc/arm-none-eabi/include/c++/10.2.1/bits/stl_algobase.h ****       if (std::is_constant_evaluated())
 704:/home/hubert/daisy/gcc/arm-none-eabi/include/c++/10.2.1/bits/stl_algobase.h **** 	return std::__copy_move_backward<_IsMove, false, _Category>::
 705:/home/hubert/daisy/gcc/arm-none-eabi/include/c++/10.2.1/bits/stl_algobase.h **** 	  __copy_move_b(__first, __last, __result);
 706:/home/hubert/daisy/gcc/arm-none-eabi/include/c++/10.2.1/bits/stl_algobase.h **** #endif
 707:/home/hubert/daisy/gcc/arm-none-eabi/include/c++/10.2.1/bits/stl_algobase.h ****       return std::__copy_move_backward<_IsMove,
 708:/home/hubert/daisy/gcc/arm-none-eabi/include/c++/10.2.1/bits/stl_algobase.h **** 				       __memcpyable<_BI2, _BI1>::__value,
 709:/home/hubert/daisy/gcc/arm-none-eabi/include/c++/10.2.1/bits/stl_algobase.h **** 				       _Category>::__copy_move_b(__first,
 710:/home/hubert/daisy/gcc/arm-none-eabi/include/c++/10.2.1/bits/stl_algobase.h **** 								 __last,
 711:/home/hubert/daisy/gcc/arm-none-eabi/include/c++/10.2.1/bits/stl_algobase.h **** 								 __result);
 712:/home/hubert/daisy/gcc/arm-none-eabi/include/c++/10.2.1/bits/stl_algobase.h ****     }
 713:/home/hubert/daisy/gcc/arm-none-eabi/include/c++/10.2.1/bits/stl_algobase.h **** 
 714:/home/hubert/daisy/gcc/arm-none-eabi/include/c++/10.2.1/bits/stl_algobase.h ****   template<bool _IsMove, typename _BI1, typename _BI2>
 715:/home/hubert/daisy/gcc/arm-none-eabi/include/c++/10.2.1/bits/stl_algobase.h ****     _GLIBCXX20_CONSTEXPR
 716:/home/hubert/daisy/gcc/arm-none-eabi/include/c++/10.2.1/bits/stl_algobase.h ****     inline _BI2
 717:/home/hubert/daisy/gcc/arm-none-eabi/include/c++/10.2.1/bits/stl_algobase.h ****     __copy_move_backward_a1(_BI1 __first, _BI1 __last, _BI2 __result)
 718:/home/hubert/daisy/gcc/arm-none-eabi/include/c++/10.2.1/bits/stl_algobase.h ****     { return std::__copy_move_backward_a2<_IsMove>(__first, __last, __result); }
 719:/home/hubert/daisy/gcc/arm-none-eabi/include/c++/10.2.1/bits/stl_algobase.h **** 
 720:/home/hubert/daisy/gcc/arm-none-eabi/include/c++/10.2.1/bits/stl_algobase.h ****   template<bool _IsMove,
 721:/home/hubert/daisy/gcc/arm-none-eabi/include/c++/10.2.1/bits/stl_algobase.h **** 	   typename _Tp, typename _Ref, typename _Ptr, typename _OI>
 722:/home/hubert/daisy/gcc/arm-none-eabi/include/c++/10.2.1/bits/stl_algobase.h ****     _OI
 723:/home/hubert/daisy/gcc/arm-none-eabi/include/c++/10.2.1/bits/stl_algobase.h ****     __copy_move_backward_a1(_GLIBCXX_STD_C::_Deque_iterator<_Tp, _Ref, _Ptr>,
 724:/home/hubert/daisy/gcc/arm-none-eabi/include/c++/10.2.1/bits/stl_algobase.h **** 			    _GLIBCXX_STD_C::_Deque_iterator<_Tp, _Ref, _Ptr>,
 725:/home/hubert/daisy/gcc/arm-none-eabi/include/c++/10.2.1/bits/stl_algobase.h **** 			    _OI);
 726:/home/hubert/daisy/gcc/arm-none-eabi/include/c++/10.2.1/bits/stl_algobase.h **** 
 727:/home/hubert/daisy/gcc/arm-none-eabi/include/c++/10.2.1/bits/stl_algobase.h ****   template<bool _IsMove,
 728:/home/hubert/daisy/gcc/arm-none-eabi/include/c++/10.2.1/bits/stl_algobase.h **** 	   typename _ITp, typename _IRef, typename _IPtr, typename _OTp>
 729:/home/hubert/daisy/gcc/arm-none-eabi/include/c++/10.2.1/bits/stl_algobase.h ****     _GLIBCXX_STD_C::_Deque_iterator<_OTp, _OTp&, _OTp*>
 730:/home/hubert/daisy/gcc/arm-none-eabi/include/c++/10.2.1/bits/stl_algobase.h ****     __copy_move_backward_a1(
 731:/home/hubert/daisy/gcc/arm-none-eabi/include/c++/10.2.1/bits/stl_algobase.h **** 			_GLIBCXX_STD_C::_Deque_iterator<_ITp, _IRef, _IPtr>,
 732:/home/hubert/daisy/gcc/arm-none-eabi/include/c++/10.2.1/bits/stl_algobase.h **** 			_GLIBCXX_STD_C::_Deque_iterator<_ITp, _IRef, _IPtr>,
 733:/home/hubert/daisy/gcc/arm-none-eabi/include/c++/10.2.1/bits/stl_algobase.h **** 			_GLIBCXX_STD_C::_Deque_iterator<_OTp, _OTp&, _OTp*>);
 734:/home/hubert/daisy/gcc/arm-none-eabi/include/c++/10.2.1/bits/stl_algobase.h **** 
 735:/home/hubert/daisy/gcc/arm-none-eabi/include/c++/10.2.1/bits/stl_algobase.h ****   template<bool _IsMove, typename _II, typename _Tp>
 736:/home/hubert/daisy/gcc/arm-none-eabi/include/c++/10.2.1/bits/stl_algobase.h ****     typename __gnu_cxx::__enable_if<
 737:/home/hubert/daisy/gcc/arm-none-eabi/include/c++/10.2.1/bits/stl_algobase.h ****       __is_random_access_iter<_II>::__value,
 738:/home/hubert/daisy/gcc/arm-none-eabi/include/c++/10.2.1/bits/stl_algobase.h ****       _GLIBCXX_STD_C::_Deque_iterator<_Tp, _Tp&, _Tp*> >::__type
 739:/home/hubert/daisy/gcc/arm-none-eabi/include/c++/10.2.1/bits/stl_algobase.h ****     __copy_move_backward_a1(_II, _II,
 740:/home/hubert/daisy/gcc/arm-none-eabi/include/c++/10.2.1/bits/stl_algobase.h **** 			    _GLIBCXX_STD_C::_Deque_iterator<_Tp, _Tp&, _Tp*>);
ARM GAS  /tmp/ccfXsGBh.s 			page 38


 741:/home/hubert/daisy/gcc/arm-none-eabi/include/c++/10.2.1/bits/stl_algobase.h **** 
 742:/home/hubert/daisy/gcc/arm-none-eabi/include/c++/10.2.1/bits/stl_algobase.h ****   template<bool _IsMove, typename _II, typename _OI>
 743:/home/hubert/daisy/gcc/arm-none-eabi/include/c++/10.2.1/bits/stl_algobase.h ****     _GLIBCXX20_CONSTEXPR
 744:/home/hubert/daisy/gcc/arm-none-eabi/include/c++/10.2.1/bits/stl_algobase.h ****     inline _OI
 745:/home/hubert/daisy/gcc/arm-none-eabi/include/c++/10.2.1/bits/stl_algobase.h ****     __copy_move_backward_a(_II __first, _II __last, _OI __result)
 746:/home/hubert/daisy/gcc/arm-none-eabi/include/c++/10.2.1/bits/stl_algobase.h ****     {
 747:/home/hubert/daisy/gcc/arm-none-eabi/include/c++/10.2.1/bits/stl_algobase.h ****       return std::__niter_wrap(__result,
 748:/home/hubert/daisy/gcc/arm-none-eabi/include/c++/10.2.1/bits/stl_algobase.h **** 		std::__copy_move_backward_a1<_IsMove>
 749:/home/hubert/daisy/gcc/arm-none-eabi/include/c++/10.2.1/bits/stl_algobase.h **** 		  (std::__niter_base(__first), std::__niter_base(__last),
 750:/home/hubert/daisy/gcc/arm-none-eabi/include/c++/10.2.1/bits/stl_algobase.h **** 		   std::__niter_base(__result)));
 751:/home/hubert/daisy/gcc/arm-none-eabi/include/c++/10.2.1/bits/stl_algobase.h ****     }
 752:/home/hubert/daisy/gcc/arm-none-eabi/include/c++/10.2.1/bits/stl_algobase.h **** 
 753:/home/hubert/daisy/gcc/arm-none-eabi/include/c++/10.2.1/bits/stl_algobase.h ****   template<bool _IsMove,
 754:/home/hubert/daisy/gcc/arm-none-eabi/include/c++/10.2.1/bits/stl_algobase.h **** 	   typename _Ite, typename _Seq, typename _Cat, typename _OI>
 755:/home/hubert/daisy/gcc/arm-none-eabi/include/c++/10.2.1/bits/stl_algobase.h ****     _OI
 756:/home/hubert/daisy/gcc/arm-none-eabi/include/c++/10.2.1/bits/stl_algobase.h ****     __copy_move_backward_a(
 757:/home/hubert/daisy/gcc/arm-none-eabi/include/c++/10.2.1/bits/stl_algobase.h **** 		const ::__gnu_debug::_Safe_iterator<_Ite, _Seq, _Cat>&,
 758:/home/hubert/daisy/gcc/arm-none-eabi/include/c++/10.2.1/bits/stl_algobase.h **** 		const ::__gnu_debug::_Safe_iterator<_Ite, _Seq, _Cat>&,
 759:/home/hubert/daisy/gcc/arm-none-eabi/include/c++/10.2.1/bits/stl_algobase.h **** 		_OI);
 760:/home/hubert/daisy/gcc/arm-none-eabi/include/c++/10.2.1/bits/stl_algobase.h **** 
 761:/home/hubert/daisy/gcc/arm-none-eabi/include/c++/10.2.1/bits/stl_algobase.h ****   template<bool _IsMove,
 762:/home/hubert/daisy/gcc/arm-none-eabi/include/c++/10.2.1/bits/stl_algobase.h **** 	   typename _II, typename _Ite, typename _Seq, typename _Cat>
 763:/home/hubert/daisy/gcc/arm-none-eabi/include/c++/10.2.1/bits/stl_algobase.h ****     __gnu_debug::_Safe_iterator<_Ite, _Seq, _Cat>
 764:/home/hubert/daisy/gcc/arm-none-eabi/include/c++/10.2.1/bits/stl_algobase.h ****     __copy_move_backward_a(_II, _II,
 765:/home/hubert/daisy/gcc/arm-none-eabi/include/c++/10.2.1/bits/stl_algobase.h **** 		const ::__gnu_debug::_Safe_iterator<_Ite, _Seq, _Cat>&);
 766:/home/hubert/daisy/gcc/arm-none-eabi/include/c++/10.2.1/bits/stl_algobase.h **** 
 767:/home/hubert/daisy/gcc/arm-none-eabi/include/c++/10.2.1/bits/stl_algobase.h ****   template<bool _IsMove,
 768:/home/hubert/daisy/gcc/arm-none-eabi/include/c++/10.2.1/bits/stl_algobase.h **** 	   typename _IIte, typename _ISeq, typename _ICat,
 769:/home/hubert/daisy/gcc/arm-none-eabi/include/c++/10.2.1/bits/stl_algobase.h **** 	   typename _OIte, typename _OSeq, typename _OCat>
 770:/home/hubert/daisy/gcc/arm-none-eabi/include/c++/10.2.1/bits/stl_algobase.h ****     ::__gnu_debug::_Safe_iterator<_OIte, _OSeq, _OCat>
 771:/home/hubert/daisy/gcc/arm-none-eabi/include/c++/10.2.1/bits/stl_algobase.h ****     __copy_move_backward_a(
 772:/home/hubert/daisy/gcc/arm-none-eabi/include/c++/10.2.1/bits/stl_algobase.h **** 		const ::__gnu_debug::_Safe_iterator<_IIte, _ISeq, _ICat>&,
 773:/home/hubert/daisy/gcc/arm-none-eabi/include/c++/10.2.1/bits/stl_algobase.h **** 		const ::__gnu_debug::_Safe_iterator<_IIte, _ISeq, _ICat>&,
 774:/home/hubert/daisy/gcc/arm-none-eabi/include/c++/10.2.1/bits/stl_algobase.h **** 		const ::__gnu_debug::_Safe_iterator<_OIte, _OSeq, _OCat>&);
 775:/home/hubert/daisy/gcc/arm-none-eabi/include/c++/10.2.1/bits/stl_algobase.h **** 
 776:/home/hubert/daisy/gcc/arm-none-eabi/include/c++/10.2.1/bits/stl_algobase.h ****   /**
 777:/home/hubert/daisy/gcc/arm-none-eabi/include/c++/10.2.1/bits/stl_algobase.h ****    *  @brief Copies the range [first,last) into result.
 778:/home/hubert/daisy/gcc/arm-none-eabi/include/c++/10.2.1/bits/stl_algobase.h ****    *  @ingroup mutating_algorithms
 779:/home/hubert/daisy/gcc/arm-none-eabi/include/c++/10.2.1/bits/stl_algobase.h ****    *  @param  __first  A bidirectional iterator.
 780:/home/hubert/daisy/gcc/arm-none-eabi/include/c++/10.2.1/bits/stl_algobase.h ****    *  @param  __last   A bidirectional iterator.
 781:/home/hubert/daisy/gcc/arm-none-eabi/include/c++/10.2.1/bits/stl_algobase.h ****    *  @param  __result A bidirectional iterator.
 782:/home/hubert/daisy/gcc/arm-none-eabi/include/c++/10.2.1/bits/stl_algobase.h ****    *  @return   result - (last - first)
 783:/home/hubert/daisy/gcc/arm-none-eabi/include/c++/10.2.1/bits/stl_algobase.h ****    *
 784:/home/hubert/daisy/gcc/arm-none-eabi/include/c++/10.2.1/bits/stl_algobase.h ****    *  The function has the same effect as copy, but starts at the end of the
 785:/home/hubert/daisy/gcc/arm-none-eabi/include/c++/10.2.1/bits/stl_algobase.h ****    *  range and works its way to the start, returning the start of the result.
 786:/home/hubert/daisy/gcc/arm-none-eabi/include/c++/10.2.1/bits/stl_algobase.h ****    *  This inline function will boil down to a call to @c memmove whenever
 787:/home/hubert/daisy/gcc/arm-none-eabi/include/c++/10.2.1/bits/stl_algobase.h ****    *  possible.  Failing that, if random access iterators are passed, then the
 788:/home/hubert/daisy/gcc/arm-none-eabi/include/c++/10.2.1/bits/stl_algobase.h ****    *  loop count will be known (and therefore a candidate for compiler
 789:/home/hubert/daisy/gcc/arm-none-eabi/include/c++/10.2.1/bits/stl_algobase.h ****    *  optimizations such as unrolling).
 790:/home/hubert/daisy/gcc/arm-none-eabi/include/c++/10.2.1/bits/stl_algobase.h ****    *
 791:/home/hubert/daisy/gcc/arm-none-eabi/include/c++/10.2.1/bits/stl_algobase.h ****    *  Result may not be in the range (first,last].  Use copy instead.  Note
 792:/home/hubert/daisy/gcc/arm-none-eabi/include/c++/10.2.1/bits/stl_algobase.h ****    *  that the start of the output range may overlap [first,last).
 793:/home/hubert/daisy/gcc/arm-none-eabi/include/c++/10.2.1/bits/stl_algobase.h ****   */
 794:/home/hubert/daisy/gcc/arm-none-eabi/include/c++/10.2.1/bits/stl_algobase.h ****   template<typename _BI1, typename _BI2>
 795:/home/hubert/daisy/gcc/arm-none-eabi/include/c++/10.2.1/bits/stl_algobase.h ****     _GLIBCXX20_CONSTEXPR
 796:/home/hubert/daisy/gcc/arm-none-eabi/include/c++/10.2.1/bits/stl_algobase.h ****     inline _BI2
 797:/home/hubert/daisy/gcc/arm-none-eabi/include/c++/10.2.1/bits/stl_algobase.h ****     copy_backward(_BI1 __first, _BI1 __last, _BI2 __result)
ARM GAS  /tmp/ccfXsGBh.s 			page 39


 798:/home/hubert/daisy/gcc/arm-none-eabi/include/c++/10.2.1/bits/stl_algobase.h ****     {
 799:/home/hubert/daisy/gcc/arm-none-eabi/include/c++/10.2.1/bits/stl_algobase.h ****       // concept requirements
 800:/home/hubert/daisy/gcc/arm-none-eabi/include/c++/10.2.1/bits/stl_algobase.h ****       __glibcxx_function_requires(_BidirectionalIteratorConcept<_BI1>)
 801:/home/hubert/daisy/gcc/arm-none-eabi/include/c++/10.2.1/bits/stl_algobase.h ****       __glibcxx_function_requires(_Mutable_BidirectionalIteratorConcept<_BI2>)
 802:/home/hubert/daisy/gcc/arm-none-eabi/include/c++/10.2.1/bits/stl_algobase.h ****       __glibcxx_function_requires(_ConvertibleConcept<
 803:/home/hubert/daisy/gcc/arm-none-eabi/include/c++/10.2.1/bits/stl_algobase.h **** 	    typename iterator_traits<_BI1>::value_type,
 804:/home/hubert/daisy/gcc/arm-none-eabi/include/c++/10.2.1/bits/stl_algobase.h **** 	    typename iterator_traits<_BI2>::value_type>)
 805:/home/hubert/daisy/gcc/arm-none-eabi/include/c++/10.2.1/bits/stl_algobase.h ****       __glibcxx_requires_can_decrement_range(__first, __last, __result);
 806:/home/hubert/daisy/gcc/arm-none-eabi/include/c++/10.2.1/bits/stl_algobase.h **** 
 807:/home/hubert/daisy/gcc/arm-none-eabi/include/c++/10.2.1/bits/stl_algobase.h ****       return std::__copy_move_backward_a<__is_move_iterator<_BI1>::__value>
 808:/home/hubert/daisy/gcc/arm-none-eabi/include/c++/10.2.1/bits/stl_algobase.h **** 	     (std::__miter_base(__first), std::__miter_base(__last), __result);
 809:/home/hubert/daisy/gcc/arm-none-eabi/include/c++/10.2.1/bits/stl_algobase.h ****     }
 810:/home/hubert/daisy/gcc/arm-none-eabi/include/c++/10.2.1/bits/stl_algobase.h **** 
 811:/home/hubert/daisy/gcc/arm-none-eabi/include/c++/10.2.1/bits/stl_algobase.h **** #if __cplusplus >= 201103L
 812:/home/hubert/daisy/gcc/arm-none-eabi/include/c++/10.2.1/bits/stl_algobase.h ****   /**
 813:/home/hubert/daisy/gcc/arm-none-eabi/include/c++/10.2.1/bits/stl_algobase.h ****    *  @brief Moves the range [first,last) into result.
 814:/home/hubert/daisy/gcc/arm-none-eabi/include/c++/10.2.1/bits/stl_algobase.h ****    *  @ingroup mutating_algorithms
 815:/home/hubert/daisy/gcc/arm-none-eabi/include/c++/10.2.1/bits/stl_algobase.h ****    *  @param  __first  A bidirectional iterator.
 816:/home/hubert/daisy/gcc/arm-none-eabi/include/c++/10.2.1/bits/stl_algobase.h ****    *  @param  __last   A bidirectional iterator.
 817:/home/hubert/daisy/gcc/arm-none-eabi/include/c++/10.2.1/bits/stl_algobase.h ****    *  @param  __result A bidirectional iterator.
 818:/home/hubert/daisy/gcc/arm-none-eabi/include/c++/10.2.1/bits/stl_algobase.h ****    *  @return   result - (last - first)
 819:/home/hubert/daisy/gcc/arm-none-eabi/include/c++/10.2.1/bits/stl_algobase.h ****    *
 820:/home/hubert/daisy/gcc/arm-none-eabi/include/c++/10.2.1/bits/stl_algobase.h ****    *  The function has the same effect as move, but starts at the end of the
 821:/home/hubert/daisy/gcc/arm-none-eabi/include/c++/10.2.1/bits/stl_algobase.h ****    *  range and works its way to the start, returning the start of the result.
 822:/home/hubert/daisy/gcc/arm-none-eabi/include/c++/10.2.1/bits/stl_algobase.h ****    *  This inline function will boil down to a call to @c memmove whenever
 823:/home/hubert/daisy/gcc/arm-none-eabi/include/c++/10.2.1/bits/stl_algobase.h ****    *  possible.  Failing that, if random access iterators are passed, then the
 824:/home/hubert/daisy/gcc/arm-none-eabi/include/c++/10.2.1/bits/stl_algobase.h ****    *  loop count will be known (and therefore a candidate for compiler
 825:/home/hubert/daisy/gcc/arm-none-eabi/include/c++/10.2.1/bits/stl_algobase.h ****    *  optimizations such as unrolling).
 826:/home/hubert/daisy/gcc/arm-none-eabi/include/c++/10.2.1/bits/stl_algobase.h ****    *
 827:/home/hubert/daisy/gcc/arm-none-eabi/include/c++/10.2.1/bits/stl_algobase.h ****    *  Result may not be in the range (first,last].  Use move instead.  Note
 828:/home/hubert/daisy/gcc/arm-none-eabi/include/c++/10.2.1/bits/stl_algobase.h ****    *  that the start of the output range may overlap [first,last).
 829:/home/hubert/daisy/gcc/arm-none-eabi/include/c++/10.2.1/bits/stl_algobase.h ****   */
 830:/home/hubert/daisy/gcc/arm-none-eabi/include/c++/10.2.1/bits/stl_algobase.h ****   template<typename _BI1, typename _BI2>
 831:/home/hubert/daisy/gcc/arm-none-eabi/include/c++/10.2.1/bits/stl_algobase.h ****     _GLIBCXX20_CONSTEXPR
 832:/home/hubert/daisy/gcc/arm-none-eabi/include/c++/10.2.1/bits/stl_algobase.h ****     inline _BI2
 833:/home/hubert/daisy/gcc/arm-none-eabi/include/c++/10.2.1/bits/stl_algobase.h ****     move_backward(_BI1 __first, _BI1 __last, _BI2 __result)
 834:/home/hubert/daisy/gcc/arm-none-eabi/include/c++/10.2.1/bits/stl_algobase.h ****     {
 835:/home/hubert/daisy/gcc/arm-none-eabi/include/c++/10.2.1/bits/stl_algobase.h ****       // concept requirements
 836:/home/hubert/daisy/gcc/arm-none-eabi/include/c++/10.2.1/bits/stl_algobase.h ****       __glibcxx_function_requires(_BidirectionalIteratorConcept<_BI1>)
 837:/home/hubert/daisy/gcc/arm-none-eabi/include/c++/10.2.1/bits/stl_algobase.h ****       __glibcxx_function_requires(_Mutable_BidirectionalIteratorConcept<_BI2>)
 838:/home/hubert/daisy/gcc/arm-none-eabi/include/c++/10.2.1/bits/stl_algobase.h ****       __glibcxx_function_requires(_ConvertibleConcept<
 839:/home/hubert/daisy/gcc/arm-none-eabi/include/c++/10.2.1/bits/stl_algobase.h **** 	    typename iterator_traits<_BI1>::value_type,
 840:/home/hubert/daisy/gcc/arm-none-eabi/include/c++/10.2.1/bits/stl_algobase.h **** 	    typename iterator_traits<_BI2>::value_type>)
 841:/home/hubert/daisy/gcc/arm-none-eabi/include/c++/10.2.1/bits/stl_algobase.h ****       __glibcxx_requires_can_decrement_range(__first, __last, __result);
 842:/home/hubert/daisy/gcc/arm-none-eabi/include/c++/10.2.1/bits/stl_algobase.h **** 
 843:/home/hubert/daisy/gcc/arm-none-eabi/include/c++/10.2.1/bits/stl_algobase.h ****       return std::__copy_move_backward_a<true>(std::__miter_base(__first),
 844:/home/hubert/daisy/gcc/arm-none-eabi/include/c++/10.2.1/bits/stl_algobase.h **** 					       std::__miter_base(__last),
 845:/home/hubert/daisy/gcc/arm-none-eabi/include/c++/10.2.1/bits/stl_algobase.h **** 					       __result);
 846:/home/hubert/daisy/gcc/arm-none-eabi/include/c++/10.2.1/bits/stl_algobase.h ****     }
 847:/home/hubert/daisy/gcc/arm-none-eabi/include/c++/10.2.1/bits/stl_algobase.h **** 
 848:/home/hubert/daisy/gcc/arm-none-eabi/include/c++/10.2.1/bits/stl_algobase.h **** #define _GLIBCXX_MOVE_BACKWARD3(_Tp, _Up, _Vp) std::move_backward(_Tp, _Up, _Vp)
 849:/home/hubert/daisy/gcc/arm-none-eabi/include/c++/10.2.1/bits/stl_algobase.h **** #else
 850:/home/hubert/daisy/gcc/arm-none-eabi/include/c++/10.2.1/bits/stl_algobase.h **** #define _GLIBCXX_MOVE_BACKWARD3(_Tp, _Up, _Vp) std::copy_backward(_Tp, _Up, _Vp)
 851:/home/hubert/daisy/gcc/arm-none-eabi/include/c++/10.2.1/bits/stl_algobase.h **** #endif
 852:/home/hubert/daisy/gcc/arm-none-eabi/include/c++/10.2.1/bits/stl_algobase.h **** 
 853:/home/hubert/daisy/gcc/arm-none-eabi/include/c++/10.2.1/bits/stl_algobase.h ****   template<typename _ForwardIterator, typename _Tp>
 854:/home/hubert/daisy/gcc/arm-none-eabi/include/c++/10.2.1/bits/stl_algobase.h ****     _GLIBCXX20_CONSTEXPR
ARM GAS  /tmp/ccfXsGBh.s 			page 40


 855:/home/hubert/daisy/gcc/arm-none-eabi/include/c++/10.2.1/bits/stl_algobase.h ****     inline typename
 856:/home/hubert/daisy/gcc/arm-none-eabi/include/c++/10.2.1/bits/stl_algobase.h ****     __gnu_cxx::__enable_if<!__is_scalar<_Tp>::__value, void>::__type
 857:/home/hubert/daisy/gcc/arm-none-eabi/include/c++/10.2.1/bits/stl_algobase.h ****     __fill_a1(_ForwardIterator __first, _ForwardIterator __last,
 858:/home/hubert/daisy/gcc/arm-none-eabi/include/c++/10.2.1/bits/stl_algobase.h **** 	      const _Tp& __value)
 859:/home/hubert/daisy/gcc/arm-none-eabi/include/c++/10.2.1/bits/stl_algobase.h ****     {
 860:/home/hubert/daisy/gcc/arm-none-eabi/include/c++/10.2.1/bits/stl_algobase.h ****       for (; __first != __last; ++__first)
 861:/home/hubert/daisy/gcc/arm-none-eabi/include/c++/10.2.1/bits/stl_algobase.h **** 	*__first = __value;
 862:/home/hubert/daisy/gcc/arm-none-eabi/include/c++/10.2.1/bits/stl_algobase.h ****     }
 863:/home/hubert/daisy/gcc/arm-none-eabi/include/c++/10.2.1/bits/stl_algobase.h **** 
 864:/home/hubert/daisy/gcc/arm-none-eabi/include/c++/10.2.1/bits/stl_algobase.h ****   template<typename _ForwardIterator, typename _Tp>
 865:/home/hubert/daisy/gcc/arm-none-eabi/include/c++/10.2.1/bits/stl_algobase.h ****     _GLIBCXX20_CONSTEXPR
 866:/home/hubert/daisy/gcc/arm-none-eabi/include/c++/10.2.1/bits/stl_algobase.h ****     inline typename
 867:/home/hubert/daisy/gcc/arm-none-eabi/include/c++/10.2.1/bits/stl_algobase.h ****     __gnu_cxx::__enable_if<__is_scalar<_Tp>::__value, void>::__type
 868:/home/hubert/daisy/gcc/arm-none-eabi/include/c++/10.2.1/bits/stl_algobase.h ****     __fill_a1(_ForwardIterator __first, _ForwardIterator __last,
 869:/home/hubert/daisy/gcc/arm-none-eabi/include/c++/10.2.1/bits/stl_algobase.h **** 	      const _Tp& __value)
 870:/home/hubert/daisy/gcc/arm-none-eabi/include/c++/10.2.1/bits/stl_algobase.h ****     {
 871:/home/hubert/daisy/gcc/arm-none-eabi/include/c++/10.2.1/bits/stl_algobase.h ****       const _Tp __tmp = __value;
 872:/home/hubert/daisy/gcc/arm-none-eabi/include/c++/10.2.1/bits/stl_algobase.h ****       for (; __first != __last; ++__first)
 873:/home/hubert/daisy/gcc/arm-none-eabi/include/c++/10.2.1/bits/stl_algobase.h **** 	*__first = __tmp;
 874:/home/hubert/daisy/gcc/arm-none-eabi/include/c++/10.2.1/bits/stl_algobase.h ****     }
 875:/home/hubert/daisy/gcc/arm-none-eabi/include/c++/10.2.1/bits/stl_algobase.h **** 
 876:/home/hubert/daisy/gcc/arm-none-eabi/include/c++/10.2.1/bits/stl_algobase.h ****   // Specialization: for char types we can use memset.
 877:/home/hubert/daisy/gcc/arm-none-eabi/include/c++/10.2.1/bits/stl_algobase.h ****   template<typename _Tp>
 878:/home/hubert/daisy/gcc/arm-none-eabi/include/c++/10.2.1/bits/stl_algobase.h ****     _GLIBCXX20_CONSTEXPR
 879:/home/hubert/daisy/gcc/arm-none-eabi/include/c++/10.2.1/bits/stl_algobase.h ****     inline typename
 880:/home/hubert/daisy/gcc/arm-none-eabi/include/c++/10.2.1/bits/stl_algobase.h ****     __gnu_cxx::__enable_if<__is_byte<_Tp>::__value, void>::__type
 881:/home/hubert/daisy/gcc/arm-none-eabi/include/c++/10.2.1/bits/stl_algobase.h ****     __fill_a1(_Tp* __first, _Tp* __last, const _Tp& __c)
 882:/home/hubert/daisy/gcc/arm-none-eabi/include/c++/10.2.1/bits/stl_algobase.h ****     {
 883:/home/hubert/daisy/gcc/arm-none-eabi/include/c++/10.2.1/bits/stl_algobase.h ****       const _Tp __tmp = __c;
 884:/home/hubert/daisy/gcc/arm-none-eabi/include/c++/10.2.1/bits/stl_algobase.h **** #if __cpp_lib_is_constant_evaluated
 885:/home/hubert/daisy/gcc/arm-none-eabi/include/c++/10.2.1/bits/stl_algobase.h ****       if (std::is_constant_evaluated())
 886:/home/hubert/daisy/gcc/arm-none-eabi/include/c++/10.2.1/bits/stl_algobase.h **** 	{
 887:/home/hubert/daisy/gcc/arm-none-eabi/include/c++/10.2.1/bits/stl_algobase.h **** 	  for (; __first != __last; ++__first)
 888:/home/hubert/daisy/gcc/arm-none-eabi/include/c++/10.2.1/bits/stl_algobase.h **** 	    *__first = __tmp;
 889:/home/hubert/daisy/gcc/arm-none-eabi/include/c++/10.2.1/bits/stl_algobase.h **** 	  return;
 890:/home/hubert/daisy/gcc/arm-none-eabi/include/c++/10.2.1/bits/stl_algobase.h **** 	}
 891:/home/hubert/daisy/gcc/arm-none-eabi/include/c++/10.2.1/bits/stl_algobase.h **** #endif
 892:/home/hubert/daisy/gcc/arm-none-eabi/include/c++/10.2.1/bits/stl_algobase.h ****       if (const size_t __len = __last - __first)
 893:/home/hubert/daisy/gcc/arm-none-eabi/include/c++/10.2.1/bits/stl_algobase.h **** 	__builtin_memset(__first, static_cast<unsigned char>(__tmp), __len);
 894:/home/hubert/daisy/gcc/arm-none-eabi/include/c++/10.2.1/bits/stl_algobase.h ****     }
 895:/home/hubert/daisy/gcc/arm-none-eabi/include/c++/10.2.1/bits/stl_algobase.h **** 
 896:/home/hubert/daisy/gcc/arm-none-eabi/include/c++/10.2.1/bits/stl_algobase.h ****   template<typename _Ite, typename _Cont, typename _Tp>
 897:/home/hubert/daisy/gcc/arm-none-eabi/include/c++/10.2.1/bits/stl_algobase.h ****     _GLIBCXX20_CONSTEXPR
 898:/home/hubert/daisy/gcc/arm-none-eabi/include/c++/10.2.1/bits/stl_algobase.h ****     inline void
 899:/home/hubert/daisy/gcc/arm-none-eabi/include/c++/10.2.1/bits/stl_algobase.h ****     __fill_a1(::__gnu_cxx::__normal_iterator<_Ite, _Cont> __first,
 900:/home/hubert/daisy/gcc/arm-none-eabi/include/c++/10.2.1/bits/stl_algobase.h **** 	      ::__gnu_cxx::__normal_iterator<_Ite, _Cont> __last,
 901:/home/hubert/daisy/gcc/arm-none-eabi/include/c++/10.2.1/bits/stl_algobase.h **** 	      const _Tp& __value)
 902:/home/hubert/daisy/gcc/arm-none-eabi/include/c++/10.2.1/bits/stl_algobase.h ****     { std::__fill_a1(__first.base(), __last.base(), __value); }
 903:/home/hubert/daisy/gcc/arm-none-eabi/include/c++/10.2.1/bits/stl_algobase.h **** 
 904:/home/hubert/daisy/gcc/arm-none-eabi/include/c++/10.2.1/bits/stl_algobase.h ****   template<typename _Tp, typename _VTp>
 905:/home/hubert/daisy/gcc/arm-none-eabi/include/c++/10.2.1/bits/stl_algobase.h ****     void
 906:/home/hubert/daisy/gcc/arm-none-eabi/include/c++/10.2.1/bits/stl_algobase.h ****     __fill_a1(const _GLIBCXX_STD_C::_Deque_iterator<_Tp, _Tp&, _Tp*>&,
 907:/home/hubert/daisy/gcc/arm-none-eabi/include/c++/10.2.1/bits/stl_algobase.h **** 	      const _GLIBCXX_STD_C::_Deque_iterator<_Tp, _Tp&, _Tp*>&,
 908:/home/hubert/daisy/gcc/arm-none-eabi/include/c++/10.2.1/bits/stl_algobase.h **** 	      const _VTp&);
 909:/home/hubert/daisy/gcc/arm-none-eabi/include/c++/10.2.1/bits/stl_algobase.h **** 
 910:/home/hubert/daisy/gcc/arm-none-eabi/include/c++/10.2.1/bits/stl_algobase.h ****   template<typename _FIte, typename _Tp>
 911:/home/hubert/daisy/gcc/arm-none-eabi/include/c++/10.2.1/bits/stl_algobase.h ****     _GLIBCXX20_CONSTEXPR
ARM GAS  /tmp/ccfXsGBh.s 			page 41


 912:/home/hubert/daisy/gcc/arm-none-eabi/include/c++/10.2.1/bits/stl_algobase.h ****     inline void
 913:/home/hubert/daisy/gcc/arm-none-eabi/include/c++/10.2.1/bits/stl_algobase.h ****     __fill_a(_FIte __first, _FIte __last, const _Tp& __value)
 914:/home/hubert/daisy/gcc/arm-none-eabi/include/c++/10.2.1/bits/stl_algobase.h ****     { std::__fill_a1(__first, __last, __value); }
 915:/home/hubert/daisy/gcc/arm-none-eabi/include/c++/10.2.1/bits/stl_algobase.h **** 
 916:/home/hubert/daisy/gcc/arm-none-eabi/include/c++/10.2.1/bits/stl_algobase.h ****   template<typename _Ite, typename _Seq, typename _Cat, typename _Tp>
 917:/home/hubert/daisy/gcc/arm-none-eabi/include/c++/10.2.1/bits/stl_algobase.h ****     void
 918:/home/hubert/daisy/gcc/arm-none-eabi/include/c++/10.2.1/bits/stl_algobase.h ****     __fill_a(const ::__gnu_debug::_Safe_iterator<_Ite, _Seq, _Cat>&,
 919:/home/hubert/daisy/gcc/arm-none-eabi/include/c++/10.2.1/bits/stl_algobase.h **** 	     const ::__gnu_debug::_Safe_iterator<_Ite, _Seq, _Cat>&,
 920:/home/hubert/daisy/gcc/arm-none-eabi/include/c++/10.2.1/bits/stl_algobase.h **** 	     const _Tp&);
 921:/home/hubert/daisy/gcc/arm-none-eabi/include/c++/10.2.1/bits/stl_algobase.h **** 
 922:/home/hubert/daisy/gcc/arm-none-eabi/include/c++/10.2.1/bits/stl_algobase.h ****   /**
 923:/home/hubert/daisy/gcc/arm-none-eabi/include/c++/10.2.1/bits/stl_algobase.h ****    *  @brief Fills the range [first,last) with copies of value.
 924:/home/hubert/daisy/gcc/arm-none-eabi/include/c++/10.2.1/bits/stl_algobase.h ****    *  @ingroup mutating_algorithms
 925:/home/hubert/daisy/gcc/arm-none-eabi/include/c++/10.2.1/bits/stl_algobase.h ****    *  @param  __first  A forward iterator.
 926:/home/hubert/daisy/gcc/arm-none-eabi/include/c++/10.2.1/bits/stl_algobase.h ****    *  @param  __last   A forward iterator.
 927:/home/hubert/daisy/gcc/arm-none-eabi/include/c++/10.2.1/bits/stl_algobase.h ****    *  @param  __value  A reference-to-const of arbitrary type.
 928:/home/hubert/daisy/gcc/arm-none-eabi/include/c++/10.2.1/bits/stl_algobase.h ****    *  @return   Nothing.
 929:/home/hubert/daisy/gcc/arm-none-eabi/include/c++/10.2.1/bits/stl_algobase.h ****    *
 930:/home/hubert/daisy/gcc/arm-none-eabi/include/c++/10.2.1/bits/stl_algobase.h ****    *  This function fills a range with copies of the same value.  For char
 931:/home/hubert/daisy/gcc/arm-none-eabi/include/c++/10.2.1/bits/stl_algobase.h ****    *  types filling contiguous areas of memory, this becomes an inline call
 932:/home/hubert/daisy/gcc/arm-none-eabi/include/c++/10.2.1/bits/stl_algobase.h ****    *  to @c memset or @c wmemset.
 933:/home/hubert/daisy/gcc/arm-none-eabi/include/c++/10.2.1/bits/stl_algobase.h ****   */
 934:/home/hubert/daisy/gcc/arm-none-eabi/include/c++/10.2.1/bits/stl_algobase.h ****   template<typename _ForwardIterator, typename _Tp>
 935:/home/hubert/daisy/gcc/arm-none-eabi/include/c++/10.2.1/bits/stl_algobase.h ****     _GLIBCXX20_CONSTEXPR
 936:/home/hubert/daisy/gcc/arm-none-eabi/include/c++/10.2.1/bits/stl_algobase.h ****     inline void
 937:/home/hubert/daisy/gcc/arm-none-eabi/include/c++/10.2.1/bits/stl_algobase.h ****     fill(_ForwardIterator __first, _ForwardIterator __last, const _Tp& __value)
 846              		.loc 6 937 5 view .LVU188
 847              	.LBB90:
 848              	.LBI90:
 913:/home/hubert/daisy/gcc/arm-none-eabi/include/c++/10.2.1/bits/stl_algobase.h ****     { std::__fill_a1(__first, __last, __value); }
 849              		.loc 6 913 5 view .LVU189
 850              	.LBB91:
 851              	.LBI91:
 868:/home/hubert/daisy/gcc/arm-none-eabi/include/c++/10.2.1/bits/stl_algobase.h **** 	      const _Tp& __value)
 852              		.loc 6 868 5 view .LVU190
 853              	.LBB92:
 873:/home/hubert/daisy/gcc/arm-none-eabi/include/c++/10.2.1/bits/stl_algobase.h ****     }
 854              		.loc 6 873 11 is_stmt 0 view .LVU191
 855 0056 FFF7FEFF 		bl	memset
 856              	.LVL80:
 873:/home/hubert/daisy/gcc/arm-none-eabi/include/c++/10.2.1/bits/stl_algobase.h ****     }
 857              		.loc 6 873 11 view .LVU192
 858              	.LBE92:
 859              	.LBE91:
 860              	.LBE90:
 861              	.LBE89:
  84:../libDaisy/src/hid/midi.h ****     }
 862              		.loc 4 84 9 is_stmt 1 view .LVU193
  84:../libDaisy/src/hid/midi.h ****     }
 863              		.loc 4 84 19 is_stmt 0 view .LVU194
 864 005a 0DA9     		add	r1, sp, #52
 865 005c 04F1F800 		add	r0, r4, #248
 866              	.LVL81:
  84:../libDaisy/src/hid/midi.h ****     }
 867              		.loc 4 84 19 view .LVU195
 868 0060 FFF7FEFF 		bl	_ZN5daisy11UartHandler4InitERKNS0_6ConfigE
 869              	.LVL82:
ARM GAS  /tmp/ccfXsGBh.s 			page 42


  84:../libDaisy/src/hid/midi.h ****     }
 870              		.loc 4 84 19 view .LVU196
 871              	.LBE93:
 872              	.LBE78:
 873              	.LBB94:
 874              	.LBI94:
 875              		.file 7 "../libDaisy/src/hid/midi_parser.h"
   1:../libDaisy/src/hid/midi_parser.h **** #pragma once
   2:../libDaisy/src/hid/midi_parser.h **** #ifndef DSY_MIDI_PARSER_H
   3:../libDaisy/src/hid/midi_parser.h **** #define DSY_MIDI_PARSER_H
   4:../libDaisy/src/hid/midi_parser.h **** 
   5:../libDaisy/src/hid/midi_parser.h **** #include <stdint.h>
   6:../libDaisy/src/hid/midi_parser.h **** #include <stdlib.h>
   7:../libDaisy/src/hid/midi_parser.h **** #include "hid/MidiEvent.h"
   8:../libDaisy/src/hid/midi_parser.h **** 
   9:../libDaisy/src/hid/midi_parser.h **** namespace daisy
  10:../libDaisy/src/hid/midi_parser.h **** {
  11:../libDaisy/src/hid/midi_parser.h **** /** @brief   Utility class for parsing raw byte streams into MIDI messages
  12:../libDaisy/src/hid/midi_parser.h ****  *  @details Implemented as a state machine designed to parse one byte at a time
  13:../libDaisy/src/hid/midi_parser.h ****  *  @ingroup midi
  14:../libDaisy/src/hid/midi_parser.h ****  */
  15:../libDaisy/src/hid/midi_parser.h **** class MidiParser
  16:../libDaisy/src/hid/midi_parser.h **** {
  17:../libDaisy/src/hid/midi_parser.h ****   public:
  18:../libDaisy/src/hid/midi_parser.h ****     MidiParser(){};
  19:../libDaisy/src/hid/midi_parser.h ****     ~MidiParser() {}
  20:../libDaisy/src/hid/midi_parser.h **** 
  21:../libDaisy/src/hid/midi_parser.h ****     inline void Init() { Reset(); }
 876              		.loc 7 21 17 is_stmt 1 view .LVU197
 877              	.LBB95:
 878              		.loc 7 21 26 view .LVU198
 879              		.loc 7 21 31 is_stmt 0 view .LVU199
 880 0064 04F58670 		add	r0, r4, #268
 881              	.LVL83:
 882              		.loc 7 21 31 view .LVU200
 883 0068 FFF7FEFF 		bl	_ZN5daisy10MidiParser5ResetEv
 884              	.LVL84:
 885              		.loc 7 21 31 view .LVU201
 886              	.LBE95:
 887              	.LBE94:
 888              	.LBE96:
 889              	.LBE76:
 144:../kxmx_bluemchen/src/kxmx_bluemchen.cpp **** }
 890              		.loc 2 144 1 view .LVU202
 891 006c 14B0     		add	sp, sp, #80
 892              		.cfi_def_cfa_offset 16
 893              		@ sp needed
 894 006e 70BD     		pop	{r4, r5, r6, pc}
 895              		.loc 2 144 1 view .LVU203
 896              		.cfi_endproc
 897              	.LFE2619:
 899              		.section	.text._ZN4kxmx9Bluemchen11InitEncoderEv,"ax",%progbits
 900              		.align	1
 901              		.global	_ZN4kxmx9Bluemchen11InitEncoderEv
 902              		.syntax unified
 903              		.thumb
 904              		.thumb_func
ARM GAS  /tmp/ccfXsGBh.s 			page 43


 905              		.fpu fpv5-d16
 907              	_ZN4kxmx9Bluemchen11InitEncoderEv:
 908              	.LVL85:
 909              	.LFB2623:
 145:../kxmx_bluemchen/src/kxmx_bluemchen.cpp **** 
 146:../kxmx_bluemchen/src/kxmx_bluemchen.cpp **** void Bluemchen::InitEncoder()
 147:../kxmx_bluemchen/src/kxmx_bluemchen.cpp **** {
 910              		.loc 2 147 1 is_stmt 1 view -0
 911              		.cfi_startproc
 912              		@ args = 0, pretend = 0, frame = 16
 913              		@ frame_needed = 0, uses_anonymous_args = 0
 148:../kxmx_bluemchen/src/kxmx_bluemchen.cpp ****     encoder.Init(seed.GetPin(PIN_ENC_A),
 914              		.loc 2 148 5 view .LVU205
 147:../kxmx_bluemchen/src/kxmx_bluemchen.cpp ****     encoder.Init(seed.GetPin(PIN_ENC_A),
 915              		.loc 2 147 1 is_stmt 0 view .LVU206
 916 0000 1FB5     		push	{r0, r1, r2, r3, r4, lr}
 917              		.cfi_def_cfa_offset 24
 918              		.cfi_offset 4, -8
 919              		.cfi_offset 14, -4
 147:../kxmx_bluemchen/src/kxmx_bluemchen.cpp ****     encoder.Init(seed.GetPin(PIN_ENC_A),
 920              		.loc 2 147 1 view .LVU207
 921 0002 0446     		mov	r4, r0
 922              		.loc 2 148 17 view .LVU208
 923 0004 1B20     		movs	r0, #27
 924              	.LVL86:
 925              		.loc 2 148 17 view .LVU209
 926 0006 FFF7FEFF 		bl	_ZN5daisy9DaisySeed6GetPinEh
 927              	.LVL87:
 928 000a ADF80400 		strh	r0, [sp, #4]	@ movhi
 929 000e 1A20     		movs	r0, #26
 930 0010 FFF7FEFF 		bl	_ZN5daisy9DaisySeed6GetPinEh
 931              	.LVL88:
 932 0014 ADF80800 		strh	r0, [sp, #8]	@ movhi
 933 0018 1C20     		movs	r0, #28
 934 001a FFF7FEFF 		bl	_ZN5daisy9DaisySeed6GetPinEh
 935              	.LVL89:
 936 001e ADF80C00 		strh	r0, [sp, #12]	@ movhi
 937              	.LVL90:
 938              	.LBB97:
 939              	.LBI97:
  56:../kxmx_bluemchen/src/kxmx_bluemchen.cpp **** {
 940              		.loc 2 56 7 is_stmt 1 view .LVU210
 941              	.LBB98:
  58:../kxmx_bluemchen/src/kxmx_bluemchen.cpp **** }
 942              		.loc 2 58 5 view .LVU211
  58:../kxmx_bluemchen/src/kxmx_bluemchen.cpp **** }
 943              		.loc 2 58 34 is_stmt 0 view .LVU212
 944 0022 2046     		mov	r0, r4
 945 0024 FFF7FEFF 		bl	_ZNK5daisy9DaisySeed17AudioCallbackRateEv
 946              	.LVL91:
  58:../kxmx_bluemchen/src/kxmx_bluemchen.cpp **** }
 947              		.loc 2 58 34 view .LVU213
 948              	.LBE98:
 949              	.LBE97:
 950              		.loc 2 148 17 view .LVU214
 951 0028 0199     		ldr	r1, [sp, #4]
 952 002a 04F14000 		add	r0, r4, #64
ARM GAS  /tmp/ccfXsGBh.s 			page 44


 953 002e DDE90223 		ldrd	r2, r3, [sp, #8]
 149:../kxmx_bluemchen/src/kxmx_bluemchen.cpp ****                  seed.GetPin(PIN_ENC_B),
 150:../kxmx_bluemchen/src/kxmx_bluemchen.cpp ****                  seed.GetPin(PIN_ENC_CLICK),
 151:../kxmx_bluemchen/src/kxmx_bluemchen.cpp ****                  AudioCallbackRate());
 152:../kxmx_bluemchen/src/kxmx_bluemchen.cpp **** }
 954              		.loc 2 152 1 view .LVU215
 955 0032 04B0     		add	sp, sp, #16
 956              		.cfi_def_cfa_offset 8
 957              		@ sp needed
 958 0034 BDE81040 		pop	{r4, lr}
 959              		.cfi_restore 14
 960              		.cfi_restore 4
 961              		.cfi_def_cfa_offset 0
 962              	.LVL92:
 148:../kxmx_bluemchen/src/kxmx_bluemchen.cpp ****                  seed.GetPin(PIN_ENC_B),
 963              		.loc 2 148 17 view .LVU216
 964 0038 FFF7FEBF 		b	_ZN5daisy7Encoder4InitE12dsy_gpio_pinS1_S1_f
 965              	.LVL93:
 148:../kxmx_bluemchen/src/kxmx_bluemchen.cpp ****                  seed.GetPin(PIN_ENC_B),
 966              		.loc 2 148 17 view .LVU217
 967              		.cfi_endproc
 968              	.LFE2623:
 970              		.section	.text._ZN4kxmx9Bluemchen11InitMicroSDEv,"ax",%progbits
 971              		.align	1
 972              		.global	_ZN4kxmx9Bluemchen11InitMicroSDEv
 973              		.syntax unified
 974              		.thumb
 975              		.thumb_func
 976              		.fpu fpv5-d16
 978              	_ZN4kxmx9Bluemchen11InitMicroSDEv:
 979              	.LVL94:
 980              	.LFB2624:
 153:../kxmx_bluemchen/src/kxmx_bluemchen.cpp **** 
 154:../kxmx_bluemchen/src/kxmx_bluemchen.cpp **** void Bluemchen::InitMicroSD()
 155:../kxmx_bluemchen/src/kxmx_bluemchen.cpp **** {
 981              		.loc 2 155 1 is_stmt 1 view -0
 982              		.cfi_startproc
 983              		@ args = 0, pretend = 0, frame = 0
 984              		@ frame_needed = 0, uses_anonymous_args = 0
 985              		@ link register save eliminated.
 156:../kxmx_bluemchen/src/kxmx_bluemchen.cpp ****     sdmmc_cfg.Defaults();
 986              		.loc 2 156 5 view .LVU219
 987              	.LBB99:
 988              	.LBI99:
 989              		.file 8 "../libDaisy/src/per/sdmmc.h"
   1:../libDaisy/src/per/sdmmc.h **** /*
   2:../libDaisy/src/per/sdmmc.h **** TODO: 
   3:../libDaisy/src/per/sdmmc.h **** - Implement configuration (currently all settings are fixed).
   4:../libDaisy/src/per/sdmmc.h **** */
   5:../libDaisy/src/per/sdmmc.h **** #pragma once
   6:../libDaisy/src/per/sdmmc.h **** #ifndef DSY_SDMMC_H
   7:../libDaisy/src/per/sdmmc.h **** #define DSY_SDMMC_H /**< macro */
   8:../libDaisy/src/per/sdmmc.h **** 
   9:../libDaisy/src/per/sdmmc.h **** #include <stdint.h>
  10:../libDaisy/src/per/sdmmc.h **** 
  11:../libDaisy/src/per/sdmmc.h **** 
  12:../libDaisy/src/per/sdmmc.h **** namespace daisy
ARM GAS  /tmp/ccfXsGBh.s 			page 45


  13:../libDaisy/src/per/sdmmc.h **** {
  14:../libDaisy/src/per/sdmmc.h **** /** @ingroup peripheral
  15:../libDaisy/src/per/sdmmc.h ****     @{
  16:../libDaisy/src/per/sdmmc.h ****     */
  17:../libDaisy/src/per/sdmmc.h **** 
  18:../libDaisy/src/per/sdmmc.h **** /** Configuration for interfacing with SD cards.
  19:../libDaisy/src/per/sdmmc.h ****  *  Currently only supports operation using FatFS filesystem
  20:../libDaisy/src/per/sdmmc.h ****  * 
  21:../libDaisy/src/per/sdmmc.h ****  *  Only SDMMC1 is supported at this time.
  22:../libDaisy/src/per/sdmmc.h ****  *
  23:../libDaisy/src/per/sdmmc.h ****  *  Pins are fixed to the following:
  24:../libDaisy/src/per/sdmmc.h ****  *  PC12 - SDMMC1 CK
  25:../libDaisy/src/per/sdmmc.h ****  *  PD2  - SDMMC1 CMD
  26:../libDaisy/src/per/sdmmc.h ****  *  PC8  - SDMMC1 D0
  27:../libDaisy/src/per/sdmmc.h ****  *  PC9  - SDMMC1 D1 (optional)
  28:../libDaisy/src/per/sdmmc.h ****  *  PC10 - SDMMC1 D2 (optional)
  29:../libDaisy/src/per/sdmmc.h ****  *  PC11 - SDMMC1 D3 (optional)
  30:../libDaisy/src/per/sdmmc.h **** */
  31:../libDaisy/src/per/sdmmc.h **** class SdmmcHandler
  32:../libDaisy/src/per/sdmmc.h **** {
  33:../libDaisy/src/per/sdmmc.h ****   public:
  34:../libDaisy/src/per/sdmmc.h ****     /** Return values for the SdmmcHandler class */
  35:../libDaisy/src/per/sdmmc.h ****     enum class Result
  36:../libDaisy/src/per/sdmmc.h ****     {
  37:../libDaisy/src/per/sdmmc.h ****         OK,
  38:../libDaisy/src/per/sdmmc.h ****         ERROR,
  39:../libDaisy/src/per/sdmmc.h ****     };
  40:../libDaisy/src/per/sdmmc.h **** 
  41:../libDaisy/src/per/sdmmc.h ****     /** Sets whether 4-bit mode or 1-bit mode is used for the SDMMC */
  42:../libDaisy/src/per/sdmmc.h ****     enum class BusWidth
  43:../libDaisy/src/per/sdmmc.h ****     {
  44:../libDaisy/src/per/sdmmc.h ****         BITS_1, /**< Only 1 bit of data per clock is transferred */
  45:../libDaisy/src/per/sdmmc.h ****         BITS_4, /**< 4-bits of parallel data for each clock pulse */
  46:../libDaisy/src/per/sdmmc.h ****     };
  47:../libDaisy/src/per/sdmmc.h **** 
  48:../libDaisy/src/per/sdmmc.h ****     /** 
  49:../libDaisy/src/per/sdmmc.h ****     Sets the desired clock speed of the SD card bus. \n 
  50:../libDaisy/src/per/sdmmc.h ****     Initialization is always done at or below 400kHz, and then the user speed is set.
  51:../libDaisy/src/per/sdmmc.h ****     */
  52:../libDaisy/src/per/sdmmc.h ****     enum class Speed
  53:../libDaisy/src/per/sdmmc.h ****     {
  54:../libDaisy/src/per/sdmmc.h ****         SLOW, /**< 400kHz, initialization  performed at this rate, before moving to user value */
  55:../libDaisy/src/per/sdmmc.h ****         MEDIUM_SLOW, /**< 12.5MHz - half of standard rate */
  56:../libDaisy/src/per/sdmmc.h ****         STANDARD,    /**< 25MHz - DS (Default Speed for SDMMC) */
  57:../libDaisy/src/per/sdmmc.h ****         FAST,        /**< 50MHz - HS (High Speed signaling) */
  58:../libDaisy/src/per/sdmmc.h ****         VERY_FAST, /**< 100MHz - SDR50 Overclocked rate for maximum transfer rates */
  59:../libDaisy/src/per/sdmmc.h ****     };
  60:../libDaisy/src/per/sdmmc.h **** 
  61:../libDaisy/src/per/sdmmc.h ****     struct Config
  62:../libDaisy/src/per/sdmmc.h ****     {
  63:../libDaisy/src/per/sdmmc.h ****         Speed    speed;
  64:../libDaisy/src/per/sdmmc.h ****         BusWidth width;
  65:../libDaisy/src/per/sdmmc.h ****         bool
  66:../libDaisy/src/per/sdmmc.h ****             clock_powersave; /**< When true, the clock will stop between transfers to save power. *
  67:../libDaisy/src/per/sdmmc.h **** 
  68:../libDaisy/src/per/sdmmc.h ****         /** Configures settings to their default settings */
  69:../libDaisy/src/per/sdmmc.h ****         void Defaults()
ARM GAS  /tmp/ccfXsGBh.s 			page 46


 990              		.loc 8 69 14 view .LVU220
 991              	.LBB100:
  70:../libDaisy/src/per/sdmmc.h ****         {
  71:../libDaisy/src/per/sdmmc.h ****             speed           = Speed::FAST;
 992              		.loc 8 71 13 view .LVU221
 993              		.loc 8 71 29 is_stmt 0 view .LVU222
 994 0000 0549     		ldr	r1, .L23
  72:../libDaisy/src/per/sdmmc.h ****             width           = BusWidth::BITS_4;
 995              		.loc 8 72 29 view .LVU223
 996 0002 0123     		movs	r3, #1
 997 0004 0322     		movs	r2, #3
 998              	.LBE100:
 999              	.LBE99:
 157:../kxmx_bluemchen/src/kxmx_bluemchen.cpp ****     sd.Init(sdmmc_cfg);
 1000              		.loc 2 157 12 view .LVU224
 1001 0006 00F51240 		add	r0, r0, #37376
 1002              	.LVL95:
 1003              	.LBB103:
 1004              	.LBB101:
 1005              		.loc 8 72 29 view .LVU225
 1006 000a C1E90023 		strd	r2, r3, [r1]
  73:../libDaisy/src/per/sdmmc.h ****             clock_powersave = false;
 1007              		.loc 8 73 13 is_stmt 1 view .LVU226
 1008              		.loc 8 73 29 is_stmt 0 view .LVU227
 1009 000e 0023     		movs	r3, #0
 1010              	.LBE101:
 1011              	.LBE103:
 1012              		.loc 2 157 12 view .LVU228
 1013 0010 4830     		adds	r0, r0, #72
 1014              	.LVL96:
 1015              	.LBB104:
 1016              	.LBB102:
 1017              		.loc 8 73 29 view .LVU229
 1018 0012 0B72     		strb	r3, [r1, #8]
 1019              	.LVL97:
 1020              		.loc 8 73 29 view .LVU230
 1021              	.LBE102:
 1022              	.LBE104:
 1023              		.loc 2 157 5 is_stmt 1 view .LVU231
 1024              		.loc 2 157 12 is_stmt 0 view .LVU232
 1025 0014 FFF7FEBF 		b	_ZN5daisy12SdmmcHandler4InitERKNS0_6ConfigE
 1026              	.LVL98:
 1027              	.L24:
 1028              		.loc 2 157 12 view .LVU233
 1029              		.align	2
 1030              	.L23:
 1031 0018 00000000 		.word	.LANCHOR0
 1032              		.cfi_endproc
 1033              	.LFE2624:
 1035              		.section	.text._ZN5daisy13SSD130xDriverILj64ELj32ENS_19SSD130xI2CTransportEE4InitENS2_6ConfigE,"ax
 1036              		.align	1
 1037              		.weak	_ZN5daisy13SSD130xDriverILj64ELj32ENS_19SSD130xI2CTransportEE4InitENS2_6ConfigE
 1038              		.syntax unified
 1039              		.thumb
 1040              		.thumb_func
 1041              		.fpu fpv5-d16
 1043              	_ZN5daisy13SSD130xDriverILj64ELj32ENS_19SSD130xI2CTransportEE4InitENS2_6ConfigE:
ARM GAS  /tmp/ccfXsGBh.s 			page 47


 1044              	.LVL99:
 1045              	.LFB2677:
  47:../libDaisy/src/dev/oled_ssd130x.h **** 
  48:../libDaisy/src/dev/oled_ssd130x.h ****     void SendData(uint8_t* buff, size_t size)
  49:../libDaisy/src/dev/oled_ssd130x.h ****     {
  50:../libDaisy/src/dev/oled_ssd130x.h ****         for(size_t i = 0; i < size; i++)
  51:../libDaisy/src/dev/oled_ssd130x.h ****         {
  52:../libDaisy/src/dev/oled_ssd130x.h ****             uint8_t buf[2] = {0X40, buff[i]};
  53:../libDaisy/src/dev/oled_ssd130x.h ****             i2c_.TransmitBlocking(i2c_address_, buf, 2, 1000);
  54:../libDaisy/src/dev/oled_ssd130x.h ****         }
  55:../libDaisy/src/dev/oled_ssd130x.h ****     };
  56:../libDaisy/src/dev/oled_ssd130x.h **** 
  57:../libDaisy/src/dev/oled_ssd130x.h ****   private:
  58:../libDaisy/src/dev/oled_ssd130x.h ****     daisy::I2CHandle i2c_;
  59:../libDaisy/src/dev/oled_ssd130x.h ****     uint8_t          i2c_address_;
  60:../libDaisy/src/dev/oled_ssd130x.h **** };
  61:../libDaisy/src/dev/oled_ssd130x.h **** 
  62:../libDaisy/src/dev/oled_ssd130x.h **** /**
  63:../libDaisy/src/dev/oled_ssd130x.h ****  * 4 Wire SPI Transport for SSD1306 / SSD1309 OLED display devices
  64:../libDaisy/src/dev/oled_ssd130x.h ****  */
  65:../libDaisy/src/dev/oled_ssd130x.h **** class SSD130x4WireSpiTransport
  66:../libDaisy/src/dev/oled_ssd130x.h **** {
  67:../libDaisy/src/dev/oled_ssd130x.h ****   public:
  68:../libDaisy/src/dev/oled_ssd130x.h ****     struct Config
  69:../libDaisy/src/dev/oled_ssd130x.h ****     {
  70:../libDaisy/src/dev/oled_ssd130x.h ****         Config()
  71:../libDaisy/src/dev/oled_ssd130x.h ****         {
  72:../libDaisy/src/dev/oled_ssd130x.h ****             // Initialize using defaults
  73:../libDaisy/src/dev/oled_ssd130x.h ****             Defaults();
  74:../libDaisy/src/dev/oled_ssd130x.h ****         }
  75:../libDaisy/src/dev/oled_ssd130x.h ****         SpiHandle::Config spi_config;
  76:../libDaisy/src/dev/oled_ssd130x.h ****         struct
  77:../libDaisy/src/dev/oled_ssd130x.h ****         {
  78:../libDaisy/src/dev/oled_ssd130x.h ****             dsy_gpio_pin dc;    /**< & */
  79:../libDaisy/src/dev/oled_ssd130x.h ****             dsy_gpio_pin reset; /**< & */
  80:../libDaisy/src/dev/oled_ssd130x.h ****         } pin_config;
  81:../libDaisy/src/dev/oled_ssd130x.h ****         void Defaults()
  82:../libDaisy/src/dev/oled_ssd130x.h ****         {
  83:../libDaisy/src/dev/oled_ssd130x.h ****             // SPI peripheral config
  84:../libDaisy/src/dev/oled_ssd130x.h ****             spi_config.periph = SpiHandle::Config::Peripheral::SPI_1;
  85:../libDaisy/src/dev/oled_ssd130x.h ****             spi_config.mode   = SpiHandle::Config::Mode::MASTER;
  86:../libDaisy/src/dev/oled_ssd130x.h ****             spi_config.direction
  87:../libDaisy/src/dev/oled_ssd130x.h ****                 = SpiHandle::Config::Direction::TWO_LINES_TX_ONLY;
  88:../libDaisy/src/dev/oled_ssd130x.h ****             spi_config.datasize       = 8;
  89:../libDaisy/src/dev/oled_ssd130x.h ****             spi_config.clock_polarity = SpiHandle::Config::ClockPolarity::LOW;
  90:../libDaisy/src/dev/oled_ssd130x.h ****             spi_config.clock_phase    = SpiHandle::Config::ClockPhase::ONE_EDGE;
  91:../libDaisy/src/dev/oled_ssd130x.h ****             spi_config.nss            = SpiHandle::Config::NSS::HARD_OUTPUT;
  92:../libDaisy/src/dev/oled_ssd130x.h ****             spi_config.baud_prescaler = SpiHandle::Config::BaudPrescaler::PS_8;
  93:../libDaisy/src/dev/oled_ssd130x.h ****             // SPI pin config
  94:../libDaisy/src/dev/oled_ssd130x.h ****             spi_config.pin_config.sclk = {DSY_GPIOG, 11};
  95:../libDaisy/src/dev/oled_ssd130x.h ****             spi_config.pin_config.miso = {DSY_GPIOX, 0};
  96:../libDaisy/src/dev/oled_ssd130x.h ****             spi_config.pin_config.mosi = {DSY_GPIOB, 5};
  97:../libDaisy/src/dev/oled_ssd130x.h ****             spi_config.pin_config.nss  = {DSY_GPIOG, 10};
  98:../libDaisy/src/dev/oled_ssd130x.h ****             // SSD130x control pin config
  99:../libDaisy/src/dev/oled_ssd130x.h ****             pin_config.dc    = {DSY_GPIOB, 4};
 100:../libDaisy/src/dev/oled_ssd130x.h ****             pin_config.reset = {DSY_GPIOB, 15};
 101:../libDaisy/src/dev/oled_ssd130x.h ****         }
ARM GAS  /tmp/ccfXsGBh.s 			page 48


 102:../libDaisy/src/dev/oled_ssd130x.h ****     };
 103:../libDaisy/src/dev/oled_ssd130x.h ****     void Init(const Config& config)
 104:../libDaisy/src/dev/oled_ssd130x.h ****     {
 105:../libDaisy/src/dev/oled_ssd130x.h ****         // Initialize both GPIO
 106:../libDaisy/src/dev/oled_ssd130x.h ****         pin_dc_.mode = DSY_GPIO_MODE_OUTPUT_PP;
 107:../libDaisy/src/dev/oled_ssd130x.h ****         pin_dc_.pin  = config.pin_config.dc;
 108:../libDaisy/src/dev/oled_ssd130x.h ****         dsy_gpio_init(&pin_dc_);
 109:../libDaisy/src/dev/oled_ssd130x.h ****         pin_reset_.mode = DSY_GPIO_MODE_OUTPUT_PP;
 110:../libDaisy/src/dev/oled_ssd130x.h ****         pin_reset_.pin  = config.pin_config.reset;
 111:../libDaisy/src/dev/oled_ssd130x.h ****         dsy_gpio_init(&pin_reset_);
 112:../libDaisy/src/dev/oled_ssd130x.h **** 
 113:../libDaisy/src/dev/oled_ssd130x.h ****         // Initialize SPI
 114:../libDaisy/src/dev/oled_ssd130x.h ****         spi_.Init(config.spi_config);
 115:../libDaisy/src/dev/oled_ssd130x.h **** 
 116:../libDaisy/src/dev/oled_ssd130x.h ****         // Reset and Configure OLED.
 117:../libDaisy/src/dev/oled_ssd130x.h ****         dsy_gpio_write(&pin_reset_, 0);
 118:../libDaisy/src/dev/oled_ssd130x.h ****         System::Delay(10);
 119:../libDaisy/src/dev/oled_ssd130x.h ****         dsy_gpio_write(&pin_reset_, 1);
 120:../libDaisy/src/dev/oled_ssd130x.h ****         System::Delay(10);
 121:../libDaisy/src/dev/oled_ssd130x.h ****     };
 122:../libDaisy/src/dev/oled_ssd130x.h ****     void SendCommand(uint8_t cmd)
 123:../libDaisy/src/dev/oled_ssd130x.h ****     {
 124:../libDaisy/src/dev/oled_ssd130x.h ****         dsy_gpio_write(&pin_dc_, 0);
 125:../libDaisy/src/dev/oled_ssd130x.h ****         spi_.BlockingTransmit(&cmd, 1);
 126:../libDaisy/src/dev/oled_ssd130x.h ****     };
 127:../libDaisy/src/dev/oled_ssd130x.h **** 
 128:../libDaisy/src/dev/oled_ssd130x.h ****     void SendData(uint8_t* buff, size_t size)
 129:../libDaisy/src/dev/oled_ssd130x.h ****     {
 130:../libDaisy/src/dev/oled_ssd130x.h ****         dsy_gpio_write(&pin_dc_, 1);
 131:../libDaisy/src/dev/oled_ssd130x.h ****         spi_.BlockingTransmit(buff, size);
 132:../libDaisy/src/dev/oled_ssd130x.h ****     };
 133:../libDaisy/src/dev/oled_ssd130x.h **** 
 134:../libDaisy/src/dev/oled_ssd130x.h ****   private:
 135:../libDaisy/src/dev/oled_ssd130x.h ****     SpiHandle spi_;
 136:../libDaisy/src/dev/oled_ssd130x.h ****     dsy_gpio  pin_reset_;
 137:../libDaisy/src/dev/oled_ssd130x.h ****     dsy_gpio  pin_dc_;
 138:../libDaisy/src/dev/oled_ssd130x.h **** };
 139:../libDaisy/src/dev/oled_ssd130x.h **** 
 140:../libDaisy/src/dev/oled_ssd130x.h **** /**
 141:../libDaisy/src/dev/oled_ssd130x.h ****  * Soft SPI Transport for SSD1306 / SSD1309 OLED display devices
 142:../libDaisy/src/dev/oled_ssd130x.h ****  */
 143:../libDaisy/src/dev/oled_ssd130x.h **** class SSD130x4WireSoftSpiTransport
 144:../libDaisy/src/dev/oled_ssd130x.h **** {
 145:../libDaisy/src/dev/oled_ssd130x.h ****   public:
 146:../libDaisy/src/dev/oled_ssd130x.h ****     struct Config
 147:../libDaisy/src/dev/oled_ssd130x.h ****     {
 148:../libDaisy/src/dev/oled_ssd130x.h ****         Config()
 149:../libDaisy/src/dev/oled_ssd130x.h ****         {
 150:../libDaisy/src/dev/oled_ssd130x.h ****             // Initialize using defaults
 151:../libDaisy/src/dev/oled_ssd130x.h ****             Defaults();
 152:../libDaisy/src/dev/oled_ssd130x.h ****         }
 153:../libDaisy/src/dev/oled_ssd130x.h ****         struct
 154:../libDaisy/src/dev/oled_ssd130x.h ****         {
 155:../libDaisy/src/dev/oled_ssd130x.h ****             uint32_t     sclk_delay;
 156:../libDaisy/src/dev/oled_ssd130x.h ****             dsy_gpio_pin sclk;
 157:../libDaisy/src/dev/oled_ssd130x.h ****             dsy_gpio_pin mosi;
 158:../libDaisy/src/dev/oled_ssd130x.h ****             dsy_gpio_pin dc;
ARM GAS  /tmp/ccfXsGBh.s 			page 49


 159:../libDaisy/src/dev/oled_ssd130x.h ****             dsy_gpio_pin reset;
 160:../libDaisy/src/dev/oled_ssd130x.h ****         } pin_config;
 161:../libDaisy/src/dev/oled_ssd130x.h ****         void Defaults()
 162:../libDaisy/src/dev/oled_ssd130x.h ****         {
 163:../libDaisy/src/dev/oled_ssd130x.h ****             pin_config.sclk_delay = 0; // fast as possible?!
 164:../libDaisy/src/dev/oled_ssd130x.h ****             // SPI peripheral config
 165:../libDaisy/src/dev/oled_ssd130x.h ****             pin_config.sclk = {DSY_GPIOD, 3}; /**< D10 - SPI2 SCK  */
 166:../libDaisy/src/dev/oled_ssd130x.h ****             pin_config.mosi = {DSY_GPIOC, 3}; /**< D9  - SPI2 MOSI */
 167:../libDaisy/src/dev/oled_ssd130x.h ****             // SSD130x control pin config
 168:../libDaisy/src/dev/oled_ssd130x.h ****             pin_config.dc    = {DSY_GPIOC, 11}; //D2
 169:../libDaisy/src/dev/oled_ssd130x.h ****             pin_config.reset = {DSY_GPIOC, 10}; //D3
 170:../libDaisy/src/dev/oled_ssd130x.h ****         }
 171:../libDaisy/src/dev/oled_ssd130x.h ****     };
 172:../libDaisy/src/dev/oled_ssd130x.h ****     void Init(const Config& config)
 173:../libDaisy/src/dev/oled_ssd130x.h ****     {
 174:../libDaisy/src/dev/oled_ssd130x.h ****         // Initialize both GPIO
 175:../libDaisy/src/dev/oled_ssd130x.h ****         pin_sclk_.mode = DSY_GPIO_MODE_OUTPUT_PP;
 176:../libDaisy/src/dev/oled_ssd130x.h ****         pin_sclk_.pin  = config.pin_config.sclk;
 177:../libDaisy/src/dev/oled_ssd130x.h ****         dsy_gpio_init(&pin_sclk_);
 178:../libDaisy/src/dev/oled_ssd130x.h ****         dsy_gpio_write(&pin_sclk_, 1); //ClockPolarity::LOW
 179:../libDaisy/src/dev/oled_ssd130x.h ****         clk_delay      = config.pin_config.sclk_delay;
 180:../libDaisy/src/dev/oled_ssd130x.h ****         pin_mosi_.mode = DSY_GPIO_MODE_OUTPUT_PP;
 181:../libDaisy/src/dev/oled_ssd130x.h ****         pin_mosi_.pin  = config.pin_config.mosi;
 182:../libDaisy/src/dev/oled_ssd130x.h ****         dsy_gpio_init(&pin_mosi_);
 183:../libDaisy/src/dev/oled_ssd130x.h ****         dsy_gpio_write(&pin_mosi_, 0);
 184:../libDaisy/src/dev/oled_ssd130x.h **** 
 185:../libDaisy/src/dev/oled_ssd130x.h ****         pin_dc_.mode = DSY_GPIO_MODE_OUTPUT_PP;
 186:../libDaisy/src/dev/oled_ssd130x.h ****         pin_dc_.pin  = config.pin_config.dc;
 187:../libDaisy/src/dev/oled_ssd130x.h ****         dsy_gpio_init(&pin_dc_);
 188:../libDaisy/src/dev/oled_ssd130x.h ****         pin_reset_.mode = DSY_GPIO_MODE_OUTPUT_PP;
 189:../libDaisy/src/dev/oled_ssd130x.h ****         pin_reset_.pin  = config.pin_config.reset;
 190:../libDaisy/src/dev/oled_ssd130x.h ****         dsy_gpio_init(&pin_reset_);
 191:../libDaisy/src/dev/oled_ssd130x.h **** 
 192:../libDaisy/src/dev/oled_ssd130x.h ****         // Reset and Configure OLED.
 193:../libDaisy/src/dev/oled_ssd130x.h ****         dsy_gpio_write(&pin_reset_, 0);
 194:../libDaisy/src/dev/oled_ssd130x.h ****         System::Delay(10);
 195:../libDaisy/src/dev/oled_ssd130x.h ****         dsy_gpio_write(&pin_reset_, 1);
 196:../libDaisy/src/dev/oled_ssd130x.h ****         System::Delay(10);
 197:../libDaisy/src/dev/oled_ssd130x.h ****     };
 198:../libDaisy/src/dev/oled_ssd130x.h ****     void SendCommand(uint8_t cmd)
 199:../libDaisy/src/dev/oled_ssd130x.h ****     {
 200:../libDaisy/src/dev/oled_ssd130x.h ****         dsy_gpio_write(&pin_dc_, 0);
 201:../libDaisy/src/dev/oled_ssd130x.h ****         SoftSpiTransmit(cmd);
 202:../libDaisy/src/dev/oled_ssd130x.h ****     };
 203:../libDaisy/src/dev/oled_ssd130x.h **** 
 204:../libDaisy/src/dev/oled_ssd130x.h ****     void SendData(uint8_t* buff, size_t size)
 205:../libDaisy/src/dev/oled_ssd130x.h ****     {
 206:../libDaisy/src/dev/oled_ssd130x.h ****         dsy_gpio_write(&pin_dc_, 1);
 207:../libDaisy/src/dev/oled_ssd130x.h ****         for(size_t i = 0; i < size; i++)
 208:../libDaisy/src/dev/oled_ssd130x.h ****             SoftSpiTransmit(buff[i]);
 209:../libDaisy/src/dev/oled_ssd130x.h ****     };
 210:../libDaisy/src/dev/oled_ssd130x.h **** 
 211:../libDaisy/src/dev/oled_ssd130x.h ****   private:
 212:../libDaisy/src/dev/oled_ssd130x.h ****     void SoftSpiTransmit(uint8_t val)
 213:../libDaisy/src/dev/oled_ssd130x.h ****     {
 214:../libDaisy/src/dev/oled_ssd130x.h ****         // bit flip
 215:../libDaisy/src/dev/oled_ssd130x.h ****         val = ((val & 0x01) << 7) | ((val & 0x02) << 5) | ((val & 0x04) << 3)
ARM GAS  /tmp/ccfXsGBh.s 			page 50


 216:../libDaisy/src/dev/oled_ssd130x.h ****               | ((val & 0x08) << 1) | ((val & 0x10) >> 1) | ((val & 0x20) >> 3)
 217:../libDaisy/src/dev/oled_ssd130x.h ****               | ((val & 0x40) >> 5) | ((val & 0x80) >> 7);
 218:../libDaisy/src/dev/oled_ssd130x.h **** 
 219:../libDaisy/src/dev/oled_ssd130x.h ****         for(uint8_t bit = 0u; bit < 8u; bit++)
 220:../libDaisy/src/dev/oled_ssd130x.h ****         {
 221:../libDaisy/src/dev/oled_ssd130x.h ****             dsy_gpio_write(&pin_mosi_, ((val & (1 << bit)) ? 1 : 0));
 222:../libDaisy/src/dev/oled_ssd130x.h **** 
 223:../libDaisy/src/dev/oled_ssd130x.h ****             System::DelayTicks(clk_delay);
 224:../libDaisy/src/dev/oled_ssd130x.h **** 
 225:../libDaisy/src/dev/oled_ssd130x.h ****             dsy_gpio_toggle(&pin_sclk_);
 226:../libDaisy/src/dev/oled_ssd130x.h **** 
 227:../libDaisy/src/dev/oled_ssd130x.h ****             System::DelayTicks(clk_delay);
 228:../libDaisy/src/dev/oled_ssd130x.h **** 
 229:../libDaisy/src/dev/oled_ssd130x.h ****             dsy_gpio_toggle(&pin_sclk_);
 230:../libDaisy/src/dev/oled_ssd130x.h ****         }
 231:../libDaisy/src/dev/oled_ssd130x.h ****     }
 232:../libDaisy/src/dev/oled_ssd130x.h **** 
 233:../libDaisy/src/dev/oled_ssd130x.h ****     uint32_t clk_delay;
 234:../libDaisy/src/dev/oled_ssd130x.h ****     dsy_gpio pin_sclk_;
 235:../libDaisy/src/dev/oled_ssd130x.h ****     dsy_gpio pin_mosi_;
 236:../libDaisy/src/dev/oled_ssd130x.h ****     dsy_gpio pin_reset_;
 237:../libDaisy/src/dev/oled_ssd130x.h ****     dsy_gpio pin_dc_;
 238:../libDaisy/src/dev/oled_ssd130x.h **** };
 239:../libDaisy/src/dev/oled_ssd130x.h **** 
 240:../libDaisy/src/dev/oled_ssd130x.h **** 
 241:../libDaisy/src/dev/oled_ssd130x.h **** /**
 242:../libDaisy/src/dev/oled_ssd130x.h ****  * A driver implementation for the SSD1306/SSD1309
 243:../libDaisy/src/dev/oled_ssd130x.h ****  */
 244:../libDaisy/src/dev/oled_ssd130x.h **** template <size_t width, size_t height, typename Transport>
 245:../libDaisy/src/dev/oled_ssd130x.h **** class SSD130xDriver
 246:../libDaisy/src/dev/oled_ssd130x.h **** {
 247:../libDaisy/src/dev/oled_ssd130x.h ****   public:
 248:../libDaisy/src/dev/oled_ssd130x.h ****     struct Config
 249:../libDaisy/src/dev/oled_ssd130x.h ****     {
 250:../libDaisy/src/dev/oled_ssd130x.h ****         typename Transport::Config transport_config;
 251:../libDaisy/src/dev/oled_ssd130x.h ****     };
 252:../libDaisy/src/dev/oled_ssd130x.h **** 
 253:../libDaisy/src/dev/oled_ssd130x.h ****     void Init(Config config)
 1046              		.loc 1 253 10 is_stmt 1 view -0
 1047              		.cfi_startproc
 1048              		@ args = 28, pretend = 16, frame = 0
 1049              		@ frame_needed = 0, uses_anonymous_args = 0
 1050              		.loc 1 253 10 is_stmt 0 view .LVU235
 1051 0000 84B0     		sub	sp, sp, #16
 1052              		.cfi_def_cfa_offset 16
 1053 0002 38B5     		push	{r3, r4, r5, lr}
 1054              		.cfi_def_cfa_offset 32
 1055              		.cfi_offset 3, -32
 1056              		.cfi_offset 4, -28
 1057              		.cfi_offset 5, -24
 1058              		.cfi_offset 14, -20
 1059              	.LVL100:
 1060              	.LBB107:
 1061              	.LBI107:
  37:../libDaisy/src/dev/oled_ssd130x.h ****     {
 1062              		.loc 1 37 10 is_stmt 1 view .LVU236
 1063              	.LBB108:
ARM GAS  /tmp/ccfXsGBh.s 			page 51


  39:../libDaisy/src/dev/oled_ssd130x.h ****         i2c_.Init(config.i2c_config);
 1064              		.loc 1 39 9 view .LVU237
 1065              	.LBE108:
 1066              	.LBE107:
 1067              		.loc 1 253 10 is_stmt 0 view .LVU238
 1068 0004 05AD     		add	r5, sp, #20
 1069 0006 0446     		mov	r4, r0
 1070 0008 85E80E00 		stm	r5, {r1, r2, r3}
 1071              	.LBB110:
 1072              	.LBB109:
  39:../libDaisy/src/dev/oled_ssd130x.h ****         i2c_.Init(config.i2c_config);
 1073              		.loc 1 39 22 view .LVU239
 1074 000c 9DF82830 		ldrb	r3, [sp, #40]	@ zero_extendqisi2
  40:../libDaisy/src/dev/oled_ssd130x.h ****     };
 1075              		.loc 1 40 18 view .LVU240
 1076 0010 2946     		mov	r1, r5
  39:../libDaisy/src/dev/oled_ssd130x.h ****         i2c_.Init(config.i2c_config);
 1077              		.loc 1 39 22 view .LVU241
 1078 0012 0371     		strb	r3, [r0, #4]
  40:../libDaisy/src/dev/oled_ssd130x.h ****     };
 1079              		.loc 1 40 9 is_stmt 1 view .LVU242
  40:../libDaisy/src/dev/oled_ssd130x.h ****     };
 1080              		.loc 1 40 18 is_stmt 0 view .LVU243
 1081 0014 FFF7FEFF 		bl	_ZN5daisy9I2CHandle4InitERKNS0_6ConfigE
 1082              	.LVL101:
  40:../libDaisy/src/dev/oled_ssd130x.h ****     };
 1083              		.loc 1 40 18 view .LVU244
 1084              	.LBE109:
 1085              	.LBE110:
 254:../libDaisy/src/dev/oled_ssd130x.h ****     {
 255:../libDaisy/src/dev/oled_ssd130x.h ****         transport_.Init(config.transport_config);
 256:../libDaisy/src/dev/oled_ssd130x.h **** 
 257:../libDaisy/src/dev/oled_ssd130x.h ****         // Init routine...
 258:../libDaisy/src/dev/oled_ssd130x.h **** 
 259:../libDaisy/src/dev/oled_ssd130x.h ****         // Display Off
 260:../libDaisy/src/dev/oled_ssd130x.h ****         transport_.SendCommand(0xaE);
 1086              		.loc 1 260 31 view .LVU245
 1087 0018 2046     		mov	r0, r4
 1088 001a AE21     		movs	r1, #174
 1089 001c FFF7FEFF 		bl	_ZN5daisy19SSD130xI2CTransport11SendCommandEh
 1090              	.LVL102:
 261:../libDaisy/src/dev/oled_ssd130x.h ****         // Dimension dependent commands...
 262:../libDaisy/src/dev/oled_ssd130x.h ****         switch(height)
 263:../libDaisy/src/dev/oled_ssd130x.h ****         {
 264:../libDaisy/src/dev/oled_ssd130x.h ****             case 16:
 265:../libDaisy/src/dev/oled_ssd130x.h ****                 // Display Clock Divide Ratio
 266:../libDaisy/src/dev/oled_ssd130x.h ****                 transport_.SendCommand(0xD5);
 267:../libDaisy/src/dev/oled_ssd130x.h ****                 transport_.SendCommand(0x60);
 268:../libDaisy/src/dev/oled_ssd130x.h ****                 // Multiplex Ratio
 269:../libDaisy/src/dev/oled_ssd130x.h ****                 transport_.SendCommand(0xA8);
 270:../libDaisy/src/dev/oled_ssd130x.h ****                 transport_.SendCommand(0x0F);
 271:../libDaisy/src/dev/oled_ssd130x.h ****                 // COM Pins
 272:../libDaisy/src/dev/oled_ssd130x.h ****                 transport_.SendCommand(0xDA);
 273:../libDaisy/src/dev/oled_ssd130x.h ****                 transport_.SendCommand(0x02);
 274:../libDaisy/src/dev/oled_ssd130x.h ****                 break;
 275:../libDaisy/src/dev/oled_ssd130x.h ****             case 32:
 276:../libDaisy/src/dev/oled_ssd130x.h ****                 // Display Clock Divide Ratio
ARM GAS  /tmp/ccfXsGBh.s 			page 52


 277:../libDaisy/src/dev/oled_ssd130x.h ****                 transport_.SendCommand(0xD5);
 1091              		.loc 1 277 39 view .LVU246
 1092 0020 2046     		mov	r0, r4
 1093 0022 D521     		movs	r1, #213
 1094 0024 FFF7FEFF 		bl	_ZN5daisy19SSD130xI2CTransport11SendCommandEh
 1095              	.LVL103:
 278:../libDaisy/src/dev/oled_ssd130x.h ****                 transport_.SendCommand(0x80);
 1096              		.loc 1 278 39 view .LVU247
 1097 0028 2046     		mov	r0, r4
 1098 002a 8021     		movs	r1, #128
 1099 002c FFF7FEFF 		bl	_ZN5daisy19SSD130xI2CTransport11SendCommandEh
 1100              	.LVL104:
 279:../libDaisy/src/dev/oled_ssd130x.h ****                 // Multiplex Ratio
 280:../libDaisy/src/dev/oled_ssd130x.h ****                 transport_.SendCommand(0xA8);
 1101              		.loc 1 280 39 view .LVU248
 1102 0030 2046     		mov	r0, r4
 1103 0032 A821     		movs	r1, #168
 1104 0034 FFF7FEFF 		bl	_ZN5daisy19SSD130xI2CTransport11SendCommandEh
 1105              	.LVL105:
 281:../libDaisy/src/dev/oled_ssd130x.h ****                 transport_.SendCommand(0x1F);
 1106              		.loc 1 281 39 view .LVU249
 1107 0038 2046     		mov	r0, r4
 1108 003a 1F21     		movs	r1, #31
 1109 003c FFF7FEFF 		bl	_ZN5daisy19SSD130xI2CTransport11SendCommandEh
 1110              	.LVL106:
 282:../libDaisy/src/dev/oled_ssd130x.h ****                 // COM Pins
 283:../libDaisy/src/dev/oled_ssd130x.h ****                 transport_.SendCommand(0xDA);
 1111              		.loc 1 283 39 view .LVU250
 1112 0040 2046     		mov	r0, r4
 1113 0042 DA21     		movs	r1, #218
 1114 0044 FFF7FEFF 		bl	_ZN5daisy19SSD130xI2CTransport11SendCommandEh
 1115              	.LVL107:
 284:../libDaisy/src/dev/oled_ssd130x.h ****                 if(width == 64)
 285:../libDaisy/src/dev/oled_ssd130x.h ****                 {
 286:../libDaisy/src/dev/oled_ssd130x.h ****                     transport_.SendCommand(0x12);
 1116              		.loc 1 286 43 view .LVU251
 1117 0048 2046     		mov	r0, r4
 1118 004a 1221     		movs	r1, #18
 1119 004c FFF7FEFF 		bl	_ZN5daisy19SSD130xI2CTransport11SendCommandEh
 1120              	.LVL108:
 287:../libDaisy/src/dev/oled_ssd130x.h ****                 }
 288:../libDaisy/src/dev/oled_ssd130x.h ****                 else
 289:../libDaisy/src/dev/oled_ssd130x.h ****                 {
 290:../libDaisy/src/dev/oled_ssd130x.h ****                     transport_.SendCommand(0x02);
 291:../libDaisy/src/dev/oled_ssd130x.h ****                 }
 292:../libDaisy/src/dev/oled_ssd130x.h **** 
 293:../libDaisy/src/dev/oled_ssd130x.h ****                 break;
 294:../libDaisy/src/dev/oled_ssd130x.h ****             case 48:
 295:../libDaisy/src/dev/oled_ssd130x.h ****                 // Display Clock Divide Ratio
 296:../libDaisy/src/dev/oled_ssd130x.h ****                 transport_.SendCommand(0xD5);
 297:../libDaisy/src/dev/oled_ssd130x.h ****                 transport_.SendCommand(0x80);
 298:../libDaisy/src/dev/oled_ssd130x.h ****                 // Multiplex Ratio
 299:../libDaisy/src/dev/oled_ssd130x.h ****                 transport_.SendCommand(0xA8);
 300:../libDaisy/src/dev/oled_ssd130x.h ****                 transport_.SendCommand(0x2F);
 301:../libDaisy/src/dev/oled_ssd130x.h ****                 // COM Pins
 302:../libDaisy/src/dev/oled_ssd130x.h ****                 transport_.SendCommand(0xDA);
 303:../libDaisy/src/dev/oled_ssd130x.h ****                 transport_.SendCommand(0x12);
ARM GAS  /tmp/ccfXsGBh.s 			page 53


 304:../libDaisy/src/dev/oled_ssd130x.h ****                 break;
 305:../libDaisy/src/dev/oled_ssd130x.h ****             default: // 128
 306:../libDaisy/src/dev/oled_ssd130x.h ****                 // Display Clock Divide Ratio
 307:../libDaisy/src/dev/oled_ssd130x.h ****                 transport_.SendCommand(0xD5);
 308:../libDaisy/src/dev/oled_ssd130x.h ****                 transport_.SendCommand(0x80);
 309:../libDaisy/src/dev/oled_ssd130x.h ****                 // Multiplex Ratio
 310:../libDaisy/src/dev/oled_ssd130x.h ****                 transport_.SendCommand(0xA8);
 311:../libDaisy/src/dev/oled_ssd130x.h ****                 transport_.SendCommand(0x3F);
 312:../libDaisy/src/dev/oled_ssd130x.h ****                 // COM Pins
 313:../libDaisy/src/dev/oled_ssd130x.h ****                 transport_.SendCommand(0xDA);
 314:../libDaisy/src/dev/oled_ssd130x.h ****                 transport_.SendCommand(0x12);
 315:../libDaisy/src/dev/oled_ssd130x.h ****                 break;
 316:../libDaisy/src/dev/oled_ssd130x.h ****         }
 317:../libDaisy/src/dev/oled_ssd130x.h **** 
 318:../libDaisy/src/dev/oled_ssd130x.h ****         // Display Offset
 319:../libDaisy/src/dev/oled_ssd130x.h ****         transport_.SendCommand(0xD3);
 1121              		.loc 1 319 31 view .LVU252
 1122 0050 2046     		mov	r0, r4
 1123 0052 D321     		movs	r1, #211
 1124 0054 FFF7FEFF 		bl	_ZN5daisy19SSD130xI2CTransport11SendCommandEh
 1125              	.LVL109:
 320:../libDaisy/src/dev/oled_ssd130x.h ****         transport_.SendCommand(0x00);
 1126              		.loc 1 320 31 view .LVU253
 1127 0058 2046     		mov	r0, r4
 1128 005a 0021     		movs	r1, #0
 1129 005c FFF7FEFF 		bl	_ZN5daisy19SSD130xI2CTransport11SendCommandEh
 1130              	.LVL110:
 321:../libDaisy/src/dev/oled_ssd130x.h ****         // Start Line Address
 322:../libDaisy/src/dev/oled_ssd130x.h ****         transport_.SendCommand(0x40);
 1131              		.loc 1 322 31 view .LVU254
 1132 0060 2046     		mov	r0, r4
 1133 0062 4021     		movs	r1, #64
 1134 0064 FFF7FEFF 		bl	_ZN5daisy19SSD130xI2CTransport11SendCommandEh
 1135              	.LVL111:
 323:../libDaisy/src/dev/oled_ssd130x.h ****         // Normal Display
 324:../libDaisy/src/dev/oled_ssd130x.h ****         transport_.SendCommand(0xA6);
 1136              		.loc 1 324 31 view .LVU255
 1137 0068 2046     		mov	r0, r4
 1138 006a A621     		movs	r1, #166
 1139 006c FFF7FEFF 		bl	_ZN5daisy19SSD130xI2CTransport11SendCommandEh
 1140              	.LVL112:
 325:../libDaisy/src/dev/oled_ssd130x.h ****         // All On Resume
 326:../libDaisy/src/dev/oled_ssd130x.h ****         transport_.SendCommand(0xA4);
 1141              		.loc 1 326 31 view .LVU256
 1142 0070 2046     		mov	r0, r4
 1143 0072 A421     		movs	r1, #164
 1144 0074 FFF7FEFF 		bl	_ZN5daisy19SSD130xI2CTransport11SendCommandEh
 1145              	.LVL113:
 327:../libDaisy/src/dev/oled_ssd130x.h ****         // Charge Pump
 328:../libDaisy/src/dev/oled_ssd130x.h ****         transport_.SendCommand(0x8D);
 1146              		.loc 1 328 31 view .LVU257
 1147 0078 2046     		mov	r0, r4
 1148 007a 8D21     		movs	r1, #141
 1149 007c FFF7FEFF 		bl	_ZN5daisy19SSD130xI2CTransport11SendCommandEh
 1150              	.LVL114:
 329:../libDaisy/src/dev/oled_ssd130x.h ****         transport_.SendCommand(0x14);
 1151              		.loc 1 329 31 view .LVU258
ARM GAS  /tmp/ccfXsGBh.s 			page 54


 1152 0080 2046     		mov	r0, r4
 1153 0082 1421     		movs	r1, #20
 1154 0084 FFF7FEFF 		bl	_ZN5daisy19SSD130xI2CTransport11SendCommandEh
 1155              	.LVL115:
 330:../libDaisy/src/dev/oled_ssd130x.h ****         // Set Segment Remap
 331:../libDaisy/src/dev/oled_ssd130x.h ****         transport_.SendCommand(0xA1);
 1156              		.loc 1 331 31 view .LVU259
 1157 0088 2046     		mov	r0, r4
 1158 008a A121     		movs	r1, #161
 1159 008c FFF7FEFF 		bl	_ZN5daisy19SSD130xI2CTransport11SendCommandEh
 1160              	.LVL116:
 332:../libDaisy/src/dev/oled_ssd130x.h ****         // COM Output Scan Direction
 333:../libDaisy/src/dev/oled_ssd130x.h ****         transport_.SendCommand(0xC8);
 1161              		.loc 1 333 31 view .LVU260
 1162 0090 2046     		mov	r0, r4
 1163 0092 C821     		movs	r1, #200
 1164 0094 FFF7FEFF 		bl	_ZN5daisy19SSD130xI2CTransport11SendCommandEh
 1165              	.LVL117:
 334:../libDaisy/src/dev/oled_ssd130x.h ****         // Contrast Control
 335:../libDaisy/src/dev/oled_ssd130x.h ****         transport_.SendCommand(0x81);
 1166              		.loc 1 335 31 view .LVU261
 1167 0098 2046     		mov	r0, r4
 1168 009a 8121     		movs	r1, #129
 1169 009c FFF7FEFF 		bl	_ZN5daisy19SSD130xI2CTransport11SendCommandEh
 1170              	.LVL118:
 336:../libDaisy/src/dev/oled_ssd130x.h ****         transport_.SendCommand(0x8F);
 1171              		.loc 1 336 31 view .LVU262
 1172 00a0 2046     		mov	r0, r4
 1173 00a2 8F21     		movs	r1, #143
 1174 00a4 FFF7FEFF 		bl	_ZN5daisy19SSD130xI2CTransport11SendCommandEh
 1175              	.LVL119:
 337:../libDaisy/src/dev/oled_ssd130x.h ****         // Pre Charge
 338:../libDaisy/src/dev/oled_ssd130x.h ****         transport_.SendCommand(0xD9);
 1176              		.loc 1 338 31 view .LVU263
 1177 00a8 2046     		mov	r0, r4
 1178 00aa D921     		movs	r1, #217
 1179 00ac FFF7FEFF 		bl	_ZN5daisy19SSD130xI2CTransport11SendCommandEh
 1180              	.LVL120:
 339:../libDaisy/src/dev/oled_ssd130x.h ****         transport_.SendCommand(0x25);
 1181              		.loc 1 339 31 view .LVU264
 1182 00b0 2046     		mov	r0, r4
 1183 00b2 2521     		movs	r1, #37
 1184 00b4 FFF7FEFF 		bl	_ZN5daisy19SSD130xI2CTransport11SendCommandEh
 1185              	.LVL121:
 340:../libDaisy/src/dev/oled_ssd130x.h ****         // VCOM Detect
 341:../libDaisy/src/dev/oled_ssd130x.h ****         transport_.SendCommand(0xDB);
 1186              		.loc 1 341 31 view .LVU265
 1187 00b8 2046     		mov	r0, r4
 1188 00ba DB21     		movs	r1, #219
 1189 00bc FFF7FEFF 		bl	_ZN5daisy19SSD130xI2CTransport11SendCommandEh
 1190              	.LVL122:
 342:../libDaisy/src/dev/oled_ssd130x.h ****         transport_.SendCommand(0x34);
 1191              		.loc 1 342 31 view .LVU266
 1192 00c0 2046     		mov	r0, r4
 1193 00c2 3421     		movs	r1, #52
 1194 00c4 FFF7FEFF 		bl	_ZN5daisy19SSD130xI2CTransport11SendCommandEh
 1195              	.LVL123:
ARM GAS  /tmp/ccfXsGBh.s 			page 55


 343:../libDaisy/src/dev/oled_ssd130x.h **** 
 344:../libDaisy/src/dev/oled_ssd130x.h **** 
 345:../libDaisy/src/dev/oled_ssd130x.h ****         // Display On
 346:../libDaisy/src/dev/oled_ssd130x.h ****         transport_.SendCommand(0xAF); //--turn on oled panel
 1196              		.loc 1 346 31 view .LVU267
 1197 00c8 2046     		mov	r0, r4
 1198 00ca AF21     		movs	r1, #175
 1199 00cc FFF7FEFF 		bl	_ZN5daisy19SSD130xI2CTransport11SendCommandEh
 1200              	.LVL124:
 347:../libDaisy/src/dev/oled_ssd130x.h ****     };
 1201              		.loc 1 347 5 view .LVU268
 1202 00d0 BDE83840 		pop	{r3, r4, r5, lr}
 1203              		.cfi_restore 14
 1204              		.cfi_restore 5
 1205              		.cfi_restore 4
 1206              		.cfi_restore 3
 1207              		.cfi_def_cfa_offset 16
 1208              	.LVL125:
 1209              		.loc 1 347 5 view .LVU269
 1210 00d4 04B0     		add	sp, sp, #16
 1211              		.cfi_def_cfa_offset 0
 1212 00d6 7047     		bx	lr
 1213              		.cfi_endproc
 1214              	.LFE2677:
 1216              		.section	.text._ZN4kxmx9Bluemchen11InitDisplayEv,"ax",%progbits
 1217              		.align	1
 1218              		.global	_ZN4kxmx9Bluemchen11InitDisplayEv
 1219              		.syntax unified
 1220              		.thumb
 1221              		.thumb_func
 1222              		.fpu fpv5-d16
 1224              	_ZN4kxmx9Bluemchen11InitDisplayEv:
 1225              	.LVL126:
 1226              	.LFB2612:
 134:../kxmx_bluemchen/src/kxmx_bluemchen.cpp ****     daisy::OledDisplay<daisy::SSD130xI2c64x32Driver>::Config display_config;
 1227              		.loc 2 134 1 is_stmt 1 view -0
 1228              		.cfi_startproc
 1229              		@ args = 0, pretend = 0, frame = 48
 1230              		@ frame_needed = 0, uses_anonymous_args = 0
 135:../kxmx_bluemchen/src/kxmx_bluemchen.cpp ****     display_config.driver_config.transport_config.Defaults();
 1231              		.loc 2 135 5 view .LVU271
 134:../kxmx_bluemchen/src/kxmx_bluemchen.cpp ****     daisy::OledDisplay<daisy::SSD130xI2c64x32Driver>::Config display_config;
 1232              		.loc 2 134 1 is_stmt 0 view .LVU272
 1233 0000 70B5     		push	{r4, r5, r6, lr}
 1234              		.cfi_def_cfa_offset 16
 1235              		.cfi_offset 4, -16
 1236              		.cfi_offset 5, -12
 1237              		.cfi_offset 6, -8
 1238              		.cfi_offset 14, -4
 1239              	.LBB125:
 1240              	.LBB126:
 1241              	.LBB127:
 1242              	.LBB128:
  21:../libDaisy/src/dev/oled_ssd130x.h ****             // Intialize using defaults
 1243              		.loc 1 21 9 view .LVU273
 1244 0002 0023     		movs	r3, #0
 1245              	.LBE128:
ARM GAS  /tmp/ccfXsGBh.s 			page 56


 1246              	.LBE127:
 1247              	.LBE126:
 1248              	.LBE125:
 134:../kxmx_bluemchen/src/kxmx_bluemchen.cpp ****     daisy::OledDisplay<daisy::SSD130xI2c64x32Driver>::Config display_config;
 1249              		.loc 2 134 1 view .LVU274
 1250 0004 90B0     		sub	sp, sp, #64
 1251              		.cfi_def_cfa_offset 80
 1252              	.LVL127:
 1253              	.LBB143:
 1254              	.LBI125:
 1255              		.file 9 "../libDaisy/src/hid/disp/oled_display.h"
   1:../libDaisy/src/hid/disp/oled_display.h **** #pragma once
   2:../libDaisy/src/hid/disp/oled_display.h **** #ifndef DSY_OLED_DISPLAY_H
   3:../libDaisy/src/hid/disp/oled_display.h **** #define DSY_OLED_DISPLAY_H /**< Macro */
   4:../libDaisy/src/hid/disp/oled_display.h **** 
   5:../libDaisy/src/hid/disp/oled_display.h **** #include "display.h"
   6:../libDaisy/src/hid/disp/oled_display.h **** 
   7:../libDaisy/src/hid/disp/oled_display.h **** namespace daisy
   8:../libDaisy/src/hid/disp/oled_display.h **** {
   9:../libDaisy/src/hid/disp/oled_display.h **** /** 
  10:../libDaisy/src/hid/disp/oled_display.h ****  * This class is for drawing to a monochrome OLED display. 
  11:../libDaisy/src/hid/disp/oled_display.h ****  * @ingroup device
  12:../libDaisy/src/hid/disp/oled_display.h **** */
  13:../libDaisy/src/hid/disp/oled_display.h **** template <typename DisplayDriver>
  14:../libDaisy/src/hid/disp/oled_display.h **** class OledDisplay : public OneBitGraphicsDisplayImpl<OledDisplay<DisplayDriver>>
  15:../libDaisy/src/hid/disp/oled_display.h **** {
  16:../libDaisy/src/hid/disp/oled_display.h ****   public:
  17:../libDaisy/src/hid/disp/oled_display.h ****     OledDisplay() {}
  18:../libDaisy/src/hid/disp/oled_display.h ****     virtual ~OledDisplay() {}
  19:../libDaisy/src/hid/disp/oled_display.h **** 
  20:../libDaisy/src/hid/disp/oled_display.h ****     struct Config
 1256              		.loc 9 20 12 is_stmt 1 view .LVU275
 1257              	.LBB139:
 1258              	.LBI126:
 248:../libDaisy/src/dev/oled_ssd130x.h ****     {
 1259              		.loc 1 248 12 view .LVU276
 1260              	.LBB135:
 1261              	.LBI127:
  20:../libDaisy/src/dev/oled_ssd130x.h ****         {
 1262              		.loc 1 20 9 view .LVU277
 1263              	.LBB131:
 1264              	.LBB129:
 1265              	.LBI129:
 1266              		.file 10 "../libDaisy/src/per/i2c.h"
   1:../libDaisy/src/per/i2c.h **** #pragma once
   2:../libDaisy/src/per/i2c.h **** #include "daisy_core.h"
   3:../libDaisy/src/per/i2c.h **** 
   4:../libDaisy/src/per/i2c.h **** namespace daisy
   5:../libDaisy/src/per/i2c.h **** {
   6:../libDaisy/src/per/i2c.h **** /** A handle for interacting with an I2C peripheral. This is a dumb
   7:../libDaisy/src/per/i2c.h ****  *  gateway that internally points to one of the four I2C peripherals
   8:../libDaisy/src/per/i2c.h ****  *  after it was initialised. It can then be copied and passed around.
   9:../libDaisy/src/per/i2c.h ****  *  Use an I2CHandle like this:
  10:../libDaisy/src/per/i2c.h ****  *  
  11:../libDaisy/src/per/i2c.h ****  *      // setup the configuration
  12:../libDaisy/src/per/i2c.h ****  *      I2CHandle::Config i2c_conf;
  13:../libDaisy/src/per/i2c.h ****  *      i2c_conf.periph = I2CHandle::Config::Peripheral::I2C_1;
ARM GAS  /tmp/ccfXsGBh.s 			page 57


  14:../libDaisy/src/per/i2c.h ****  *      i2c_conf.speed  = I2CHandle::Config::Speed::I2C_400KHZ;
  15:../libDaisy/src/per/i2c.h ****  *      i2c_conf.mode   = I2CHandle::Config::Mode::Master;
  16:../libDaisy/src/per/i2c.h ****  *      i2c_conf.pin_config.scl  = {DSY_GPIOB, 8};
  17:../libDaisy/src/per/i2c.h ****  *      i2c_conf.pin_config.sda  = {DSY_GPIOB, 9};
  18:../libDaisy/src/per/i2c.h ****  *      // initialise the peripheral
  19:../libDaisy/src/per/i2c.h ****  *      I2CHandle i2c;
  20:../libDaisy/src/per/i2c.h ****  *      i2c.Init(i2c_conf);
  21:../libDaisy/src/per/i2c.h ****  *      // now i2c points to the corresponding peripheral and can be used.
  22:../libDaisy/src/per/i2c.h ****  *      i2c.TransmitBlocking( ... );
  23:../libDaisy/src/per/i2c.h ****  */
  24:../libDaisy/src/per/i2c.h **** class I2CHandle
  25:../libDaisy/src/per/i2c.h **** {
  26:../libDaisy/src/per/i2c.h ****   public:
  27:../libDaisy/src/per/i2c.h ****     /** Contains settings for initialising an I2C interface. */
  28:../libDaisy/src/per/i2c.h ****     struct Config
 1267              		.loc 10 28 12 view .LVU278
 1268              		.loc 10 28 12 is_stmt 0 view .LVU279
 1269              	.LBE129:
 1270              	.LBE131:
 1271              	.LBE135:
 1272              	.LBE139:
 1273              	.LBE143:
  23:../libDaisy/src/dev/oled_ssd130x.h ****         }
 1274              		.loc 1 23 13 is_stmt 1 view .LVU280
 1275              	.LBB144:
 1276              	.LBB140:
 1277              	.LBB136:
 1278              	.LBB132:
 1279              	.LBB130:
 1280              	.LBI130:
  27:../libDaisy/src/dev/oled_ssd130x.h ****         {
 1281              		.loc 1 27 27 view .LVU281
 1282              	.LBE130:
 1283              	.LBE132:
 1284              	.LBE136:
 1285              	.LBE140:
 1286              	.LBE144:
  29:../libDaisy/src/dev/oled_ssd130x.h ****             i2c_config.speed          = I2CHandle::Config::Speed::I2C_1MHZ;
 1287              		.loc 1 29 13 view .LVU282
  30:../libDaisy/src/dev/oled_ssd130x.h ****             i2c_config.mode           = I2CHandle::Config::Mode::I2C_MASTER;
 1288              		.loc 1 30 13 view .LVU283
  31:../libDaisy/src/dev/oled_ssd130x.h ****             i2c_config.pin_config.scl = {DSY_GPIOB, 8};
 1289              		.loc 1 31 13 view .LVU284
  32:../libDaisy/src/dev/oled_ssd130x.h ****             i2c_config.pin_config.sda = {DSY_GPIOB, 9};
 1290              		.loc 1 32 13 view .LVU285
  33:../libDaisy/src/dev/oled_ssd130x.h ****             i2c_address               = 0x3C;
 1291              		.loc 1 33 13 view .LVU286
  34:../libDaisy/src/dev/oled_ssd130x.h ****         }
 1292              		.loc 1 34 13 view .LVU287
 136:../kxmx_bluemchen/src/kxmx_bluemchen.cpp ****     display.Init(display_config);
 1293              		.loc 2 136 5 view .LVU288
  29:../libDaisy/src/dev/oled_ssd130x.h ****             i2c_config.speed          = I2CHandle::Config::Speed::I2C_1MHZ;
 1294              		.loc 1 29 13 view .LVU289
  30:../libDaisy/src/dev/oled_ssd130x.h ****             i2c_config.mode           = I2CHandle::Config::Mode::I2C_MASTER;
 1295              		.loc 1 30 13 view .LVU290
  31:../libDaisy/src/dev/oled_ssd130x.h ****             i2c_config.pin_config.scl = {DSY_GPIOB, 8};
 1296              		.loc 1 31 13 view .LVU291
ARM GAS  /tmp/ccfXsGBh.s 			page 58


  32:../libDaisy/src/dev/oled_ssd130x.h ****             i2c_config.pin_config.sda = {DSY_GPIOB, 9};
 1297              		.loc 1 32 13 view .LVU292
  33:../libDaisy/src/dev/oled_ssd130x.h ****             i2c_address               = 0x3C;
 1298              		.loc 1 33 13 view .LVU293
  34:../libDaisy/src/dev/oled_ssd130x.h ****         }
 1299              		.loc 1 34 13 view .LVU294
 137:../kxmx_bluemchen/src/kxmx_bluemchen.cpp **** }
 1300              		.loc 2 137 5 view .LVU295
 1301              	.LBB145:
 1302              	.LBB141:
 1303              	.LBB137:
 1304              	.LBB133:
  21:../libDaisy/src/dev/oled_ssd130x.h ****             // Intialize using defaults
 1305              		.loc 1 21 9 is_stmt 0 view .LVU296
 1306 0006 114A     		ldr	r2, .L27
 1307              	.LBE133:
 1308              	.LBE137:
 1309              	.LBE141:
 1310              	.LBE145:
 134:../kxmx_bluemchen/src/kxmx_bluemchen.cpp ****     daisy::OledDisplay<daisy::SSD130xI2c64x32Driver>::Config display_config;
 1311              		.loc 2 134 1 view .LVU297
 1312 0008 0646     		mov	r6, r0
 1313              	.LVL128:
 134:../kxmx_bluemchen/src/kxmx_bluemchen.cpp ****     daisy::OledDisplay<daisy::SSD130xI2c64x32Driver>::Config display_config;
 1314              		.loc 2 134 1 view .LVU298
 1315 000a 04AD     		add	r5, sp, #16
 1316 000c 0AAC     		add	r4, sp, #40
 1317              	.LBB146:
 1318              	.LBB142:
 1319              	.LBB138:
 1320              	.LBB134:
  21:../libDaisy/src/dev/oled_ssd130x.h ****             // Intialize using defaults
 1321              		.loc 1 21 9 view .LVU299
 1322 000e CDE90432 		strd	r3, r2, [sp, #16]
 1323 0012 0222     		movs	r2, #2
 1324 0014 CDE90623 		strd	r2, r3, [sp, #24]
 1325 0018 1023     		movs	r3, #16
 1326 001a 0893     		str	r3, [sp, #32]
 1327 001c 3C23     		movs	r3, #60
 1328 001e 8DF82430 		strb	r3, [sp, #36]
 1329 0022 0FCD     		ldmia	r5!, {r0, r1, r2, r3}
 1330              	.LVL129:
  21:../libDaisy/src/dev/oled_ssd130x.h ****             // Intialize using defaults
 1331              		.loc 1 21 9 view .LVU300
 1332 0024 0FC4     		stmia	r4!, {r0, r1, r2, r3}
 1333 0026 95E80300 		ldm	r5, {r0, r1}
 1334              	.LBE134:
 1335              	.LBE138:
 1336              	.LBE142:
 1337              	.LBE146:
 1338              	.LBB147:
 1339              	.LBB148:
  21:../libDaisy/src/hid/disp/oled_display.h ****     {
  22:../libDaisy/src/hid/disp/oled_display.h ****         typename DisplayDriver::Config driver_config;
  23:../libDaisy/src/hid/disp/oled_display.h ****     };
  24:../libDaisy/src/hid/disp/oled_display.h **** 
  25:../libDaisy/src/hid/disp/oled_display.h ****     void Init(Config config) { driver_.Init(config.driver_config); }
ARM GAS  /tmp/ccfXsGBh.s 			page 59


 1340              		.loc 9 25 44 view .LVU301
 1341 002a 10AB     		add	r3, sp, #64
 1342 002c 84E80300 		stm	r4, {r0, r1}
 1343              	.LBE148:
 1344              	.LBI147:
 1345              		.loc 9 25 10 is_stmt 1 view .LVU302
 1346              	.LBB149:
 1347              		.loc 9 25 44 is_stmt 0 view .LVU303
 1348 0030 13E90700 		ldmdb	r3, {r0, r1, r2}
 1349 0034 0AAB     		add	r3, sp, #40
 1350 0036 8DE80700 		stm	sp, {r0, r1, r2}
 1351 003a 06F51240 		add	r0, r6, #37376
 1352 003e 0ECB     		ldm	r3, {r1, r2, r3}
 1353 0040 5430     		adds	r0, r0, #84
 1354 0042 FFF7FEFF 		bl	_ZN5daisy13SSD130xDriverILj64ELj32ENS_19SSD130xI2CTransportEE4InitENS2_6ConfigE
 1355              	.LVL130:
 1356              		.loc 9 25 44 view .LVU304
 1357              	.LBE149:
 1358              	.LBE147:
 138:../kxmx_bluemchen/src/kxmx_bluemchen.cpp **** 
 1359              		.loc 2 138 1 view .LVU305
 1360 0046 10B0     		add	sp, sp, #64
 1361              		.cfi_def_cfa_offset 16
 1362              		@ sp needed
 1363 0048 70BD     		pop	{r4, r5, r6, pc}
 1364              	.LVL131:
 1365              	.L28:
 138:../kxmx_bluemchen/src/kxmx_bluemchen.cpp **** 
 1366              		.loc 2 138 1 view .LVU306
 1367 004a 00BF     		.align	2
 1368              	.L27:
 1369 004c 01080109 		.word	151062529
 1370              		.cfi_endproc
 1371              	.LFE2612:
 1373              		.section	.text._ZN4kxmx9Bluemchen4InitEv,"ax",%progbits
 1374              		.align	1
 1375              		.global	_ZN4kxmx9Bluemchen4InitEv
 1376              		.syntax unified
 1377              		.thumb
 1378              		.thumb_func
 1379              		.fpu fpv5-d16
 1381              	_ZN4kxmx9Bluemchen4InitEv:
 1382              	.LVL132:
 1383              	.LFB2595:
  18:../kxmx_bluemchen/src/kxmx_bluemchen.cpp ****     seed.Configure();
 1384              		.loc 2 18 1 is_stmt 1 view -0
 1385              		.cfi_startproc
 1386              		@ args = 0, pretend = 0, frame = 24
 1387              		@ frame_needed = 0, uses_anonymous_args = 0
  19:../kxmx_bluemchen/src/kxmx_bluemchen.cpp ****     seed.Init(true);
 1388              		.loc 2 19 5 view .LVU308
  18:../kxmx_bluemchen/src/kxmx_bluemchen.cpp ****     seed.Configure();
 1389              		.loc 2 18 1 is_stmt 0 view .LVU309
 1390 0000 70B5     		push	{r4, r5, r6, lr}
 1391              		.cfi_def_cfa_offset 16
 1392              		.cfi_offset 4, -16
 1393              		.cfi_offset 5, -12
ARM GAS  /tmp/ccfXsGBh.s 			page 60


 1394              		.cfi_offset 6, -8
 1395              		.cfi_offset 14, -4
 1396 0002 0446     		mov	r4, r0
 1397 0004 86B0     		sub	sp, sp, #24
 1398              		.cfi_def_cfa_offset 40
  19:../kxmx_bluemchen/src/kxmx_bluemchen.cpp ****     seed.Init(true);
 1399              		.loc 2 19 19 view .LVU310
 1400 0006 FFF7FEFF 		bl	_ZN5daisy9DaisySeed9ConfigureEv
 1401              	.LVL133:
  20:../kxmx_bluemchen/src/kxmx_bluemchen.cpp ****     InitEncoder();
 1402              		.loc 2 20 5 is_stmt 1 view .LVU311
  20:../kxmx_bluemchen/src/kxmx_bluemchen.cpp ****     InitEncoder();
 1403              		.loc 2 20 14 is_stmt 0 view .LVU312
 1404 000a 0121     		movs	r1, #1
 1405 000c 2046     		mov	r0, r4
  29:../kxmx_bluemchen/src/kxmx_bluemchen.cpp ****     cfg.mode       = daisy::DacHandle::Mode::POLLING;
 1406              		.loc 2 29 20 view .LVU313
 1407 000e 0025     		movs	r5, #0
  20:../kxmx_bluemchen/src/kxmx_bluemchen.cpp ****     InitEncoder();
 1408              		.loc 2 20 14 view .LVU314
 1409 0010 FFF7FEFF 		bl	_ZN5daisy9DaisySeed4InitEb
 1410              	.LVL134:
  21:../kxmx_bluemchen/src/kxmx_bluemchen.cpp ****     InitDisplay();
 1411              		.loc 2 21 5 is_stmt 1 view .LVU315
  21:../kxmx_bluemchen/src/kxmx_bluemchen.cpp ****     InitDisplay();
 1412              		.loc 2 21 16 is_stmt 0 view .LVU316
 1413 0014 2046     		mov	r0, r4
 1414 0016 FFF7FEFF 		bl	_ZN4kxmx9Bluemchen11InitEncoderEv
 1415              	.LVL135:
  22:../kxmx_bluemchen/src/kxmx_bluemchen.cpp ****     InitMidi();
 1416              		.loc 2 22 5 is_stmt 1 view .LVU317
  22:../kxmx_bluemchen/src/kxmx_bluemchen.cpp ****     InitMidi();
 1417              		.loc 2 22 16 is_stmt 0 view .LVU318
 1418 001a 2046     		mov	r0, r4
 1419 001c FFF7FEFF 		bl	_ZN4kxmx9Bluemchen11InitDisplayEv
 1420              	.LVL136:
  23:../kxmx_bluemchen/src/kxmx_bluemchen.cpp ****     InitControls();
 1421              		.loc 2 23 5 is_stmt 1 view .LVU319
  23:../kxmx_bluemchen/src/kxmx_bluemchen.cpp ****     InitControls();
 1422              		.loc 2 23 13 is_stmt 0 view .LVU320
 1423 0020 2046     		mov	r0, r4
 1424 0022 FFF7FEFF 		bl	_ZN4kxmx9Bluemchen8InitMidiEv
 1425              	.LVL137:
  24:../kxmx_bluemchen/src/kxmx_bluemchen.cpp ****     InitMicroSD();
 1426              		.loc 2 24 5 is_stmt 1 view .LVU321
