ARM GAS  /tmp/cc4Uqqbc.s 			page 1


   1              		.cpu cortex-m7
   2              		.eabi_attribute 28, 1
   3              		.eabi_attribute 20, 1
   4              		.eabi_attribute 21, 1
   5              		.eabi_attribute 23, 3
   6              		.eabi_attribute 24, 1
   7              		.eabi_attribute 25, 1
   8              		.eabi_attribute 26, 1
   9              		.eabi_attribute 30, 4
  10              		.eabi_attribute 34, 1
  11              		.eabi_attribute 18, 4
  12              		.file	"plateau.cpp"
  13              		.text
  14              	.Ltext0:
  15              		.cfi_sections	.debug_frame
  16              		.section	.text._ZN5daisy9ParameterD2Ev,"axG",%progbits,_ZN5daisy9ParameterD5Ev,comdat
  17              		.align	1
  18              		.weak	_ZN5daisy9ParameterD2Ev
  19              		.arch armv7e-m
  20              		.syntax unified
  21              		.thumb
  22              		.thumb_func
  23              		.fpu fpv5-d16
  25              	_ZN5daisy9ParameterD2Ev:
  26              	.LVL0:
  27              	.LFB3960:
  28              		.file 1 "../libDaisy/src/hid/parameter.h"
   1:../libDaisy/src/hid/parameter.h **** #pragma once
   2:../libDaisy/src/hid/parameter.h **** #include <stdint.h>
   3:../libDaisy/src/hid/parameter.h **** #include "hid/ctrl.h"
   4:../libDaisy/src/hid/parameter.h **** 
   5:../libDaisy/src/hid/parameter.h **** namespace daisy
   6:../libDaisy/src/hid/parameter.h **** {
   7:../libDaisy/src/hid/parameter.h **** /** @addtogroup controls
   8:../libDaisy/src/hid/parameter.h ****     @{
   9:../libDaisy/src/hid/parameter.h **** */
  10:../libDaisy/src/hid/parameter.h **** 
  11:../libDaisy/src/hid/parameter.h **** /**      Simple parameter mapping tool that takes a 0-1 input from an hid_ctrl. */
  12:../libDaisy/src/hid/parameter.h **** class Parameter
  13:../libDaisy/src/hid/parameter.h **** {
  14:../libDaisy/src/hid/parameter.h ****   public:
  15:../libDaisy/src/hid/parameter.h ****     /** Curves are applied to the output signal */
  16:../libDaisy/src/hid/parameter.h ****     enum Curve
  17:../libDaisy/src/hid/parameter.h ****     {
  18:../libDaisy/src/hid/parameter.h ****         LINEAR,      /**< Linear curve */
  19:../libDaisy/src/hid/parameter.h ****         EXPONENTIAL, /**< Exponential curve */
  20:../libDaisy/src/hid/parameter.h ****         LOGARITHMIC, /**<  Logarithmic curve */
  21:../libDaisy/src/hid/parameter.h ****         CUBE,        /**< Cubic curve */
  22:../libDaisy/src/hid/parameter.h ****         LAST,        /**< Final enum element. */
  23:../libDaisy/src/hid/parameter.h ****     };
  24:../libDaisy/src/hid/parameter.h ****     /** Constructor */
  25:../libDaisy/src/hid/parameter.h ****     Parameter() {}
  26:../libDaisy/src/hid/parameter.h ****     /** Destructor */
  27:../libDaisy/src/hid/parameter.h ****     ~Parameter() {}
  29              		.loc 1 27 5 view -0
  30              		.cfi_startproc
  31              		@ args = 0, pretend = 0, frame = 0
ARM GAS  /tmp/cc4Uqqbc.s 			page 2


  32              		@ frame_needed = 0, uses_anonymous_args = 0
  33              		@ link register save eliminated.
  34              	.LBB537:
  35              	.LBI537:
  36              		.file 2 "../libDaisy/src/hid/ctrl.h"
   1:../libDaisy/src/hid/ctrl.h **** #pragma once
   2:../libDaisy/src/hid/ctrl.h **** #ifndef DSY_KNOB_H
   3:../libDaisy/src/hid/ctrl.h **** #define DSY_KNOB_H /**< & */
   4:../libDaisy/src/hid/ctrl.h **** #include <stdint.h>
   5:../libDaisy/src/hid/ctrl.h **** 
   6:../libDaisy/src/hid/ctrl.h **** #ifdef __cplusplus
   7:../libDaisy/src/hid/ctrl.h **** namespace daisy
   8:../libDaisy/src/hid/ctrl.h **** {
   9:../libDaisy/src/hid/ctrl.h **** /**
  10:../libDaisy/src/hid/ctrl.h ****     @brief Hardware Interface for control inputs \n 
  11:../libDaisy/src/hid/ctrl.h ****     Primarily designed for ADC input controls such as \n 
  12:../libDaisy/src/hid/ctrl.h ****     potentiometers, and control voltage. \n 
  13:../libDaisy/src/hid/ctrl.h ****     @author Stephen Hensley
  14:../libDaisy/src/hid/ctrl.h ****     @date November 2019
  15:../libDaisy/src/hid/ctrl.h ****     @ingroup controls
  16:../libDaisy/src/hid/ctrl.h **** */
  17:../libDaisy/src/hid/ctrl.h **** class AnalogControl
  18:../libDaisy/src/hid/ctrl.h **** {
  19:../libDaisy/src/hid/ctrl.h ****   public:
  20:../libDaisy/src/hid/ctrl.h ****     /** Constructor */
  21:../libDaisy/src/hid/ctrl.h ****     AnalogControl() {}
  22:../libDaisy/src/hid/ctrl.h ****     /** destructor */
  23:../libDaisy/src/hid/ctrl.h ****     ~AnalogControl() {}
  37              		.loc 2 23 5 view .LVU1
  38              		.loc 2 23 5 is_stmt 0 view .LVU2
  39              	.LBE537:
  40              		.loc 1 27 19 view .LVU3
  41 0000 7047     		bx	lr
  42              		.cfi_endproc
  43              	.LFE3960:
  45              		.weak	_ZN5daisy9ParameterD1Ev
  46              		.thumb_set _ZN5daisy9ParameterD1Ev,_ZN5daisy9ParameterD2Ev
  47              		.section	.text._ZN4kxmx9BluemchenD2Ev,"axG",%progbits,_ZN4kxmx9BluemchenD5Ev,comdat
  48              		.align	1
  49              		.weak	_ZN4kxmx9BluemchenD2Ev
  50              		.syntax unified
  51              		.thumb
  52              		.thumb_func
  53              		.fpu fpv5-d16
  55              	_ZN4kxmx9BluemchenD2Ev:
  56              	.LVL1:
  57              	.LFB4858:
  58              		.file 3 "../libDaisy/../kxmx_bluemchen/src/kxmx_bluemchen.h"
   1:../libDaisy/../kxmx_bluemchen/src/kxmx_bluemchen.h **** #pragma once
   2:../libDaisy/../kxmx_bluemchen/src/kxmx_bluemchen.h **** 
   3:../libDaisy/../kxmx_bluemchen/src/kxmx_bluemchen.h **** #include "daisy_seed.h"
   4:../libDaisy/../kxmx_bluemchen/src/kxmx_bluemchen.h **** #include "dev/oled_ssd130x.h"
   5:../libDaisy/../kxmx_bluemchen/src/kxmx_bluemchen.h **** 
   6:../libDaisy/../kxmx_bluemchen/src/kxmx_bluemchen.h **** namespace kxmx
   7:../libDaisy/../kxmx_bluemchen/src/kxmx_bluemchen.h **** {
   8:../libDaisy/../kxmx_bluemchen/src/kxmx_bluemchen.h **** class Bluemchen
   9:../libDaisy/../kxmx_bluemchen/src/kxmx_bluemchen.h **** {
ARM GAS  /tmp/cc4Uqqbc.s 			page 3


  10:../libDaisy/../kxmx_bluemchen/src/kxmx_bluemchen.h ****   public:
  11:../libDaisy/../kxmx_bluemchen/src/kxmx_bluemchen.h ****     /** Enum of Ctrls to represent the two knobs and two CV inputs of the kxmx_*
  12:../libDaisy/../kxmx_bluemchen/src/kxmx_bluemchen.h ****      */
  13:../libDaisy/../kxmx_bluemchen/src/kxmx_bluemchen.h ****     enum Ctrl
  14:../libDaisy/../kxmx_bluemchen/src/kxmx_bluemchen.h ****     {
  15:../libDaisy/../kxmx_bluemchen/src/kxmx_bluemchen.h ****         CTRL_1,   /**< */
  16:../libDaisy/../kxmx_bluemchen/src/kxmx_bluemchen.h ****         CTRL_2,   /**< */
  17:../libDaisy/../kxmx_bluemchen/src/kxmx_bluemchen.h ****         CTRL_3,   /**< */
  18:../libDaisy/../kxmx_bluemchen/src/kxmx_bluemchen.h ****         CTRL_4,   /**< */
  19:../libDaisy/../kxmx_bluemchen/src/kxmx_bluemchen.h ****         CTRL_LAST /**< */
  20:../libDaisy/../kxmx_bluemchen/src/kxmx_bluemchen.h ****     };
  21:../libDaisy/../kxmx_bluemchen/src/kxmx_bluemchen.h **** 
  22:../libDaisy/../kxmx_bluemchen/src/kxmx_bluemchen.h ****     /** Constructor */
  23:../libDaisy/../kxmx_bluemchen/src/kxmx_bluemchen.h ****     Bluemchen() {}
  24:../libDaisy/../kxmx_bluemchen/src/kxmx_bluemchen.h ****     /** Destructor */
  25:../libDaisy/../kxmx_bluemchen/src/kxmx_bluemchen.h ****     ~Bluemchen() {}
  59              		.loc 3 25 5 is_stmt 1 view -0
  60              		.cfi_startproc
  61              		@ args = 0, pretend = 0, frame = 0
  62              		@ frame_needed = 0, uses_anonymous_args = 0
  63              		@ link register save eliminated.
  64              	.LBB538:
  65              	.LBI538:
  66              		.file 4 "../libDaisy/src/hid/disp/oled_display.h"
   1:../libDaisy/src/hid/disp/oled_display.h **** #pragma once
   2:../libDaisy/src/hid/disp/oled_display.h **** #ifndef DSY_OLED_DISPLAY_H
   3:../libDaisy/src/hid/disp/oled_display.h **** #define DSY_OLED_DISPLAY_H /**< Macro */
   4:../libDaisy/src/hid/disp/oled_display.h **** 
   5:../libDaisy/src/hid/disp/oled_display.h **** #include "display.h"
   6:../libDaisy/src/hid/disp/oled_display.h **** 
   7:../libDaisy/src/hid/disp/oled_display.h **** namespace daisy
   8:../libDaisy/src/hid/disp/oled_display.h **** {
   9:../libDaisy/src/hid/disp/oled_display.h **** /** 
  10:../libDaisy/src/hid/disp/oled_display.h ****  * This class is for drawing to a monochrome OLED display. 
  11:../libDaisy/src/hid/disp/oled_display.h ****  * @ingroup device
  12:../libDaisy/src/hid/disp/oled_display.h **** */
  13:../libDaisy/src/hid/disp/oled_display.h **** template <typename DisplayDriver>
  14:../libDaisy/src/hid/disp/oled_display.h **** class OledDisplay : public OneBitGraphicsDisplayImpl<OledDisplay<DisplayDriver>>
  15:../libDaisy/src/hid/disp/oled_display.h **** {
  16:../libDaisy/src/hid/disp/oled_display.h ****   public:
  17:../libDaisy/src/hid/disp/oled_display.h ****     OledDisplay() {}
  18:../libDaisy/src/hid/disp/oled_display.h ****     virtual ~OledDisplay() {}
  67              		.loc 4 18 13 view .LVU5
  68              	.LBB539:
  69              	.LBI539:
  70              		.file 5 "../libDaisy/src/hid/disp/display.h"
   1:../libDaisy/src/hid/disp/display.h **** #pragma once
   2:../libDaisy/src/hid/disp/display.h **** #ifndef DSY_DISPLAY_H
   3:../libDaisy/src/hid/disp/display.h **** #define DSY_DISPLAY_H /**< Macro */
   4:../libDaisy/src/hid/disp/display.h **** #include <cmath>
   5:../libDaisy/src/hid/disp/display.h **** #include "util/oled_fonts.h"
   6:../libDaisy/src/hid/disp/display.h **** #include "daisy_core.h"
   7:../libDaisy/src/hid/disp/display.h **** #include "graphics_common.h"
   8:../libDaisy/src/hid/disp/display.h **** 
   9:../libDaisy/src/hid/disp/display.h **** #ifndef deg2rad
  10:../libDaisy/src/hid/disp/display.h **** #define deg2rad(deg) ((deg)*3.141592 / 180.0)
  11:../libDaisy/src/hid/disp/display.h **** #endif
ARM GAS  /tmp/cc4Uqqbc.s 			page 4


  12:../libDaisy/src/hid/disp/display.h **** 
  13:../libDaisy/src/hid/disp/display.h **** namespace daisy
  14:../libDaisy/src/hid/disp/display.h **** {
  15:../libDaisy/src/hid/disp/display.h **** /** 
  16:../libDaisy/src/hid/disp/display.h ****  * This interface is used as a base class for all types of 1bit-per-pixel
  17:../libDaisy/src/hid/disp/display.h ****  * graphics displays.
  18:../libDaisy/src/hid/disp/display.h **** */
  19:../libDaisy/src/hid/disp/display.h **** class OneBitGraphicsDisplay
  20:../libDaisy/src/hid/disp/display.h **** {
  21:../libDaisy/src/hid/disp/display.h ****   public:
  22:../libDaisy/src/hid/disp/display.h ****     OneBitGraphicsDisplay() {}
  23:../libDaisy/src/hid/disp/display.h ****     virtual ~OneBitGraphicsDisplay() {}
  24:../libDaisy/src/hid/disp/display.h **** 
  25:../libDaisy/src/hid/disp/display.h ****     virtual uint16_t Height() const = 0;
  26:../libDaisy/src/hid/disp/display.h ****     virtual uint16_t Width() const  = 0;
  27:../libDaisy/src/hid/disp/display.h **** 
  28:../libDaisy/src/hid/disp/display.h ****     Rectangle GetBounds() const
  29:../libDaisy/src/hid/disp/display.h ****     {
  30:../libDaisy/src/hid/disp/display.h ****         return Rectangle(int16_t(Width()), int16_t(Height()));
  31:../libDaisy/src/hid/disp/display.h ****     }
  32:../libDaisy/src/hid/disp/display.h **** 
  33:../libDaisy/src/hid/disp/display.h **** 
  34:../libDaisy/src/hid/disp/display.h ****     size_t CurrentX() { return currentX_; };
  35:../libDaisy/src/hid/disp/display.h ****     size_t CurrentY() { return currentY_; };
  36:../libDaisy/src/hid/disp/display.h **** 
  37:../libDaisy/src/hid/disp/display.h ****     /** 
  38:../libDaisy/src/hid/disp/display.h ****     Fills the entire display with either on/off.
  39:../libDaisy/src/hid/disp/display.h ****     \param on Sets on or off.
  40:../libDaisy/src/hid/disp/display.h ****     */
  41:../libDaisy/src/hid/disp/display.h ****     virtual void Fill(bool on) = 0;
  42:../libDaisy/src/hid/disp/display.h **** 
  43:../libDaisy/src/hid/disp/display.h ****     /**
  44:../libDaisy/src/hid/disp/display.h ****     Sets the pixel at the specified coordinate to be on/off.
  45:../libDaisy/src/hid/disp/display.h ****     \param x   x Coordinate
  46:../libDaisy/src/hid/disp/display.h ****     \param y   y coordinate
  47:../libDaisy/src/hid/disp/display.h ****     \param on  on or off
  48:../libDaisy/src/hid/disp/display.h ****     */
  49:../libDaisy/src/hid/disp/display.h ****     virtual void DrawPixel(uint_fast8_t x, uint_fast8_t y, bool on) = 0;
  50:../libDaisy/src/hid/disp/display.h **** 
  51:../libDaisy/src/hid/disp/display.h ****     /**
  52:../libDaisy/src/hid/disp/display.h ****     Draws a line from (x1, y1) to (y1, y2)
  53:../libDaisy/src/hid/disp/display.h ****     \param x1  x Coordinate of the starting point
  54:../libDaisy/src/hid/disp/display.h ****     \param y1  y Coordinate of the starting point
  55:../libDaisy/src/hid/disp/display.h ****     \param x2  x Coordinate of the ending point
  56:../libDaisy/src/hid/disp/display.h ****     \param y2  y Coordinate of the ending point
  57:../libDaisy/src/hid/disp/display.h ****     \param on  on or off
  58:../libDaisy/src/hid/disp/display.h ****     */
  59:../libDaisy/src/hid/disp/display.h ****     virtual void DrawLine(uint_fast8_t x1,
  60:../libDaisy/src/hid/disp/display.h ****                           uint_fast8_t y1,
  61:../libDaisy/src/hid/disp/display.h ****                           uint_fast8_t x2,
  62:../libDaisy/src/hid/disp/display.h ****                           uint_fast8_t y2,
  63:../libDaisy/src/hid/disp/display.h ****                           bool         on)
  64:../libDaisy/src/hid/disp/display.h ****         = 0;
  65:../libDaisy/src/hid/disp/display.h **** 
  66:../libDaisy/src/hid/disp/display.h ****     /**
  67:../libDaisy/src/hid/disp/display.h ****     Draws a rectangle based on two coordinates.
  68:../libDaisy/src/hid/disp/display.h ****     \param x1 x Coordinate of the first point
ARM GAS  /tmp/cc4Uqqbc.s 			page 5


  69:../libDaisy/src/hid/disp/display.h ****     \param y1 y Coordinate of the first point
  70:../libDaisy/src/hid/disp/display.h ****     \param x2 x Coordinate of the second point
  71:../libDaisy/src/hid/disp/display.h ****     \param y2 y Coordinate of the second point
  72:../libDaisy/src/hid/disp/display.h ****     \param on on or off
  73:../libDaisy/src/hid/disp/display.h ****     \param fill fill the rectangle or draw only the outline
  74:../libDaisy/src/hid/disp/display.h ****     */
  75:../libDaisy/src/hid/disp/display.h ****     virtual void DrawRect(uint_fast8_t x1,
  76:../libDaisy/src/hid/disp/display.h ****                           uint_fast8_t y1,
  77:../libDaisy/src/hid/disp/display.h ****                           uint_fast8_t x2,
  78:../libDaisy/src/hid/disp/display.h ****                           uint_fast8_t y2,
  79:../libDaisy/src/hid/disp/display.h ****                           bool         on,
  80:../libDaisy/src/hid/disp/display.h ****                           bool         fill = false)
  81:../libDaisy/src/hid/disp/display.h ****         = 0;
  82:../libDaisy/src/hid/disp/display.h **** 
  83:../libDaisy/src/hid/disp/display.h ****     /**
  84:../libDaisy/src/hid/disp/display.h ****     Draws a rectangle.
  85:../libDaisy/src/hid/disp/display.h ****     \param rect the rectangle
  86:../libDaisy/src/hid/disp/display.h ****     \param on   on or off
  87:../libDaisy/src/hid/disp/display.h ****     \param fill fill the rectangle or draw only the outline
  88:../libDaisy/src/hid/disp/display.h ****     */
  89:../libDaisy/src/hid/disp/display.h ****     void DrawRect(const Rectangle& rect, bool on, bool fill = false)
  90:../libDaisy/src/hid/disp/display.h ****     {
  91:../libDaisy/src/hid/disp/display.h ****         DrawRect(rect.GetX(),
  92:../libDaisy/src/hid/disp/display.h ****                  rect.GetY(),
  93:../libDaisy/src/hid/disp/display.h ****                  rect.GetRight(),
  94:../libDaisy/src/hid/disp/display.h ****                  rect.GetBottom(),
  95:../libDaisy/src/hid/disp/display.h ****                  on,
  96:../libDaisy/src/hid/disp/display.h ****                  fill);
  97:../libDaisy/src/hid/disp/display.h ****     }
  98:../libDaisy/src/hid/disp/display.h **** 
  99:../libDaisy/src/hid/disp/display.h ****     /**
 100:../libDaisy/src/hid/disp/display.h ****     Draws an arc around the specified coordinate
 101:../libDaisy/src/hid/disp/display.h ****     \param x           x Coordinate of the center of the arc
 102:../libDaisy/src/hid/disp/display.h ****     \param y           y Coordinate of the center of the arc
 103:../libDaisy/src/hid/disp/display.h ****     \param radius      radius of the arc
 104:../libDaisy/src/hid/disp/display.h ****     \param start_angle angle where to start the arc
 105:../libDaisy/src/hid/disp/display.h ****     \param sweep       total angle of the arc
 106:../libDaisy/src/hid/disp/display.h ****     \param on  on or off
 107:../libDaisy/src/hid/disp/display.h ****     */
 108:../libDaisy/src/hid/disp/display.h ****     virtual void DrawArc(uint_fast8_t x,
 109:../libDaisy/src/hid/disp/display.h ****                          uint_fast8_t y,
 110:../libDaisy/src/hid/disp/display.h ****                          uint_fast8_t radius,
 111:../libDaisy/src/hid/disp/display.h ****                          int_fast16_t start_angle,
 112:../libDaisy/src/hid/disp/display.h ****                          int_fast16_t sweep,
 113:../libDaisy/src/hid/disp/display.h ****                          bool         on)
 114:../libDaisy/src/hid/disp/display.h ****         = 0;
 115:../libDaisy/src/hid/disp/display.h **** 
 116:../libDaisy/src/hid/disp/display.h ****     /**
 117:../libDaisy/src/hid/disp/display.h ****     Draws a circle around the specified coordinate
 118:../libDaisy/src/hid/disp/display.h ****     \param x           x Coordinate of the center of the circle
 119:../libDaisy/src/hid/disp/display.h ****     \param y           y Coordinate of the center of the circle
 120:../libDaisy/src/hid/disp/display.h ****     \param radius      radius of the circle
 121:../libDaisy/src/hid/disp/display.h ****     \param on  on or off
 122:../libDaisy/src/hid/disp/display.h ****     */
 123:../libDaisy/src/hid/disp/display.h ****     void
 124:../libDaisy/src/hid/disp/display.h ****     DrawCircle(uint_fast8_t x, uint_fast8_t y, uint_fast8_t radius, bool on)
 125:../libDaisy/src/hid/disp/display.h ****     {
ARM GAS  /tmp/cc4Uqqbc.s 			page 6


 126:../libDaisy/src/hid/disp/display.h ****         DrawArc(x, y, radius, 0, 360, on);
 127:../libDaisy/src/hid/disp/display.h ****     };
 128:../libDaisy/src/hid/disp/display.h **** 
 129:../libDaisy/src/hid/disp/display.h ****     /** 
 130:../libDaisy/src/hid/disp/display.h ****     Writes the character with the specific FontDef
 131:../libDaisy/src/hid/disp/display.h ****     to the display buffer at the current Cursor position.
 132:../libDaisy/src/hid/disp/display.h ****     \param ch character to be written
 133:../libDaisy/src/hid/disp/display.h ****     \param font font to be written in
 134:../libDaisy/src/hid/disp/display.h ****     \param on    on or off
 135:../libDaisy/src/hid/disp/display.h ****     \return &
 136:../libDaisy/src/hid/disp/display.h ****     */
 137:../libDaisy/src/hid/disp/display.h ****     virtual char WriteChar(char ch, FontDef font, bool on) = 0;
 138:../libDaisy/src/hid/disp/display.h **** 
 139:../libDaisy/src/hid/disp/display.h ****     /** 
 140:../libDaisy/src/hid/disp/display.h ****     Similar to WriteChar, except it will handle an entire String.
 141:../libDaisy/src/hid/disp/display.h ****     Wrapping does not happen automatically, so the width
 142:../libDaisy/src/hid/disp/display.h ****     of the string must be kept within the dimensions of the screen.
 143:../libDaisy/src/hid/disp/display.h ****     \param str string to be written
 144:../libDaisy/src/hid/disp/display.h ****     \param font font to use
 145:../libDaisy/src/hid/disp/display.h ****     \param on  on or off
 146:../libDaisy/src/hid/disp/display.h ****     \return &
 147:../libDaisy/src/hid/disp/display.h ****     */
 148:../libDaisy/src/hid/disp/display.h ****     virtual char WriteString(const char* str, FontDef font, bool on) = 0;
 149:../libDaisy/src/hid/disp/display.h **** 
 150:../libDaisy/src/hid/disp/display.h ****     /** 
 151:../libDaisy/src/hid/disp/display.h ****     Similar to WriteString but justified within a bounding box.
 152:../libDaisy/src/hid/disp/display.h ****     \param str          string to be written
 153:../libDaisy/src/hid/disp/display.h ****     \param font         font to use
 154:../libDaisy/src/hid/disp/display.h ****     \param boundingBox  the bounding box to draw the text in
 155:../libDaisy/src/hid/disp/display.h ****     \param alignment    the alignment to use
 156:../libDaisy/src/hid/disp/display.h ****     \param on           on or off
 157:../libDaisy/src/hid/disp/display.h ****     \return The rectangle that was drawn to
 158:../libDaisy/src/hid/disp/display.h ****     */
 159:../libDaisy/src/hid/disp/display.h ****     virtual Rectangle WriteStringAligned(const char*    str,
 160:../libDaisy/src/hid/disp/display.h ****                                          const FontDef& font,
 161:../libDaisy/src/hid/disp/display.h ****                                          Rectangle      boundingBox,
 162:../libDaisy/src/hid/disp/display.h ****                                          Alignment      alignment,
 163:../libDaisy/src/hid/disp/display.h ****                                          bool           on)
 164:../libDaisy/src/hid/disp/display.h ****         = 0;
 165:../libDaisy/src/hid/disp/display.h **** 
 166:../libDaisy/src/hid/disp/display.h ****     /** 
 167:../libDaisy/src/hid/disp/display.h ****     Moves the 'Cursor' position used for WriteChar, and WriteStr to the specified coordinate.
 168:../libDaisy/src/hid/disp/display.h ****     \param x x pos
 169:../libDaisy/src/hid/disp/display.h ****     \param y y pos
 170:../libDaisy/src/hid/disp/display.h ****     */
 171:../libDaisy/src/hid/disp/display.h ****     void SetCursor(uint16_t x, uint16_t y)
 172:../libDaisy/src/hid/disp/display.h ****     {
 173:../libDaisy/src/hid/disp/display.h ****         currentX_ = (x >= Width()) ? Width() - 1 : x;
 174:../libDaisy/src/hid/disp/display.h ****         currentY_ = (y >= Height()) ? Height() - 1 : y;
 175:../libDaisy/src/hid/disp/display.h ****     }
 176:../libDaisy/src/hid/disp/display.h **** 
 177:../libDaisy/src/hid/disp/display.h ****     /** 
 178:../libDaisy/src/hid/disp/display.h ****     Writes the current display buffer to the OLED device using SPI or I2C depending on 
 179:../libDaisy/src/hid/disp/display.h ****     how the object was initialized.
 180:../libDaisy/src/hid/disp/display.h ****     */
 181:../libDaisy/src/hid/disp/display.h ****     virtual void Update() = 0;
 182:../libDaisy/src/hid/disp/display.h **** 
ARM GAS  /tmp/cc4Uqqbc.s 			page 7


 183:../libDaisy/src/hid/disp/display.h ****   protected:
 184:../libDaisy/src/hid/disp/display.h ****     uint16_t currentX_;
 185:../libDaisy/src/hid/disp/display.h ****     uint16_t currentY_;
 186:../libDaisy/src/hid/disp/display.h **** };
 187:../libDaisy/src/hid/disp/display.h **** 
 188:../libDaisy/src/hid/disp/display.h **** /** This class is intended as a intermediary class for your actual implementation of the OneBitGrap
 189:../libDaisy/src/hid/disp/display.h ****  *  interface. It uses the CRTP design pattern where the template argument is the child class. It p
 190:../libDaisy/src/hid/disp/display.h ****  *  implementations for most of the functions, except DrawPixel(), Update() and Fill(), which you'l
 191:../libDaisy/src/hid/disp/display.h ****  *  to provide in your child class.
 192:../libDaisy/src/hid/disp/display.h ****  *  The main goal of this class is to provide common drawing functions without relying on massive a
 193:../libDaisy/src/hid/disp/display.h ****  *  virtual function calls that would result in a performance loss. To achieve this, any drawing fu
 194:../libDaisy/src/hid/disp/display.h ****  *  is implemented here and internally calls other drawing functions (e.g. DrawRect() which interna
 195:../libDaisy/src/hid/disp/display.h ****  *  DrawPixel() and DrawLine()) makes these calls via the qualified name of these functions to expl
 196:../libDaisy/src/hid/disp/display.h ****  *  suppress the virtual dispatch mechanism like this:
 197:../libDaisy/src/hid/disp/display.h ****  * 
 198:../libDaisy/src/hid/disp/display.h ****  *      ChildType::DrawPixel(...); // no virtual function call; direct call into the child class fu
 199:../libDaisy/src/hid/disp/display.h ****  *  
 200:../libDaisy/src/hid/disp/display.h ****  *  To create a custom OneBitGraphicsDisplay implementation, you can 
 201:../libDaisy/src/hid/disp/display.h ****  *  A) inherit from OneBitGraphicsDisplay directly and provide all the drawing functions yourself
 202:../libDaisy/src/hid/disp/display.h ****  *  B) Inherit from OneBitGraphicsDisplayImpl and only provide DrawPixel(), Fill() and Update()
 203:../libDaisy/src/hid/disp/display.h ****  *     like this:
 204:../libDaisy/src/hid/disp/display.h ****  *  
 205:../libDaisy/src/hid/disp/display.h ****  *      class MyDisplayClass : public OneBitGraphicsDisplayImpl<MyDisplayClass> 
 206:../libDaisy/src/hid/disp/display.h ****  *      {
 207:../libDaisy/src/hid/disp/display.h ****  *      public:
 208:../libDaisy/src/hid/disp/display.h ****  *          void Fill() override { ... };
 209:../libDaisy/src/hid/disp/display.h ****  *          void DrawPixel(uint_fast8_t x, uint_fast8_t y, bool on) override { ... };
 210:../libDaisy/src/hid/disp/display.h ****  *          void Update() override { ... }
 211:../libDaisy/src/hid/disp/display.h ****  *      };
 212:../libDaisy/src/hid/disp/display.h ****  *  
 213:../libDaisy/src/hid/disp/display.h ****  */
 214:../libDaisy/src/hid/disp/display.h **** template <class ChildType>
 215:../libDaisy/src/hid/disp/display.h **** class OneBitGraphicsDisplayImpl : public OneBitGraphicsDisplay
 216:../libDaisy/src/hid/disp/display.h **** {
 217:../libDaisy/src/hid/disp/display.h ****   public:
 218:../libDaisy/src/hid/disp/display.h ****     OneBitGraphicsDisplayImpl() {}
 219:../libDaisy/src/hid/disp/display.h ****     virtual ~OneBitGraphicsDisplayImpl() {}
  71              		.loc 5 219 13 view .LVU6
  72              	.LBB540:
  73              	.LBI540:
  23:../libDaisy/src/hid/disp/display.h **** 
  74              		.loc 5 23 13 view .LVU7
  23:../libDaisy/src/hid/disp/display.h **** 
  75              		.loc 5 23 13 is_stmt 0 view .LVU8
  76              	.LBE540:
  77              	.LBE539:
  78              	.LBE538:
  79              	.LBB541:
  80              	.LBI541:
  81              		.file 6 "../libDaisy/src/per/sdmmc.h"
   1:../libDaisy/src/per/sdmmc.h **** /*
   2:../libDaisy/src/per/sdmmc.h **** TODO: 
   3:../libDaisy/src/per/sdmmc.h **** - Implement configuration (currently all settings are fixed).
   4:../libDaisy/src/per/sdmmc.h **** */
   5:../libDaisy/src/per/sdmmc.h **** #pragma once
   6:../libDaisy/src/per/sdmmc.h **** #ifndef DSY_SDMMC_H
   7:../libDaisy/src/per/sdmmc.h **** #define DSY_SDMMC_H /**< macro */
ARM GAS  /tmp/cc4Uqqbc.s 			page 8


   8:../libDaisy/src/per/sdmmc.h **** 
   9:../libDaisy/src/per/sdmmc.h **** #include <stdint.h>
  10:../libDaisy/src/per/sdmmc.h **** 
  11:../libDaisy/src/per/sdmmc.h **** 
  12:../libDaisy/src/per/sdmmc.h **** namespace daisy
  13:../libDaisy/src/per/sdmmc.h **** {
  14:../libDaisy/src/per/sdmmc.h **** /** @ingroup peripheral
  15:../libDaisy/src/per/sdmmc.h ****     @{
  16:../libDaisy/src/per/sdmmc.h ****     */
  17:../libDaisy/src/per/sdmmc.h **** 
  18:../libDaisy/src/per/sdmmc.h **** /** Configuration for interfacing with SD cards.
  19:../libDaisy/src/per/sdmmc.h ****  *  Currently only supports operation using FatFS filesystem
  20:../libDaisy/src/per/sdmmc.h ****  * 
  21:../libDaisy/src/per/sdmmc.h ****  *  Only SDMMC1 is supported at this time.
  22:../libDaisy/src/per/sdmmc.h ****  *
  23:../libDaisy/src/per/sdmmc.h ****  *  Pins are fixed to the following:
  24:../libDaisy/src/per/sdmmc.h ****  *  PC12 - SDMMC1 CK
  25:../libDaisy/src/per/sdmmc.h ****  *  PD2  - SDMMC1 CMD
  26:../libDaisy/src/per/sdmmc.h ****  *  PC8  - SDMMC1 D0
  27:../libDaisy/src/per/sdmmc.h ****  *  PC9  - SDMMC1 D1 (optional)
  28:../libDaisy/src/per/sdmmc.h ****  *  PC10 - SDMMC1 D2 (optional)
  29:../libDaisy/src/per/sdmmc.h ****  *  PC11 - SDMMC1 D3 (optional)
  30:../libDaisy/src/per/sdmmc.h **** */
  31:../libDaisy/src/per/sdmmc.h **** class SdmmcHandler
  32:../libDaisy/src/per/sdmmc.h **** {
  33:../libDaisy/src/per/sdmmc.h ****   public:
  34:../libDaisy/src/per/sdmmc.h ****     /** Return values for the SdmmcHandler class */
  35:../libDaisy/src/per/sdmmc.h ****     enum class Result
  36:../libDaisy/src/per/sdmmc.h ****     {
  37:../libDaisy/src/per/sdmmc.h ****         OK,
  38:../libDaisy/src/per/sdmmc.h ****         ERROR,
  39:../libDaisy/src/per/sdmmc.h ****     };
  40:../libDaisy/src/per/sdmmc.h **** 
  41:../libDaisy/src/per/sdmmc.h ****     /** Sets whether 4-bit mode or 1-bit mode is used for the SDMMC */
  42:../libDaisy/src/per/sdmmc.h ****     enum class BusWidth
  43:../libDaisy/src/per/sdmmc.h ****     {
  44:../libDaisy/src/per/sdmmc.h ****         BITS_1, /**< Only 1 bit of data per clock is transferred */
  45:../libDaisy/src/per/sdmmc.h ****         BITS_4, /**< 4-bits of parallel data for each clock pulse */
  46:../libDaisy/src/per/sdmmc.h ****     };
  47:../libDaisy/src/per/sdmmc.h **** 
  48:../libDaisy/src/per/sdmmc.h ****     /** 
  49:../libDaisy/src/per/sdmmc.h ****     Sets the desired clock speed of the SD card bus. \n 
  50:../libDaisy/src/per/sdmmc.h ****     Initialization is always done at or below 400kHz, and then the user speed is set.
  51:../libDaisy/src/per/sdmmc.h ****     */
  52:../libDaisy/src/per/sdmmc.h ****     enum class Speed
  53:../libDaisy/src/per/sdmmc.h ****     {
  54:../libDaisy/src/per/sdmmc.h ****         SLOW, /**< 400kHz, initialization  performed at this rate, before moving to user value */
  55:../libDaisy/src/per/sdmmc.h ****         MEDIUM_SLOW, /**< 12.5MHz - half of standard rate */
  56:../libDaisy/src/per/sdmmc.h ****         STANDARD,    /**< 25MHz - DS (Default Speed for SDMMC) */
  57:../libDaisy/src/per/sdmmc.h ****         FAST,        /**< 50MHz - HS (High Speed signaling) */
  58:../libDaisy/src/per/sdmmc.h ****         VERY_FAST, /**< 100MHz - SDR50 Overclocked rate for maximum transfer rates */
  59:../libDaisy/src/per/sdmmc.h ****     };
  60:../libDaisy/src/per/sdmmc.h **** 
  61:../libDaisy/src/per/sdmmc.h ****     struct Config
  62:../libDaisy/src/per/sdmmc.h ****     {
  63:../libDaisy/src/per/sdmmc.h ****         Speed    speed;
  64:../libDaisy/src/per/sdmmc.h ****         BusWidth width;
ARM GAS  /tmp/cc4Uqqbc.s 			page 9


  65:../libDaisy/src/per/sdmmc.h ****         bool
  66:../libDaisy/src/per/sdmmc.h ****             clock_powersave; /**< When true, the clock will stop between transfers to save power. *
  67:../libDaisy/src/per/sdmmc.h **** 
  68:../libDaisy/src/per/sdmmc.h ****         /** Configures settings to their default settings */
  69:../libDaisy/src/per/sdmmc.h ****         void Defaults()
  70:../libDaisy/src/per/sdmmc.h ****         {
  71:../libDaisy/src/per/sdmmc.h ****             speed           = Speed::FAST;
  72:../libDaisy/src/per/sdmmc.h ****             width           = BusWidth::BITS_4;
  73:../libDaisy/src/per/sdmmc.h ****             clock_powersave = false;
  74:../libDaisy/src/per/sdmmc.h ****         }
  75:../libDaisy/src/per/sdmmc.h ****     };
  76:../libDaisy/src/per/sdmmc.h **** 
  77:../libDaisy/src/per/sdmmc.h ****     SdmmcHandler() {}
  78:../libDaisy/src/per/sdmmc.h ****     ~SdmmcHandler() {}
  82              		.loc 6 78 5 is_stmt 1 view .LVU9
  83              		.loc 6 78 5 is_stmt 0 view .LVU10
  84              	.LBE541:
  85              	.LBB542:
  86              	.LBI542:
  87              		.file 7 "../libDaisy/src/hid/midi.h"
   1:../libDaisy/src/hid/midi.h **** #pragma once
   2:../libDaisy/src/hid/midi.h **** #ifndef DSY_MIDI_H
   3:../libDaisy/src/hid/midi.h **** #define DSY_MIDI_H
   4:../libDaisy/src/hid/midi.h **** 
   5:../libDaisy/src/hid/midi.h **** #include <stdint.h>
   6:../libDaisy/src/hid/midi.h **** #include <stdlib.h>
   7:../libDaisy/src/hid/midi.h **** #include <algorithm>
   8:../libDaisy/src/hid/midi.h **** #include "per/uart.h"
   9:../libDaisy/src/hid/midi.h **** #include "util/ringbuffer.h"
  10:../libDaisy/src/hid/midi.h **** #include "util/FIFO.h"
  11:../libDaisy/src/hid/midi.h **** #include "hid/midi_parser.h"
  12:../libDaisy/src/hid/midi.h **** #include "hid/usb_midi.h"
  13:../libDaisy/src/hid/midi.h **** #include "sys/dma.h"
  14:../libDaisy/src/hid/midi.h **** #include "sys/system.h"
  15:../libDaisy/src/hid/midi.h **** 
  16:../libDaisy/src/hid/midi.h **** namespace daisy
  17:../libDaisy/src/hid/midi.h **** {
  18:../libDaisy/src/hid/midi.h **** /** @brief   Transport layer for sending and receiving MIDI data over UART
  19:../libDaisy/src/hid/midi.h ****  *  @details This is the mode of communication used for TRS and DIN MIDI
  20:../libDaisy/src/hid/midi.h ****  *           There is an additional 2kB of RAM data used within this class
  21:../libDaisy/src/hid/midi.h ****  *           for processing bulk data from the UART peripheral
  22:../libDaisy/src/hid/midi.h ****  *  @ingroup midi
  23:../libDaisy/src/hid/midi.h **** */
  24:../libDaisy/src/hid/midi.h **** class MidiUartTransport
  25:../libDaisy/src/hid/midi.h **** {
  26:../libDaisy/src/hid/midi.h ****   public:
  27:../libDaisy/src/hid/midi.h ****     typedef void (*MidiRxParseCallback)(uint8_t* data,
  28:../libDaisy/src/hid/midi.h ****                                         size_t   size,
  29:../libDaisy/src/hid/midi.h ****                                         void*    context);
  30:../libDaisy/src/hid/midi.h **** 
  31:../libDaisy/src/hid/midi.h ****     MidiUartTransport() {}
  32:../libDaisy/src/hid/midi.h ****     ~MidiUartTransport() {}
  33:../libDaisy/src/hid/midi.h **** 
  34:../libDaisy/src/hid/midi.h ****     /** @brief Configuration structure for UART MIDI */
  35:../libDaisy/src/hid/midi.h ****     struct Config
  36:../libDaisy/src/hid/midi.h ****     {
  37:../libDaisy/src/hid/midi.h ****         UartHandler::Config::Peripheral periph;
ARM GAS  /tmp/cc4Uqqbc.s 			page 10


  38:../libDaisy/src/hid/midi.h ****         dsy_gpio_pin                    rx;
  39:../libDaisy/src/hid/midi.h ****         dsy_gpio_pin                    tx;
  40:../libDaisy/src/hid/midi.h **** 
  41:../libDaisy/src/hid/midi.h ****         /** Pointer to buffer for DMA UART rx byte transfer in background.
  42:../libDaisy/src/hid/midi.h ****          *
  43:../libDaisy/src/hid/midi.h ****          *  @details By default this uses a shared buffer in DMA_BUFFER_MEM_SECTION,
  44:../libDaisy/src/hid/midi.h ****          *           which can only be utilized for a single UART peripheral. To
  45:../libDaisy/src/hid/midi.h ****          *           use MIDI with multiple UART peripherals, you must provide your own
  46:../libDaisy/src/hid/midi.h ****          *           buffer, allocated to a DMA-capable memory section.
  47:../libDaisy/src/hid/midi.h ****          */
  48:../libDaisy/src/hid/midi.h ****         uint8_t* rx_buffer;
  49:../libDaisy/src/hid/midi.h **** 
  50:../libDaisy/src/hid/midi.h ****         /** Size in bytes of rx_buffer.
  51:../libDaisy/src/hid/midi.h ****          *
  52:../libDaisy/src/hid/midi.h ****          *  @details This size determines the maximum Rx bytes readable by the UART in the backgrou
  53:../libDaisy/src/hid/midi.h ****          *           By default it's set to the size of the default shared rx_buffer (256 bytes).
  54:../libDaisy/src/hid/midi.h ****          *           While much smaller sizes can be used, data can get missed if the buffer is too
  55:../libDaisy/src/hid/midi.h ****          */
  56:../libDaisy/src/hid/midi.h ****         size_t rx_buffer_size;
  57:../libDaisy/src/hid/midi.h **** 
  58:../libDaisy/src/hid/midi.h ****         Config();
  59:../libDaisy/src/hid/midi.h ****     };
  60:../libDaisy/src/hid/midi.h **** 
  61:../libDaisy/src/hid/midi.h ****     /** @brief Initialization of UART using config struct */
  62:../libDaisy/src/hid/midi.h ****     inline void Init(Config config)
  63:../libDaisy/src/hid/midi.h ****     {
  64:../libDaisy/src/hid/midi.h ****         UartHandler::Config uart_config;
  65:../libDaisy/src/hid/midi.h **** 
  66:../libDaisy/src/hid/midi.h ****         //defaults
  67:../libDaisy/src/hid/midi.h ****         uart_config.baudrate   = 31250;
  68:../libDaisy/src/hid/midi.h ****         uart_config.stopbits   = UartHandler::Config::StopBits::BITS_1;
  69:../libDaisy/src/hid/midi.h ****         uart_config.parity     = UartHandler::Config::Parity::NONE;
  70:../libDaisy/src/hid/midi.h ****         uart_config.mode       = UartHandler::Config::Mode::TX_RX;
  71:../libDaisy/src/hid/midi.h ****         uart_config.wordlength = UartHandler::Config::WordLength::BITS_8;
  72:../libDaisy/src/hid/midi.h **** 
  73:../libDaisy/src/hid/midi.h ****         //user settings
  74:../libDaisy/src/hid/midi.h ****         uart_config.periph        = config.periph;
  75:../libDaisy/src/hid/midi.h ****         uart_config.pin_config.rx = config.rx;
  76:../libDaisy/src/hid/midi.h ****         uart_config.pin_config.tx = config.tx;
  77:../libDaisy/src/hid/midi.h **** 
  78:../libDaisy/src/hid/midi.h ****         rx_buffer      = config.rx_buffer;
  79:../libDaisy/src/hid/midi.h ****         rx_buffer_size = config.rx_buffer_size;
  80:../libDaisy/src/hid/midi.h **** 
  81:../libDaisy/src/hid/midi.h ****         /** zero the buffer to ensure emptiness regardless of source memory */
  82:../libDaisy/src/hid/midi.h ****         std::fill(rx_buffer, rx_buffer + rx_buffer_size, 0);
  83:../libDaisy/src/hid/midi.h **** 
  84:../libDaisy/src/hid/midi.h ****         uart_.Init(uart_config);
  85:../libDaisy/src/hid/midi.h ****     }
  86:../libDaisy/src/hid/midi.h **** 
  87:../libDaisy/src/hid/midi.h ****     /** @brief Start the UART peripheral in listening mode.
  88:../libDaisy/src/hid/midi.h ****      *  This will fill an internal data structure in the background */
  89:../libDaisy/src/hid/midi.h ****     inline void StartRx(MidiRxParseCallback parse_callback, void* context)
  90:../libDaisy/src/hid/midi.h ****     {
  91:../libDaisy/src/hid/midi.h ****         parse_context_  = context;
  92:../libDaisy/src/hid/midi.h ****         parse_callback_ = parse_callback;
  93:../libDaisy/src/hid/midi.h ****         dsy_dma_clear_cache_for_buffer((uint8_t*)this,
  94:../libDaisy/src/hid/midi.h ****                                        sizeof(MidiUartTransport));
ARM GAS  /tmp/cc4Uqqbc.s 			page 11


  95:../libDaisy/src/hid/midi.h ****         uart_.DmaListenStart(
  96:../libDaisy/src/hid/midi.h ****             rx_buffer, rx_buffer_size, MidiUartTransport::rxCallback, this);
  97:../libDaisy/src/hid/midi.h ****     }
  98:../libDaisy/src/hid/midi.h **** 
  99:../libDaisy/src/hid/midi.h ****     /** @brief returns whether the UART peripheral is actively listening in the background or not *
 100:../libDaisy/src/hid/midi.h ****     inline bool RxActive() { return uart_.IsListening(); }
 101:../libDaisy/src/hid/midi.h **** 
 102:../libDaisy/src/hid/midi.h ****     /** @brief This is a no-op for UART transport - Rx is via DMA callback with circular buffer */
 103:../libDaisy/src/hid/midi.h ****     inline void FlushRx() {}
 104:../libDaisy/src/hid/midi.h **** 
 105:../libDaisy/src/hid/midi.h ****     /** @brief sends the buffer of bytes out of the UART peripheral */
 106:../libDaisy/src/hid/midi.h ****     inline void Tx(uint8_t* buff, size_t size) { uart_.PollTx(buff, size); }
 107:../libDaisy/src/hid/midi.h **** 
 108:../libDaisy/src/hid/midi.h ****   private:
 109:../libDaisy/src/hid/midi.h ****     UartHandler         uart_;
 110:../libDaisy/src/hid/midi.h ****     uint8_t*            rx_buffer;
 111:../libDaisy/src/hid/midi.h ****     size_t              rx_buffer_size;
 112:../libDaisy/src/hid/midi.h ****     void*               parse_context_;
 113:../libDaisy/src/hid/midi.h ****     MidiRxParseCallback parse_callback_;
 114:../libDaisy/src/hid/midi.h **** 
 115:../libDaisy/src/hid/midi.h ****     /** Static callback for Uart MIDI that occurs when
 116:../libDaisy/src/hid/midi.h ****          *  new data is available from the peripheral.
 117:../libDaisy/src/hid/midi.h ****          *  The new data is transferred from the peripheral to the
 118:../libDaisy/src/hid/midi.h ****          *  MIDI instance's byte FIFO that feeds the MIDI parser.
 119:../libDaisy/src/hid/midi.h ****          *
 120:../libDaisy/src/hid/midi.h ****          *  TODO: Handle UartHandler errors better/at all.
 121:../libDaisy/src/hid/midi.h ****          *  (If there is a UART error, there's not really any recovery
 122:../libDaisy/src/hid/midi.h ****          *  option at the moment)
 123:../libDaisy/src/hid/midi.h ****          */
 124:../libDaisy/src/hid/midi.h ****     static void rxCallback(uint8_t*            data,
 125:../libDaisy/src/hid/midi.h ****                            size_t              size,
 126:../libDaisy/src/hid/midi.h ****                            void*               context,
 127:../libDaisy/src/hid/midi.h ****                            UartHandler::Result res)
 128:../libDaisy/src/hid/midi.h ****     {
 129:../libDaisy/src/hid/midi.h ****         /** Read context as transport type */
 130:../libDaisy/src/hid/midi.h ****         MidiUartTransport* transport
 131:../libDaisy/src/hid/midi.h ****             = reinterpret_cast<MidiUartTransport*>(context);
 132:../libDaisy/src/hid/midi.h ****         if(res == UartHandler::Result::OK)
 133:../libDaisy/src/hid/midi.h ****         {
 134:../libDaisy/src/hid/midi.h ****             if(transport->parse_callback_)
 135:../libDaisy/src/hid/midi.h ****             {
 136:../libDaisy/src/hid/midi.h ****                 transport->parse_callback_(
 137:../libDaisy/src/hid/midi.h ****                     data, size, transport->parse_context_);
 138:../libDaisy/src/hid/midi.h ****             }
 139:../libDaisy/src/hid/midi.h ****         }
 140:../libDaisy/src/hid/midi.h ****     }
 141:../libDaisy/src/hid/midi.h **** };
 142:../libDaisy/src/hid/midi.h **** 
 143:../libDaisy/src/hid/midi.h **** /**
 144:../libDaisy/src/hid/midi.h ****     @brief Simple MIDI Handler \n
 145:../libDaisy/src/hid/midi.h ****     Parses bytes from an input into valid MidiEvents. \n
 146:../libDaisy/src/hid/midi.h ****     The MidiEvents fill a FIFO queue that the user can pop messages from.
 147:../libDaisy/src/hid/midi.h ****     @author shensley
 148:../libDaisy/src/hid/midi.h ****     @date March 2020
 149:../libDaisy/src/hid/midi.h ****     @ingroup midi
 150:../libDaisy/src/hid/midi.h **** */
 151:../libDaisy/src/hid/midi.h **** template <typename Transport>
ARM GAS  /tmp/cc4Uqqbc.s 			page 12


 152:../libDaisy/src/hid/midi.h **** class MidiHandler
 153:../libDaisy/src/hid/midi.h **** {
 154:../libDaisy/src/hid/midi.h ****   public:
 155:../libDaisy/src/hid/midi.h ****     MidiHandler() {}
 156:../libDaisy/src/hid/midi.h ****     ~MidiHandler() {}
  88              		.loc 7 156 5 is_stmt 1 view .LVU11
  89              	.LBB543:
  90              	.LBI543:
  91              		.file 8 "../libDaisy/src/util/FIFO.h"
   1:../libDaisy/src/util/FIFO.h **** #pragma once
   2:../libDaisy/src/util/FIFO.h **** 
   3:../libDaisy/src/util/FIFO.h **** #include <stdint.h>
   4:../libDaisy/src/util/FIFO.h **** #include <stddef.h>
   5:../libDaisy/src/util/FIFO.h **** #include <initializer_list>
   6:../libDaisy/src/util/FIFO.h **** 
   7:../libDaisy/src/util/FIFO.h **** namespace daisy
   8:../libDaisy/src/util/FIFO.h **** {
   9:../libDaisy/src/util/FIFO.h **** /** Capacity-independent base class for FIFO. Use FIFO instead. */
  10:../libDaisy/src/util/FIFO.h **** template <typename T>
  11:../libDaisy/src/util/FIFO.h **** class FIFOBase
  12:../libDaisy/src/util/FIFO.h **** {
  13:../libDaisy/src/util/FIFO.h ****   protected:
  14:../libDaisy/src/util/FIFO.h ****     FIFOBase(T* buffer, size_t bufferSize)
  15:../libDaisy/src/util/FIFO.h ****     : buffer_(buffer), bufferSize_(bufferSize), bufferIn_(0), bufferOut_(0)
  16:../libDaisy/src/util/FIFO.h ****     {
  17:../libDaisy/src/util/FIFO.h ****     }
  18:../libDaisy/src/util/FIFO.h **** 
  19:../libDaisy/src/util/FIFO.h ****     FIFOBase(T* buffer, size_t bufferSize, std::initializer_list<T> valuesToAdd)
  20:../libDaisy/src/util/FIFO.h ****     : buffer_(buffer), bufferSize_(bufferSize), bufferIn_(0), bufferOut_(0)
  21:../libDaisy/src/util/FIFO.h ****     {
  22:../libDaisy/src/util/FIFO.h ****         PushBack(valuesToAdd);
  23:../libDaisy/src/util/FIFO.h ****     }
  24:../libDaisy/src/util/FIFO.h **** 
  25:../libDaisy/src/util/FIFO.h ****   public:
  26:../libDaisy/src/util/FIFO.h ****     /** Copies all elements from another FIFO */
  27:../libDaisy/src/util/FIFO.h ****     FIFOBase<T>& operator=(const FIFOBase<T>& other)
  28:../libDaisy/src/util/FIFO.h ****     {
  29:../libDaisy/src/util/FIFO.h ****         bufferIn_ = bufferOut_ = 0;
  30:../libDaisy/src/util/FIFO.h ****         if(!other.IsEmpty())
  31:../libDaisy/src/util/FIFO.h ****         {
  32:../libDaisy/src/util/FIFO.h ****             int readPtr = other.bufferOut_;
  33:../libDaisy/src/util/FIFO.h ****             while((readPtr != other.bufferIn_) && (bufferIn_ < bufferSize_))
  34:../libDaisy/src/util/FIFO.h ****             {
  35:../libDaisy/src/util/FIFO.h ****                 buffer_[bufferIn_++] = other.buffer_[readPtr++];
  36:../libDaisy/src/util/FIFO.h ****                 if(readPtr >= other.bufferSize_)
  37:../libDaisy/src/util/FIFO.h ****                     readPtr -= other.bufferSize_;
  38:../libDaisy/src/util/FIFO.h ****             }
  39:../libDaisy/src/util/FIFO.h ****         }
  40:../libDaisy/src/util/FIFO.h ****         return *this;
  41:../libDaisy/src/util/FIFO.h ****     }
  42:../libDaisy/src/util/FIFO.h ****     ~FIFOBase() {}
  43:../libDaisy/src/util/FIFO.h **** 
  44:../libDaisy/src/util/FIFO.h ****     /** Removes all elements from the FIFO */
  45:../libDaisy/src/util/FIFO.h ****     void Clear() { bufferIn_ = bufferOut_ = 0; }
  46:../libDaisy/src/util/FIFO.h **** 
  47:../libDaisy/src/util/FIFO.h ****     /** Adds an element to the back of the buffer, returning true on
  48:../libDaisy/src/util/FIFO.h ****         success */
ARM GAS  /tmp/cc4Uqqbc.s 			page 13


  49:../libDaisy/src/util/FIFO.h ****     bool PushBack(const T& elementToAdd)
  50:../libDaisy/src/util/FIFO.h ****     {
  51:../libDaisy/src/util/FIFO.h ****         if(!IsFull())
  52:../libDaisy/src/util/FIFO.h ****         {
  53:../libDaisy/src/util/FIFO.h ****             buffer_[bufferIn_++] = elementToAdd;
  54:../libDaisy/src/util/FIFO.h ****             if(bufferIn_ >= bufferSize_)
  55:../libDaisy/src/util/FIFO.h ****                 bufferIn_ -= bufferSize_;
  56:../libDaisy/src/util/FIFO.h ****             return true;
  57:../libDaisy/src/util/FIFO.h ****         }
  58:../libDaisy/src/util/FIFO.h ****         return false;
  59:../libDaisy/src/util/FIFO.h ****     }
  60:../libDaisy/src/util/FIFO.h **** 
  61:../libDaisy/src/util/FIFO.h ****     /** Adds multiple elements and returns the number of elements that were added */
  62:../libDaisy/src/util/FIFO.h ****     int PushBack(std::initializer_list<T> valuesToAdd)
  63:../libDaisy/src/util/FIFO.h ****     {
  64:../libDaisy/src/util/FIFO.h ****         int numAdded = 0;
  65:../libDaisy/src/util/FIFO.h ****         for(const auto& v : valuesToAdd)
  66:../libDaisy/src/util/FIFO.h ****         {
  67:../libDaisy/src/util/FIFO.h ****             if(IsFull())
  68:../libDaisy/src/util/FIFO.h ****                 return numAdded;
  69:../libDaisy/src/util/FIFO.h **** 
  70:../libDaisy/src/util/FIFO.h ****             PushBack(v);
  71:../libDaisy/src/util/FIFO.h ****             numAdded++;
  72:../libDaisy/src/util/FIFO.h ****         }
  73:../libDaisy/src/util/FIFO.h ****         return numAdded;
  74:../libDaisy/src/util/FIFO.h ****     }
  75:../libDaisy/src/util/FIFO.h **** 
  76:../libDaisy/src/util/FIFO.h ****     /** returns a reference to the last element */
  77:../libDaisy/src/util/FIFO.h ****     T& Back()
  78:../libDaisy/src/util/FIFO.h ****     {
  79:../libDaisy/src/util/FIFO.h ****         if(IsEmpty())
  80:../libDaisy/src/util/FIFO.h ****             // invalid, but better not pass a temporary T() object as a reference...
  81:../libDaisy/src/util/FIFO.h ****             return buffer_[0];
  82:../libDaisy/src/util/FIFO.h ****         int idx = bufferIn_ - 1;
  83:../libDaisy/src/util/FIFO.h ****         if(idx < 0)
  84:../libDaisy/src/util/FIFO.h ****             idx += bufferSize_;
  85:../libDaisy/src/util/FIFO.h ****         return buffer_[idx];
  86:../libDaisy/src/util/FIFO.h ****     }
  87:../libDaisy/src/util/FIFO.h **** 
  88:../libDaisy/src/util/FIFO.h ****     /** returns a reference to the last element */
  89:../libDaisy/src/util/FIFO.h ****     const T& Back() const
  90:../libDaisy/src/util/FIFO.h ****     {
  91:../libDaisy/src/util/FIFO.h ****         if(IsEmpty())
  92:../libDaisy/src/util/FIFO.h ****             // invalid, but better not pass a temporary T() object as a reference...
  93:../libDaisy/src/util/FIFO.h ****             return buffer_[0];
  94:../libDaisy/src/util/FIFO.h ****         int idx = bufferIn_ - 1;
  95:../libDaisy/src/util/FIFO.h ****         if(idx < 0)
  96:../libDaisy/src/util/FIFO.h ****             idx += bufferSize_;
  97:../libDaisy/src/util/FIFO.h ****         return buffer_[idx];
  98:../libDaisy/src/util/FIFO.h ****     }
  99:../libDaisy/src/util/FIFO.h **** 
 100:../libDaisy/src/util/FIFO.h ****     /** removes and returns an element from the front of the buffer */
 101:../libDaisy/src/util/FIFO.h ****     T PopFront()
 102:../libDaisy/src/util/FIFO.h ****     {
 103:../libDaisy/src/util/FIFO.h ****         if(IsEmpty())
 104:../libDaisy/src/util/FIFO.h ****             return T();
 105:../libDaisy/src/util/FIFO.h ****         else
ARM GAS  /tmp/cc4Uqqbc.s 			page 14


 106:../libDaisy/src/util/FIFO.h ****         {
 107:../libDaisy/src/util/FIFO.h ****             const auto result = buffer_[bufferOut_];
 108:../libDaisy/src/util/FIFO.h ****             bufferOut_++;
 109:../libDaisy/src/util/FIFO.h ****             if(bufferOut_ >= bufferSize_)
 110:../libDaisy/src/util/FIFO.h ****                 bufferOut_ -= bufferSize_;
 111:../libDaisy/src/util/FIFO.h ****             return result;
 112:../libDaisy/src/util/FIFO.h ****         }
 113:../libDaisy/src/util/FIFO.h ****     }
 114:../libDaisy/src/util/FIFO.h **** 
 115:../libDaisy/src/util/FIFO.h ****     /** returns a copy of the first element */
 116:../libDaisy/src/util/FIFO.h ****     T& Front()
 117:../libDaisy/src/util/FIFO.h ****     {
 118:../libDaisy/src/util/FIFO.h ****         if(IsEmpty())
 119:../libDaisy/src/util/FIFO.h ****             // invalid, but better not pass a temporary T() object as a reference...
 120:../libDaisy/src/util/FIFO.h ****             return buffer_[0];
 121:../libDaisy/src/util/FIFO.h ****         return buffer_[bufferOut_];
 122:../libDaisy/src/util/FIFO.h ****     }
 123:../libDaisy/src/util/FIFO.h **** 
 124:../libDaisy/src/util/FIFO.h ****     /** returns a reference to the first element */
 125:../libDaisy/src/util/FIFO.h ****     const T& Front() const
 126:../libDaisy/src/util/FIFO.h ****     {
 127:../libDaisy/src/util/FIFO.h ****         if(IsEmpty())
 128:../libDaisy/src/util/FIFO.h ****             // invalid, but better not pass a temporary T() object as a reference...
 129:../libDaisy/src/util/FIFO.h ****             return buffer_[0];
 130:../libDaisy/src/util/FIFO.h ****         return buffer_[bufferOut_];
 131:../libDaisy/src/util/FIFO.h ****     }
 132:../libDaisy/src/util/FIFO.h **** 
 133:../libDaisy/src/util/FIFO.h ****     /** Returns true if the buffer contains an element equal to the provided value */
 134:../libDaisy/src/util/FIFO.h ****     bool Contains(const T& element)
 135:../libDaisy/src/util/FIFO.h ****     {
 136:../libDaisy/src/util/FIFO.h ****         auto idx = bufferOut_;
 137:../libDaisy/src/util/FIFO.h ****         while(idx != bufferIn_)
 138:../libDaisy/src/util/FIFO.h ****         {
 139:../libDaisy/src/util/FIFO.h ****             if(buffer_[idx] == element)
 140:../libDaisy/src/util/FIFO.h ****                 return true;
 141:../libDaisy/src/util/FIFO.h ****             idx++;
 142:../libDaisy/src/util/FIFO.h ****             if(idx >= bufferSize_)
 143:../libDaisy/src/util/FIFO.h ****                 idx -= bufferSize_;
 144:../libDaisy/src/util/FIFO.h ****         }
 145:../libDaisy/src/util/FIFO.h ****         return false;
 146:../libDaisy/src/util/FIFO.h ****     }
 147:../libDaisy/src/util/FIFO.h **** 
 148:../libDaisy/src/util/FIFO.h ****     /** Returns the number of elements in the buffer that are equal to the provided value */
 149:../libDaisy/src/util/FIFO.h ****     size_t CountEqualTo(const T& element)
 150:../libDaisy/src/util/FIFO.h ****     {
 151:../libDaisy/src/util/FIFO.h ****         size_t result = 0;
 152:../libDaisy/src/util/FIFO.h ****         size_t idx    = bufferOut_;
 153:../libDaisy/src/util/FIFO.h ****         while(idx != bufferIn_)
 154:../libDaisy/src/util/FIFO.h ****         {
 155:../libDaisy/src/util/FIFO.h ****             if(buffer_[idx] == element)
 156:../libDaisy/src/util/FIFO.h ****                 result++;
 157:../libDaisy/src/util/FIFO.h ****             idx++;
 158:../libDaisy/src/util/FIFO.h ****             if(idx >= bufferSize_)
 159:../libDaisy/src/util/FIFO.h ****                 idx -= bufferSize_;
 160:../libDaisy/src/util/FIFO.h ****         }
 161:../libDaisy/src/util/FIFO.h ****         return result;
 162:../libDaisy/src/util/FIFO.h ****     }
ARM GAS  /tmp/cc4Uqqbc.s 			page 15


 163:../libDaisy/src/util/FIFO.h **** 
 164:../libDaisy/src/util/FIFO.h ****     /** returns true, if the buffer is empty */
 165:../libDaisy/src/util/FIFO.h ****     bool IsEmpty() const { return bufferIn_ == bufferOut_; }
 166:../libDaisy/src/util/FIFO.h **** 
 167:../libDaisy/src/util/FIFO.h ****     /** returns true, if the buffer is Full */
 168:../libDaisy/src/util/FIFO.h ****     bool IsFull() const { return GetNumElements() == bufferSize_ - 1; }
 169:../libDaisy/src/util/FIFO.h **** 
 170:../libDaisy/src/util/FIFO.h ****     /** returns the number of elements in the buffer */
 171:../libDaisy/src/util/FIFO.h ****     size_t GetNumElements() const
 172:../libDaisy/src/util/FIFO.h ****     {
 173:../libDaisy/src/util/FIFO.h ****         int32_t numElements = bufferIn_ - bufferOut_;
 174:../libDaisy/src/util/FIFO.h ****         if(numElements < 0)
 175:../libDaisy/src/util/FIFO.h ****             numElements += bufferSize_;
 176:../libDaisy/src/util/FIFO.h ****         return size_t(numElements);
 177:../libDaisy/src/util/FIFO.h ****     }
 178:../libDaisy/src/util/FIFO.h **** 
 179:../libDaisy/src/util/FIFO.h ****     /** inserts an element "idx" positions behind the first element and returns true if successful 
 180:../libDaisy/src/util/FIFO.h ****     bool Insert(size_t idx, const T& element)
 181:../libDaisy/src/util/FIFO.h ****     {
 182:../libDaisy/src/util/FIFO.h ****         if(idx > GetNumElements())
 183:../libDaisy/src/util/FIFO.h ****             return false;
 184:../libDaisy/src/util/FIFO.h ****         if(IsFull())
 185:../libDaisy/src/util/FIFO.h ****             return false;
 186:../libDaisy/src/util/FIFO.h ****         if(idx == GetNumElements())
 187:../libDaisy/src/util/FIFO.h ****         {
 188:../libDaisy/src/util/FIFO.h ****             PushBack(element);
 189:../libDaisy/src/util/FIFO.h ****             return true;
 190:../libDaisy/src/util/FIFO.h ****         }
 191:../libDaisy/src/util/FIFO.h ****         // copy last element
 192:../libDaisy/src/util/FIFO.h ****         PushBack(Back());
 193:../libDaisy/src/util/FIFO.h ****         // move remaining elements: n => n+1
 194:../libDaisy/src/util/FIFO.h ****         for(int i = GetNumElements() - 2; i > int(idx); i--)
 195:../libDaisy/src/util/FIFO.h ****             (*this)[i] = (*this)[i - 1];
 196:../libDaisy/src/util/FIFO.h ****         // insert element
 197:../libDaisy/src/util/FIFO.h ****         (*this)[idx] = element;
 198:../libDaisy/src/util/FIFO.h ****         return true;
 199:../libDaisy/src/util/FIFO.h ****     }
 200:../libDaisy/src/util/FIFO.h **** 
 201:../libDaisy/src/util/FIFO.h ****     /** removes the element "idx" positions behind the first element 
 202:../libDaisy/src/util/FIFO.h ****      *  and returns true if successful */
 203:../libDaisy/src/util/FIFO.h ****     bool Remove(size_t idx)
 204:../libDaisy/src/util/FIFO.h ****     {
 205:../libDaisy/src/util/FIFO.h ****         if(idx >= GetNumElements())
 206:../libDaisy/src/util/FIFO.h ****             return false;
 207:../libDaisy/src/util/FIFO.h **** 
 208:../libDaisy/src/util/FIFO.h ****         size_t index = bufferOut_ + idx;
 209:../libDaisy/src/util/FIFO.h ****         if(index >= bufferSize_)
 210:../libDaisy/src/util/FIFO.h ****             index -= bufferSize_;
 211:../libDaisy/src/util/FIFO.h ****         size_t nextIndex = index + 1;
 212:../libDaisy/src/util/FIFO.h ****         if(nextIndex >= bufferSize_)
 213:../libDaisy/src/util/FIFO.h ****             nextIndex -= bufferSize_;
 214:../libDaisy/src/util/FIFO.h **** 
 215:../libDaisy/src/util/FIFO.h ****         while(nextIndex != bufferIn_)
 216:../libDaisy/src/util/FIFO.h ****         {
 217:../libDaisy/src/util/FIFO.h ****             buffer_[index] = buffer_[nextIndex];
 218:../libDaisy/src/util/FIFO.h ****             index++;
 219:../libDaisy/src/util/FIFO.h ****             nextIndex++;
ARM GAS  /tmp/cc4Uqqbc.s 			page 16


 220:../libDaisy/src/util/FIFO.h ****             if(index >= bufferSize_)
 221:../libDaisy/src/util/FIFO.h ****                 index -= bufferSize_;
 222:../libDaisy/src/util/FIFO.h ****             if(nextIndex >= bufferSize_)
 223:../libDaisy/src/util/FIFO.h ****                 nextIndex -= bufferSize_;
 224:../libDaisy/src/util/FIFO.h ****         }
 225:../libDaisy/src/util/FIFO.h **** 
 226:../libDaisy/src/util/FIFO.h ****         int32_t nextBufferIn = int32_t(bufferIn_) - 1;
 227:../libDaisy/src/util/FIFO.h ****         if(nextBufferIn < 0)
 228:../libDaisy/src/util/FIFO.h ****             nextBufferIn += bufferSize_;
 229:../libDaisy/src/util/FIFO.h ****         bufferIn_ = size_t(nextBufferIn);
 230:../libDaisy/src/util/FIFO.h **** 
 231:../libDaisy/src/util/FIFO.h ****         return true;
 232:../libDaisy/src/util/FIFO.h ****     }
 233:../libDaisy/src/util/FIFO.h **** 
 234:../libDaisy/src/util/FIFO.h ****     /** removes all elements from the buffer for which
 235:../libDaisy/src/util/FIFO.h ****         (buffer(index) == element) returns true and returns the number of
 236:../libDaisy/src/util/FIFO.h ****         elements that were removed. */
 237:../libDaisy/src/util/FIFO.h ****     size_t RemoveAllEqualTo(const T& element)
 238:../libDaisy/src/util/FIFO.h ****     {
 239:../libDaisy/src/util/FIFO.h ****         size_t numRemoved = 0;
 240:../libDaisy/src/util/FIFO.h ****         int    idx        = GetNumElements() - 1;
 241:../libDaisy/src/util/FIFO.h ****         while(idx >= 0)
 242:../libDaisy/src/util/FIFO.h ****         {
 243:../libDaisy/src/util/FIFO.h ****             if((*this)[idx] == element)
 244:../libDaisy/src/util/FIFO.h ****             {
 245:../libDaisy/src/util/FIFO.h ****                 numRemoved++;
 246:../libDaisy/src/util/FIFO.h ****                 Remove(idx);
 247:../libDaisy/src/util/FIFO.h ****                 // was that the last element?
 248:../libDaisy/src/util/FIFO.h ****                 if(idx == int(GetNumElements()) - 1)
 249:../libDaisy/src/util/FIFO.h ****                     idx--;
 250:../libDaisy/src/util/FIFO.h ****             }
 251:../libDaisy/src/util/FIFO.h ****             else
 252:../libDaisy/src/util/FIFO.h ****                 idx--;
 253:../libDaisy/src/util/FIFO.h ****         }
 254:../libDaisy/src/util/FIFO.h ****         return numRemoved;
 255:../libDaisy/src/util/FIFO.h ****     }
 256:../libDaisy/src/util/FIFO.h **** 
 257:../libDaisy/src/util/FIFO.h ****     /** returns the element "idx" positions behind the first element */
 258:../libDaisy/src/util/FIFO.h ****     T& operator[](size_t idx)
 259:../libDaisy/src/util/FIFO.h ****     {
 260:../libDaisy/src/util/FIFO.h ****         if(idx >= GetNumElements())
 261:../libDaisy/src/util/FIFO.h ****             // invalid, but better not pass a temporary T() object as a reference...
 262:../libDaisy/src/util/FIFO.h ****             return buffer_[0];
 263:../libDaisy/src/util/FIFO.h **** 
 264:../libDaisy/src/util/FIFO.h ****         size_t index = bufferOut_ + idx;
 265:../libDaisy/src/util/FIFO.h ****         if(index >= bufferSize_)
 266:../libDaisy/src/util/FIFO.h ****             index -= bufferSize_;
 267:../libDaisy/src/util/FIFO.h ****         return buffer_[index];
 268:../libDaisy/src/util/FIFO.h ****     }
 269:../libDaisy/src/util/FIFO.h **** 
 270:../libDaisy/src/util/FIFO.h ****     /** returns the element "idx" positions behind the first element */
 271:../libDaisy/src/util/FIFO.h ****     const T& operator[](size_t idx) const
 272:../libDaisy/src/util/FIFO.h ****     {
 273:../libDaisy/src/util/FIFO.h ****         if(idx >= GetNumElements())
 274:../libDaisy/src/util/FIFO.h ****             // invalid, but better not pass a temporary T() object as a reference...
 275:../libDaisy/src/util/FIFO.h ****             return buffer_[0];
 276:../libDaisy/src/util/FIFO.h **** 
ARM GAS  /tmp/cc4Uqqbc.s 			page 17


 277:../libDaisy/src/util/FIFO.h ****         size_t index = bufferOut_ + idx;
 278:../libDaisy/src/util/FIFO.h ****         if(index >= bufferSize_)
 279:../libDaisy/src/util/FIFO.h ****             index -= bufferSize_;
 280:../libDaisy/src/util/FIFO.h ****         return buffer_[index];
 281:../libDaisy/src/util/FIFO.h ****     }
 282:../libDaisy/src/util/FIFO.h **** 
 283:../libDaisy/src/util/FIFO.h ****     /** returns the total capacity */
 284:../libDaisy/src/util/FIFO.h ****     size_t GetCapacity() const { return bufferSize_ - 1; }
 285:../libDaisy/src/util/FIFO.h **** 
 286:../libDaisy/src/util/FIFO.h ****   private:
 287:../libDaisy/src/util/FIFO.h ****     FIFOBase(const FIFOBase<T>&) {} // non copyable
 288:../libDaisy/src/util/FIFO.h **** 
 289:../libDaisy/src/util/FIFO.h ****   private:
 290:../libDaisy/src/util/FIFO.h ****     T*           buffer_;
 291:../libDaisy/src/util/FIFO.h ****     const size_t bufferSize_;
 292:../libDaisy/src/util/FIFO.h ****     size_t       bufferIn_;
 293:../libDaisy/src/util/FIFO.h ****     size_t       bufferOut_;
 294:../libDaisy/src/util/FIFO.h **** };
 295:../libDaisy/src/util/FIFO.h **** 
 296:../libDaisy/src/util/FIFO.h **** /** A simple FIFO ring buffer with a fixed size. */
 297:../libDaisy/src/util/FIFO.h **** template <typename T, size_t capacity>
 298:../libDaisy/src/util/FIFO.h **** class FIFO : public FIFOBase<T>
  92              		.loc 8 298 7 view .LVU12
  93              	.LBB544:
  94              	.LBI544:
  42:../libDaisy/src/util/FIFO.h **** 
  95              		.loc 8 42 5 view .LVU13
  42:../libDaisy/src/util/FIFO.h **** 
  96              		.loc 8 42 5 is_stmt 0 view .LVU14
  97              	.LBE544:
  98              	.LBE543:
  99              	.LBB545:
 100              	.LBI545:
 101              		.file 9 "../libDaisy/src/hid/midi_parser.h"
   1:../libDaisy/src/hid/midi_parser.h **** #pragma once
   2:../libDaisy/src/hid/midi_parser.h **** #ifndef DSY_MIDI_PARSER_H
   3:../libDaisy/src/hid/midi_parser.h **** #define DSY_MIDI_PARSER_H
   4:../libDaisy/src/hid/midi_parser.h **** 
   5:../libDaisy/src/hid/midi_parser.h **** #include <stdint.h>
   6:../libDaisy/src/hid/midi_parser.h **** #include <stdlib.h>
   7:../libDaisy/src/hid/midi_parser.h **** #include "hid/MidiEvent.h"
   8:../libDaisy/src/hid/midi_parser.h **** 
   9:../libDaisy/src/hid/midi_parser.h **** namespace daisy
  10:../libDaisy/src/hid/midi_parser.h **** {
  11:../libDaisy/src/hid/midi_parser.h **** /** @brief   Utility class for parsing raw byte streams into MIDI messages
  12:../libDaisy/src/hid/midi_parser.h ****  *  @details Implemented as a state machine designed to parse one byte at a time
  13:../libDaisy/src/hid/midi_parser.h ****  *  @ingroup midi
  14:../libDaisy/src/hid/midi_parser.h ****  */
  15:../libDaisy/src/hid/midi_parser.h **** class MidiParser
  16:../libDaisy/src/hid/midi_parser.h **** {
  17:../libDaisy/src/hid/midi_parser.h ****   public:
  18:../libDaisy/src/hid/midi_parser.h ****     MidiParser(){};
  19:../libDaisy/src/hid/midi_parser.h ****     ~MidiParser() {}
 102              		.loc 9 19 5 is_stmt 1 view .LVU15
 103              		.loc 9 19 5 is_stmt 0 view .LVU16
 104              	.LBE545:
 105              	.LBB546:
ARM GAS  /tmp/cc4Uqqbc.s 			page 18


 106              	.LBI546:
  32:../libDaisy/src/hid/midi.h **** 
 107              		.loc 7 32 5 is_stmt 1 view .LVU17
  32:../libDaisy/src/hid/midi.h **** 
 108              		.loc 7 32 5 is_stmt 0 view .LVU18
 109              	.LBE546:
 110              	.LBE542:
 111              	.LBB547:
 112              	.LBI547:
 113              		.file 10 "../libDaisy/src/hid/encoder.h"
   1:../libDaisy/src/hid/encoder.h **** #pragma once
   2:../libDaisy/src/hid/encoder.h **** #ifndef DSY_ENCODER_H
   3:../libDaisy/src/hid/encoder.h **** #define DSY_ENCODER_H
   4:../libDaisy/src/hid/encoder.h **** #include "daisy_core.h"
   5:../libDaisy/src/hid/encoder.h **** #include "per/gpio.h"
   6:../libDaisy/src/hid/encoder.h **** #include "hid/switch.h"
   7:../libDaisy/src/hid/encoder.h **** 
   8:../libDaisy/src/hid/encoder.h **** namespace daisy
   9:../libDaisy/src/hid/encoder.h **** {
  10:../libDaisy/src/hid/encoder.h **** /** 
  11:../libDaisy/src/hid/encoder.h ****     @brief Generic Class for handling Quadrature Encoders \n 
  12:../libDaisy/src/hid/encoder.h ****     Inspired/influenced by Mutable Instruments (pichenettes) Encoder classes
  13:../libDaisy/src/hid/encoder.h ****     @author Stephen Hensley
  14:../libDaisy/src/hid/encoder.h ****     @date December 2019
  15:../libDaisy/src/hid/encoder.h ****     @ingroup controls
  16:../libDaisy/src/hid/encoder.h **** */
  17:../libDaisy/src/hid/encoder.h **** class Encoder
  18:../libDaisy/src/hid/encoder.h **** {
  19:../libDaisy/src/hid/encoder.h ****   public:
  20:../libDaisy/src/hid/encoder.h ****     Encoder() {}
  21:../libDaisy/src/hid/encoder.h ****     ~Encoder() {}
 114              		.loc 10 21 5 is_stmt 1 view .LVU19
 115              	.LBB548:
 116              	.LBI548:
 117              		.file 11 "../libDaisy/src/hid/switch.h"
   1:../libDaisy/src/hid/switch.h **** #pragma once
   2:../libDaisy/src/hid/switch.h **** #ifndef DSY_SWITCH_H
   3:../libDaisy/src/hid/switch.h **** #define DSY_SWITCH_H
   4:../libDaisy/src/hid/switch.h **** #include "daisy_core.h"
   5:../libDaisy/src/hid/switch.h **** #include "per/gpio.h"
   6:../libDaisy/src/hid/switch.h **** #include "sys/system.h"
   7:../libDaisy/src/hid/switch.h **** 
   8:../libDaisy/src/hid/switch.h **** namespace daisy
   9:../libDaisy/src/hid/switch.h **** {
  10:../libDaisy/src/hid/switch.h **** /** 
  11:../libDaisy/src/hid/switch.h ****     Generic Class for handling momentary/latching switches \n 
  12:../libDaisy/src/hid/switch.h ****     Inspired/influenced by Mutable Instruments (pichenettes) Switch classes
  13:../libDaisy/src/hid/switch.h ****     @author Stephen Hensley
  14:../libDaisy/src/hid/switch.h ****     @date December 2019
  15:../libDaisy/src/hid/switch.h ****     @ingroup controls
  16:../libDaisy/src/hid/switch.h **** */
  17:../libDaisy/src/hid/switch.h **** class Switch
  18:../libDaisy/src/hid/switch.h **** {
  19:../libDaisy/src/hid/switch.h ****   public:
  20:../libDaisy/src/hid/switch.h ****     /** Specifies the expected behavior of the switch */
  21:../libDaisy/src/hid/switch.h ****     enum Type
  22:../libDaisy/src/hid/switch.h ****     {
ARM GAS  /tmp/cc4Uqqbc.s 			page 19


  23:../libDaisy/src/hid/switch.h ****         TYPE_TOGGLE,    /**< & */
  24:../libDaisy/src/hid/switch.h ****         TYPE_MOMENTARY, /**< & */
  25:../libDaisy/src/hid/switch.h ****     };
  26:../libDaisy/src/hid/switch.h ****     /** Specifies whether the pressed is HIGH or LOW. */
  27:../libDaisy/src/hid/switch.h ****     enum Polarity
  28:../libDaisy/src/hid/switch.h ****     {
  29:../libDaisy/src/hid/switch.h ****         POLARITY_NORMAL,   /**< & */
  30:../libDaisy/src/hid/switch.h ****         POLARITY_INVERTED, /**< & */
  31:../libDaisy/src/hid/switch.h ****     };
  32:../libDaisy/src/hid/switch.h **** 
  33:../libDaisy/src/hid/switch.h ****     /** Specifies whether to use built-in Pull Up/Down resistors to hold button at a given state wh
  34:../libDaisy/src/hid/switch.h ****     enum Pull
  35:../libDaisy/src/hid/switch.h ****     {
  36:../libDaisy/src/hid/switch.h ****         PULL_UP,   /**< & */
  37:../libDaisy/src/hid/switch.h ****         PULL_DOWN, /**< & */
  38:../libDaisy/src/hid/switch.h ****         PULL_NONE, /**< & */
  39:../libDaisy/src/hid/switch.h ****     };
  40:../libDaisy/src/hid/switch.h **** 
  41:../libDaisy/src/hid/switch.h ****     Switch() {}
  42:../libDaisy/src/hid/switch.h ****     ~Switch() {}
 118              		.loc 11 42 5 view .LVU20
 119              		.loc 11 42 5 is_stmt 0 view .LVU21
 120              	.LBE548:
 121              	.LBE547:
 122              	.LBB549:
 123              	.LBI549:
 124              		.file 12 "../libDaisy/src/daisy_seed.h"
   1:../libDaisy/src/daisy_seed.h **** #pragma once
   2:../libDaisy/src/daisy_seed.h **** #ifndef DSY_SEED_H
   3:../libDaisy/src/daisy_seed.h **** #define DSY_SEED_H
   4:../libDaisy/src/daisy_seed.h **** 
   5:../libDaisy/src/daisy_seed.h **** #include "daisy.h"
   6:../libDaisy/src/daisy_seed.h **** 
   7:../libDaisy/src/daisy_seed.h **** //Uncomment this out if you're still using the rev2 hardware
   8:../libDaisy/src/daisy_seed.h **** //#define SEED_REV2
   9:../libDaisy/src/daisy_seed.h **** 
  10:../libDaisy/src/daisy_seed.h **** namespace daisy
  11:../libDaisy/src/daisy_seed.h **** {
  12:../libDaisy/src/daisy_seed.h **** /**
  13:../libDaisy/src/daisy_seed.h ****    @brief This is the higher-level interface for the Daisy board. \n 
  14:../libDaisy/src/daisy_seed.h ****     All basic peripheral configuration/initialization is setup here. \n
  15:../libDaisy/src/daisy_seed.h **** 
  16:../libDaisy/src/daisy_seed.h ****    @ingroup boards
  17:../libDaisy/src/daisy_seed.h **** */
  18:../libDaisy/src/daisy_seed.h **** class DaisySeed
  19:../libDaisy/src/daisy_seed.h **** {
  20:../libDaisy/src/daisy_seed.h ****   public:
  21:../libDaisy/src/daisy_seed.h ****     DaisySeed() {}
  22:../libDaisy/src/daisy_seed.h ****     ~DaisySeed() {}
 125              		.loc 12 22 5 is_stmt 1 view .LVU22
 126              	.LBB550:
 127              	.LBI550:
 128              		.file 13 "../libDaisy/src/sys/system.h"
   1:../libDaisy/src/sys/system.h **** #ifndef DSY_SYSTEM_H
   2:../libDaisy/src/sys/system.h **** #define DSY_SYSTEM_H
   3:../libDaisy/src/sys/system.h **** 
   4:../libDaisy/src/sys/system.h **** #ifndef UNIT_TEST // for unit tests, a dummy implementation is provided below
ARM GAS  /tmp/cc4Uqqbc.s 			page 20


   5:../libDaisy/src/sys/system.h **** 
   6:../libDaisy/src/sys/system.h **** #include <cstdint>
   7:../libDaisy/src/sys/system.h **** #include "per/tim.h"
   8:../libDaisy/src/sys/system.h **** 
   9:../libDaisy/src/sys/system.h **** namespace daisy
  10:../libDaisy/src/sys/system.h **** {
  11:../libDaisy/src/sys/system.h **** /** A handle for interacting with the Core System. 
  12:../libDaisy/src/sys/system.h ****  ** This includes the Clock tree, MPU, global DMA initialization,
  13:../libDaisy/src/sys/system.h ****  ** cache handling, and any other necessary global initiailzation
  14:../libDaisy/src/sys/system.h ****  **
  15:../libDaisy/src/sys/system.h ****  ** @author shensley
  16:../libDaisy/src/sys/system.h ****  ** @ingroup system
  17:../libDaisy/src/sys/system.h ****  */
  18:../libDaisy/src/sys/system.h **** class System
  19:../libDaisy/src/sys/system.h **** {
  20:../libDaisy/src/sys/system.h ****   public:
  21:../libDaisy/src/sys/system.h ****     /** Contains settings for initializing the System */
  22:../libDaisy/src/sys/system.h ****     struct Config
  23:../libDaisy/src/sys/system.h ****     {
  24:../libDaisy/src/sys/system.h ****         /** Specifies the system clock frequency that feeds APB/AHB clocks, etc. */
  25:../libDaisy/src/sys/system.h ****         enum class SysClkFreq
  26:../libDaisy/src/sys/system.h ****         {
  27:../libDaisy/src/sys/system.h ****             FREQ_400MHZ,
  28:../libDaisy/src/sys/system.h ****             FREQ_480MHZ,
  29:../libDaisy/src/sys/system.h ****         };
  30:../libDaisy/src/sys/system.h **** 
  31:../libDaisy/src/sys/system.h ****         /** Method to call on the struct to set to defaults
  32:../libDaisy/src/sys/system.h ****          ** CPU Freq set to 400MHz
  33:../libDaisy/src/sys/system.h ****          ** Cache Enabled 
  34:../libDaisy/src/sys/system.h ****          ** */
  35:../libDaisy/src/sys/system.h ****         void Defaults()
  36:../libDaisy/src/sys/system.h ****         {
  37:../libDaisy/src/sys/system.h ****             cpu_freq    = SysClkFreq::FREQ_400MHZ;
  38:../libDaisy/src/sys/system.h ****             use_dcache  = true;
  39:../libDaisy/src/sys/system.h ****             use_icache  = true;
  40:../libDaisy/src/sys/system.h ****             skip_clocks = false;
  41:../libDaisy/src/sys/system.h ****         }
  42:../libDaisy/src/sys/system.h **** 
  43:../libDaisy/src/sys/system.h ****         /** Method to call on the struct to set to boost mode:
  44:../libDaisy/src/sys/system.h ****          ** CPU Freq set to 480MHz
  45:../libDaisy/src/sys/system.h ****          ** Cache Enabled 
  46:../libDaisy/src/sys/system.h ****          ** */
  47:../libDaisy/src/sys/system.h ****         void Boost()
  48:../libDaisy/src/sys/system.h ****         {
  49:../libDaisy/src/sys/system.h ****             cpu_freq    = SysClkFreq::FREQ_480MHZ;
  50:../libDaisy/src/sys/system.h ****             use_dcache  = true;
  51:../libDaisy/src/sys/system.h ****             use_icache  = true;
  52:../libDaisy/src/sys/system.h ****             skip_clocks = false;
  53:../libDaisy/src/sys/system.h ****         }
  54:../libDaisy/src/sys/system.h **** 
  55:../libDaisy/src/sys/system.h ****         SysClkFreq cpu_freq;
  56:../libDaisy/src/sys/system.h ****         bool       use_dcache;
  57:../libDaisy/src/sys/system.h ****         bool       use_icache;
  58:../libDaisy/src/sys/system.h ****         bool       skip_clocks;
  59:../libDaisy/src/sys/system.h ****     };
  60:../libDaisy/src/sys/system.h **** 
  61:../libDaisy/src/sys/system.h ****     /** Describes the different regions of memory available to the Daisy
ARM GAS  /tmp/cc4Uqqbc.s 			page 21


  62:../libDaisy/src/sys/system.h ****      * 
  63:../libDaisy/src/sys/system.h ****      */
  64:../libDaisy/src/sys/system.h ****     enum MemoryRegion
  65:../libDaisy/src/sys/system.h ****     {
  66:../libDaisy/src/sys/system.h ****         INTERNAL_FLASH = 0,
  67:../libDaisy/src/sys/system.h ****         ITCMRAM,
  68:../libDaisy/src/sys/system.h ****         DTCMRAM,
  69:../libDaisy/src/sys/system.h ****         SRAM_D1,
  70:../libDaisy/src/sys/system.h ****         SRAM_D2,
  71:../libDaisy/src/sys/system.h ****         SRAM_D3,
  72:../libDaisy/src/sys/system.h ****         SDRAM,
  73:../libDaisy/src/sys/system.h ****         QSPI,
  74:../libDaisy/src/sys/system.h ****         INVALID_ADDRESS,
  75:../libDaisy/src/sys/system.h ****     };
  76:../libDaisy/src/sys/system.h **** 
  77:../libDaisy/src/sys/system.h ****     System() {}
  78:../libDaisy/src/sys/system.h ****     ~System() {}
 129              		.loc 13 78 5 view .LVU23
 130              		.loc 13 78 5 is_stmt 0 view .LVU24
 131              	.LBE550:
 132              	.LBB551:
 133              	.LBI551:
 134              		.file 14 "../libDaisy/src/hid/usb.h"
   1:../libDaisy/src/hid/usb.h **** #pragma once
   2:../libDaisy/src/hid/usb.h **** #ifndef DSY_HID_USB_H
   3:../libDaisy/src/hid/usb.h **** #define DSY_HID_USB_H
   4:../libDaisy/src/hid/usb.h **** #include <stdint.h>
   5:../libDaisy/src/hid/usb.h **** #include <stdlib.h>
   6:../libDaisy/src/hid/usb.h **** 
   7:../libDaisy/src/hid/usb.h **** namespace daisy
   8:../libDaisy/src/hid/usb.h **** /** @addtogroup human_interface
   9:../libDaisy/src/hid/usb.h ****     @{
  10:../libDaisy/src/hid/usb.h **** */
  11:../libDaisy/src/hid/usb.h **** 
  12:../libDaisy/src/hid/usb.h **** {
  13:../libDaisy/src/hid/usb.h **** /** 
  14:../libDaisy/src/hid/usb.h ****     @brief Interface for initializing and using the USB Peripherals on the daisy
  15:../libDaisy/src/hid/usb.h ****     @author Stephen Hensley
  16:../libDaisy/src/hid/usb.h ****     @date December 2019
  17:../libDaisy/src/hid/usb.h **** */
  18:../libDaisy/src/hid/usb.h **** class UsbHandle
  19:../libDaisy/src/hid/usb.h **** {
  20:../libDaisy/src/hid/usb.h ****   public:
  21:../libDaisy/src/hid/usb.h ****     /** Return values for USBHandle Functions */
  22:../libDaisy/src/hid/usb.h ****     enum class Result
  23:../libDaisy/src/hid/usb.h ****     {
  24:../libDaisy/src/hid/usb.h ****         OK,
  25:../libDaisy/src/hid/usb.h ****         ERR,
  26:../libDaisy/src/hid/usb.h ****     };
  27:../libDaisy/src/hid/usb.h **** 
  28:../libDaisy/src/hid/usb.h ****     /** Specified which of the two USB Peripherals to initialize. */
  29:../libDaisy/src/hid/usb.h ****     enum UsbPeriph
  30:../libDaisy/src/hid/usb.h ****     {
  31:../libDaisy/src/hid/usb.h ****         FS_INTERNAL, /**< Internal pin */
  32:../libDaisy/src/hid/usb.h ****         FS_EXTERNAL, /**< FS External D+ pin is Pin 38 (GPIO32). FS External D- pin is Pin 37 (GPIO
  33:../libDaisy/src/hid/usb.h ****         FS_BOTH,     /**< Both */
  34:../libDaisy/src/hid/usb.h ****     };
ARM GAS  /tmp/cc4Uqqbc.s 			page 22


  35:../libDaisy/src/hid/usb.h **** 
  36:../libDaisy/src/hid/usb.h **** 
  37:../libDaisy/src/hid/usb.h ****     /** Function called upon reception of a buffer */
  38:../libDaisy/src/hid/usb.h ****     typedef void (*ReceiveCallback)(uint8_t* buff, uint32_t* len);
  39:../libDaisy/src/hid/usb.h **** 
  40:../libDaisy/src/hid/usb.h ****     UsbHandle() {}
  41:../libDaisy/src/hid/usb.h **** 
  42:../libDaisy/src/hid/usb.h ****     ~UsbHandle() {}
 135              		.loc 14 42 5 is_stmt 1 view .LVU25
 136              		.loc 14 42 5 is_stmt 0 view .LVU26
 137              	.LBE551:
 138              	.LBB552:
 139              	.LBI552:
 140              		.file 15 "../libDaisy/src/per/adc.h"
   1:../libDaisy/src/per/adc.h **** #pragma once
   2:../libDaisy/src/per/adc.h **** #ifndef DSY_ADC_H
   3:../libDaisy/src/per/adc.h **** #define DSY_ADC_H /**< Macro */
   4:../libDaisy/src/per/adc.h **** #include <stdint.h>
   5:../libDaisy/src/per/adc.h **** #include <stdlib.h>
   6:../libDaisy/src/per/adc.h **** #include "daisy_core.h"
   7:../libDaisy/src/per/adc.h **** #include "per/gpio.h"
   8:../libDaisy/src/per/adc.h **** 
   9:../libDaisy/src/per/adc.h **** #define DSY_ADC_MAX_CHANNELS 16 /**< Maximum number of ADC channels */
  10:../libDaisy/src/per/adc.h **** 
  11:../libDaisy/src/per/adc.h **** namespace daisy
  12:../libDaisy/src/per/adc.h **** {
  13:../libDaisy/src/per/adc.h **** /** @addtogroup per_analog
  14:../libDaisy/src/per/adc.h ****     @{
  15:../libDaisy/src/per/adc.h **** */
  16:../libDaisy/src/per/adc.h **** 
  17:../libDaisy/src/per/adc.h **** /* While there may not be many configuration options here,
  18:../libDaisy/src/per/adc.h **** using a struct like this allows us to add more configuration
  19:../libDaisy/src/per/adc.h **** later without breaking existing functionality.
  20:../libDaisy/src/per/adc.h **** */
  21:../libDaisy/src/per/adc.h **** 
  22:../libDaisy/src/per/adc.h **** /** @brief   Configuration Structure for an ADC Channel 
  23:../libDaisy/src/per/adc.h ****  *  @details This can be used to configure a a single input, 
  24:../libDaisy/src/per/adc.h ****  *           or a multiplexed input, allowing up to 8 inputs on 
  25:../libDaisy/src/per/adc.h ****  *           one channel.
  26:../libDaisy/src/per/adc.h ****  *  @note    Sharing data lines to multiple muxes _is_ possible, but
  27:../libDaisy/src/per/adc.h ****  *           each channel sharing data lines must be set to the maximum
  28:../libDaisy/src/per/adc.h ****  *           number of channels, even if some multiplexers have fewer
  29:../libDaisy/src/per/adc.h ****  *           inputs connected.
  30:../libDaisy/src/per/adc.h **** */
  31:../libDaisy/src/per/adc.h **** struct AdcChannelConfig
  32:../libDaisy/src/per/adc.h **** {
  33:../libDaisy/src/per/adc.h ****     /** Which pin to use for multiplexing */
  34:../libDaisy/src/per/adc.h ****     enum MuxPin
  35:../libDaisy/src/per/adc.h ****     {
  36:../libDaisy/src/per/adc.h ****         MUX_SEL_0,    /**< & */
  37:../libDaisy/src/per/adc.h ****         MUX_SEL_1,    /**< & */
  38:../libDaisy/src/per/adc.h ****         MUX_SEL_2,    /**< & */
  39:../libDaisy/src/per/adc.h ****         MUX_SEL_LAST, /**< & */
  40:../libDaisy/src/per/adc.h ****     };
  41:../libDaisy/src/per/adc.h **** 
  42:../libDaisy/src/per/adc.h ****     /** \brief per channel conversion speed added to fixed time based on bitdepth, etc. */
  43:../libDaisy/src/per/adc.h ****     enum ConversionSpeed
ARM GAS  /tmp/cc4Uqqbc.s 			page 23


  44:../libDaisy/src/per/adc.h ****     {
  45:../libDaisy/src/per/adc.h ****         SPEED_1CYCLES_5,
  46:../libDaisy/src/per/adc.h ****         SPEED_2CYCLES_5,
  47:../libDaisy/src/per/adc.h ****         SPEED_8CYCLES_5,
  48:../libDaisy/src/per/adc.h ****         SPEED_16CYCLES_5,
  49:../libDaisy/src/per/adc.h ****         SPEED_32CYCLES_5,
  50:../libDaisy/src/per/adc.h ****         SPEED_64CYCLES_5,
  51:../libDaisy/src/per/adc.h ****         SPEED_387CYCLES_5,
  52:../libDaisy/src/per/adc.h ****         SPEED_810CYCLES_5,
  53:../libDaisy/src/per/adc.h ****     };
  54:../libDaisy/src/per/adc.h **** 
  55:../libDaisy/src/per/adc.h ****     /** Initializes a single ADC pin as an ADC. 
  56:../libDaisy/src/per/adc.h ****     \param pin Pin to init.
  57:../libDaisy/src/per/adc.h ****     \param speed conversion speed for this pin defaults to 8.5 cycles
  58:../libDaisy/src/per/adc.h ****      */
  59:../libDaisy/src/per/adc.h ****     void InitSingle(dsy_gpio_pin pin, ConversionSpeed speed = SPEED_8CYCLES_5);
  60:../libDaisy/src/per/adc.h **** 
  61:../libDaisy/src/per/adc.h ****     /** 
  62:../libDaisy/src/per/adc.h ****     Initializes a single ADC pin as a Multiplexed ADC.
  63:../libDaisy/src/per/adc.h ****     Requires a CD405X Multiplexer connected to the pin.
  64:../libDaisy/src/per/adc.h ****     You only need to supply the mux pins that are required,
  65:../libDaisy/src/per/adc.h ****     e.g. a 4052 mux would only require mux_0 and mux_1.
  66:../libDaisy/src/per/adc.h ****     Internal Callbacks handle the pin addressing.
  67:../libDaisy/src/per/adc.h ****     \param adc_pin &
  68:../libDaisy/src/per/adc.h ****     \param mux_channels must be 1-8
  69:../libDaisy/src/per/adc.h ****     \param mux_0 First mux pin
  70:../libDaisy/src/per/adc.h ****     \param mux_1 Second mux pin
  71:../libDaisy/src/per/adc.h ****     \param mux_2 Third mux pin
  72:../libDaisy/src/per/adc.h ****     \param speed conversion speed for this pin defaults to 8.5 cycles
  73:../libDaisy/src/per/adc.h ****     */
  74:../libDaisy/src/per/adc.h ****     void InitMux(dsy_gpio_pin    adc_pin,
  75:../libDaisy/src/per/adc.h ****                  size_t          mux_channels,
  76:../libDaisy/src/per/adc.h ****                  dsy_gpio_pin    mux_0,
  77:../libDaisy/src/per/adc.h ****                  dsy_gpio_pin    mux_1 = {DSY_GPIOX, 0},
  78:../libDaisy/src/per/adc.h ****                  dsy_gpio_pin    mux_2 = {DSY_GPIOX, 0},
  79:../libDaisy/src/per/adc.h ****                  ConversionSpeed speed = SPEED_8CYCLES_5);
  80:../libDaisy/src/per/adc.h **** 
  81:../libDaisy/src/per/adc.h ****     dsy_gpio        pin_;                   /**< & */
  82:../libDaisy/src/per/adc.h ****     dsy_gpio        mux_pin_[MUX_SEL_LAST]; /**< & */
  83:../libDaisy/src/per/adc.h ****     uint8_t         mux_channels_;          /**< & */
  84:../libDaisy/src/per/adc.h ****     ConversionSpeed speed_;
  85:../libDaisy/src/per/adc.h **** };
  86:../libDaisy/src/per/adc.h **** 
  87:../libDaisy/src/per/adc.h **** /**
  88:../libDaisy/src/per/adc.h ****    @brief Handler for analog to digital conversion
  89:../libDaisy/src/per/adc.h **** */
  90:../libDaisy/src/per/adc.h **** class AdcHandle
  91:../libDaisy/src/per/adc.h **** {
  92:../libDaisy/src/per/adc.h ****   public:
  93:../libDaisy/src/per/adc.h ****     /** Supported oversampling amounts */
  94:../libDaisy/src/per/adc.h ****     enum OverSampling
  95:../libDaisy/src/per/adc.h ****     {
  96:../libDaisy/src/per/adc.h ****         OVS_NONE, /**< & */
  97:../libDaisy/src/per/adc.h ****         OVS_4,    /**< & */
  98:../libDaisy/src/per/adc.h ****         OVS_8,    /**< & */
  99:../libDaisy/src/per/adc.h ****         OVS_16,   /**< & */
 100:../libDaisy/src/per/adc.h ****         OVS_32,   /**< & */
ARM GAS  /tmp/cc4Uqqbc.s 			page 24


 101:../libDaisy/src/per/adc.h ****         OVS_64,   /**< & */
 102:../libDaisy/src/per/adc.h ****         OVS_128,  /**< & */
 103:../libDaisy/src/per/adc.h ****         OVS_256,  /**< & */
 104:../libDaisy/src/per/adc.h ****         OVS_512,  /**< & */
 105:../libDaisy/src/per/adc.h ****         OVS_1024, /**< & */
 106:../libDaisy/src/per/adc.h ****         OVS_LAST, /**< & */
 107:../libDaisy/src/per/adc.h ****     };
 108:../libDaisy/src/per/adc.h **** 
 109:../libDaisy/src/per/adc.h ****     AdcHandle() {}
 110:../libDaisy/src/per/adc.h ****     ~AdcHandle() {}
 141              		.loc 15 110 5 is_stmt 1 view .LVU27
 142              		.loc 15 110 5 is_stmt 0 view .LVU28
 143              	.LBE552:
 144              	.LBB553:
 145              	.LBI553:
 146              		.file 16 "../libDaisy/src/hid/audio.h"
   1:../libDaisy/src/hid/audio.h **** #ifndef DSY_AUDIO_H
   2:../libDaisy/src/hid/audio.h **** #define DSY_AUDIO_H /**< & */
   3:../libDaisy/src/hid/audio.h **** 
   4:../libDaisy/src/hid/audio.h **** #include "per/sai.h"
   5:../libDaisy/src/hid/audio.h **** 
   6:../libDaisy/src/hid/audio.h **** namespace daisy
   7:../libDaisy/src/hid/audio.h **** {
   8:../libDaisy/src/hid/audio.h **** /** @brief Audio Engine Handle
   9:../libDaisy/src/hid/audio.h ****  *  @ingroup audio 
  10:../libDaisy/src/hid/audio.h ****  *  @details This class allows for higher level access to an audio engine.
  11:../libDaisy/src/hid/audio.h ****  *           If you're using a SOM like the DaisySeed or DaisyPatchSM (or any 
  12:../libDaisy/src/hid/audio.h ****  *            board that includes one of those objects) then the intialization
  13:../libDaisy/src/hid/audio.h ****  *            is already taken  care of.
  14:../libDaisy/src/hid/audio.h ****  *           If you're setting up your own custom hardware, or need to make changes
  15:../libDaisy/src/hid/audio.h ****  *           you will have to take the following steps:
  16:../libDaisy/src/hid/audio.h ****  *             1. Create and Initialize an SaiHandle or two depending on your requirements
  17:../libDaisy/src/hid/audio.h ****  *             2. Initialize the Audio Handle with the desired settings and the Initialized SaiHand
  18:../libDaisy/src/hid/audio.h ****  *             3. If the connected codec requires special configuration or initialization, do so
  19:../libDaisy/src/hid/audio.h ****  *             4. Write a callback method using either the AudioCallback or the InterleavingAudioCa
  20:../libDaisy/src/hid/audio.h ****  *             5. Start the Audio using one of the StartAudio function
  21:../libDaisy/src/hid/audio.h ****  */
  22:../libDaisy/src/hid/audio.h **** class AudioHandle
  23:../libDaisy/src/hid/audio.h **** {
  24:../libDaisy/src/hid/audio.h ****   public:
  25:../libDaisy/src/hid/audio.h ****     /** Manually configurable details about the Audio Engine */
  26:../libDaisy/src/hid/audio.h ****     /** TODO: Figure out how to get samplerate in here. */
  27:../libDaisy/src/hid/audio.h ****     struct Config
  28:../libDaisy/src/hid/audio.h ****     {
  29:../libDaisy/src/hid/audio.h ****         /** number of samples to process per callback */
  30:../libDaisy/src/hid/audio.h ****         size_t blocksize;
  31:../libDaisy/src/hid/audio.h **** 
  32:../libDaisy/src/hid/audio.h ****         /**< Sample rate of audio */
  33:../libDaisy/src/hid/audio.h ****         SaiHandle::Config::SampleRate samplerate;
  34:../libDaisy/src/hid/audio.h **** 
  35:../libDaisy/src/hid/audio.h ****         /** factor for adjustment before and after callback for hardware that may have extra headro
  36:../libDaisy/src/hid/audio.h ****         float postgain;
  37:../libDaisy/src/hid/audio.h **** 
  38:../libDaisy/src/hid/audio.h ****         /** factor for additional one-sided compensation to audio path for hardware that may
  39:../libDaisy/src/hid/audio.h ****          *  have unequal input/output ranges
  40:../libDaisy/src/hid/audio.h ****          */
  41:../libDaisy/src/hid/audio.h ****         float output_compensation;
ARM GAS  /tmp/cc4Uqqbc.s 			page 25


  42:../libDaisy/src/hid/audio.h **** 
  43:../libDaisy/src/hid/audio.h ****         /** Sets default values for config struct */
  44:../libDaisy/src/hid/audio.h ****         Config()
  45:../libDaisy/src/hid/audio.h ****         : blocksize(48),
  46:../libDaisy/src/hid/audio.h ****           samplerate(SaiHandle::Config::SampleRate::SAI_48KHZ),
  47:../libDaisy/src/hid/audio.h ****           postgain(1.f),
  48:../libDaisy/src/hid/audio.h ****           output_compensation(1.f)
  49:../libDaisy/src/hid/audio.h ****         {
  50:../libDaisy/src/hid/audio.h ****         }
  51:../libDaisy/src/hid/audio.h ****     };
  52:../libDaisy/src/hid/audio.h **** 
  53:../libDaisy/src/hid/audio.h ****     enum class Result
  54:../libDaisy/src/hid/audio.h ****     {
  55:../libDaisy/src/hid/audio.h ****         OK,
  56:../libDaisy/src/hid/audio.h ****         ERR,
  57:../libDaisy/src/hid/audio.h ****     };
  58:../libDaisy/src/hid/audio.h **** 
  59:../libDaisy/src/hid/audio.h ****     /** Non-Interleaving input buffer
  60:../libDaisy/src/hid/audio.h ****      * Buffer arranged by float[chn][sample] 
  61:../libDaisy/src/hid/audio.h ****      * const so that the user can't modify the input
  62:../libDaisy/src/hid/audio.h ****      */
  63:../libDaisy/src/hid/audio.h ****     typedef const float* const* InputBuffer;
  64:../libDaisy/src/hid/audio.h **** 
  65:../libDaisy/src/hid/audio.h ****     /** Non-Interleaving output buffer
  66:../libDaisy/src/hid/audio.h ****      * Arranged by float[chn][sample] 
  67:../libDaisy/src/hid/audio.h ****      */
  68:../libDaisy/src/hid/audio.h ****     typedef float** OutputBuffer;
  69:../libDaisy/src/hid/audio.h **** 
  70:../libDaisy/src/hid/audio.h ****     /** Type for a Non-Interleaving audio callback 
  71:../libDaisy/src/hid/audio.h ****      * Non-Interleaving audio callbacks in daisy will be of this type
  72:../libDaisy/src/hid/audio.h ****      */
  73:../libDaisy/src/hid/audio.h ****     typedef void (*AudioCallback)(InputBuffer  in,
  74:../libDaisy/src/hid/audio.h ****                                   OutputBuffer out,
  75:../libDaisy/src/hid/audio.h ****                                   size_t       size);
  76:../libDaisy/src/hid/audio.h **** 
  77:../libDaisy/src/hid/audio.h ****     /** Interleaving Input buffer
  78:../libDaisy/src/hid/audio.h ****      ** audio is prepared as { L0, R0, L1, R1, . . . LN, RN }]
  79:../libDaisy/src/hid/audio.h ****      ** this is const, as the user shouldn't modify it
  80:../libDaisy/src/hid/audio.h ****     */
  81:../libDaisy/src/hid/audio.h ****     typedef const float* InterleavingInputBuffer;
  82:../libDaisy/src/hid/audio.h **** 
  83:../libDaisy/src/hid/audio.h ****     /** Interleaving Output buffer 
  84:../libDaisy/src/hid/audio.h ****      ** audio is prepared as { L0, R0, L1, R1, . . . LN, RN }
  85:../libDaisy/src/hid/audio.h ****     */
  86:../libDaisy/src/hid/audio.h ****     typedef float* InterleavingOutputBuffer;
  87:../libDaisy/src/hid/audio.h **** 
  88:../libDaisy/src/hid/audio.h ****     /** Interleaving Audio Callback 
  89:../libDaisy/src/hid/audio.h ****      * Interleaving audio callbacks in daisy must be of this type
  90:../libDaisy/src/hid/audio.h ****      */
  91:../libDaisy/src/hid/audio.h ****     typedef void (*InterleavingAudioCallback)(InterleavingInputBuffer  in,
  92:../libDaisy/src/hid/audio.h ****                                               InterleavingOutputBuffer out,
  93:../libDaisy/src/hid/audio.h ****                                               size_t                   size);
  94:../libDaisy/src/hid/audio.h **** 
  95:../libDaisy/src/hid/audio.h ****     AudioHandle() : pimpl_(nullptr) {}
  96:../libDaisy/src/hid/audio.h ****     ~AudioHandle() {}
 147              		.loc 16 96 5 is_stmt 1 view .LVU29
 148              		.loc 16 96 5 is_stmt 0 view .LVU30
ARM GAS  /tmp/cc4Uqqbc.s 			page 26


 149              	.LBE553:
 150              	.LBE549:
 151              		.loc 3 25 19 view .LVU31
 152 0000 7047     		bx	lr
 153              		.cfi_endproc
 154              	.LFE4858:
 156              		.weak	_ZN4kxmx9BluemchenD1Ev
 157              		.thumb_set _ZN4kxmx9BluemchenD1Ev,_ZN4kxmx9BluemchenD2Ev
 158              		.section	.text._ZN5daisy11OledDisplayINS_13SSD130xDriverILj64ELj32ENS_19SSD130xI2CTransportEEEED2E
 159              		.align	1
 160              		.weak	_ZN5daisy11OledDisplayINS_13SSD130xDriverILj64ELj32ENS_19SSD130xI2CTransportEEEED2Ev
 161              		.syntax unified
 162              		.thumb
 163              		.thumb_func
 164              		.fpu fpv5-d16
 166              	_ZN5daisy11OledDisplayINS_13SSD130xDriverILj64ELj32ENS_19SSD130xI2CTransportEEEED2Ev:
 167              	.LVL2:
 168              	.LFB5795:
 169              		.loc 4 18 13 is_stmt 1 view -0
 170              		.cfi_startproc
 171              		@ args = 0, pretend = 0, frame = 0
 172              		@ frame_needed = 0, uses_anonymous_args = 0
 173              		@ link register save eliminated.
 174              	.LBB554:
 175              	.LBI554:
 176              		.loc 5 219 13 view .LVU33
 177              	.LBB555:
 178              	.LBI555:
  23:../libDaisy/src/hid/disp/display.h **** 
 179              		.loc 5 23 13 view .LVU34
  23:../libDaisy/src/hid/disp/display.h **** 
 180              		.loc 5 23 13 is_stmt 0 view .LVU35
 181              	.LBE555:
 182              	.LBE554:
 183              		.loc 4 18 29 view .LVU36
 184 0000 7047     		bx	lr
 185              		.cfi_endproc
 186              	.LFE5795:
 188              		.weak	_ZN5daisy11OledDisplayINS_13SSD130xDriverILj64ELj32ENS_19SSD130xI2CTransportEEEED1Ev
 189              		.thumb_set _ZN5daisy11OledDisplayINS_13SSD130xDriverILj64ELj32ENS_19SSD130xI2CTransportEEEED1Ev,_Z
 190              		.section	.text._ZN5daisy11OledDisplayINS_13SSD130xDriverILj64ELj32ENS_19SSD130xI2CTransportEEEE4Fi
 191              		.align	1
 192              		.weak	_ZN5daisy11OledDisplayINS_13SSD130xDriverILj64ELj32ENS_19SSD130xI2CTransportEEEE4FillEb
 193              		.syntax unified
 194              		.thumb
 195              		.thumb_func
 196              		.fpu fpv5-d16
 198              	_ZN5daisy11OledDisplayINS_13SSD130xDriverILj64ELj32ENS_19SSD130xI2CTransportEEEE4FillEb:
 199              	.LVL3:
 200              	.LFB5818:
  19:../libDaisy/src/hid/disp/oled_display.h **** 
  20:../libDaisy/src/hid/disp/oled_display.h ****     struct Config
  21:../libDaisy/src/hid/disp/oled_display.h ****     {
  22:../libDaisy/src/hid/disp/oled_display.h ****         typename DisplayDriver::Config driver_config;
  23:../libDaisy/src/hid/disp/oled_display.h ****     };
  24:../libDaisy/src/hid/disp/oled_display.h **** 
  25:../libDaisy/src/hid/disp/oled_display.h ****     void Init(Config config) { driver_.Init(config.driver_config); }
ARM GAS  /tmp/cc4Uqqbc.s 			page 27


  26:../libDaisy/src/hid/disp/oled_display.h **** 
  27:../libDaisy/src/hid/disp/oled_display.h ****     uint16_t Height() const override { return driver_.Height(); }
  28:../libDaisy/src/hid/disp/oled_display.h ****     uint16_t Width() const override { return driver_.Width(); }
  29:../libDaisy/src/hid/disp/oled_display.h **** 
  30:../libDaisy/src/hid/disp/oled_display.h ****     /** 
  31:../libDaisy/src/hid/disp/oled_display.h ****     Fills the entire display with either on/off.
  32:../libDaisy/src/hid/disp/oled_display.h ****     \param on Sets on or off.
  33:../libDaisy/src/hid/disp/oled_display.h ****     */
  34:../libDaisy/src/hid/disp/oled_display.h ****     void Fill(bool on) override { driver_.Fill(on); }
 201              		.loc 4 34 10 is_stmt 1 view -0
 202              		.cfi_startproc
 203              		@ args = 0, pretend = 0, frame = 0
 204              		@ frame_needed = 0, uses_anonymous_args = 0
 205              		@ link register save eliminated.
 206              	.LBB559:
 207              	.LBI559:
 208              		.file 17 "../libDaisy/src/dev/oled_ssd130x.h"
   1:../libDaisy/src/dev/oled_ssd130x.h **** #pragma once
   2:../libDaisy/src/dev/oled_ssd130x.h **** #ifndef SA_OLED_SSD130X_H
   3:../libDaisy/src/dev/oled_ssd130x.h **** #define SA_OLED_SSD130X_H /**< & */
   4:../libDaisy/src/dev/oled_ssd130x.h **** 
   5:../libDaisy/src/dev/oled_ssd130x.h **** #include "per/i2c.h"
   6:../libDaisy/src/dev/oled_ssd130x.h **** #include "per/spi.h"
   7:../libDaisy/src/dev/oled_ssd130x.h **** #include "per/gpio.h"
   8:../libDaisy/src/dev/oled_ssd130x.h **** #include "sys/system.h"
   9:../libDaisy/src/dev/oled_ssd130x.h **** 
  10:../libDaisy/src/dev/oled_ssd130x.h **** namespace daisy
  11:../libDaisy/src/dev/oled_ssd130x.h **** {
  12:../libDaisy/src/dev/oled_ssd130x.h **** /**
  13:../libDaisy/src/dev/oled_ssd130x.h ****  * I2C Transport for SSD1306 / SSD1309 OLED display devices
  14:../libDaisy/src/dev/oled_ssd130x.h ****  */
  15:../libDaisy/src/dev/oled_ssd130x.h **** class SSD130xI2CTransport
  16:../libDaisy/src/dev/oled_ssd130x.h **** {
  17:../libDaisy/src/dev/oled_ssd130x.h ****   public:
  18:../libDaisy/src/dev/oled_ssd130x.h ****     struct Config
  19:../libDaisy/src/dev/oled_ssd130x.h ****     {
  20:../libDaisy/src/dev/oled_ssd130x.h ****         Config()
  21:../libDaisy/src/dev/oled_ssd130x.h ****         {
  22:../libDaisy/src/dev/oled_ssd130x.h ****             // Intialize using defaults
  23:../libDaisy/src/dev/oled_ssd130x.h ****             Defaults();
  24:../libDaisy/src/dev/oled_ssd130x.h ****         }
  25:../libDaisy/src/dev/oled_ssd130x.h ****         I2CHandle::Config i2c_config;
  26:../libDaisy/src/dev/oled_ssd130x.h ****         uint8_t           i2c_address;
  27:../libDaisy/src/dev/oled_ssd130x.h ****         void              Defaults()
  28:../libDaisy/src/dev/oled_ssd130x.h ****         {
  29:../libDaisy/src/dev/oled_ssd130x.h ****             i2c_config.periph         = I2CHandle::Config::Peripheral::I2C_1;
  30:../libDaisy/src/dev/oled_ssd130x.h ****             i2c_config.speed          = I2CHandle::Config::Speed::I2C_1MHZ;
  31:../libDaisy/src/dev/oled_ssd130x.h ****             i2c_config.mode           = I2CHandle::Config::Mode::I2C_MASTER;
  32:../libDaisy/src/dev/oled_ssd130x.h ****             i2c_config.pin_config.scl = {DSY_GPIOB, 8};
  33:../libDaisy/src/dev/oled_ssd130x.h ****             i2c_config.pin_config.sda = {DSY_GPIOB, 9};
  34:../libDaisy/src/dev/oled_ssd130x.h ****             i2c_address               = 0x3C;
  35:../libDaisy/src/dev/oled_ssd130x.h ****         }
  36:../libDaisy/src/dev/oled_ssd130x.h ****     };
  37:../libDaisy/src/dev/oled_ssd130x.h ****     void Init(const Config& config)
  38:../libDaisy/src/dev/oled_ssd130x.h ****     {
  39:../libDaisy/src/dev/oled_ssd130x.h ****         i2c_address_ = config.i2c_address;
  40:../libDaisy/src/dev/oled_ssd130x.h ****         i2c_.Init(config.i2c_config);
ARM GAS  /tmp/cc4Uqqbc.s 			page 28


  41:../libDaisy/src/dev/oled_ssd130x.h ****     };
  42:../libDaisy/src/dev/oled_ssd130x.h ****     void SendCommand(uint8_t cmd)
  43:../libDaisy/src/dev/oled_ssd130x.h ****     {
  44:../libDaisy/src/dev/oled_ssd130x.h ****         uint8_t buf[2] = {0X00, cmd};
  45:../libDaisy/src/dev/oled_ssd130x.h ****         i2c_.TransmitBlocking(i2c_address_, buf, 2, 1000);
  46:../libDaisy/src/dev/oled_ssd130x.h ****     };
  47:../libDaisy/src/dev/oled_ssd130x.h **** 
  48:../libDaisy/src/dev/oled_ssd130x.h ****     void SendData(uint8_t* buff, size_t size)
  49:../libDaisy/src/dev/oled_ssd130x.h ****     {
  50:../libDaisy/src/dev/oled_ssd130x.h ****         for(size_t i = 0; i < size; i++)
  51:../libDaisy/src/dev/oled_ssd130x.h ****         {
  52:../libDaisy/src/dev/oled_ssd130x.h ****             uint8_t buf[2] = {0X40, buff[i]};
  53:../libDaisy/src/dev/oled_ssd130x.h ****             i2c_.TransmitBlocking(i2c_address_, buf, 2, 1000);
  54:../libDaisy/src/dev/oled_ssd130x.h ****         }
  55:../libDaisy/src/dev/oled_ssd130x.h ****     };
  56:../libDaisy/src/dev/oled_ssd130x.h **** 
  57:../libDaisy/src/dev/oled_ssd130x.h ****   private:
  58:../libDaisy/src/dev/oled_ssd130x.h ****     daisy::I2CHandle i2c_;
  59:../libDaisy/src/dev/oled_ssd130x.h ****     uint8_t          i2c_address_;
  60:../libDaisy/src/dev/oled_ssd130x.h **** };
  61:../libDaisy/src/dev/oled_ssd130x.h **** 
  62:../libDaisy/src/dev/oled_ssd130x.h **** /**
  63:../libDaisy/src/dev/oled_ssd130x.h ****  * 4 Wire SPI Transport for SSD1306 / SSD1309 OLED display devices
  64:../libDaisy/src/dev/oled_ssd130x.h ****  */
  65:../libDaisy/src/dev/oled_ssd130x.h **** class SSD130x4WireSpiTransport
  66:../libDaisy/src/dev/oled_ssd130x.h **** {
  67:../libDaisy/src/dev/oled_ssd130x.h ****   public:
  68:../libDaisy/src/dev/oled_ssd130x.h ****     struct Config
  69:../libDaisy/src/dev/oled_ssd130x.h ****     {
  70:../libDaisy/src/dev/oled_ssd130x.h ****         Config()
  71:../libDaisy/src/dev/oled_ssd130x.h ****         {
  72:../libDaisy/src/dev/oled_ssd130x.h ****             // Initialize using defaults
  73:../libDaisy/src/dev/oled_ssd130x.h ****             Defaults();
  74:../libDaisy/src/dev/oled_ssd130x.h ****         }
  75:../libDaisy/src/dev/oled_ssd130x.h ****         SpiHandle::Config spi_config;
  76:../libDaisy/src/dev/oled_ssd130x.h ****         struct
  77:../libDaisy/src/dev/oled_ssd130x.h ****         {
  78:../libDaisy/src/dev/oled_ssd130x.h ****             dsy_gpio_pin dc;    /**< & */
  79:../libDaisy/src/dev/oled_ssd130x.h ****             dsy_gpio_pin reset; /**< & */
  80:../libDaisy/src/dev/oled_ssd130x.h ****         } pin_config;
  81:../libDaisy/src/dev/oled_ssd130x.h ****         void Defaults()
  82:../libDaisy/src/dev/oled_ssd130x.h ****         {
  83:../libDaisy/src/dev/oled_ssd130x.h ****             // SPI peripheral config
  84:../libDaisy/src/dev/oled_ssd130x.h ****             spi_config.periph = SpiHandle::Config::Peripheral::SPI_1;
  85:../libDaisy/src/dev/oled_ssd130x.h ****             spi_config.mode   = SpiHandle::Config::Mode::MASTER;
  86:../libDaisy/src/dev/oled_ssd130x.h ****             spi_config.direction
  87:../libDaisy/src/dev/oled_ssd130x.h ****                 = SpiHandle::Config::Direction::TWO_LINES_TX_ONLY;
  88:../libDaisy/src/dev/oled_ssd130x.h ****             spi_config.datasize       = 8;
  89:../libDaisy/src/dev/oled_ssd130x.h ****             spi_config.clock_polarity = SpiHandle::Config::ClockPolarity::LOW;
  90:../libDaisy/src/dev/oled_ssd130x.h ****             spi_config.clock_phase    = SpiHandle::Config::ClockPhase::ONE_EDGE;
  91:../libDaisy/src/dev/oled_ssd130x.h ****             spi_config.nss            = SpiHandle::Config::NSS::HARD_OUTPUT;
  92:../libDaisy/src/dev/oled_ssd130x.h ****             spi_config.baud_prescaler = SpiHandle::Config::BaudPrescaler::PS_8;
  93:../libDaisy/src/dev/oled_ssd130x.h ****             // SPI pin config
  94:../libDaisy/src/dev/oled_ssd130x.h ****             spi_config.pin_config.sclk = {DSY_GPIOG, 11};
  95:../libDaisy/src/dev/oled_ssd130x.h ****             spi_config.pin_config.miso = {DSY_GPIOX, 0};
  96:../libDaisy/src/dev/oled_ssd130x.h ****             spi_config.pin_config.mosi = {DSY_GPIOB, 5};
  97:../libDaisy/src/dev/oled_ssd130x.h ****             spi_config.pin_config.nss  = {DSY_GPIOG, 10};
ARM GAS  /tmp/cc4Uqqbc.s 			page 29


  98:../libDaisy/src/dev/oled_ssd130x.h ****             // SSD130x control pin config
  99:../libDaisy/src/dev/oled_ssd130x.h ****             pin_config.dc    = {DSY_GPIOB, 4};
 100:../libDaisy/src/dev/oled_ssd130x.h ****             pin_config.reset = {DSY_GPIOB, 15};
 101:../libDaisy/src/dev/oled_ssd130x.h ****         }
 102:../libDaisy/src/dev/oled_ssd130x.h ****     };
 103:../libDaisy/src/dev/oled_ssd130x.h ****     void Init(const Config& config)
 104:../libDaisy/src/dev/oled_ssd130x.h ****     {
 105:../libDaisy/src/dev/oled_ssd130x.h ****         // Initialize both GPIO
 106:../libDaisy/src/dev/oled_ssd130x.h ****         pin_dc_.mode = DSY_GPIO_MODE_OUTPUT_PP;
 107:../libDaisy/src/dev/oled_ssd130x.h ****         pin_dc_.pin  = config.pin_config.dc;
 108:../libDaisy/src/dev/oled_ssd130x.h ****         dsy_gpio_init(&pin_dc_);
 109:../libDaisy/src/dev/oled_ssd130x.h ****         pin_reset_.mode = DSY_GPIO_MODE_OUTPUT_PP;
 110:../libDaisy/src/dev/oled_ssd130x.h ****         pin_reset_.pin  = config.pin_config.reset;
 111:../libDaisy/src/dev/oled_ssd130x.h ****         dsy_gpio_init(&pin_reset_);
 112:../libDaisy/src/dev/oled_ssd130x.h **** 
 113:../libDaisy/src/dev/oled_ssd130x.h ****         // Initialize SPI
 114:../libDaisy/src/dev/oled_ssd130x.h ****         spi_.Init(config.spi_config);
 115:../libDaisy/src/dev/oled_ssd130x.h **** 
 116:../libDaisy/src/dev/oled_ssd130x.h ****         // Reset and Configure OLED.
 117:../libDaisy/src/dev/oled_ssd130x.h ****         dsy_gpio_write(&pin_reset_, 0);
 118:../libDaisy/src/dev/oled_ssd130x.h ****         System::Delay(10);
 119:../libDaisy/src/dev/oled_ssd130x.h ****         dsy_gpio_write(&pin_reset_, 1);
 120:../libDaisy/src/dev/oled_ssd130x.h ****         System::Delay(10);
 121:../libDaisy/src/dev/oled_ssd130x.h ****     };
 122:../libDaisy/src/dev/oled_ssd130x.h ****     void SendCommand(uint8_t cmd)
 123:../libDaisy/src/dev/oled_ssd130x.h ****     {
 124:../libDaisy/src/dev/oled_ssd130x.h ****         dsy_gpio_write(&pin_dc_, 0);
 125:../libDaisy/src/dev/oled_ssd130x.h ****         spi_.BlockingTransmit(&cmd, 1);
 126:../libDaisy/src/dev/oled_ssd130x.h ****     };
 127:../libDaisy/src/dev/oled_ssd130x.h **** 
 128:../libDaisy/src/dev/oled_ssd130x.h ****     void SendData(uint8_t* buff, size_t size)
 129:../libDaisy/src/dev/oled_ssd130x.h ****     {
 130:../libDaisy/src/dev/oled_ssd130x.h ****         dsy_gpio_write(&pin_dc_, 1);
 131:../libDaisy/src/dev/oled_ssd130x.h ****         spi_.BlockingTransmit(buff, size);
 132:../libDaisy/src/dev/oled_ssd130x.h ****     };
 133:../libDaisy/src/dev/oled_ssd130x.h **** 
 134:../libDaisy/src/dev/oled_ssd130x.h ****   private:
 135:../libDaisy/src/dev/oled_ssd130x.h ****     SpiHandle spi_;
 136:../libDaisy/src/dev/oled_ssd130x.h ****     dsy_gpio  pin_reset_;
 137:../libDaisy/src/dev/oled_ssd130x.h ****     dsy_gpio  pin_dc_;
 138:../libDaisy/src/dev/oled_ssd130x.h **** };
 139:../libDaisy/src/dev/oled_ssd130x.h **** 
 140:../libDaisy/src/dev/oled_ssd130x.h **** /**
 141:../libDaisy/src/dev/oled_ssd130x.h ****  * Soft SPI Transport for SSD1306 / SSD1309 OLED display devices
 142:../libDaisy/src/dev/oled_ssd130x.h ****  */
 143:../libDaisy/src/dev/oled_ssd130x.h **** class SSD130x4WireSoftSpiTransport
 144:../libDaisy/src/dev/oled_ssd130x.h **** {
 145:../libDaisy/src/dev/oled_ssd130x.h ****   public:
 146:../libDaisy/src/dev/oled_ssd130x.h ****     struct Config
 147:../libDaisy/src/dev/oled_ssd130x.h ****     {
 148:../libDaisy/src/dev/oled_ssd130x.h ****         Config()
 149:../libDaisy/src/dev/oled_ssd130x.h ****         {
 150:../libDaisy/src/dev/oled_ssd130x.h ****             // Initialize using defaults
 151:../libDaisy/src/dev/oled_ssd130x.h ****             Defaults();
 152:../libDaisy/src/dev/oled_ssd130x.h ****         }
 153:../libDaisy/src/dev/oled_ssd130x.h ****         struct
 154:../libDaisy/src/dev/oled_ssd130x.h ****         {
ARM GAS  /tmp/cc4Uqqbc.s 			page 30


 155:../libDaisy/src/dev/oled_ssd130x.h ****             uint32_t     sclk_delay;
 156:../libDaisy/src/dev/oled_ssd130x.h ****             dsy_gpio_pin sclk;
 157:../libDaisy/src/dev/oled_ssd130x.h ****             dsy_gpio_pin mosi;
 158:../libDaisy/src/dev/oled_ssd130x.h ****             dsy_gpio_pin dc;
 159:../libDaisy/src/dev/oled_ssd130x.h ****             dsy_gpio_pin reset;
 160:../libDaisy/src/dev/oled_ssd130x.h ****         } pin_config;
 161:../libDaisy/src/dev/oled_ssd130x.h ****         void Defaults()
 162:../libDaisy/src/dev/oled_ssd130x.h ****         {
 163:../libDaisy/src/dev/oled_ssd130x.h ****             pin_config.sclk_delay = 0; // fast as possible?!
 164:../libDaisy/src/dev/oled_ssd130x.h ****             // SPI peripheral config
 165:../libDaisy/src/dev/oled_ssd130x.h ****             pin_config.sclk = {DSY_GPIOD, 3}; /**< D10 - SPI2 SCK  */
 166:../libDaisy/src/dev/oled_ssd130x.h ****             pin_config.mosi = {DSY_GPIOC, 3}; /**< D9  - SPI2 MOSI */
 167:../libDaisy/src/dev/oled_ssd130x.h ****             // SSD130x control pin config
 168:../libDaisy/src/dev/oled_ssd130x.h ****             pin_config.dc    = {DSY_GPIOC, 11}; //D2
 169:../libDaisy/src/dev/oled_ssd130x.h ****             pin_config.reset = {DSY_GPIOC, 10}; //D3
 170:../libDaisy/src/dev/oled_ssd130x.h ****         }
 171:../libDaisy/src/dev/oled_ssd130x.h ****     };
 172:../libDaisy/src/dev/oled_ssd130x.h ****     void Init(const Config& config)
 173:../libDaisy/src/dev/oled_ssd130x.h ****     {
 174:../libDaisy/src/dev/oled_ssd130x.h ****         // Initialize both GPIO
 175:../libDaisy/src/dev/oled_ssd130x.h ****         pin_sclk_.mode = DSY_GPIO_MODE_OUTPUT_PP;
 176:../libDaisy/src/dev/oled_ssd130x.h ****         pin_sclk_.pin  = config.pin_config.sclk;
 177:../libDaisy/src/dev/oled_ssd130x.h ****         dsy_gpio_init(&pin_sclk_);
 178:../libDaisy/src/dev/oled_ssd130x.h ****         dsy_gpio_write(&pin_sclk_, 1); //ClockPolarity::LOW
 179:../libDaisy/src/dev/oled_ssd130x.h ****         clk_delay      = config.pin_config.sclk_delay;
 180:../libDaisy/src/dev/oled_ssd130x.h ****         pin_mosi_.mode = DSY_GPIO_MODE_OUTPUT_PP;
 181:../libDaisy/src/dev/oled_ssd130x.h ****         pin_mosi_.pin  = config.pin_config.mosi;
 182:../libDaisy/src/dev/oled_ssd130x.h ****         dsy_gpio_init(&pin_mosi_);
 183:../libDaisy/src/dev/oled_ssd130x.h ****         dsy_gpio_write(&pin_mosi_, 0);
 184:../libDaisy/src/dev/oled_ssd130x.h **** 
 185:../libDaisy/src/dev/oled_ssd130x.h ****         pin_dc_.mode = DSY_GPIO_MODE_OUTPUT_PP;
 186:../libDaisy/src/dev/oled_ssd130x.h ****         pin_dc_.pin  = config.pin_config.dc;
 187:../libDaisy/src/dev/oled_ssd130x.h ****         dsy_gpio_init(&pin_dc_);
 188:../libDaisy/src/dev/oled_ssd130x.h ****         pin_reset_.mode = DSY_GPIO_MODE_OUTPUT_PP;
 189:../libDaisy/src/dev/oled_ssd130x.h ****         pin_reset_.pin  = config.pin_config.reset;
 190:../libDaisy/src/dev/oled_ssd130x.h ****         dsy_gpio_init(&pin_reset_);
 191:../libDaisy/src/dev/oled_ssd130x.h **** 
 192:../libDaisy/src/dev/oled_ssd130x.h ****         // Reset and Configure OLED.
 193:../libDaisy/src/dev/oled_ssd130x.h ****         dsy_gpio_write(&pin_reset_, 0);
 194:../libDaisy/src/dev/oled_ssd130x.h ****         System::Delay(10);
 195:../libDaisy/src/dev/oled_ssd130x.h ****         dsy_gpio_write(&pin_reset_, 1);
 196:../libDaisy/src/dev/oled_ssd130x.h ****         System::Delay(10);
 197:../libDaisy/src/dev/oled_ssd130x.h ****     };
 198:../libDaisy/src/dev/oled_ssd130x.h ****     void SendCommand(uint8_t cmd)
 199:../libDaisy/src/dev/oled_ssd130x.h ****     {
 200:../libDaisy/src/dev/oled_ssd130x.h ****         dsy_gpio_write(&pin_dc_, 0);
 201:../libDaisy/src/dev/oled_ssd130x.h ****         SoftSpiTransmit(cmd);
 202:../libDaisy/src/dev/oled_ssd130x.h ****     };
 203:../libDaisy/src/dev/oled_ssd130x.h **** 
 204:../libDaisy/src/dev/oled_ssd130x.h ****     void SendData(uint8_t* buff, size_t size)
 205:../libDaisy/src/dev/oled_ssd130x.h ****     {
 206:../libDaisy/src/dev/oled_ssd130x.h ****         dsy_gpio_write(&pin_dc_, 1);
 207:../libDaisy/src/dev/oled_ssd130x.h ****         for(size_t i = 0; i < size; i++)
 208:../libDaisy/src/dev/oled_ssd130x.h ****             SoftSpiTransmit(buff[i]);
 209:../libDaisy/src/dev/oled_ssd130x.h ****     };
 210:../libDaisy/src/dev/oled_ssd130x.h **** 
 211:../libDaisy/src/dev/oled_ssd130x.h ****   private:
ARM GAS  /tmp/cc4Uqqbc.s 			page 31


 212:../libDaisy/src/dev/oled_ssd130x.h ****     void SoftSpiTransmit(uint8_t val)
 213:../libDaisy/src/dev/oled_ssd130x.h ****     {
 214:../libDaisy/src/dev/oled_ssd130x.h ****         // bit flip
 215:../libDaisy/src/dev/oled_ssd130x.h ****         val = ((val & 0x01) << 7) | ((val & 0x02) << 5) | ((val & 0x04) << 3)
 216:../libDaisy/src/dev/oled_ssd130x.h ****               | ((val & 0x08) << 1) | ((val & 0x10) >> 1) | ((val & 0x20) >> 3)
 217:../libDaisy/src/dev/oled_ssd130x.h ****               | ((val & 0x40) >> 5) | ((val & 0x80) >> 7);
 218:../libDaisy/src/dev/oled_ssd130x.h **** 
 219:../libDaisy/src/dev/oled_ssd130x.h ****         for(uint8_t bit = 0u; bit < 8u; bit++)
 220:../libDaisy/src/dev/oled_ssd130x.h ****         {
 221:../libDaisy/src/dev/oled_ssd130x.h ****             dsy_gpio_write(&pin_mosi_, ((val & (1 << bit)) ? 1 : 0));
 222:../libDaisy/src/dev/oled_ssd130x.h **** 
 223:../libDaisy/src/dev/oled_ssd130x.h ****             System::DelayTicks(clk_delay);
 224:../libDaisy/src/dev/oled_ssd130x.h **** 
 225:../libDaisy/src/dev/oled_ssd130x.h ****             dsy_gpio_toggle(&pin_sclk_);
 226:../libDaisy/src/dev/oled_ssd130x.h **** 
 227:../libDaisy/src/dev/oled_ssd130x.h ****             System::DelayTicks(clk_delay);
 228:../libDaisy/src/dev/oled_ssd130x.h **** 
 229:../libDaisy/src/dev/oled_ssd130x.h ****             dsy_gpio_toggle(&pin_sclk_);
 230:../libDaisy/src/dev/oled_ssd130x.h ****         }
 231:../libDaisy/src/dev/oled_ssd130x.h ****     }
 232:../libDaisy/src/dev/oled_ssd130x.h **** 
 233:../libDaisy/src/dev/oled_ssd130x.h ****     uint32_t clk_delay;
 234:../libDaisy/src/dev/oled_ssd130x.h ****     dsy_gpio pin_sclk_;
 235:../libDaisy/src/dev/oled_ssd130x.h ****     dsy_gpio pin_mosi_;
 236:../libDaisy/src/dev/oled_ssd130x.h ****     dsy_gpio pin_reset_;
 237:../libDaisy/src/dev/oled_ssd130x.h ****     dsy_gpio pin_dc_;
 238:../libDaisy/src/dev/oled_ssd130x.h **** };
 239:../libDaisy/src/dev/oled_ssd130x.h **** 
 240:../libDaisy/src/dev/oled_ssd130x.h **** 
 241:../libDaisy/src/dev/oled_ssd130x.h **** /**
 242:../libDaisy/src/dev/oled_ssd130x.h ****  * A driver implementation for the SSD1306/SSD1309
 243:../libDaisy/src/dev/oled_ssd130x.h ****  */
 244:../libDaisy/src/dev/oled_ssd130x.h **** template <size_t width, size_t height, typename Transport>
 245:../libDaisy/src/dev/oled_ssd130x.h **** class SSD130xDriver
 246:../libDaisy/src/dev/oled_ssd130x.h **** {
 247:../libDaisy/src/dev/oled_ssd130x.h ****   public:
 248:../libDaisy/src/dev/oled_ssd130x.h ****     struct Config
 249:../libDaisy/src/dev/oled_ssd130x.h ****     {
 250:../libDaisy/src/dev/oled_ssd130x.h ****         typename Transport::Config transport_config;
 251:../libDaisy/src/dev/oled_ssd130x.h ****     };
 252:../libDaisy/src/dev/oled_ssd130x.h **** 
 253:../libDaisy/src/dev/oled_ssd130x.h ****     void Init(Config config)
 254:../libDaisy/src/dev/oled_ssd130x.h ****     {
 255:../libDaisy/src/dev/oled_ssd130x.h ****         transport_.Init(config.transport_config);
 256:../libDaisy/src/dev/oled_ssd130x.h **** 
 257:../libDaisy/src/dev/oled_ssd130x.h ****         // Init routine...
 258:../libDaisy/src/dev/oled_ssd130x.h **** 
 259:../libDaisy/src/dev/oled_ssd130x.h ****         // Display Off
 260:../libDaisy/src/dev/oled_ssd130x.h ****         transport_.SendCommand(0xaE);
 261:../libDaisy/src/dev/oled_ssd130x.h ****         // Dimension dependent commands...
 262:../libDaisy/src/dev/oled_ssd130x.h ****         switch(height)
 263:../libDaisy/src/dev/oled_ssd130x.h ****         {
 264:../libDaisy/src/dev/oled_ssd130x.h ****             case 16:
 265:../libDaisy/src/dev/oled_ssd130x.h ****                 // Display Clock Divide Ratio
 266:../libDaisy/src/dev/oled_ssd130x.h ****                 transport_.SendCommand(0xD5);
 267:../libDaisy/src/dev/oled_ssd130x.h ****                 transport_.SendCommand(0x60);
 268:../libDaisy/src/dev/oled_ssd130x.h ****                 // Multiplex Ratio
ARM GAS  /tmp/cc4Uqqbc.s 			page 32


 269:../libDaisy/src/dev/oled_ssd130x.h ****                 transport_.SendCommand(0xA8);
 270:../libDaisy/src/dev/oled_ssd130x.h ****                 transport_.SendCommand(0x0F);
 271:../libDaisy/src/dev/oled_ssd130x.h ****                 // COM Pins
 272:../libDaisy/src/dev/oled_ssd130x.h ****                 transport_.SendCommand(0xDA);
 273:../libDaisy/src/dev/oled_ssd130x.h ****                 transport_.SendCommand(0x02);
 274:../libDaisy/src/dev/oled_ssd130x.h ****                 break;
 275:../libDaisy/src/dev/oled_ssd130x.h ****             case 32:
 276:../libDaisy/src/dev/oled_ssd130x.h ****                 // Display Clock Divide Ratio
 277:../libDaisy/src/dev/oled_ssd130x.h ****                 transport_.SendCommand(0xD5);
 278:../libDaisy/src/dev/oled_ssd130x.h ****                 transport_.SendCommand(0x80);
 279:../libDaisy/src/dev/oled_ssd130x.h ****                 // Multiplex Ratio
 280:../libDaisy/src/dev/oled_ssd130x.h ****                 transport_.SendCommand(0xA8);
 281:../libDaisy/src/dev/oled_ssd130x.h ****                 transport_.SendCommand(0x1F);
 282:../libDaisy/src/dev/oled_ssd130x.h ****                 // COM Pins
 283:../libDaisy/src/dev/oled_ssd130x.h ****                 transport_.SendCommand(0xDA);
 284:../libDaisy/src/dev/oled_ssd130x.h ****                 if(width == 64)
 285:../libDaisy/src/dev/oled_ssd130x.h ****                 {
 286:../libDaisy/src/dev/oled_ssd130x.h ****                     transport_.SendCommand(0x12);
 287:../libDaisy/src/dev/oled_ssd130x.h ****                 }
 288:../libDaisy/src/dev/oled_ssd130x.h ****                 else
 289:../libDaisy/src/dev/oled_ssd130x.h ****                 {
 290:../libDaisy/src/dev/oled_ssd130x.h ****                     transport_.SendCommand(0x02);
 291:../libDaisy/src/dev/oled_ssd130x.h ****                 }
 292:../libDaisy/src/dev/oled_ssd130x.h **** 
 293:../libDaisy/src/dev/oled_ssd130x.h ****                 break;
 294:../libDaisy/src/dev/oled_ssd130x.h ****             case 48:
 295:../libDaisy/src/dev/oled_ssd130x.h ****                 // Display Clock Divide Ratio
 296:../libDaisy/src/dev/oled_ssd130x.h ****                 transport_.SendCommand(0xD5);
 297:../libDaisy/src/dev/oled_ssd130x.h ****                 transport_.SendCommand(0x80);
 298:../libDaisy/src/dev/oled_ssd130x.h ****                 // Multiplex Ratio
 299:../libDaisy/src/dev/oled_ssd130x.h ****                 transport_.SendCommand(0xA8);
 300:../libDaisy/src/dev/oled_ssd130x.h ****                 transport_.SendCommand(0x2F);
 301:../libDaisy/src/dev/oled_ssd130x.h ****                 // COM Pins
 302:../libDaisy/src/dev/oled_ssd130x.h ****                 transport_.SendCommand(0xDA);
 303:../libDaisy/src/dev/oled_ssd130x.h ****                 transport_.SendCommand(0x12);
 304:../libDaisy/src/dev/oled_ssd130x.h ****                 break;
 305:../libDaisy/src/dev/oled_ssd130x.h ****             default: // 128
 306:../libDaisy/src/dev/oled_ssd130x.h ****                 // Display Clock Divide Ratio
 307:../libDaisy/src/dev/oled_ssd130x.h ****                 transport_.SendCommand(0xD5);
 308:../libDaisy/src/dev/oled_ssd130x.h ****                 transport_.SendCommand(0x80);
 309:../libDaisy/src/dev/oled_ssd130x.h ****                 // Multiplex Ratio
 310:../libDaisy/src/dev/oled_ssd130x.h ****                 transport_.SendCommand(0xA8);
 311:../libDaisy/src/dev/oled_ssd130x.h ****                 transport_.SendCommand(0x3F);
 312:../libDaisy/src/dev/oled_ssd130x.h ****                 // COM Pins
 313:../libDaisy/src/dev/oled_ssd130x.h ****                 transport_.SendCommand(0xDA);
 314:../libDaisy/src/dev/oled_ssd130x.h ****                 transport_.SendCommand(0x12);
 315:../libDaisy/src/dev/oled_ssd130x.h ****                 break;
 316:../libDaisy/src/dev/oled_ssd130x.h ****         }
 317:../libDaisy/src/dev/oled_ssd130x.h **** 
 318:../libDaisy/src/dev/oled_ssd130x.h ****         // Display Offset
 319:../libDaisy/src/dev/oled_ssd130x.h ****         transport_.SendCommand(0xD3);
 320:../libDaisy/src/dev/oled_ssd130x.h ****         transport_.SendCommand(0x00);
 321:../libDaisy/src/dev/oled_ssd130x.h ****         // Start Line Address
 322:../libDaisy/src/dev/oled_ssd130x.h ****         transport_.SendCommand(0x40);
 323:../libDaisy/src/dev/oled_ssd130x.h ****         // Normal Display
 324:../libDaisy/src/dev/oled_ssd130x.h ****         transport_.SendCommand(0xA6);
 325:../libDaisy/src/dev/oled_ssd130x.h ****         // All On Resume
ARM GAS  /tmp/cc4Uqqbc.s 			page 33


 326:../libDaisy/src/dev/oled_ssd130x.h ****         transport_.SendCommand(0xA4);
 327:../libDaisy/src/dev/oled_ssd130x.h ****         // Charge Pump
 328:../libDaisy/src/dev/oled_ssd130x.h ****         transport_.SendCommand(0x8D);
 329:../libDaisy/src/dev/oled_ssd130x.h ****         transport_.SendCommand(0x14);
 330:../libDaisy/src/dev/oled_ssd130x.h ****         // Set Segment Remap
 331:../libDaisy/src/dev/oled_ssd130x.h ****         transport_.SendCommand(0xA1);
 332:../libDaisy/src/dev/oled_ssd130x.h ****         // COM Output Scan Direction
 333:../libDaisy/src/dev/oled_ssd130x.h ****         transport_.SendCommand(0xC8);
 334:../libDaisy/src/dev/oled_ssd130x.h ****         // Contrast Control
 335:../libDaisy/src/dev/oled_ssd130x.h ****         transport_.SendCommand(0x81);
 336:../libDaisy/src/dev/oled_ssd130x.h ****         transport_.SendCommand(0x8F);
 337:../libDaisy/src/dev/oled_ssd130x.h ****         // Pre Charge
 338:../libDaisy/src/dev/oled_ssd130x.h ****         transport_.SendCommand(0xD9);
 339:../libDaisy/src/dev/oled_ssd130x.h ****         transport_.SendCommand(0x25);
 340:../libDaisy/src/dev/oled_ssd130x.h ****         // VCOM Detect
 341:../libDaisy/src/dev/oled_ssd130x.h ****         transport_.SendCommand(0xDB);
 342:../libDaisy/src/dev/oled_ssd130x.h ****         transport_.SendCommand(0x34);
 343:../libDaisy/src/dev/oled_ssd130x.h **** 
 344:../libDaisy/src/dev/oled_ssd130x.h **** 
 345:../libDaisy/src/dev/oled_ssd130x.h ****         // Display On
 346:../libDaisy/src/dev/oled_ssd130x.h ****         transport_.SendCommand(0xAF); //--turn on oled panel
 347:../libDaisy/src/dev/oled_ssd130x.h ****     };
 348:../libDaisy/src/dev/oled_ssd130x.h **** 
 349:../libDaisy/src/dev/oled_ssd130x.h ****     size_t Width() const { return width; };
 350:../libDaisy/src/dev/oled_ssd130x.h ****     size_t Height() const { return height; };
 351:../libDaisy/src/dev/oled_ssd130x.h **** 
 352:../libDaisy/src/dev/oled_ssd130x.h ****     void DrawPixel(uint_fast8_t x, uint_fast8_t y, bool on)
 353:../libDaisy/src/dev/oled_ssd130x.h ****     {
 354:../libDaisy/src/dev/oled_ssd130x.h ****         if(x >= width || y >= height)
 355:../libDaisy/src/dev/oled_ssd130x.h ****             return;
 356:../libDaisy/src/dev/oled_ssd130x.h ****         if(on)
 357:../libDaisy/src/dev/oled_ssd130x.h ****             buffer_[x + (y / 8) * width] |= (1 << (y % 8));
 358:../libDaisy/src/dev/oled_ssd130x.h ****         else
 359:../libDaisy/src/dev/oled_ssd130x.h ****             buffer_[x + (y / 8) * width] &= ~(1 << (y % 8));
 360:../libDaisy/src/dev/oled_ssd130x.h ****     }
 361:../libDaisy/src/dev/oled_ssd130x.h **** 
 362:../libDaisy/src/dev/oled_ssd130x.h ****     void Fill(bool on)
 209              		.loc 17 362 10 view .LVU38
 210              	.LBB560:
 363:../libDaisy/src/dev/oled_ssd130x.h ****     {
 364:../libDaisy/src/dev/oled_ssd130x.h ****         for(size_t i = 0; i < sizeof(buffer_); i++)
 211              		.loc 17 364 29 view .LVU39
 212 0000 00F11003 		add	r3, r0, #16
 213 0004 00F58870 		add	r0, r0, #272
 214              	.LVL4:
 215              	.L5:
 365:../libDaisy/src/dev/oled_ssd130x.h ****         {
 366:../libDaisy/src/dev/oled_ssd130x.h ****             buffer_[i] = on ? 0xff : 0x00;
 216              		.loc 17 366 24 is_stmt 0 view .LVU40
 217 0008 4A42     		rsbs	r2, r1, #0
 218 000a 03F8012B 		strb	r2, [r3], #1
 219              	.LVL5:
 364:../libDaisy/src/dev/oled_ssd130x.h ****         {
 220              		.loc 17 364 9 is_stmt 1 view .LVU41
 364:../libDaisy/src/dev/oled_ssd130x.h ****         {
 221              		.loc 17 364 29 view .LVU42
 222 000e 8342     		cmp	r3, r0
ARM GAS  /tmp/cc4Uqqbc.s 			page 34


 223 0010 FAD1     		bne	.L5
 224              	.LBE560:
 225              	.LBE559:
 226              		.loc 4 34 53 is_stmt 0 view .LVU43
 227 0012 7047     		bx	lr
 228              		.cfi_endproc
 229              	.LFE5818:
 231              		.section	.text._ZNK5daisy11OledDisplayINS_13SSD130xDriverILj64ELj32ENS_19SSD130xI2CTransportEEEE6H
 232              		.align	1
 233              		.weak	_ZNK5daisy11OledDisplayINS_13SSD130xDriverILj64ELj32ENS_19SSD130xI2CTransportEEEE6HeightEv
 234              		.syntax unified
 235              		.thumb
 236              		.thumb_func
 237              		.fpu fpv5-d16
 239              	_ZNK5daisy11OledDisplayINS_13SSD130xDriverILj64ELj32ENS_19SSD130xI2CTransportEEEE6HeightEv:
 240              	.LVL6:
 241              	.LFB6195:
  27:../libDaisy/src/hid/disp/oled_display.h ****     uint16_t Width() const override { return driver_.Width(); }
 242              		.loc 4 27 14 is_stmt 1 view -0
 243              		.cfi_startproc
 244              		@ args = 0, pretend = 0, frame = 0
 245              		@ frame_needed = 0, uses_anonymous_args = 0
 246              		@ link register save eliminated.
  27:../libDaisy/src/hid/disp/oled_display.h ****     uint16_t Width() const override { return driver_.Width(); }
 247              		.loc 4 27 65 is_stmt 0 view .LVU45
 248 0000 2020     		movs	r0, #32
 249              	.LVL7:
  27:../libDaisy/src/hid/disp/oled_display.h ****     uint16_t Width() const override { return driver_.Width(); }
 250              		.loc 4 27 65 view .LVU46
 251 0002 7047     		bx	lr
 252              		.cfi_endproc
 253              	.LFE6195:
 255              		.section	.text._ZNK5daisy11OledDisplayINS_13SSD130xDriverILj64ELj32ENS_19SSD130xI2CTransportEEEE5W
 256              		.align	1
 257              		.weak	_ZNK5daisy11OledDisplayINS_13SSD130xDriverILj64ELj32ENS_19SSD130xI2CTransportEEEE5WidthEv
 258              		.syntax unified
 259              		.thumb
 260              		.thumb_func
 261              		.fpu fpv5-d16
 263              	_ZNK5daisy11OledDisplayINS_13SSD130xDriverILj64ELj32ENS_19SSD130xI2CTransportEEEE5WidthEv:
 264              	.LVL8:
 265              	.LFB6196:
  28:../libDaisy/src/hid/disp/oled_display.h **** 
 266              		.loc 4 28 14 is_stmt 1 view -0
 267              		.cfi_startproc
 268              		@ args = 0, pretend = 0, frame = 0
 269              		@ frame_needed = 0, uses_anonymous_args = 0
 270              		@ link register save eliminated.
  28:../libDaisy/src/hid/disp/oled_display.h **** 
 271              		.loc 4 28 63 is_stmt 0 view .LVU48
 272 0000 4020     		movs	r0, #64
 273              	.LVL9:
  28:../libDaisy/src/hid/disp/oled_display.h **** 
 274              		.loc 4 28 63 view .LVU49
 275 0002 7047     		bx	lr
 276              		.cfi_endproc
 277              	.LFE6196:
ARM GAS  /tmp/cc4Uqqbc.s 			page 35


 279              		.section	.text._ZN5daisy11OledDisplayINS_13SSD130xDriverILj64ELj32ENS_19SSD130xI2CTransportEEEED0E
 280              		.align	1
 281              		.weak	_ZN5daisy11OledDisplayINS_13SSD130xDriverILj64ELj32ENS_19SSD130xI2CTransportEEEED0Ev
 282              		.syntax unified
 283              		.thumb
 284              		.thumb_func
 285              		.fpu fpv5-d16
 287              	_ZN5daisy11OledDisplayINS_13SSD130xDriverILj64ELj32ENS_19SSD130xI2CTransportEEEED0Ev:
 288              	.LVL10:
 289              	.LFB5797:
  18:../libDaisy/src/hid/disp/oled_display.h **** 
 290              		.loc 4 18 13 is_stmt 1 view -0
 291              		.cfi_startproc
 292              		@ args = 0, pretend = 0, frame = 0
 293              		@ frame_needed = 0, uses_anonymous_args = 0
  18:../libDaisy/src/hid/disp/oled_display.h **** 
 294              		.loc 4 18 13 is_stmt 0 view .LVU51
 295 0000 10B5     		push	{r4, lr}
 296              		.cfi_def_cfa_offset 8
 297              		.cfi_offset 4, -8
 298              		.cfi_offset 14, -4
  18:../libDaisy/src/hid/disp/oled_display.h **** 
 299              		.loc 4 18 13 view .LVU52
 300 0002 0446     		mov	r4, r0
 301              	.LVL11:
 302              	.LBB561:
 303              	.LBI561:
  18:../libDaisy/src/hid/disp/oled_display.h **** 
 304              		.loc 4 18 13 is_stmt 1 view .LVU53
 305              	.LBB562:
 306              	.LBI562:
 307              		.loc 5 219 13 view .LVU54
 308              	.LBB563:
 309              	.LBI563:
  23:../libDaisy/src/hid/disp/display.h **** 
 310              		.loc 5 23 13 view .LVU55
  23:../libDaisy/src/hid/disp/display.h **** 
 311              		.loc 5 23 13 is_stmt 0 view .LVU56
 312              	.LBE563:
 313              	.LBE562:
 314              	.LBE561:
  18:../libDaisy/src/hid/disp/oled_display.h **** 
 315              		.loc 4 18 29 view .LVU57
 316 0004 4FF48871 		mov	r1, #272
 317 0008 FFF7FEFF 		bl	_ZdlPvj
 318              	.LVL12:
  18:../libDaisy/src/hid/disp/oled_display.h **** 
 319              		.loc 4 18 29 view .LVU58
 320 000c 2046     		mov	r0, r4
 321 000e 10BD     		pop	{r4, pc}
  18:../libDaisy/src/hid/disp/oled_display.h **** 
 322              		.loc 4 18 29 view .LVU59
 323              		.cfi_endproc
 324              	.LFE5797:
 326              		.section	.text._ZN5daisy21OneBitGraphicsDisplay9SetCursorEtt,"axG",%progbits,_ZN5daisy21OneBitGrap
 327              		.align	1
 328              		.weak	_ZN5daisy21OneBitGraphicsDisplay9SetCursorEtt
ARM GAS  /tmp/cc4Uqqbc.s 			page 36


 329              		.syntax unified
 330              		.thumb
 331              		.thumb_func
 332              		.fpu fpv5-d16
 334              	_ZN5daisy21OneBitGraphicsDisplay9SetCursorEtt:
 335              	.LVL13:
 336              	.LFB4079:
 171:../libDaisy/src/hid/disp/display.h ****     {
 337              		.loc 5 171 10 is_stmt 1 view -0
 338              		.cfi_startproc
 339              		@ args = 0, pretend = 0, frame = 0
 340              		@ frame_needed = 0, uses_anonymous_args = 0
 173:../libDaisy/src/hid/disp/display.h ****         currentY_ = (y >= Height()) ? Height() - 1 : y;
 341              		.loc 5 173 9 view .LVU61
 173:../libDaisy/src/hid/disp/display.h ****         currentY_ = (y >= Height()) ? Height() - 1 : y;
 342              		.loc 5 173 33 is_stmt 0 view .LVU62
 343 0000 0368     		ldr	r3, [r0]
 171:../libDaisy/src/hid/disp/display.h ****     {
 344              		.loc 5 171 10 view .LVU63
 345 0002 70B5     		push	{r4, r5, r6, lr}
 346              		.cfi_def_cfa_offset 16
 347              		.cfi_offset 4, -16
 348              		.cfi_offset 5, -12
 349              		.cfi_offset 6, -8
 350              		.cfi_offset 14, -4
 171:../libDaisy/src/hid/disp/display.h ****     {
 351              		.loc 5 171 10 view .LVU64
 352 0004 0E46     		mov	r6, r1
 173:../libDaisy/src/hid/disp/display.h ****         currentY_ = (y >= Height()) ? Height() - 1 : y;
 353              		.loc 5 173 32 view .LVU65
 354 0006 DB68     		ldr	r3, [r3, #12]
 171:../libDaisy/src/hid/disp/display.h ****     {
 355              		.loc 5 171 10 view .LVU66
 356 0008 0446     		mov	r4, r0
 357 000a 1546     		mov	r5, r2
 173:../libDaisy/src/hid/disp/display.h ****         currentY_ = (y >= Height()) ? Height() - 1 : y;
 358              		.loc 5 173 32 view .LVU67
 359 000c 9847     		blx	r3
 360              	.LVL14:
 173:../libDaisy/src/hid/disp/display.h ****         currentY_ = (y >= Height()) ? Height() - 1 : y;
 361              		.loc 5 173 19 view .LVU68
 362 000e B042     		cmp	r0, r6
 363 0010 05D8     		bhi	.L11
 173:../libDaisy/src/hid/disp/display.h ****         currentY_ = (y >= Height()) ? Height() - 1 : y;
 364              		.loc 5 173 44 discriminator 1 view .LVU69
 365 0012 2368     		ldr	r3, [r4]
 173:../libDaisy/src/hid/disp/display.h ****         currentY_ = (y >= Height()) ? Height() - 1 : y;
 366              		.loc 5 173 43 discriminator 1 view .LVU70
 367 0014 2046     		mov	r0, r4
 368 0016 DB68     		ldr	r3, [r3, #12]
 369 0018 9847     		blx	r3
 370              	.LVL15:
 173:../libDaisy/src/hid/disp/display.h ****         currentY_ = (y >= Height()) ? Height() - 1 : y;
 371              		.loc 5 173 19 discriminator 1 view .LVU71
 372 001a 0138     		subs	r0, r0, #1
 373 001c 86B2     		uxth	r6, r0
 374              	.L11:
ARM GAS  /tmp/cc4Uqqbc.s 			page 37


 174:../libDaisy/src/hid/disp/display.h ****     }
 375              		.loc 5 174 34 discriminator 4 view .LVU72
 376 001e 2368     		ldr	r3, [r4]
 174:../libDaisy/src/hid/disp/display.h ****     }
 377              		.loc 5 174 33 discriminator 4 view .LVU73
 378 0020 2046     		mov	r0, r4
 173:../libDaisy/src/hid/disp/display.h ****         currentY_ = (y >= Height()) ? Height() - 1 : y;
 379              		.loc 5 173 19 discriminator 4 view .LVU74
 380 0022 A680     		strh	r6, [r4, #4]	@ movhi
 174:../libDaisy/src/hid/disp/display.h ****     }
 381              		.loc 5 174 9 is_stmt 1 discriminator 4 view .LVU75
 174:../libDaisy/src/hid/disp/display.h ****     }
 382              		.loc 5 174 33 is_stmt 0 discriminator 4 view .LVU76
 383 0024 9B68     		ldr	r3, [r3, #8]
 384 0026 9847     		blx	r3
 385              	.LVL16:
 174:../libDaisy/src/hid/disp/display.h ****     }
 386              		.loc 5 174 19 discriminator 4 view .LVU77
 387 0028 A842     		cmp	r0, r5
 388 002a 05D8     		bhi	.L12
 174:../libDaisy/src/hid/disp/display.h ****     }
 389              		.loc 5 174 46 discriminator 1 view .LVU78
 390 002c 2368     		ldr	r3, [r4]
 174:../libDaisy/src/hid/disp/display.h ****     }
 391              		.loc 5 174 45 discriminator 1 view .LVU79
 392 002e 2046     		mov	r0, r4
 393 0030 9B68     		ldr	r3, [r3, #8]
 394 0032 9847     		blx	r3
 395              	.LVL17:
 174:../libDaisy/src/hid/disp/display.h ****     }
 396              		.loc 5 174 19 discriminator 1 view .LVU80
 397 0034 0138     		subs	r0, r0, #1
 398 0036 85B2     		uxth	r5, r0
 399              	.L12:
 174:../libDaisy/src/hid/disp/display.h ****     }
 400              		.loc 5 174 19 discriminator 4 view .LVU81
 401 0038 E580     		strh	r5, [r4, #6]	@ movhi
 175:../libDaisy/src/hid/disp/display.h **** 
 402              		.loc 5 175 5 discriminator 4 view .LVU82
 403 003a 70BD     		pop	{r4, r5, r6, pc}
 175:../libDaisy/src/hid/disp/display.h **** 
 404              		.loc 5 175 5 discriminator 4 view .LVU83
 405              		.cfi_endproc
 406              	.LFE4079:
 408              		.section	.text._ZN5daisy19SSD130xI2CTransport11SendCommandEh,"axG",%progbits,_ZN5daisy19SSD130xI2C
 409              		.align	1
 410              		.weak	_ZN5daisy19SSD130xI2CTransport11SendCommandEh
 411              		.syntax unified
 412              		.thumb
 413              		.thumb_func
 414              		.fpu fpv5-d16
 416              	_ZN5daisy19SSD130xI2CTransport11SendCommandEh:
 417              	.LVL18:
 418              	.LFB4831:
  42:../libDaisy/src/dev/oled_ssd130x.h ****     {
 419              		.loc 17 42 10 is_stmt 1 view -0
 420              		.cfi_startproc
ARM GAS  /tmp/cc4Uqqbc.s 			page 38


 421              		@ args = 0, pretend = 0, frame = 8
 422              		@ frame_needed = 0, uses_anonymous_args = 0
  44:../libDaisy/src/dev/oled_ssd130x.h ****         i2c_.TransmitBlocking(i2c_address_, buf, 2, 1000);
 423              		.loc 17 44 9 view .LVU85
  42:../libDaisy/src/dev/oled_ssd130x.h ****     {
 424              		.loc 17 42 10 is_stmt 0 view .LVU86
 425 0000 1FB5     		push	{r0, r1, r2, r3, r4, lr}
 426              		.cfi_def_cfa_offset 24
 427              		.cfi_offset 14, -4
  44:../libDaisy/src/dev/oled_ssd130x.h ****         i2c_.TransmitBlocking(i2c_address_, buf, 2, 1000);
 428              		.loc 17 44 17 view .LVU87
 429 0002 0023     		movs	r3, #0
  44:../libDaisy/src/dev/oled_ssd130x.h ****         i2c_.TransmitBlocking(i2c_address_, buf, 2, 1000);
 430              		.loc 17 44 36 view .LVU88
 431 0004 8DF80D10 		strb	r1, [sp, #13]
  45:../libDaisy/src/dev/oled_ssd130x.h ****     };
 432              		.loc 17 45 9 is_stmt 1 view .LVU89
  45:../libDaisy/src/dev/oled_ssd130x.h ****     };
 433              		.loc 17 45 30 is_stmt 0 view .LVU90
 434 0008 03AA     		add	r2, sp, #12
 435 000a 0179     		ldrb	r1, [r0, #4]	@ zero_extendqisi2
 436              	.LVL19:
  44:../libDaisy/src/dev/oled_ssd130x.h ****         i2c_.TransmitBlocking(i2c_address_, buf, 2, 1000);
 437              		.loc 17 44 17 view .LVU91
 438 000c 8DF80C30 		strb	r3, [sp, #12]
  45:../libDaisy/src/dev/oled_ssd130x.h ****     };
 439              		.loc 17 45 30 view .LVU92
 440 0010 4FF47A73 		mov	r3, #1000
 441 0014 0093     		str	r3, [sp]
 442 0016 0223     		movs	r3, #2
 443 0018 FFF7FEFF 		bl	_ZN5daisy9I2CHandle16TransmitBlockingEtPhtm
 444              	.LVL20:
  46:../libDaisy/src/dev/oled_ssd130x.h **** 
 445              		.loc 17 46 5 view .LVU93
 446 001c 05B0     		add	sp, sp, #20
 447              		.cfi_def_cfa_offset 4
 448              		@ sp needed
 449 001e 5DF804FB 		ldr	pc, [sp], #4
 450              		.cfi_endproc
 451              	.LFE4831:
 453              		.section	.text._Z14UpdateControlsv,"ax",%progbits
 454              		.align	1
 455              		.global	_Z14UpdateControlsv
 456              		.syntax unified
 457              		.thumb
 458              		.thumb_func
 459              		.fpu fpv5-d16
 461              	_Z14UpdateControlsv:
 462              	.LFB5465:
 463              		.file 18 "src/plateau.cpp"
   1:src/plateau.cpp **** #include "daisysp.h"
   2:src/plateau.cpp **** #include "../kxmx_bluemchen/src/kxmx_bluemchen.h"
   3:src/plateau.cpp **** #include <string.h>
   4:src/plateau.cpp **** #include "../ValleyRackFree/src/Plateau/Dattorro.hpp"
   5:src/plateau.cpp **** 
   6:src/plateau.cpp **** using namespace kxmx;
   7:src/plateau.cpp **** using namespace daisy;
ARM GAS  /tmp/cc4Uqqbc.s 			page 39


   8:src/plateau.cpp **** using namespace daisysp;
   9:src/plateau.cpp **** 
  10:src/plateau.cpp **** Bluemchen bluemchen;
  11:src/plateau.cpp **** 
  12:src/plateau.cpp **** 
  13:src/plateau.cpp **** Parameter knob1;
  14:src/plateau.cpp **** Parameter knob2;
  15:src/plateau.cpp **** Parameter cv1;
  16:src/plateau.cpp **** Parameter cv2;
  17:src/plateau.cpp **** 
  18:src/plateau.cpp **** void UpdateOled()
  19:src/plateau.cpp **** {
  20:src/plateau.cpp ****     bluemchen.display.Fill(false);
  21:src/plateau.cpp **** 
  22:src/plateau.cpp ****     // Display Encoder test increment value and pressed state
  23:src/plateau.cpp ****     bluemchen.display.SetCursor(0, 0);
  24:src/plateau.cpp ****     std::string str = "Thr: ";
  25:src/plateau.cpp ****     char *cstr = &str[0];
  26:src/plateau.cpp ****     bluemchen.display.WriteString(cstr, Font_6x8, true);
  27:src/plateau.cpp **** 
  28:src/plateau.cpp **** 
  29:src/plateau.cpp ****     bluemchen.display.Update();
  30:src/plateau.cpp **** }
  31:src/plateau.cpp **** 
  32:src/plateau.cpp **** void UpdateControls()
  33:src/plateau.cpp **** {
 464              		.loc 18 33 1 is_stmt 1 view -0
 465              		.cfi_startproc
 466              		@ args = 0, pretend = 0, frame = 0
 467              		@ frame_needed = 0, uses_anonymous_args = 0
  34:src/plateau.cpp ****     bluemchen.ProcessAllControls();
 468              		.loc 18 34 5 view .LVU95
 469              	.LVL21:
 470              	.LBB566:
 471              	.LBI566:
  26:../libDaisy/../kxmx_bluemchen/src/kxmx_bluemchen.h **** 
  27:../libDaisy/../kxmx_bluemchen/src/kxmx_bluemchen.h ****     /** Initializes the daisy seed, and bluemchen hardware.*/
  28:../libDaisy/../kxmx_bluemchen/src/kxmx_bluemchen.h ****     void Init();
  29:../libDaisy/../kxmx_bluemchen/src/kxmx_bluemchen.h **** 
  30:../libDaisy/../kxmx_bluemchen/src/kxmx_bluemchen.h ****     /** Audio Block size defaults to 48.
  31:../libDaisy/../kxmx_bluemchen/src/kxmx_bluemchen.h ****   Change it using this function before StartingAudio
  32:../libDaisy/../kxmx_bluemchen/src/kxmx_bluemchen.h ****   \param size Audio block size.
  33:../libDaisy/../kxmx_bluemchen/src/kxmx_bluemchen.h ****   */
  34:../libDaisy/../kxmx_bluemchen/src/kxmx_bluemchen.h ****     void SetAudioBlockSize(size_t size);
  35:../libDaisy/../kxmx_bluemchen/src/kxmx_bluemchen.h **** 
  36:../libDaisy/../kxmx_bluemchen/src/kxmx_bluemchen.h ****     /** Set the sample rate for the audio */
  37:../libDaisy/../kxmx_bluemchen/src/kxmx_bluemchen.h ****     void SetAudioSampleRate(daisy::SaiHandle::Config::SampleRate samplerate);
  38:../libDaisy/../kxmx_bluemchen/src/kxmx_bluemchen.h **** 
  39:../libDaisy/../kxmx_bluemchen/src/kxmx_bluemchen.h ****     /** Get sample rate */
  40:../libDaisy/../kxmx_bluemchen/src/kxmx_bluemchen.h ****     float AudioSampleRate();
  41:../libDaisy/../kxmx_bluemchen/src/kxmx_bluemchen.h **** 
  42:../libDaisy/../kxmx_bluemchen/src/kxmx_bluemchen.h ****     /** Get block size */
  43:../libDaisy/../kxmx_bluemchen/src/kxmx_bluemchen.h ****     size_t AudioBlockSize();
  44:../libDaisy/../kxmx_bluemchen/src/kxmx_bluemchen.h **** 
  45:../libDaisy/../kxmx_bluemchen/src/kxmx_bluemchen.h ****     /** Get callback rate */
  46:../libDaisy/../kxmx_bluemchen/src/kxmx_bluemchen.h ****     float AudioCallbackRate();
  47:../libDaisy/../kxmx_bluemchen/src/kxmx_bluemchen.h **** 
ARM GAS  /tmp/cc4Uqqbc.s 			page 40


  48:../libDaisy/../kxmx_bluemchen/src/kxmx_bluemchen.h ****     /** Start the bluemchen audio with the given callback function
  49:../libDaisy/../kxmx_bluemchen/src/kxmx_bluemchen.h ****     \cb AudioCallback callback function
  50:../libDaisy/../kxmx_bluemchen/src/kxmx_bluemchen.h ****     */
  51:../libDaisy/../kxmx_bluemchen/src/kxmx_bluemchen.h ****     void StartAudio(daisy::AudioHandle::AudioCallback cb);
  52:../libDaisy/../kxmx_bluemchen/src/kxmx_bluemchen.h **** 
  53:../libDaisy/../kxmx_bluemchen/src/kxmx_bluemchen.h ****     /** Starts the callback
  54:../libDaisy/../kxmx_bluemchen/src/kxmx_bluemchen.h ****     \param cb Interleaved callback function
  55:../libDaisy/../kxmx_bluemchen/src/kxmx_bluemchen.h ****     */
  56:../libDaisy/../kxmx_bluemchen/src/kxmx_bluemchen.h ****     void StartAudio(daisy::AudioHandle::InterleavingAudioCallback cb);
  57:../libDaisy/../kxmx_bluemchen/src/kxmx_bluemchen.h **** 
  58:../libDaisy/../kxmx_bluemchen/src/kxmx_bluemchen.h ****     /**
  59:../libDaisy/../kxmx_bluemchen/src/kxmx_bluemchen.h ****      Change the AudioCallback function
  60:../libDaisy/../kxmx_bluemchen/src/kxmx_bluemchen.h ****      \param cb The new callback function.
  61:../libDaisy/../kxmx_bluemchen/src/kxmx_bluemchen.h ****   */
  62:../libDaisy/../kxmx_bluemchen/src/kxmx_bluemchen.h ****     void ChangeAudioCallback(daisy::AudioHandle::AudioCallback cb);
  63:../libDaisy/../kxmx_bluemchen/src/kxmx_bluemchen.h **** 
  64:../libDaisy/../kxmx_bluemchen/src/kxmx_bluemchen.h ****     /** Stops the audio */
  65:../libDaisy/../kxmx_bluemchen/src/kxmx_bluemchen.h ****     void StopAudio();
  66:../libDaisy/../kxmx_bluemchen/src/kxmx_bluemchen.h **** 
  67:../libDaisy/../kxmx_bluemchen/src/kxmx_bluemchen.h ****     /** Start the ADC */
  68:../libDaisy/../kxmx_bluemchen/src/kxmx_bluemchen.h ****     void StartAdc();
  69:../libDaisy/../kxmx_bluemchen/src/kxmx_bluemchen.h **** 
  70:../libDaisy/../kxmx_bluemchen/src/kxmx_bluemchen.h ****     /** Stop the ADC */
  71:../libDaisy/../kxmx_bluemchen/src/kxmx_bluemchen.h ****     void StopAdc();
  72:../libDaisy/../kxmx_bluemchen/src/kxmx_bluemchen.h **** 
  73:../libDaisy/../kxmx_bluemchen/src/kxmx_bluemchen.h ****     /** Process all analog controls */
  74:../libDaisy/../kxmx_bluemchen/src/kxmx_bluemchen.h ****     void ProcessAnalogControls();
  75:../libDaisy/../kxmx_bluemchen/src/kxmx_bluemchen.h **** 
  76:../libDaisy/../kxmx_bluemchen/src/kxmx_bluemchen.h ****     /** Process all digital controls */
  77:../libDaisy/../kxmx_bluemchen/src/kxmx_bluemchen.h ****     void ProcessDigitalControls();
  78:../libDaisy/../kxmx_bluemchen/src/kxmx_bluemchen.h **** 
  79:../libDaisy/../kxmx_bluemchen/src/kxmx_bluemchen.h ****     /** Process Analog and Digital Controls */
  80:../libDaisy/../kxmx_bluemchen/src/kxmx_bluemchen.h ****     inline void ProcessAllControls()
 472              		.loc 3 80 17 view .LVU96
 473              	.LBB567:
  81:../libDaisy/../kxmx_bluemchen/src/kxmx_bluemchen.h ****     {
  82:../libDaisy/../kxmx_bluemchen/src/kxmx_bluemchen.h ****         ProcessAnalogControls();
 474              		.loc 3 82 9 view .LVU97
 475              	.LBE567:
 476              	.LBE566:
  33:src/plateau.cpp ****     bluemchen.ProcessAllControls();
 477              		.loc 18 33 1 is_stmt 0 view .LVU98
 478 0000 08B5     		push	{r3, lr}
 479              		.cfi_def_cfa_offset 8
 480              		.cfi_offset 3, -8
 481              		.cfi_offset 14, -4
 482              	.LBB569:
 483              	.LBB568:
 484              		.loc 3 82 30 view .LVU99
 485 0002 0A48     		ldr	r0, .L15
 486 0004 FFF7FEFF 		bl	_ZN4kxmx9Bluemchen21ProcessAnalogControlsEv
 487              	.LVL22:
  83:../libDaisy/../kxmx_bluemchen/src/kxmx_bluemchen.h ****         ProcessDigitalControls();
 488              		.loc 3 83 9 is_stmt 1 view .LVU100
 489              		.loc 3 83 31 is_stmt 0 view .LVU101
 490 0008 0848     		ldr	r0, .L15
 491 000a FFF7FEFF 		bl	_ZN4kxmx9Bluemchen22ProcessDigitalControlsEv
ARM GAS  /tmp/cc4Uqqbc.s 			page 41


 492              	.LVL23:
 493              		.loc 3 83 31 view .LVU102
 494              	.LBE568:
 495              	.LBE569:
  35:src/plateau.cpp **** 
  36:src/plateau.cpp ****     knob1.Process();
 496              		.loc 18 36 5 is_stmt 1 view .LVU103
 497              		.loc 18 36 18 is_stmt 0 view .LVU104
 498 000e 0848     		ldr	r0, .L15+4
 499 0010 FFF7FEFF 		bl	_ZN5daisy9Parameter7ProcessEv
 500              	.LVL24:
  37:src/plateau.cpp ****     knob2.Process();
 501              		.loc 18 37 5 is_stmt 1 view .LVU105
 502              		.loc 18 37 18 is_stmt 0 view .LVU106
 503 0014 0748     		ldr	r0, .L15+8
 504 0016 FFF7FEFF 		bl	_ZN5daisy9Parameter7ProcessEv
 505              	.LVL25:
  38:src/plateau.cpp **** 
  39:src/plateau.cpp **** 
  40:src/plateau.cpp ****     cv1.Process();
 506              		.loc 18 40 5 is_stmt 1 view .LVU107
 507              		.loc 18 40 16 is_stmt 0 view .LVU108
 508 001a 0748     		ldr	r0, .L15+12
 509 001c FFF7FEFF 		bl	_ZN5daisy9Parameter7ProcessEv
 510              	.LVL26:
  41:src/plateau.cpp ****     cv2.Process();
 511              		.loc 18 41 5 is_stmt 1 view .LVU109
 512              		.loc 18 41 16 is_stmt 0 view .LVU110
 513 0020 0648     		ldr	r0, .L15+16
  42:src/plateau.cpp **** }
 514              		.loc 18 42 1 view .LVU111
 515 0022 BDE80840 		pop	{r3, lr}
 516              		.cfi_restore 14
 517              		.cfi_restore 3
 518              		.cfi_def_cfa_offset 0
  41:src/plateau.cpp ****     cv2.Process();
 519              		.loc 18 41 16 view .LVU112
 520 0026 FFF7FEBF 		b	_ZN5daisy9Parameter7ProcessEv
 521              	.LVL27:
 522              	.L16:
 523 002a 00BF     		.align	2
 524              	.L15:
 525 002c 00000000 		.word	bluemchen
 526 0030 00000000 		.word	.LANCHOR0
 527 0034 00000000 		.word	.LANCHOR1
 528 0038 00000000 		.word	.LANCHOR2
 529 003c 00000000 		.word	.LANCHOR3
 530              		.cfi_endproc
 531              	.LFE5465:
 533              		.section	.text._Z13AudioCallbackPKPKfPPfj,"ax",%progbits
 534              		.align	1
 535              		.global	_Z13AudioCallbackPKPKfPPfj
 536              		.syntax unified
 537              		.thumb
 538              		.thumb_func
 539              		.fpu fpv5-d16
 541              	_Z13AudioCallbackPKPKfPPfj:
ARM GAS  /tmp/cc4Uqqbc.s 			page 42


 542              	.LVL28:
 543              	.LFB5466:
  43:src/plateau.cpp **** 
  44:src/plateau.cpp **** void AudioCallback(AudioHandle::InputBuffer in, AudioHandle::OutputBuffer out, size_t size)
  45:src/plateau.cpp **** {
 544              		.loc 18 45 1 is_stmt 1 view -0
 545              		.cfi_startproc
 546              		@ args = 0, pretend = 0, frame = 0
 547              		@ frame_needed = 0, uses_anonymous_args = 0
  46:src/plateau.cpp ****     UpdateControls();
 548              		.loc 18 46 5 view .LVU114
  45:src/plateau.cpp ****     UpdateControls();
 549              		.loc 18 45 1 is_stmt 0 view .LVU115
 550 0000 70B5     		push	{r4, r5, r6, lr}
 551              		.cfi_def_cfa_offset 16
 552              		.cfi_offset 4, -16
 553              		.cfi_offset 5, -12
 554              		.cfi_offset 6, -8
 555              		.cfi_offset 14, -4
  45:src/plateau.cpp ****     UpdateControls();
 556              		.loc 18 45 1 view .LVU116
 557 0002 0546     		mov	r5, r0
 558 0004 0C46     		mov	r4, r1
 559 0006 1646     		mov	r6, r2
 560              		.loc 18 46 19 view .LVU117
 561 0008 FFF7FEFF 		bl	_Z14UpdateControlsv
 562              	.LVL29:
  47:src/plateau.cpp ****     for (size_t i = 0; i < size; i++)
 563              		.loc 18 47 5 is_stmt 1 view .LVU118
 564              	.LBB570:
 565              		.loc 18 47 17 is_stmt 0 view .LVU119
 566 000c 0023     		movs	r3, #0
 567              	.LVL30:
 568              	.L19:
 569              		.loc 18 47 26 is_stmt 1 discriminator 3 view .LVU120
 570 000e B342     		cmp	r3, r6
 571 0010 1DD0     		beq	.L17
 572              	.LBB571:
  48:src/plateau.cpp ****     {
  49:src/plateau.cpp **** 
  50:src/plateau.cpp ****         float sig_l = in[0][i];
 573              		.loc 18 50 9 discriminator 2 view .LVU121
 574              		.loc 18 50 15 is_stmt 0 discriminator 2 view .LVU122
 575 0012 2968     		ldr	r1, [r5]
 576 0014 01EB8301 		add	r1, r1, r3, lsl #2
 577 0018 D1ED007A 		vldr.32	s15, [r1]
 578              	.LVL31:
  51:src/plateau.cpp ****         float sig_r = in[1][i];
 579              		.loc 18 51 9 is_stmt 1 discriminator 2 view .LVU123
 580              		.loc 18 51 15 is_stmt 0 discriminator 2 view .LVU124
 581 001c 6968     		ldr	r1, [r5, #4]
 582 001e 01EB8301 		add	r1, r1, r3, lsl #2
 583 0022 D1ED006A 		vldr.32	s13, [r1]
 584              	.LVL32:
  52:src/plateau.cpp **** 
  53:src/plateau.cpp ****         float sig_m = sig_l + sig_r;
 585              		.loc 18 53 9 is_stmt 1 discriminator 2 view .LVU125
ARM GAS  /tmp/cc4Uqqbc.s 			page 43


  54:src/plateau.cpp ****         float sig_s = sig_l - sig_r;
  55:src/plateau.cpp **** 
  56:src/plateau.cpp ****         //sig_r = comp.Process(sig_r);
  57:src/plateau.cpp **** 
  58:src/plateau.cpp ****         sig_l = sig_m + sig_s;
  59:src/plateau.cpp ****         sig_r = sig_m - sig_s;
  60:src/plateau.cpp **** 
  61:src/plateau.cpp ****         out[0][i] = sig_l;
 586              		.loc 18 61 19 is_stmt 0 discriminator 2 view .LVU126
 587 0026 2168     		ldr	r1, [r4]
  53:src/plateau.cpp ****         float sig_s = sig_l - sig_r;
 588              		.loc 18 53 15 discriminator 2 view .LVU127
 589 0028 37EEA67A 		vadd.f32	s14, s15, s13
 590              	.LVL33:
  54:src/plateau.cpp ****         float sig_s = sig_l - sig_r;
 591              		.loc 18 54 9 is_stmt 1 discriminator 2 view .LVU128
  54:src/plateau.cpp ****         float sig_s = sig_l - sig_r;
 592              		.loc 18 54 15 is_stmt 0 discriminator 2 view .LVU129
 593 002c 77EEE67A 		vsub.f32	s15, s15, s13
 594              	.LVL34:
  58:src/plateau.cpp ****         sig_r = sig_m - sig_s;
 595              		.loc 18 58 9 is_stmt 1 discriminator 2 view .LVU130
  59:src/plateau.cpp **** 
 596              		.loc 18 59 9 discriminator 2 view .LVU131
 597              		.loc 18 61 9 discriminator 2 view .LVU132
 598              		.loc 18 61 19 is_stmt 0 discriminator 2 view .LVU133
 599 0030 01EB8301 		add	r1, r1, r3, lsl #2
  58:src/plateau.cpp ****         sig_r = sig_m - sig_s;
 600              		.loc 18 58 15 discriminator 2 view .LVU134
 601 0034 77EE276A 		vadd.f32	s13, s14, s15
 602              	.LVL35:
  59:src/plateau.cpp **** 
 603              		.loc 18 59 15 discriminator 2 view .LVU135
 604 0038 77EE677A 		vsub.f32	s15, s14, s15
 605              	.LVL36:
 606              		.loc 18 61 19 discriminator 2 view .LVU136
 607 003c C1ED006A 		vstr.32	s13, [r1]
 608              	.LVL37:
  62:src/plateau.cpp ****         out[1][i] = sig_r;
 609              		.loc 18 62 9 is_stmt 1 discriminator 2 view .LVU137
 610              		.loc 18 62 19 is_stmt 0 discriminator 2 view .LVU138
 611 0040 6168     		ldr	r1, [r4, #4]
 612 0042 01EB8301 		add	r1, r1, r3, lsl #2
 613              	.LBE571:
  47:src/plateau.cpp ****     {
 614              		.loc 18 47 5 discriminator 2 view .LVU139
 615 0046 0133     		adds	r3, r3, #1
 616              	.LVL38:
 617              	.LBB572:
 618              		.loc 18 62 19 discriminator 2 view .LVU140
 619 0048 C1ED007A 		vstr.32	s15, [r1]
 620              	.LBE572:
  47:src/plateau.cpp ****     {
 621              		.loc 18 47 5 is_stmt 1 discriminator 2 view .LVU141
 622              	.LVL39:
  47:src/plateau.cpp ****     {
 623              		.loc 18 47 5 is_stmt 0 discriminator 2 view .LVU142
ARM GAS  /tmp/cc4Uqqbc.s 			page 44


 624 004c DFE7     		b	.L19
 625              	.LVL40:
 626              	.L17:
  47:src/plateau.cpp ****     {
 627              		.loc 18 47 5 discriminator 2 view .LVU143
 628              	.LBE570:
  63:src/plateau.cpp ****     }
  64:src/plateau.cpp **** }
 629              		.loc 18 64 1 view .LVU144
 630 004e 70BD     		pop	{r4, r5, r6, pc}
 631              		.loc 18 64 1 view .LVU145
 632              		.cfi_endproc
 633              	.LFE5466:
 635              		.section	.text._ZN5daisy13SSD130xDriverILj64ELj32ENS_19SSD130xI2CTransportEE6UpdateEv,"axG",%progb
 636              		.align	1
 637              		.weak	_ZN5daisy13SSD130xDriverILj64ELj32ENS_19SSD130xI2CTransportEE6UpdateEv
 638              		.syntax unified
 639              		.thumb
 640              		.thumb_func
 641              		.fpu fpv5-d16
 643              	_ZN5daisy13SSD130xDriverILj64ELj32ENS_19SSD130xI2CTransportEE6UpdateEv:
 644              	.LVL41:
 645              	.LFB5979:
 367:../libDaisy/src/dev/oled_ssd130x.h ****         }
 368:../libDaisy/src/dev/oled_ssd130x.h ****     };
 369:../libDaisy/src/dev/oled_ssd130x.h **** 
 370:../libDaisy/src/dev/oled_ssd130x.h ****     /**
 371:../libDaisy/src/dev/oled_ssd130x.h ****      * Update the display 
 372:../libDaisy/src/dev/oled_ssd130x.h ****     */
 373:../libDaisy/src/dev/oled_ssd130x.h ****     void Update()
 646              		.loc 17 373 10 is_stmt 1 view -0
 647              		.cfi_startproc
 648              		@ args = 0, pretend = 0, frame = 8
 649              		@ frame_needed = 0, uses_anonymous_args = 0
 374:../libDaisy/src/dev/oled_ssd130x.h ****     {
 375:../libDaisy/src/dev/oled_ssd130x.h ****         uint8_t i;
 376:../libDaisy/src/dev/oled_ssd130x.h ****         uint8_t high_column_addr;
 377:../libDaisy/src/dev/oled_ssd130x.h ****         switch(height)
 378:../libDaisy/src/dev/oled_ssd130x.h ****         {
 379:../libDaisy/src/dev/oled_ssd130x.h ****             case 32: high_column_addr = 0x12; break;
 380:../libDaisy/src/dev/oled_ssd130x.h **** 
 381:../libDaisy/src/dev/oled_ssd130x.h ****             default: high_column_addr = 0x10; break;
 382:../libDaisy/src/dev/oled_ssd130x.h ****         }
 383:../libDaisy/src/dev/oled_ssd130x.h ****         for(i = 0; i < (height / 8); i++)
 650              		.loc 17 383 22 view .LVU147
 373:../libDaisy/src/dev/oled_ssd130x.h ****     {
 651              		.loc 17 373 10 is_stmt 0 view .LVU148
 652 0000 F0B5     		push	{r4, r5, r6, r7, lr}
 653              		.cfi_def_cfa_offset 20
 654              		.cfi_offset 4, -20
 655              		.cfi_offset 5, -16
 656              		.cfi_offset 6, -12
 657              		.cfi_offset 7, -8
 658              		.cfi_offset 14, -4
 659 0002 0446     		mov	r4, r0
 660 0004 85B0     		sub	sp, sp, #20
 661              		.cfi_def_cfa_offset 40
ARM GAS  /tmp/cc4Uqqbc.s 			page 45


 662 0006 C71D     		adds	r7, r0, #7
 373:../libDaisy/src/dev/oled_ssd130x.h ****     {
 663              		.loc 17 373 10 view .LVU149
 664 0008 B025     		movs	r5, #176
 665              	.LVL42:
 666              	.L23:
 384:../libDaisy/src/dev/oled_ssd130x.h ****         {
 385:../libDaisy/src/dev/oled_ssd130x.h ****             transport_.SendCommand(0xB0 + i);
 667              		.loc 17 385 35 discriminator 2 view .LVU150
 668 000a 2946     		mov	r1, r5
 669 000c 2046     		mov	r0, r4
 670 000e FFF7FEFF 		bl	_ZN5daisy19SSD130xI2CTransport11SendCommandEh
 671              	.LVL43:
 386:../libDaisy/src/dev/oled_ssd130x.h ****             transport_.SendCommand(0x00);
 387:../libDaisy/src/dev/oled_ssd130x.h ****             transport_.SendCommand(high_column_addr);
 672              		.loc 17 387 35 discriminator 2 view .LVU151
 673 0012 3E46     		mov	r6, r7
 386:../libDaisy/src/dev/oled_ssd130x.h ****             transport_.SendCommand(0x00);
 674              		.loc 17 386 35 discriminator 2 view .LVU152
 675 0014 0021     		movs	r1, #0
 676 0016 2046     		mov	r0, r4
 677 0018 FFF7FEFF 		bl	_ZN5daisy19SSD130xI2CTransport11SendCommandEh
 678              	.LVL44:
 679              		.loc 17 387 35 discriminator 2 view .LVU153
 680 001c 1221     		movs	r1, #18
 681 001e 2046     		mov	r0, r4
 682 0020 FFF7FEFF 		bl	_ZN5daisy19SSD130xI2CTransport11SendCommandEh
 683              	.LVL45:
 684              	.LBB577:
 685              	.LBI577:
  48:../libDaisy/src/dev/oled_ssd130x.h ****     {
 686              		.loc 17 48 10 is_stmt 1 discriminator 2 view .LVU154
 687              	.LBE577:
  50:../libDaisy/src/dev/oled_ssd130x.h ****         {
 688              		.loc 17 50 9 discriminator 2 view .LVU155
 689              	.LBB580:
 690              	.LBB578:
  50:../libDaisy/src/dev/oled_ssd130x.h ****         {
 691              		.loc 17 50 29 discriminator 2 view .LVU156
 692              	.L22:
 693              	.LBB579:
  52:../libDaisy/src/dev/oled_ssd130x.h ****             i2c_.TransmitBlocking(i2c_address_, buf, 2, 1000);
 694              		.loc 17 52 13 view .LVU157
  52:../libDaisy/src/dev/oled_ssd130x.h ****             i2c_.TransmitBlocking(i2c_address_, buf, 2, 1000);
 695              		.loc 17 52 21 is_stmt 0 view .LVU158
 696 0024 4023     		movs	r3, #64
  53:../libDaisy/src/dev/oled_ssd130x.h ****         }
 697              		.loc 17 53 34 view .LVU159
 698 0026 03AA     		add	r2, sp, #12
 699 0028 2179     		ldrb	r1, [r4, #4]	@ zero_extendqisi2
 700 002a 2046     		mov	r0, r4
  52:../libDaisy/src/dev/oled_ssd130x.h ****             i2c_.TransmitBlocking(i2c_address_, buf, 2, 1000);
 701              		.loc 17 52 21 view .LVU160
 702 002c 8DF80C30 		strb	r3, [sp, #12]
  52:../libDaisy/src/dev/oled_ssd130x.h ****             i2c_.TransmitBlocking(i2c_address_, buf, 2, 1000);
 703              		.loc 17 52 44 view .LVU161
 704 0030 16F8013F 		ldrb	r3, [r6, #1]!	@ zero_extendqisi2
ARM GAS  /tmp/cc4Uqqbc.s 			page 46


 705              	.LVL46:
  52:../libDaisy/src/dev/oled_ssd130x.h ****             i2c_.TransmitBlocking(i2c_address_, buf, 2, 1000);
 706              		.loc 17 52 44 view .LVU162
 707 0034 8DF80D30 		strb	r3, [sp, #13]
  53:../libDaisy/src/dev/oled_ssd130x.h ****         }
 708              		.loc 17 53 13 is_stmt 1 view .LVU163
  53:../libDaisy/src/dev/oled_ssd130x.h ****         }
 709              		.loc 17 53 34 is_stmt 0 view .LVU164
 710 0038 4FF47A73 		mov	r3, #1000
 711 003c 0093     		str	r3, [sp]
 712 003e 0223     		movs	r3, #2
 713 0040 FFF7FEFF 		bl	_ZN5daisy9I2CHandle16TransmitBlockingEtPhtm
 714              	.LVL47:
 715              	.LBE579:
  50:../libDaisy/src/dev/oled_ssd130x.h ****         {
 716              		.loc 17 50 9 is_stmt 1 view .LVU165
  50:../libDaisy/src/dev/oled_ssd130x.h ****         {
 717              		.loc 17 50 29 view .LVU166
 718 0044 07F14003 		add	r3, r7, #64
 719 0048 9E42     		cmp	r6, r3
 720 004a EBD1     		bne	.L22
 721              	.LVL48:
  50:../libDaisy/src/dev/oled_ssd130x.h ****         {
 722              		.loc 17 50 29 is_stmt 0 view .LVU167
 723              	.LBE578:
 724              	.LBE580:
 383:../libDaisy/src/dev/oled_ssd130x.h ****         {
 725              		.loc 17 383 9 is_stmt 1 discriminator 2 view .LVU168
 383:../libDaisy/src/dev/oled_ssd130x.h ****         {
 726              		.loc 17 383 22 discriminator 2 view .LVU169
 727 004c 0135     		adds	r5, r5, #1
 728              	.LVL49:
 383:../libDaisy/src/dev/oled_ssd130x.h ****         {
 729              		.loc 17 383 22 is_stmt 0 discriminator 2 view .LVU170
 730 004e EDB2     		uxtb	r5, r5
 731 0050 B42D     		cmp	r5, #180
 732 0052 01D1     		bne	.L24
 388:../libDaisy/src/dev/oled_ssd130x.h ****             transport_.SendData(&buffer_[width * i], width);
 389:../libDaisy/src/dev/oled_ssd130x.h ****         }
 390:../libDaisy/src/dev/oled_ssd130x.h ****     };
 733              		.loc 17 390 5 view .LVU171
 734 0054 05B0     		add	sp, sp, #20
 735              		.cfi_remember_state
 736              		.cfi_def_cfa_offset 20
 737              		@ sp needed
 738 0056 F0BD     		pop	{r4, r5, r6, r7, pc}
 739              	.LVL50:
 740              	.L24:
 741              		.cfi_restore_state
 742              		.loc 17 390 5 view .LVU172
 743 0058 3746     		mov	r7, r6
 744 005a D6E7     		b	.L23
 745              		.cfi_endproc
 746              	.LFE5979:
 748              		.section	.text._ZN5daisy11OledDisplayINS_13SSD130xDriverILj64ELj32ENS_19SSD130xI2CTransportEEEE6Up
 749              		.align	1
 750              		.weak	_ZN5daisy11OledDisplayINS_13SSD130xDriverILj64ELj32ENS_19SSD130xI2CTransportEEEE6UpdateEv
ARM GAS  /tmp/cc4Uqqbc.s 			page 47


 751              		.syntax unified
 752              		.thumb
 753              		.thumb_func
 754              		.fpu fpv5-d16
 756              	_ZN5daisy11OledDisplayINS_13SSD130xDriverILj64ELj32ENS_19SSD130xI2CTransportEEEE6UpdateEv:
 757              	.LVL51:
 758              	.LFB5820:
  35:../libDaisy/src/hid/disp/oled_display.h **** 
  36:../libDaisy/src/hid/disp/oled_display.h ****     /**
  37:../libDaisy/src/hid/disp/oled_display.h ****     Sets the pixel at the specified coordinate to be on/off.
  38:../libDaisy/src/hid/disp/oled_display.h ****     \param x   x Coordinate
  39:../libDaisy/src/hid/disp/oled_display.h ****     \param y   y coordinate
  40:../libDaisy/src/hid/disp/oled_display.h ****     \param on  on or off
  41:../libDaisy/src/hid/disp/oled_display.h ****     */
  42:../libDaisy/src/hid/disp/oled_display.h ****     void DrawPixel(uint_fast8_t x, uint_fast8_t y, bool on) override
  43:../libDaisy/src/hid/disp/oled_display.h ****     {
  44:../libDaisy/src/hid/disp/oled_display.h ****         driver_.DrawPixel(x, y, on);
  45:../libDaisy/src/hid/disp/oled_display.h ****     }
  46:../libDaisy/src/hid/disp/oled_display.h **** 
  47:../libDaisy/src/hid/disp/oled_display.h ****     /** 
  48:../libDaisy/src/hid/disp/oled_display.h ****     Writes the current display buffer to the OLED device using SPI or I2C depending on 
  49:../libDaisy/src/hid/disp/oled_display.h ****     how the object was initialized.
  50:../libDaisy/src/hid/disp/oled_display.h ****     */
  51:../libDaisy/src/hid/disp/oled_display.h ****     void Update() override { driver_.Update(); }
 759              		.loc 4 51 10 is_stmt 1 view -0
 760              		.cfi_startproc
 761              		@ args = 0, pretend = 0, frame = 0
 762              		@ frame_needed = 0, uses_anonymous_args = 0
 763              		.loc 4 51 44 is_stmt 0 view .LVU174
 764 0000 0830     		adds	r0, r0, #8
 765              	.LVL52:
 766              		.loc 4 51 10 view .LVU175
 767 0002 08B5     		push	{r3, lr}
 768              		.cfi_def_cfa_offset 8
 769              		.cfi_offset 3, -8
 770              		.cfi_offset 14, -4
 771              		.loc 4 51 44 view .LVU176
 772 0004 FFF7FEFF 		bl	_ZN5daisy13SSD130xDriverILj64ELj32ENS_19SSD130xI2CTransportEE6UpdateEv
 773              	.LVL53:
 774              		.loc 4 51 48 view .LVU177
 775 0008 08BD     		pop	{r3, pc}
 776              		.cfi_endproc
 777              	.LFE5820:
 779              		.section	.text._ZN5daisy13SSD130xDriverILj64ELj32ENS_19SSD130xI2CTransportEE9DrawPixelEjjb,"axG",%
 780              		.align	1
 781              		.weak	_ZN5daisy13SSD130xDriverILj64ELj32ENS_19SSD130xI2CTransportEE9DrawPixelEjjb
 782              		.syntax unified
 783              		.thumb
 784              		.thumb_func
 785              		.fpu fpv5-d16
 787              	_ZN5daisy13SSD130xDriverILj64ELj32ENS_19SSD130xI2CTransportEE9DrawPixelEjjb:
 788              	.LVL54:
 789              	.LFB6092:
 352:../libDaisy/src/dev/oled_ssd130x.h ****     {
 790              		.loc 17 352 10 is_stmt 1 view -0
 791              		.cfi_startproc
 792              		@ args = 0, pretend = 0, frame = 0
ARM GAS  /tmp/cc4Uqqbc.s 			page 48


 793              		@ frame_needed = 0, uses_anonymous_args = 0
 354:../libDaisy/src/dev/oled_ssd130x.h ****             return;
 794              		.loc 17 354 9 is_stmt 0 view .LVU179
 795 0000 3F29     		cmp	r1, #63
 352:../libDaisy/src/dev/oled_ssd130x.h ****     {
 796              		.loc 17 352 10 view .LVU180
 797 0002 10B5     		push	{r4, lr}
 798              		.cfi_def_cfa_offset 8
 799              		.cfi_offset 4, -8
 800              		.cfi_offset 14, -4
 354:../libDaisy/src/dev/oled_ssd130x.h ****             return;
 801              		.loc 17 354 9 view .LVU181
 802 0004 10D8     		bhi	.L27
 354:../libDaisy/src/dev/oled_ssd130x.h ****             return;
 803              		.loc 17 354 23 discriminator 1 view .LVU182
 804 0006 1F2A     		cmp	r2, #31
 805 0008 0ED8     		bhi	.L27
 357:../libDaisy/src/dev/oled_ssd130x.h ****         else
 806              		.loc 17 357 28 view .LVU183
 807 000a D408     		lsrs	r4, r2, #3
 357:../libDaisy/src/dev/oled_ssd130x.h ****         else
 808              		.loc 17 357 54 view .LVU184
 809 000c 02F00702 		and	r2, r2, #7
 810              	.LVL55:
 357:../libDaisy/src/dev/oled_ssd130x.h ****         else
 811              		.loc 17 357 42 view .LVU185
 812 0010 01EB8411 		add	r1, r1, r4, lsl #6
 813              	.LVL56:
 357:../libDaisy/src/dev/oled_ssd130x.h ****         else
 814              		.loc 17 357 48 view .LVU186
 815 0014 0124     		movs	r4, #1
 357:../libDaisy/src/dev/oled_ssd130x.h ****         else
 816              		.loc 17 357 42 view .LVU187
 817 0016 0844     		add	r0, r0, r1
 818              	.LVL57:
 357:../libDaisy/src/dev/oled_ssd130x.h ****         else
 819              		.loc 17 357 48 view .LVU188
 820 0018 04FA02F2 		lsl	r2, r4, r2
 357:../libDaisy/src/dev/oled_ssd130x.h ****         else
 821              		.loc 17 357 42 view .LVU189
 822 001c 90F90810 		ldrsb	r1, [r0, #8]
 823 0020 52B2     		sxtb	r2, r2
 356:../libDaisy/src/dev/oled_ssd130x.h ****             buffer_[x + (y / 8) * width] |= (1 << (y % 8));
 824              		.loc 17 356 9 view .LVU190
 825 0022 13B1     		cbz	r3, .L29
 357:../libDaisy/src/dev/oled_ssd130x.h ****         else
 826              		.loc 17 357 42 view .LVU191
 827 0024 1143     		orrs	r1, r1, r2
 828              	.L30:
 829              	.LBB583:
 830              	.LBB584:
 359:../libDaisy/src/dev/oled_ssd130x.h ****     }
 831              		.loc 17 359 42 view .LVU192
 832 0026 0172     		strb	r1, [r0, #8]
 833              	.L27:
 834              	.LBE584:
 835              	.LBE583:
ARM GAS  /tmp/cc4Uqqbc.s 			page 49


 360:../libDaisy/src/dev/oled_ssd130x.h **** 
 836              		.loc 17 360 5 view .LVU193
 837 0028 10BD     		pop	{r4, pc}
 838              	.L29:
 839              	.LVL58:
 840              	.LBB586:
 841              	.LBI583:
 352:../libDaisy/src/dev/oled_ssd130x.h ****     {
 842              		.loc 17 352 10 is_stmt 1 view .LVU194
 843              	.LBB585:
 359:../libDaisy/src/dev/oled_ssd130x.h ****     }
 844              		.loc 17 359 42 is_stmt 0 view .LVU195
 845 002a 21EA0201 		bic	r1, r1, r2
 846 002e FAE7     		b	.L30
 847              	.LBE585:
 848              	.LBE586:
 849              		.cfi_endproc
 850              	.LFE6092:
 852              		.section	.text._ZN5daisy11OledDisplayINS_13SSD130xDriverILj64ELj32ENS_19SSD130xI2CTransportEEEE9Dr
 853              		.align	1
 854              		.weak	_ZN5daisy11OledDisplayINS_13SSD130xDriverILj64ELj32ENS_19SSD130xI2CTransportEEEE9DrawPixelEj
 855              		.syntax unified
 856              		.thumb
 857              		.thumb_func
 858              		.fpu fpv5-d16
 860              	_ZN5daisy11OledDisplayINS_13SSD130xDriverILj64ELj32ENS_19SSD130xI2CTransportEEEE9DrawPixelEjjb:
 861              	.LVL59:
 862              	.LFB6037:
  42:../libDaisy/src/hid/disp/oled_display.h ****     {
 863              		.loc 4 42 10 is_stmt 1 view -0
 864              		.cfi_startproc
 865              		@ args = 0, pretend = 0, frame = 0
 866              		@ frame_needed = 0, uses_anonymous_args = 0
  44:../libDaisy/src/hid/disp/oled_display.h ****     }
 867              		.loc 4 44 26 is_stmt 0 view .LVU197
 868 0000 0830     		adds	r0, r0, #8
 869              	.LVL60:
  42:../libDaisy/src/hid/disp/oled_display.h ****     {
 870              		.loc 4 42 10 view .LVU198
 871 0002 08B5     		push	{r3, lr}
 872              		.cfi_def_cfa_offset 8
 873              		.cfi_offset 3, -8
 874              		.cfi_offset 14, -4
  44:../libDaisy/src/hid/disp/oled_display.h ****     }
 875              		.loc 4 44 26 view .LVU199
 876 0004 FFF7FEFF 		bl	_ZN5daisy13SSD130xDriverILj64ELj32ENS_19SSD130xI2CTransportEE9DrawPixelEjjb
 877              	.LVL61:
  45:../libDaisy/src/hid/disp/oled_display.h **** 
 878              		.loc 4 45 5 view .LVU200
 879 0008 08BD     		pop	{r3, pc}
 880              		.cfi_endproc
 881              	.LFE6037:
 883              		.section	.text._ZN5daisy25OneBitGraphicsDisplayImplINS_11OledDisplayINS_13SSD130xDriverILj64ELj32E
 884              		.align	1
 885              		.weak	_ZN5daisy25OneBitGraphicsDisplayImplINS_11OledDisplayINS_13SSD130xDriverILj64ELj32ENS_19SSD1
 886              		.syntax unified
 887              		.thumb
ARM GAS  /tmp/cc4Uqqbc.s 			page 50


 888              		.thumb_func
 889              		.fpu fpv5-d16
 891              	_ZN5daisy25OneBitGraphicsDisplayImplINS_11OledDisplayINS_13SSD130xDriverILj64ELj32ENS_19SSD130xI2CT
 892              	.LVL62:
 893              	.LFB5978:
 220:../libDaisy/src/hid/disp/display.h **** 
 221:../libDaisy/src/hid/disp/display.h ****     void DrawLine(uint_fast8_t x1,
 222:../libDaisy/src/hid/disp/display.h ****                   uint_fast8_t y1,
 223:../libDaisy/src/hid/disp/display.h ****                   uint_fast8_t x2,
 224:../libDaisy/src/hid/disp/display.h ****                   uint_fast8_t y2,
 225:../libDaisy/src/hid/disp/display.h ****                   bool         on) override
 226:../libDaisy/src/hid/disp/display.h ****     {
 227:../libDaisy/src/hid/disp/display.h ****         int_fast16_t deltaX = abs((int_fast16_t)x2 - (int_fast16_t)x1);
 228:../libDaisy/src/hid/disp/display.h ****         int_fast16_t deltaY = abs((int_fast16_t)y2 - (int_fast16_t)y1);
 229:../libDaisy/src/hid/disp/display.h ****         int_fast16_t signX  = ((x1 < x2) ? 1 : -1);
 230:../libDaisy/src/hid/disp/display.h ****         int_fast16_t signY  = ((y1 < y2) ? 1 : -1);
 231:../libDaisy/src/hid/disp/display.h ****         int_fast16_t error  = deltaX - deltaY;
 232:../libDaisy/src/hid/disp/display.h ****         int_fast16_t error2;
 233:../libDaisy/src/hid/disp/display.h **** 
 234:../libDaisy/src/hid/disp/display.h ****         // If we write "ChildType::DrawPixel(x2, y2, on);", we end up with
 235:../libDaisy/src/hid/disp/display.h ****         // all sorts of weird compiler errors when the Child class is a template
 236:../libDaisy/src/hid/disp/display.h ****         // class. The only way around this is to use this very verbose syntax:
 237:../libDaisy/src/hid/disp/display.h ****         ((ChildType*)(this))->ChildType::DrawPixel(x2, y2, on);
 238:../libDaisy/src/hid/disp/display.h **** 
 239:../libDaisy/src/hid/disp/display.h ****         while((x1 != x2) || (y1 != y2))
 240:../libDaisy/src/hid/disp/display.h ****         {
 241:../libDaisy/src/hid/disp/display.h ****             ((ChildType*)(this))->ChildType::DrawPixel(x1, y1, on);
 242:../libDaisy/src/hid/disp/display.h ****             error2 = error * 2;
 243:../libDaisy/src/hid/disp/display.h ****             if(error2 > -deltaY)
 244:../libDaisy/src/hid/disp/display.h ****             {
 245:../libDaisy/src/hid/disp/display.h ****                 error -= deltaY;
 246:../libDaisy/src/hid/disp/display.h ****                 x1 += signX;
 247:../libDaisy/src/hid/disp/display.h ****             }
 248:../libDaisy/src/hid/disp/display.h **** 
 249:../libDaisy/src/hid/disp/display.h ****             if(error2 < deltaX)
 250:../libDaisy/src/hid/disp/display.h ****             {
 251:../libDaisy/src/hid/disp/display.h ****                 error += deltaX;
 252:../libDaisy/src/hid/disp/display.h ****                 y1 += signY;
 253:../libDaisy/src/hid/disp/display.h ****             }
 254:../libDaisy/src/hid/disp/display.h ****         }
 255:../libDaisy/src/hid/disp/display.h ****     }
 256:../libDaisy/src/hid/disp/display.h **** 
 257:../libDaisy/src/hid/disp/display.h ****     void DrawRect(uint_fast8_t x1,
 258:../libDaisy/src/hid/disp/display.h ****                   uint_fast8_t y1,
 259:../libDaisy/src/hid/disp/display.h ****                   uint_fast8_t x2,
 260:../libDaisy/src/hid/disp/display.h ****                   uint_fast8_t y2,
 261:../libDaisy/src/hid/disp/display.h ****                   bool         on,
 262:../libDaisy/src/hid/disp/display.h ****                   bool         fill = false) override
 263:../libDaisy/src/hid/disp/display.h ****     {
 264:../libDaisy/src/hid/disp/display.h ****         if(fill)
 265:../libDaisy/src/hid/disp/display.h ****         {
 266:../libDaisy/src/hid/disp/display.h ****             for(uint_fast8_t x = x1; x <= x2; x++)
 267:../libDaisy/src/hid/disp/display.h ****             {
 268:../libDaisy/src/hid/disp/display.h ****                 for(uint_fast8_t y = y1; y <= y2; y++)
 269:../libDaisy/src/hid/disp/display.h ****                 {
 270:../libDaisy/src/hid/disp/display.h ****                     ((ChildType*)(this))->ChildType::DrawPixel(x, y, on);
 271:../libDaisy/src/hid/disp/display.h ****                 }
ARM GAS  /tmp/cc4Uqqbc.s 			page 51


 272:../libDaisy/src/hid/disp/display.h ****             }
 273:../libDaisy/src/hid/disp/display.h ****         }
 274:../libDaisy/src/hid/disp/display.h ****         else
 275:../libDaisy/src/hid/disp/display.h ****         {
 276:../libDaisy/src/hid/disp/display.h ****             ((ChildType*)(this))->ChildType::DrawLine(x1, y1, x2, y1, on);
 277:../libDaisy/src/hid/disp/display.h ****             ((ChildType*)(this))->ChildType::DrawLine(x2, y1, x2, y2, on);
 278:../libDaisy/src/hid/disp/display.h ****             ((ChildType*)(this))->ChildType::DrawLine(x2, y2, x1, y2, on);
 279:../libDaisy/src/hid/disp/display.h ****             ((ChildType*)(this))->ChildType::DrawLine(x1, y2, x1, y1, on);
 280:../libDaisy/src/hid/disp/display.h ****         }
 281:../libDaisy/src/hid/disp/display.h ****     }
 282:../libDaisy/src/hid/disp/display.h **** 
 283:../libDaisy/src/hid/disp/display.h ****     void DrawArc(uint_fast8_t x,
 284:../libDaisy/src/hid/disp/display.h ****                  uint_fast8_t y,
 285:../libDaisy/src/hid/disp/display.h ****                  uint_fast8_t radius,
 286:../libDaisy/src/hid/disp/display.h ****                  int_fast16_t start_angle,
 287:../libDaisy/src/hid/disp/display.h ****                  int_fast16_t sweep,
 288:../libDaisy/src/hid/disp/display.h ****                  bool         on) override
 289:../libDaisy/src/hid/disp/display.h ****     {
 290:../libDaisy/src/hid/disp/display.h ****         // Values to calculate the circle
 291:../libDaisy/src/hid/disp/display.h ****         int_fast16_t t_x, t_y, err, e2;
 292:../libDaisy/src/hid/disp/display.h **** 
 293:../libDaisy/src/hid/disp/display.h ****         // Temporary values to speed up comparisons
 294:../libDaisy/src/hid/disp/display.h ****         float t_sxy, t_syx, t_sxny, t_synx;
 295:../libDaisy/src/hid/disp/display.h ****         float t_exy, t_eyx, t_exny, t_eynx;
 296:../libDaisy/src/hid/disp/display.h **** 
 297:../libDaisy/src/hid/disp/display.h ****         float start_angle_rad, end_angle_rad;
 298:../libDaisy/src/hid/disp/display.h ****         float start_x, start_y, end_x, end_y;
 299:../libDaisy/src/hid/disp/display.h **** 
 300:../libDaisy/src/hid/disp/display.h ****         bool d1, d2, d3, d4;
 301:../libDaisy/src/hid/disp/display.h **** 
 302:../libDaisy/src/hid/disp/display.h ****         d1 = d2 = d3 = d4 = true;
 303:../libDaisy/src/hid/disp/display.h **** 
 304:../libDaisy/src/hid/disp/display.h ****         bool circle = false;
 305:../libDaisy/src/hid/disp/display.h **** 
 306:../libDaisy/src/hid/disp/display.h ****         if(sweep < 0)
 307:../libDaisy/src/hid/disp/display.h ****         {
 308:../libDaisy/src/hid/disp/display.h ****             start_angle += sweep;
 309:../libDaisy/src/hid/disp/display.h ****             sweep = -sweep;
 310:../libDaisy/src/hid/disp/display.h ****         }
 311:../libDaisy/src/hid/disp/display.h **** 
 312:../libDaisy/src/hid/disp/display.h ****         start_angle_rad = deg2rad(start_angle);
 313:../libDaisy/src/hid/disp/display.h ****         end_angle_rad   = deg2rad(start_angle + sweep);
 314:../libDaisy/src/hid/disp/display.h **** 
 315:../libDaisy/src/hid/disp/display.h ****         start_x = cos(start_angle_rad) * radius;
 316:../libDaisy/src/hid/disp/display.h ****         start_y = -sin(start_angle_rad) * radius;
 317:../libDaisy/src/hid/disp/display.h ****         end_x   = cos(end_angle_rad) * radius;
 318:../libDaisy/src/hid/disp/display.h ****         end_y   = -sin(end_angle_rad) * radius;
 319:../libDaisy/src/hid/disp/display.h **** 
 320:../libDaisy/src/hid/disp/display.h ****         // Check if start and endpoint are very near
 321:../libDaisy/src/hid/disp/display.h ****         if((end_x - start_x) * (end_x - start_x)
 322:../libDaisy/src/hid/disp/display.h ****                + (end_y - start_y) * (end_y - start_y)
 323:../libDaisy/src/hid/disp/display.h ****            < 2.0f)
 324:../libDaisy/src/hid/disp/display.h ****         {
 325:../libDaisy/src/hid/disp/display.h ****             if(sweep > 180)
 326:../libDaisy/src/hid/disp/display.h ****                 circle = true;
 327:../libDaisy/src/hid/disp/display.h ****             else
 328:../libDaisy/src/hid/disp/display.h ****                 // Nothing to draw
ARM GAS  /tmp/cc4Uqqbc.s 			page 52


 329:../libDaisy/src/hid/disp/display.h ****                 return;
 330:../libDaisy/src/hid/disp/display.h ****         }
 331:../libDaisy/src/hid/disp/display.h **** 
 332:../libDaisy/src/hid/disp/display.h ****         t_x = -radius;
 333:../libDaisy/src/hid/disp/display.h ****         t_y = 0;
 334:../libDaisy/src/hid/disp/display.h ****         err = 2 - 2 * radius;
 335:../libDaisy/src/hid/disp/display.h **** 
 336:../libDaisy/src/hid/disp/display.h ****         do
 337:../libDaisy/src/hid/disp/display.h ****         {
 338:../libDaisy/src/hid/disp/display.h ****             if(!circle)
 339:../libDaisy/src/hid/disp/display.h ****             {
 340:../libDaisy/src/hid/disp/display.h ****                 t_sxy  = start_x * t_y;
 341:../libDaisy/src/hid/disp/display.h ****                 t_syx  = start_y * t_x;
 342:../libDaisy/src/hid/disp/display.h ****                 t_sxny = start_x * -t_y;
 343:../libDaisy/src/hid/disp/display.h ****                 t_synx = start_y * -t_x;
 344:../libDaisy/src/hid/disp/display.h ****                 t_exy  = end_x * t_y;
 345:../libDaisy/src/hid/disp/display.h ****                 t_eyx  = end_y * t_x;
 346:../libDaisy/src/hid/disp/display.h ****                 t_exny = end_x * -t_y;
 347:../libDaisy/src/hid/disp/display.h ****                 t_eynx = end_y * -t_x;
 348:../libDaisy/src/hid/disp/display.h **** 
 349:../libDaisy/src/hid/disp/display.h ****                 if(sweep > 180)
 350:../libDaisy/src/hid/disp/display.h ****                 {
 351:../libDaisy/src/hid/disp/display.h ****                     d1 = (t_sxy - t_synx < 0 || t_exy - t_eynx > 0);
 352:../libDaisy/src/hid/disp/display.h ****                     d2 = (t_sxy - t_syx < 0 || t_exy - t_eyx > 0);
 353:../libDaisy/src/hid/disp/display.h ****                     d3 = (t_sxny - t_syx < 0 || t_exny - t_eyx > 0);
 354:../libDaisy/src/hid/disp/display.h ****                     d4 = (t_sxny - t_synx < 0 || t_exny - t_eynx > 0);
 355:../libDaisy/src/hid/disp/display.h ****                 }
 356:../libDaisy/src/hid/disp/display.h ****                 else
 357:../libDaisy/src/hid/disp/display.h ****                 {
 358:../libDaisy/src/hid/disp/display.h ****                     d1 = (t_sxy - t_synx < 0 && t_exy - t_eynx > 0);
 359:../libDaisy/src/hid/disp/display.h ****                     d2 = (t_sxy - t_syx < 0 && t_exy - t_eyx > 0);
 360:../libDaisy/src/hid/disp/display.h ****                     d3 = (t_sxny - t_syx < 0 && t_exny - t_eyx > 0);
 361:../libDaisy/src/hid/disp/display.h ****                     d4 = (t_sxny - t_synx < 0 && t_exny - t_eynx > 0);
 362:../libDaisy/src/hid/disp/display.h ****                 }
 363:../libDaisy/src/hid/disp/display.h ****             }
 364:../libDaisy/src/hid/disp/display.h **** 
 365:../libDaisy/src/hid/disp/display.h ****             if(d1)
 366:../libDaisy/src/hid/disp/display.h ****                 ((ChildType*)(this))
 367:../libDaisy/src/hid/disp/display.h ****                     ->ChildType::DrawPixel(x - t_x, y + t_y, on);
 368:../libDaisy/src/hid/disp/display.h ****             if(d2)
 369:../libDaisy/src/hid/disp/display.h ****                 ((ChildType*)(this))
 370:../libDaisy/src/hid/disp/display.h ****                     ->ChildType::DrawPixel(x + t_x, y + t_y, on);
 371:../libDaisy/src/hid/disp/display.h ****             if(d3)
 372:../libDaisy/src/hid/disp/display.h ****                 ((ChildType*)(this))
 373:../libDaisy/src/hid/disp/display.h ****                     ->ChildType::DrawPixel(x + t_x, y - t_y, on);
 374:../libDaisy/src/hid/disp/display.h ****             if(d4)
 375:../libDaisy/src/hid/disp/display.h ****                 ((ChildType*)(this))
 376:../libDaisy/src/hid/disp/display.h ****                     ->ChildType::DrawPixel(x - t_x, y - t_y, on);
 377:../libDaisy/src/hid/disp/display.h **** 
 378:../libDaisy/src/hid/disp/display.h ****             e2 = err;
 379:../libDaisy/src/hid/disp/display.h ****             if(e2 <= t_y)
 380:../libDaisy/src/hid/disp/display.h ****             {
 381:../libDaisy/src/hid/disp/display.h ****                 t_y++;
 382:../libDaisy/src/hid/disp/display.h ****                 err = err + (t_y * 2 + 1);
 383:../libDaisy/src/hid/disp/display.h ****                 if(-t_x == t_y && e2 <= t_x)
 384:../libDaisy/src/hid/disp/display.h ****                 {
 385:../libDaisy/src/hid/disp/display.h ****                     e2 = 0;
ARM GAS  /tmp/cc4Uqqbc.s 			page 53


 386:../libDaisy/src/hid/disp/display.h ****                 }
 387:../libDaisy/src/hid/disp/display.h ****             }
 388:../libDaisy/src/hid/disp/display.h ****             if(e2 > t_x)
 389:../libDaisy/src/hid/disp/display.h ****             {
 390:../libDaisy/src/hid/disp/display.h ****                 t_x++;
 391:../libDaisy/src/hid/disp/display.h ****                 err = err + (t_x * 2 + 1);
 392:../libDaisy/src/hid/disp/display.h ****             }
 393:../libDaisy/src/hid/disp/display.h ****         } while(t_x <= 0);
 394:../libDaisy/src/hid/disp/display.h ****     }
 395:../libDaisy/src/hid/disp/display.h **** 
 396:../libDaisy/src/hid/disp/display.h ****     char WriteChar(char ch, FontDef font, bool on) override
 894              		.loc 5 396 10 is_stmt 1 view -0
 895              		.cfi_startproc
 896              		@ args = 4, pretend = 0, frame = 16
 897              		@ frame_needed = 0, uses_anonymous_args = 0
 898              		.loc 5 396 10 is_stmt 0 view .LVU202
 899 0000 2DE9F04F 		push	{r4, r5, r6, r7, r8, r9, r10, fp, lr}
 900              		.cfi_def_cfa_offset 36
 901              		.cfi_offset 4, -36
 902              		.cfi_offset 5, -32
 903              		.cfi_offset 6, -28
 904              		.cfi_offset 7, -24
 905              		.cfi_offset 8, -20
 906              		.cfi_offset 9, -16
 907              		.cfi_offset 10, -12
 908              		.cfi_offset 11, -8
 909              		.cfi_offset 14, -4
 910 0004 0E46     		mov	r6, r1
 911 0006 85B0     		sub	sp, sp, #20
 912              		.cfi_def_cfa_offset 56
 913              	.LVL63:
 914              		.loc 5 396 10 view .LVU203
 915 0008 0446     		mov	r4, r0
 916 000a 04A9     		add	r1, sp, #16
 917              	.LVL64:
 397:../libDaisy/src/hid/disp/display.h ****     {
 398:../libDaisy/src/hid/disp/display.h ****         uint32_t i, b, j;
 399:../libDaisy/src/hid/disp/display.h **** 
 400:../libDaisy/src/hid/disp/display.h ****         // Check if character is valid
 401:../libDaisy/src/hid/disp/display.h ****         if(ch < 32 || ch > 126)
 918              		.loc 5 401 20 view .LVU204
 919 000c A6F12005 		sub	r5, r6, #32
 396:../libDaisy/src/hid/disp/display.h ****     {
 920              		.loc 5 396 10 view .LVU205
 921 0010 9DF838B0 		ldrb	fp, [sp, #56]	@ zero_extendqisi2
 922 0014 01E90C00 		stmdb	r1, {r2, r3}
 923              	.LVL65:
 924              		.loc 5 401 9 view .LVU206
 925 0018 EBB2     		uxtb	r3, r5
 926 001a 5E2B     		cmp	r3, #94
 927 001c 04D9     		bls	.L33
 928              	.LVL66:
 929              	.L35:
 402:../libDaisy/src/hid/disp/display.h ****             return 0;
 930              		.loc 5 402 20 view .LVU207
 931 001e 0026     		movs	r6, #0
 932              	.L34:
ARM GAS  /tmp/cc4Uqqbc.s 			page 54


 403:../libDaisy/src/hid/disp/display.h **** 
 404:../libDaisy/src/hid/disp/display.h ****         // Check remaining space on current line
 405:../libDaisy/src/hid/disp/display.h ****         if(Width() < (currentX_ + font.FontWidth)
 406:../libDaisy/src/hid/disp/display.h ****            || Height() < (currentY_ + font.FontHeight))
 407:../libDaisy/src/hid/disp/display.h ****         {
 408:../libDaisy/src/hid/disp/display.h ****             // Not enough space on current line
 409:../libDaisy/src/hid/disp/display.h ****             return 0;
 410:../libDaisy/src/hid/disp/display.h ****         }
 411:../libDaisy/src/hid/disp/display.h **** 
 412:../libDaisy/src/hid/disp/display.h ****         // Use the font to write
 413:../libDaisy/src/hid/disp/display.h ****         for(i = 0; i < font.FontHeight; i++)
 414:../libDaisy/src/hid/disp/display.h ****         {
 415:../libDaisy/src/hid/disp/display.h ****             b = font.data[(ch - 32) * font.FontHeight + i];
 416:../libDaisy/src/hid/disp/display.h ****             for(j = 0; j < font.FontWidth; j++)
 417:../libDaisy/src/hid/disp/display.h ****             {
 418:../libDaisy/src/hid/disp/display.h ****                 if((b << j) & 0x8000)
 419:../libDaisy/src/hid/disp/display.h ****                 {
 420:../libDaisy/src/hid/disp/display.h ****                     ((ChildType*)(this))
 421:../libDaisy/src/hid/disp/display.h ****                         ->ChildType::DrawPixel(
 422:../libDaisy/src/hid/disp/display.h ****                             currentX_ + j, (currentY_ + i), on);
 423:../libDaisy/src/hid/disp/display.h ****                 }
 424:../libDaisy/src/hid/disp/display.h ****                 else
 425:../libDaisy/src/hid/disp/display.h ****                 {
 426:../libDaisy/src/hid/disp/display.h ****                     ((ChildType*)(this))
 427:../libDaisy/src/hid/disp/display.h ****                         ->ChildType::DrawPixel(
 428:../libDaisy/src/hid/disp/display.h ****                             currentX_ + j, (currentY_ + i), !on);
 429:../libDaisy/src/hid/disp/display.h ****                 }
 430:../libDaisy/src/hid/disp/display.h ****             }
 431:../libDaisy/src/hid/disp/display.h ****         }
 432:../libDaisy/src/hid/disp/display.h **** 
 433:../libDaisy/src/hid/disp/display.h ****         // The current space is now taken
 434:../libDaisy/src/hid/disp/display.h ****         SetCursor(currentX_ + font.FontWidth, currentY_);
 435:../libDaisy/src/hid/disp/display.h **** 
 436:../libDaisy/src/hid/disp/display.h ****         // Return written char for validation
 437:../libDaisy/src/hid/disp/display.h ****         return ch;
 438:../libDaisy/src/hid/disp/display.h ****     }
 933              		.loc 5 438 5 view .LVU208
 934 0020 3046     		mov	r0, r6
 935 0022 05B0     		add	sp, sp, #20
 936              		.cfi_remember_state
 937              		.cfi_def_cfa_offset 36
 938              		@ sp needed
 939 0024 BDE8F08F 		pop	{r4, r5, r6, r7, r8, r9, r10, fp, pc}
 940              	.LVL67:
 941              	.L33:
 942              		.cfi_restore_state
 405:../libDaisy/src/hid/disp/display.h ****            || Height() < (currentY_ + font.FontHeight))
 943              		.loc 5 405 17 view .LVU209
 944 0028 0368     		ldr	r3, [r0]
 945 002a 9DF80870 		ldrb	r7, [sp, #8]	@ zero_extendqisi2
 946 002e DB68     		ldr	r3, [r3, #12]
 947 0030 9DF809A0 		ldrb	r10, [sp, #9]	@ zero_extendqisi2
 948 0034 9847     		blx	r3
 949              	.LVL68:
 405:../libDaisy/src/hid/disp/display.h ****            || Height() < (currentY_ + font.FontHeight))
 950              		.loc 5 405 23 view .LVU210
 951 0036 A388     		ldrh	r3, [r4, #4]
ARM GAS  /tmp/cc4Uqqbc.s 			page 55


 405:../libDaisy/src/hid/disp/display.h ****            || Height() < (currentY_ + font.FontHeight))
 952              		.loc 5 405 33 view .LVU211
 953 0038 3B44     		add	r3, r3, r7
 406:../libDaisy/src/hid/disp/display.h ****         {
 954              		.loc 5 406 12 view .LVU212
 955 003a 9842     		cmp	r0, r3
 956 003c EFDB     		blt	.L35
 406:../libDaisy/src/hid/disp/display.h ****         {
 957              		.loc 5 406 21 discriminator 2 view .LVU213
 958 003e 2368     		ldr	r3, [r4]
 959 0040 2046     		mov	r0, r4
 960 0042 9B68     		ldr	r3, [r3, #8]
 961 0044 9847     		blx	r3
 962              	.LVL69:
 406:../libDaisy/src/hid/disp/display.h ****         {
 963              		.loc 5 406 27 discriminator 2 view .LVU214
 964 0046 E388     		ldrh	r3, [r4, #6]
 406:../libDaisy/src/hid/disp/display.h ****         {
 965              		.loc 5 406 37 discriminator 2 view .LVU215
 966 0048 5344     		add	r3, r3, r10
 406:../libDaisy/src/hid/disp/display.h ****         {
 967              		.loc 5 406 12 discriminator 2 view .LVU216
 968 004a 9842     		cmp	r0, r3
 969 004c E7DB     		blt	.L35
 970 004e 0AFB05F5 		mul	r5, r10, r5
 415:../libDaisy/src/hid/disp/display.h ****             for(j = 0; j < font.FontWidth; j++)
 971              		.loc 5 415 31 view .LVU217
 972 0052 4FF00009 		mov	r9, #0
 973 0056 6D00     		lsls	r5, r5, #1
 974              	.L41:
 975              	.LVL70:
 413:../libDaisy/src/hid/disp/display.h ****         {
 976              		.loc 5 413 22 is_stmt 1 discriminator 1 view .LVU218
 977 0058 CA45     		cmp	r10, r9
 978 005a 1DD9     		bls	.L36
 415:../libDaisy/src/hid/disp/display.h ****             for(j = 0; j < font.FontWidth; j++)
 979              		.loc 5 415 58 is_stmt 0 view .LVU219
 980 005c 039B     		ldr	r3, [sp, #12]
 416:../libDaisy/src/hid/disp/display.h ****             {
 981              		.loc 5 416 19 view .LVU220
 982 005e 4FF00008 		mov	r8, #0
 415:../libDaisy/src/hid/disp/display.h ****             for(j = 0; j < font.FontWidth; j++)
 983              		.loc 5 415 15 view .LVU221
 984 0062 5B5B     		ldrh	r3, [r3, r5]
 985 0064 0193     		str	r3, [sp, #4]
 986              	.LVL71:
 987              	.L40:
 416:../libDaisy/src/hid/disp/display.h ****             {
 988              		.loc 5 416 26 is_stmt 1 discriminator 1 view .LVU222
 989 0066 4745     		cmp	r7, r8
 422:../libDaisy/src/hid/disp/display.h ****                 }
 990              		.loc 5 422 29 is_stmt 0 discriminator 1 view .LVU223
 991 0068 A188     		ldrh	r1, [r4, #4]
 422:../libDaisy/src/hid/disp/display.h ****                 }
 992              		.loc 5 422 45 discriminator 1 view .LVU224
 993 006a E288     		ldrh	r2, [r4, #6]
 416:../libDaisy/src/hid/disp/display.h ****             {
ARM GAS  /tmp/cc4Uqqbc.s 			page 56


 994              		.loc 5 416 26 discriminator 1 view .LVU225
 995 006c 10D9     		bls	.L37
 418:../libDaisy/src/hid/disp/display.h ****                 {
 996              		.loc 5 418 23 view .LVU226
 997 006e 019B     		ldr	r3, [sp, #4]
 422:../libDaisy/src/hid/disp/display.h ****                 }
 998              		.loc 5 422 39 view .LVU227
 999 0070 4144     		add	r1, r1, r8
 422:../libDaisy/src/hid/disp/display.h ****                 }
 1000              		.loc 5 422 55 view .LVU228
 1001 0072 4A44     		add	r2, r2, r9
 1002              	.LBB587:
 1003              	.LBB588:
  44:../libDaisy/src/hid/disp/oled_display.h ****     }
 1004              		.loc 4 44 26 view .LVU229
 1005 0074 04F10800 		add	r0, r4, #8
 1006              	.LBE588:
 1007              	.LBE587:
 418:../libDaisy/src/hid/disp/display.h ****                 {
 1008              		.loc 5 418 23 view .LVU230
 1009 0078 03FA08F3 		lsl	r3, r3, r8
 416:../libDaisy/src/hid/disp/display.h ****             {
 1010              		.loc 5 416 13 view .LVU231
 1011 007c 08F10108 		add	r8, r8, #1
 1012              	.LVL72:
 418:../libDaisy/src/hid/disp/display.h ****                 {
 1013              		.loc 5 418 17 view .LVU232
 1014 0080 1B04     		lsls	r3, r3, #16
 1015              	.LVL73:
 1016              	.LBB590:
 1017              	.LBI587:
  42:../libDaisy/src/hid/disp/oled_display.h ****     {
 1018              		.loc 4 42 10 is_stmt 1 view .LVU233
 1019              	.LBB589:
  44:../libDaisy/src/hid/disp/oled_display.h ****     }
 1020              		.loc 4 44 26 is_stmt 0 view .LVU234
 1021 0082 4CBF     		ite	mi
 1022 0084 5B46     		movmi	r3, fp
 1023              	.LVL74:
  44:../libDaisy/src/hid/disp/oled_display.h ****     }
 1024              		.loc 4 44 26 view .LVU235
 1025              	.LBE589:
 1026              	.LBE590:
 1027              	.LBB591:
 1028              	.LBI591:
  42:../libDaisy/src/hid/disp/oled_display.h ****     {
 1029              		.loc 4 42 10 is_stmt 1 view .LVU236
 1030              	.LBB592:
  44:../libDaisy/src/hid/disp/oled_display.h ****     }
 1031              		.loc 4 44 26 is_stmt 0 view .LVU237
 1032 0086 8BF00103 		eorpl	r3, fp, #1
 1033 008a FFF7FEFF 		bl	_ZN5daisy13SSD130xDriverILj64ELj32ENS_19SSD130xI2CTransportEE9DrawPixelEjjb
 1034              	.LVL75:
  44:../libDaisy/src/hid/disp/oled_display.h ****     }
 1035              		.loc 4 44 26 view .LVU238
 1036              	.LBE592:
 1037              	.LBE591:
ARM GAS  /tmp/cc4Uqqbc.s 			page 57


 416:../libDaisy/src/hid/disp/display.h ****             {
 1038              		.loc 5 416 13 is_stmt 1 view .LVU239
 416:../libDaisy/src/hid/disp/display.h ****             {
 1039              		.loc 5 416 13 is_stmt 0 view .LVU240
 1040 008e EAE7     		b	.L40
 1041              	.L37:
 413:../libDaisy/src/hid/disp/display.h ****         {
 1042              		.loc 5 413 9 is_stmt 1 discriminator 2 view .LVU241
 1043 0090 09F10109 		add	r9, r9, #1
 1044              	.LVL76:
 413:../libDaisy/src/hid/disp/display.h ****         {
 1045              		.loc 5 413 9 is_stmt 0 discriminator 2 view .LVU242
 1046 0094 0235     		adds	r5, r5, #2
 1047 0096 DFE7     		b	.L41
 1048              	.LVL77:
 1049              	.L36:
 434:../libDaisy/src/hid/disp/display.h **** 
 1050              		.loc 5 434 18 view .LVU243
 1051 0098 A188     		ldrh	r1, [r4, #4]
 1052 009a 2046     		mov	r0, r4
 1053 009c E288     		ldrh	r2, [r4, #6]
 1054 009e 3944     		add	r1, r1, r7
 1055 00a0 89B2     		uxth	r1, r1
 1056 00a2 FFF7FEFF 		bl	_ZN5daisy21OneBitGraphicsDisplay9SetCursorEtt
 1057              	.LVL78:
 437:../libDaisy/src/hid/disp/display.h ****     }
 1058              		.loc 5 437 16 view .LVU244
 1059 00a6 BBE7     		b	.L34
 1060              		.cfi_endproc
 1061              	.LFE5978:
 1063              		.section	.text._ZN5daisy25OneBitGraphicsDisplayImplINS_11OledDisplayINS_13SSD130xDriverILj64ELj32E
 1064              		.align	1
 1065              		.weak	_ZN5daisy25OneBitGraphicsDisplayImplINS_11OledDisplayINS_13SSD130xDriverILj64ELj32ENS_19SSD1
 1066              		.syntax unified
 1067              		.thumb
 1068              		.thumb_func
 1069              		.fpu fpv5-d16
 1071              	_ZN5daisy25OneBitGraphicsDisplayImplINS_11OledDisplayINS_13SSD130xDriverILj64ELj32ENS_19SSD130xI2CT
 1072              	.LVL79:
 1073              	.LFB5819:
 439:../libDaisy/src/hid/disp/display.h **** 
 440:../libDaisy/src/hid/disp/display.h ****     char WriteString(const char* str, FontDef font, bool on) override
 1074              		.loc 5 440 10 is_stmt 1 view -0
 1075              		.cfi_startproc
 1076              		@ args = 4, pretend = 0, frame = 8
 1077              		@ frame_needed = 0, uses_anonymous_args = 0
 1078              		.loc 5 440 10 is_stmt 0 view .LVU246
 1079 0000 F0B5     		push	{r4, r5, r6, r7, lr}
 1080              		.cfi_def_cfa_offset 20
 1081              		.cfi_offset 4, -20
 1082              		.cfi_offset 5, -16
 1083              		.cfi_offset 6, -12
 1084              		.cfi_offset 7, -8
 1085              		.cfi_offset 14, -4
 1086 0002 85B0     		sub	sp, sp, #20
 1087              		.cfi_def_cfa_offset 40
 1088              		.loc 5 440 10 view .LVU247
ARM GAS  /tmp/cc4Uqqbc.s 			page 58


 1089 0004 0646     		mov	r6, r0
 1090 0006 4C1E     		subs	r4, r1, #1
 1091 0008 02AD     		add	r5, sp, #8
 1092 000a 9DF82870 		ldrb	r7, [sp, #40]	@ zero_extendqisi2
 1093 000e 85E80C00 		stm	r5, {r2, r3}
 1094              	.LVL80:
 1095              	.L45:
 441:../libDaisy/src/hid/disp/display.h ****     {
 442:../libDaisy/src/hid/disp/display.h ****         // Write until null-byte
 443:../libDaisy/src/hid/disp/display.h ****         while(*str)
 1096              		.loc 5 443 9 is_stmt 1 view .LVU248
 1097 0012 14F8011F 		ldrb	r1, [r4, #1]!	@ zero_extendqisi2
 1098              	.LVL81:
 1099              		.loc 5 443 9 is_stmt 0 view .LVU249
 1100 0016 41B1     		cbz	r1, .L44
 444:../libDaisy/src/hid/disp/display.h ****         {
 445:../libDaisy/src/hid/disp/display.h ****             if(((ChildType*)(this))->ChildType::WriteChar(*str, font, on)
 1101              		.loc 5 445 58 view .LVU250
 1102 0018 0097     		str	r7, [sp]
 1103 001a 3046     		mov	r0, r6
 1104 001c 95E80C00 		ldm	r5, {r2, r3}
 1105 0020 FFF7FEFF 		bl	_ZN5daisy25OneBitGraphicsDisplayImplINS_11OledDisplayINS_13SSD130xDriverILj64ELj32ENS_19SSD130x
 1106              	.LVL82:
 446:../libDaisy/src/hid/disp/display.h ****                != *str)
 1107              		.loc 5 446 16 view .LVU251
 1108 0024 2178     		ldrb	r1, [r4]	@ zero_extendqisi2
 445:../libDaisy/src/hid/disp/display.h ****                != *str)
 1109              		.loc 5 445 13 view .LVU252
 1110 0026 8842     		cmp	r0, r1
 1111 0028 F3D0     		beq	.L45
 1112              	.L44:
 447:../libDaisy/src/hid/disp/display.h ****             {
 448:../libDaisy/src/hid/disp/display.h ****                 // Char could not be written
 449:../libDaisy/src/hid/disp/display.h ****                 return *str;
 450:../libDaisy/src/hid/disp/display.h ****             }
 451:../libDaisy/src/hid/disp/display.h **** 
 452:../libDaisy/src/hid/disp/display.h ****             // Next char
 453:../libDaisy/src/hid/disp/display.h ****             str++;
 454:../libDaisy/src/hid/disp/display.h ****         }
 455:../libDaisy/src/hid/disp/display.h **** 
 456:../libDaisy/src/hid/disp/display.h ****         // Everything ok
 457:../libDaisy/src/hid/disp/display.h ****         return *str;
 458:../libDaisy/src/hid/disp/display.h ****     }
 1113              		.loc 5 458 5 view .LVU253
 1114 002a 0846     		mov	r0, r1
 1115 002c 05B0     		add	sp, sp, #20
 1116              		.cfi_def_cfa_offset 20
 1117              		@ sp needed
 1118 002e F0BD     		pop	{r4, r5, r6, r7, pc}
 1119              		.loc 5 458 5 view .LVU254
 1120              		.cfi_endproc
 1121              	.LFE5819:
 1123              		.section	.rodata._Z10UpdateOledv.str1.1,"aMS",%progbits,1
 1124              	.LC0:
 1125 0000 5468723A 		.ascii	"Thr: \000"
 1125      2000
 1126              		.section	.text._Z10UpdateOledv,"ax",%progbits
ARM GAS  /tmp/cc4Uqqbc.s 			page 59


 1127              		.align	1
 1128              		.global	_Z10UpdateOledv
 1129              		.syntax unified
 1130              		.thumb
 1131              		.thumb_func
 1132              		.fpu fpv5-d16
 1134              	_Z10UpdateOledv:
 1135              	.LFB5464:
  19:src/plateau.cpp ****     bluemchen.display.Fill(false);
 1136              		.loc 18 19 1 is_stmt 1 view -0
 1137              		.cfi_startproc
 1138              		@ args = 0, pretend = 0, frame = 24
 1139              		@ frame_needed = 0, uses_anonymous_args = 0
  20:src/plateau.cpp **** 
 1140              		.loc 18 20 5 view .LVU256
 1141              	.LVL83:
 1142              	.LBB647:
 1143              	.LBI647:
  34:../libDaisy/src/hid/disp/oled_display.h **** 
 1144              		.loc 4 34 10 view .LVU257
 1145              	.LBB648:
 1146              	.LBI648:
 362:../libDaisy/src/dev/oled_ssd130x.h ****     {
 1147              		.loc 17 362 10 view .LVU258
 1148              	.LBB649:
 364:../libDaisy/src/dev/oled_ssd130x.h ****         {
 1149              		.loc 17 364 29 view .LVU259
 1150              	.LBE649:
 1151              	.LBE648:
 1152              	.LBE647:
  19:src/plateau.cpp ****     bluemchen.display.Fill(false);
 1153              		.loc 18 19 1 is_stmt 0 view .LVU260
 1154 0000 30B5     		push	{r4, r5, lr}
 1155              		.cfi_def_cfa_offset 12
 1156              		.cfi_offset 4, -12
 1157              		.cfi_offset 5, -8
 1158              		.cfi_offset 14, -4
 1159              	.LBB656:
 1160              	.LBB653:
 1161              	.LBB650:
 366:../libDaisy/src/dev/oled_ssd130x.h ****         }
 1162              		.loc 17 366 24 view .LVU261
 1163 0002 154C     		ldr	r4, .L51
 1164              	.LBE650:
 1165              	.LBE653:
 1166              	.LBE656:
  19:src/plateau.cpp ****     bluemchen.display.Fill(false);
 1167              		.loc 18 19 1 view .LVU262
 1168 0004 89B0     		sub	sp, sp, #36
 1169              		.cfi_def_cfa_offset 48
 1170              	.LBB657:
 1171              	.LBB654:
 1172              	.LBB651:
 366:../libDaisy/src/dev/oled_ssd130x.h ****         }
 1173              		.loc 17 366 24 view .LVU263
 1174 0006 4FF48072 		mov	r2, #256
 1175 000a 0021     		movs	r1, #0
ARM GAS  /tmp/cc4Uqqbc.s 			page 60


 1176 000c 2046     		mov	r0, r4
 1177              	.LBE651:
 1178              	.LBE654:
 1179              	.LBE657:
  23:src/plateau.cpp ****     std::string str = "Thr: ";
 1180              		.loc 18 23 32 view .LVU264
 1181 000e A4F11005 		sub	r5, r4, #16
 1182              	.LBB658:
 1183              	.LBB655:
 1184              	.LBB652:
 366:../libDaisy/src/dev/oled_ssd130x.h ****         }
 1185              		.loc 17 366 24 view .LVU265
 1186 0012 FFF7FEFF 		bl	memset
 1187              	.LVL84:
 366:../libDaisy/src/dev/oled_ssd130x.h ****         }
 1188              		.loc 17 366 24 view .LVU266
 1189              	.LBE652:
 1190              	.LBE655:
 1191              	.LBE658:
  23:src/plateau.cpp ****     std::string str = "Thr: ";
 1192              		.loc 18 23 5 is_stmt 1 view .LVU267
  23:src/plateau.cpp ****     std::string str = "Thr: ";
 1193              		.loc 18 23 32 is_stmt 0 view .LVU268
 1194 0016 0022     		movs	r2, #0
 1195 0018 2846     		mov	r0, r5
 1196 001a 1146     		mov	r1, r2
 1197 001c FFF7FEFF 		bl	_ZN5daisy21OneBitGraphicsDisplay9SetCursorEtt
 1198              	.LVL85:
  24:src/plateau.cpp ****     char *cstr = &str[0];
 1199              		.loc 18 24 5 is_stmt 1 view .LVU269
 1200              	.LBB659:
 1201              	.LBI659:
 1202              		.file 19 "/home/hubert/daisy/gcc/arm-none-eabi/include/c++/10.2.1/bits/allocator.h"
   1:/home/hubert/daisy/gcc/arm-none-eabi/include/c++/10.2.1/bits/allocator.h **** // Allocators -*- C++ -*-
   2:/home/hubert/daisy/gcc/arm-none-eabi/include/c++/10.2.1/bits/allocator.h **** 
   3:/home/hubert/daisy/gcc/arm-none-eabi/include/c++/10.2.1/bits/allocator.h **** // Copyright (C) 2001-2020 Free Software Foundation, Inc.
   4:/home/hubert/daisy/gcc/arm-none-eabi/include/c++/10.2.1/bits/allocator.h **** //
   5:/home/hubert/daisy/gcc/arm-none-eabi/include/c++/10.2.1/bits/allocator.h **** // This file is part of the GNU ISO C++ Library.  This library is free
   6:/home/hubert/daisy/gcc/arm-none-eabi/include/c++/10.2.1/bits/allocator.h **** // software; you can redistribute it and/or modify it under the
   7:/home/hubert/daisy/gcc/arm-none-eabi/include/c++/10.2.1/bits/allocator.h **** // terms of the GNU General Public License as published by the
   8:/home/hubert/daisy/gcc/arm-none-eabi/include/c++/10.2.1/bits/allocator.h **** // Free Software Foundation; either version 3, or (at your option)
   9:/home/hubert/daisy/gcc/arm-none-eabi/include/c++/10.2.1/bits/allocator.h **** // any later version.
  10:/home/hubert/daisy/gcc/arm-none-eabi/include/c++/10.2.1/bits/allocator.h **** 
  11:/home/hubert/daisy/gcc/arm-none-eabi/include/c++/10.2.1/bits/allocator.h **** // This library is distributed in the hope that it will be useful,
  12:/home/hubert/daisy/gcc/arm-none-eabi/include/c++/10.2.1/bits/allocator.h **** // but WITHOUT ANY WARRANTY; without even the implied warranty of
  13:/home/hubert/daisy/gcc/arm-none-eabi/include/c++/10.2.1/bits/allocator.h **** // MERCHANTABILITY or FITNESS FOR A PARTICULAR PURPOSE.  See the
  14:/home/hubert/daisy/gcc/arm-none-eabi/include/c++/10.2.1/bits/allocator.h **** // GNU General Public License for more details.
  15:/home/hubert/daisy/gcc/arm-none-eabi/include/c++/10.2.1/bits/allocator.h **** 
  16:/home/hubert/daisy/gcc/arm-none-eabi/include/c++/10.2.1/bits/allocator.h **** // Under Section 7 of GPL version 3, you are granted additional
  17:/home/hubert/daisy/gcc/arm-none-eabi/include/c++/10.2.1/bits/allocator.h **** // permissions described in the GCC Runtime Library Exception, version
  18:/home/hubert/daisy/gcc/arm-none-eabi/include/c++/10.2.1/bits/allocator.h **** // 3.1, as published by the Free Software Foundation.
  19:/home/hubert/daisy/gcc/arm-none-eabi/include/c++/10.2.1/bits/allocator.h **** 
  20:/home/hubert/daisy/gcc/arm-none-eabi/include/c++/10.2.1/bits/allocator.h **** // You should have received a copy of the GNU General Public License and
  21:/home/hubert/daisy/gcc/arm-none-eabi/include/c++/10.2.1/bits/allocator.h **** // a copy of the GCC Runtime Library Exception along with this program;
  22:/home/hubert/daisy/gcc/arm-none-eabi/include/c++/10.2.1/bits/allocator.h **** // see the files COPYING3 and COPYING.RUNTIME respectively.  If not, see
  23:/home/hubert/daisy/gcc/arm-none-eabi/include/c++/10.2.1/bits/allocator.h **** // <http://www.gnu.org/licenses/>.
  24:/home/hubert/daisy/gcc/arm-none-eabi/include/c++/10.2.1/bits/allocator.h **** 
ARM GAS  /tmp/cc4Uqqbc.s 			page 61


  25:/home/hubert/daisy/gcc/arm-none-eabi/include/c++/10.2.1/bits/allocator.h **** /*
  26:/home/hubert/daisy/gcc/arm-none-eabi/include/c++/10.2.1/bits/allocator.h ****  * Copyright (c) 1996-1997
  27:/home/hubert/daisy/gcc/arm-none-eabi/include/c++/10.2.1/bits/allocator.h ****  * Silicon Graphics Computer Systems, Inc.
  28:/home/hubert/daisy/gcc/arm-none-eabi/include/c++/10.2.1/bits/allocator.h ****  *
  29:/home/hubert/daisy/gcc/arm-none-eabi/include/c++/10.2.1/bits/allocator.h ****  * Permission to use, copy, modify, distribute and sell this software
  30:/home/hubert/daisy/gcc/arm-none-eabi/include/c++/10.2.1/bits/allocator.h ****  * and its documentation for any purpose is hereby granted without fee,
  31:/home/hubert/daisy/gcc/arm-none-eabi/include/c++/10.2.1/bits/allocator.h ****  * provided that the above copyright notice appear in all copies and
  32:/home/hubert/daisy/gcc/arm-none-eabi/include/c++/10.2.1/bits/allocator.h ****  * that both that copyright notice and this permission notice appear
  33:/home/hubert/daisy/gcc/arm-none-eabi/include/c++/10.2.1/bits/allocator.h ****  * in supporting documentation.  Silicon Graphics makes no
  34:/home/hubert/daisy/gcc/arm-none-eabi/include/c++/10.2.1/bits/allocator.h ****  * representations about the suitability of this software for any
  35:/home/hubert/daisy/gcc/arm-none-eabi/include/c++/10.2.1/bits/allocator.h ****  * purpose.  It is provided "as is" without express or implied warranty.
  36:/home/hubert/daisy/gcc/arm-none-eabi/include/c++/10.2.1/bits/allocator.h ****  */
  37:/home/hubert/daisy/gcc/arm-none-eabi/include/c++/10.2.1/bits/allocator.h **** 
  38:/home/hubert/daisy/gcc/arm-none-eabi/include/c++/10.2.1/bits/allocator.h **** /** @file bits/allocator.h
  39:/home/hubert/daisy/gcc/arm-none-eabi/include/c++/10.2.1/bits/allocator.h ****  *  This is an internal header file, included by other library headers.
  40:/home/hubert/daisy/gcc/arm-none-eabi/include/c++/10.2.1/bits/allocator.h ****  *  Do not attempt to use it directly. @headername{memory}
  41:/home/hubert/daisy/gcc/arm-none-eabi/include/c++/10.2.1/bits/allocator.h ****  */
  42:/home/hubert/daisy/gcc/arm-none-eabi/include/c++/10.2.1/bits/allocator.h **** 
  43:/home/hubert/daisy/gcc/arm-none-eabi/include/c++/10.2.1/bits/allocator.h **** #ifndef _ALLOCATOR_H
  44:/home/hubert/daisy/gcc/arm-none-eabi/include/c++/10.2.1/bits/allocator.h **** #define _ALLOCATOR_H 1
  45:/home/hubert/daisy/gcc/arm-none-eabi/include/c++/10.2.1/bits/allocator.h **** 
  46:/home/hubert/daisy/gcc/arm-none-eabi/include/c++/10.2.1/bits/allocator.h **** #include <bits/c++allocator.h> // Define the base class to std::allocator.
  47:/home/hubert/daisy/gcc/arm-none-eabi/include/c++/10.2.1/bits/allocator.h **** #include <bits/memoryfwd.h>
  48:/home/hubert/daisy/gcc/arm-none-eabi/include/c++/10.2.1/bits/allocator.h **** #if __cplusplus >= 201103L
  49:/home/hubert/daisy/gcc/arm-none-eabi/include/c++/10.2.1/bits/allocator.h **** #include <type_traits>
  50:/home/hubert/daisy/gcc/arm-none-eabi/include/c++/10.2.1/bits/allocator.h **** #endif
  51:/home/hubert/daisy/gcc/arm-none-eabi/include/c++/10.2.1/bits/allocator.h **** 
  52:/home/hubert/daisy/gcc/arm-none-eabi/include/c++/10.2.1/bits/allocator.h **** #define __cpp_lib_incomplete_container_elements 201505
  53:/home/hubert/daisy/gcc/arm-none-eabi/include/c++/10.2.1/bits/allocator.h **** 
  54:/home/hubert/daisy/gcc/arm-none-eabi/include/c++/10.2.1/bits/allocator.h **** namespace std _GLIBCXX_VISIBILITY(default)
  55:/home/hubert/daisy/gcc/arm-none-eabi/include/c++/10.2.1/bits/allocator.h **** {
  56:/home/hubert/daisy/gcc/arm-none-eabi/include/c++/10.2.1/bits/allocator.h **** _GLIBCXX_BEGIN_NAMESPACE_VERSION
  57:/home/hubert/daisy/gcc/arm-none-eabi/include/c++/10.2.1/bits/allocator.h **** 
  58:/home/hubert/daisy/gcc/arm-none-eabi/include/c++/10.2.1/bits/allocator.h ****   /**
  59:/home/hubert/daisy/gcc/arm-none-eabi/include/c++/10.2.1/bits/allocator.h ****    *  @addtogroup allocators
  60:/home/hubert/daisy/gcc/arm-none-eabi/include/c++/10.2.1/bits/allocator.h ****    *  @{
  61:/home/hubert/daisy/gcc/arm-none-eabi/include/c++/10.2.1/bits/allocator.h ****    */
  62:/home/hubert/daisy/gcc/arm-none-eabi/include/c++/10.2.1/bits/allocator.h **** 
  63:/home/hubert/daisy/gcc/arm-none-eabi/include/c++/10.2.1/bits/allocator.h ****   /// allocator<void> specialization.
  64:/home/hubert/daisy/gcc/arm-none-eabi/include/c++/10.2.1/bits/allocator.h ****   template<>
  65:/home/hubert/daisy/gcc/arm-none-eabi/include/c++/10.2.1/bits/allocator.h ****     class allocator<void>
  66:/home/hubert/daisy/gcc/arm-none-eabi/include/c++/10.2.1/bits/allocator.h ****     {
  67:/home/hubert/daisy/gcc/arm-none-eabi/include/c++/10.2.1/bits/allocator.h ****     public:
  68:/home/hubert/daisy/gcc/arm-none-eabi/include/c++/10.2.1/bits/allocator.h ****       typedef void        value_type;
  69:/home/hubert/daisy/gcc/arm-none-eabi/include/c++/10.2.1/bits/allocator.h ****       typedef size_t      size_type;
  70:/home/hubert/daisy/gcc/arm-none-eabi/include/c++/10.2.1/bits/allocator.h ****       typedef ptrdiff_t   difference_type;
  71:/home/hubert/daisy/gcc/arm-none-eabi/include/c++/10.2.1/bits/allocator.h **** #if __cplusplus <= 201703L
  72:/home/hubert/daisy/gcc/arm-none-eabi/include/c++/10.2.1/bits/allocator.h ****       typedef void*       pointer;
  73:/home/hubert/daisy/gcc/arm-none-eabi/include/c++/10.2.1/bits/allocator.h ****       typedef const void* const_pointer;
  74:/home/hubert/daisy/gcc/arm-none-eabi/include/c++/10.2.1/bits/allocator.h **** 
  75:/home/hubert/daisy/gcc/arm-none-eabi/include/c++/10.2.1/bits/allocator.h ****       template<typename _Tp1>
  76:/home/hubert/daisy/gcc/arm-none-eabi/include/c++/10.2.1/bits/allocator.h **** 	struct rebind
  77:/home/hubert/daisy/gcc/arm-none-eabi/include/c++/10.2.1/bits/allocator.h **** 	{ typedef allocator<_Tp1> other; };
  78:/home/hubert/daisy/gcc/arm-none-eabi/include/c++/10.2.1/bits/allocator.h **** #else
  79:/home/hubert/daisy/gcc/arm-none-eabi/include/c++/10.2.1/bits/allocator.h ****       allocator() = default;
  80:/home/hubert/daisy/gcc/arm-none-eabi/include/c++/10.2.1/bits/allocator.h **** 
  81:/home/hubert/daisy/gcc/arm-none-eabi/include/c++/10.2.1/bits/allocator.h ****       template<typename _Up>
ARM GAS  /tmp/cc4Uqqbc.s 			page 62


  82:/home/hubert/daisy/gcc/arm-none-eabi/include/c++/10.2.1/bits/allocator.h **** 	constexpr
  83:/home/hubert/daisy/gcc/arm-none-eabi/include/c++/10.2.1/bits/allocator.h **** 	allocator(const allocator<_Up>&) { }
  84:/home/hubert/daisy/gcc/arm-none-eabi/include/c++/10.2.1/bits/allocator.h **** #endif // ! C++20
  85:/home/hubert/daisy/gcc/arm-none-eabi/include/c++/10.2.1/bits/allocator.h **** 
  86:/home/hubert/daisy/gcc/arm-none-eabi/include/c++/10.2.1/bits/allocator.h **** #if __cplusplus >= 201103L && __cplusplus <= 201703L
  87:/home/hubert/daisy/gcc/arm-none-eabi/include/c++/10.2.1/bits/allocator.h ****       // _GLIBCXX_RESOLVE_LIB_DEFECTS
  88:/home/hubert/daisy/gcc/arm-none-eabi/include/c++/10.2.1/bits/allocator.h ****       // 2103. std::allocator propagate_on_container_move_assignment
  89:/home/hubert/daisy/gcc/arm-none-eabi/include/c++/10.2.1/bits/allocator.h ****       typedef true_type propagate_on_container_move_assignment;
  90:/home/hubert/daisy/gcc/arm-none-eabi/include/c++/10.2.1/bits/allocator.h **** 
  91:/home/hubert/daisy/gcc/arm-none-eabi/include/c++/10.2.1/bits/allocator.h ****       typedef true_type is_always_equal;
  92:/home/hubert/daisy/gcc/arm-none-eabi/include/c++/10.2.1/bits/allocator.h **** 
  93:/home/hubert/daisy/gcc/arm-none-eabi/include/c++/10.2.1/bits/allocator.h ****       template<typename _Up, typename... _Args>
  94:/home/hubert/daisy/gcc/arm-none-eabi/include/c++/10.2.1/bits/allocator.h **** 	void
  95:/home/hubert/daisy/gcc/arm-none-eabi/include/c++/10.2.1/bits/allocator.h **** 	construct(_Up* __p, _Args&&... __args)
  96:/home/hubert/daisy/gcc/arm-none-eabi/include/c++/10.2.1/bits/allocator.h **** 	noexcept(std::is_nothrow_constructible<_Up, _Args...>::value)
  97:/home/hubert/daisy/gcc/arm-none-eabi/include/c++/10.2.1/bits/allocator.h **** 	{ ::new((void *)__p) _Up(std::forward<_Args>(__args)...); }
  98:/home/hubert/daisy/gcc/arm-none-eabi/include/c++/10.2.1/bits/allocator.h **** 
  99:/home/hubert/daisy/gcc/arm-none-eabi/include/c++/10.2.1/bits/allocator.h ****       template<typename _Up>
 100:/home/hubert/daisy/gcc/arm-none-eabi/include/c++/10.2.1/bits/allocator.h **** 	void
 101:/home/hubert/daisy/gcc/arm-none-eabi/include/c++/10.2.1/bits/allocator.h **** 	destroy(_Up* __p)
 102:/home/hubert/daisy/gcc/arm-none-eabi/include/c++/10.2.1/bits/allocator.h **** 	noexcept(std::is_nothrow_destructible<_Up>::value)
 103:/home/hubert/daisy/gcc/arm-none-eabi/include/c++/10.2.1/bits/allocator.h **** 	{ __p->~_Up(); }
 104:/home/hubert/daisy/gcc/arm-none-eabi/include/c++/10.2.1/bits/allocator.h **** #endif // C++11 to C++17
 105:/home/hubert/daisy/gcc/arm-none-eabi/include/c++/10.2.1/bits/allocator.h ****     };
 106:/home/hubert/daisy/gcc/arm-none-eabi/include/c++/10.2.1/bits/allocator.h **** 
 107:/home/hubert/daisy/gcc/arm-none-eabi/include/c++/10.2.1/bits/allocator.h ****   /**
 108:/home/hubert/daisy/gcc/arm-none-eabi/include/c++/10.2.1/bits/allocator.h ****    * @brief  The @a standard allocator, as per [20.4].
 109:/home/hubert/daisy/gcc/arm-none-eabi/include/c++/10.2.1/bits/allocator.h ****    *
 110:/home/hubert/daisy/gcc/arm-none-eabi/include/c++/10.2.1/bits/allocator.h ****    *  See https://gcc.gnu.org/onlinedocs/libstdc++/manual/memory.html#std.util.memory.allocator
 111:/home/hubert/daisy/gcc/arm-none-eabi/include/c++/10.2.1/bits/allocator.h ****    *  for further details.
 112:/home/hubert/daisy/gcc/arm-none-eabi/include/c++/10.2.1/bits/allocator.h ****    *
 113:/home/hubert/daisy/gcc/arm-none-eabi/include/c++/10.2.1/bits/allocator.h ****    *  @tparam  _Tp  Type of allocated object.
 114:/home/hubert/daisy/gcc/arm-none-eabi/include/c++/10.2.1/bits/allocator.h ****    */
 115:/home/hubert/daisy/gcc/arm-none-eabi/include/c++/10.2.1/bits/allocator.h ****   template<typename _Tp>
 116:/home/hubert/daisy/gcc/arm-none-eabi/include/c++/10.2.1/bits/allocator.h ****     class allocator : public __allocator_base<_Tp>
 117:/home/hubert/daisy/gcc/arm-none-eabi/include/c++/10.2.1/bits/allocator.h ****     {
 118:/home/hubert/daisy/gcc/arm-none-eabi/include/c++/10.2.1/bits/allocator.h ****     public:
 119:/home/hubert/daisy/gcc/arm-none-eabi/include/c++/10.2.1/bits/allocator.h ****       typedef _Tp        value_type;
 120:/home/hubert/daisy/gcc/arm-none-eabi/include/c++/10.2.1/bits/allocator.h ****       typedef size_t     size_type;
 121:/home/hubert/daisy/gcc/arm-none-eabi/include/c++/10.2.1/bits/allocator.h ****       typedef ptrdiff_t  difference_type;
 122:/home/hubert/daisy/gcc/arm-none-eabi/include/c++/10.2.1/bits/allocator.h **** #if __cplusplus <= 201703L
 123:/home/hubert/daisy/gcc/arm-none-eabi/include/c++/10.2.1/bits/allocator.h ****       typedef _Tp*       pointer;
 124:/home/hubert/daisy/gcc/arm-none-eabi/include/c++/10.2.1/bits/allocator.h ****       typedef const _Tp* const_pointer;
 125:/home/hubert/daisy/gcc/arm-none-eabi/include/c++/10.2.1/bits/allocator.h ****       typedef _Tp&       reference;
 126:/home/hubert/daisy/gcc/arm-none-eabi/include/c++/10.2.1/bits/allocator.h ****       typedef const _Tp& const_reference;
 127:/home/hubert/daisy/gcc/arm-none-eabi/include/c++/10.2.1/bits/allocator.h **** 
 128:/home/hubert/daisy/gcc/arm-none-eabi/include/c++/10.2.1/bits/allocator.h ****       template<typename _Tp1>
 129:/home/hubert/daisy/gcc/arm-none-eabi/include/c++/10.2.1/bits/allocator.h **** 	struct rebind
 130:/home/hubert/daisy/gcc/arm-none-eabi/include/c++/10.2.1/bits/allocator.h **** 	{ typedef allocator<_Tp1> other; };
 131:/home/hubert/daisy/gcc/arm-none-eabi/include/c++/10.2.1/bits/allocator.h **** #endif
 132:/home/hubert/daisy/gcc/arm-none-eabi/include/c++/10.2.1/bits/allocator.h **** 
 133:/home/hubert/daisy/gcc/arm-none-eabi/include/c++/10.2.1/bits/allocator.h **** #if __cplusplus >= 201103L
 134:/home/hubert/daisy/gcc/arm-none-eabi/include/c++/10.2.1/bits/allocator.h ****       // _GLIBCXX_RESOLVE_LIB_DEFECTS
 135:/home/hubert/daisy/gcc/arm-none-eabi/include/c++/10.2.1/bits/allocator.h ****       // 2103. std::allocator propagate_on_container_move_assignment
 136:/home/hubert/daisy/gcc/arm-none-eabi/include/c++/10.2.1/bits/allocator.h ****       typedef true_type propagate_on_container_move_assignment;
 137:/home/hubert/daisy/gcc/arm-none-eabi/include/c++/10.2.1/bits/allocator.h **** 
 138:/home/hubert/daisy/gcc/arm-none-eabi/include/c++/10.2.1/bits/allocator.h ****       typedef true_type is_always_equal;
ARM GAS  /tmp/cc4Uqqbc.s 			page 63


 139:/home/hubert/daisy/gcc/arm-none-eabi/include/c++/10.2.1/bits/allocator.h **** #endif
 140:/home/hubert/daisy/gcc/arm-none-eabi/include/c++/10.2.1/bits/allocator.h **** 
 141:/home/hubert/daisy/gcc/arm-none-eabi/include/c++/10.2.1/bits/allocator.h ****       // _GLIBCXX_RESOLVE_LIB_DEFECTS
 142:/home/hubert/daisy/gcc/arm-none-eabi/include/c++/10.2.1/bits/allocator.h ****       // 3035. std::allocator's constructors should be constexpr
 143:/home/hubert/daisy/gcc/arm-none-eabi/include/c++/10.2.1/bits/allocator.h ****       _GLIBCXX20_CONSTEXPR
 144:/home/hubert/daisy/gcc/arm-none-eabi/include/c++/10.2.1/bits/allocator.h ****       allocator() _GLIBCXX_NOTHROW { }
 1203              		.loc 19 144 7 view .LVU270
 1204              	.LBB660:
 1205              	.LBI660:
 1206              		.file 20 "/home/hubert/daisy/gcc/arm-none-eabi/include/c++/10.2.1/ext/new_allocator.h"
   1:/home/hubert/daisy/gcc/arm-none-eabi/include/c++/10.2.1/ext/new_allocator.h **** // Allocator that wraps operator new -*- C++ -*-
   2:/home/hubert/daisy/gcc/arm-none-eabi/include/c++/10.2.1/ext/new_allocator.h **** 
   3:/home/hubert/daisy/gcc/arm-none-eabi/include/c++/10.2.1/ext/new_allocator.h **** // Copyright (C) 2001-2020 Free Software Foundation, Inc.
   4:/home/hubert/daisy/gcc/arm-none-eabi/include/c++/10.2.1/ext/new_allocator.h **** //
   5:/home/hubert/daisy/gcc/arm-none-eabi/include/c++/10.2.1/ext/new_allocator.h **** // This file is part of the GNU ISO C++ Library.  This library is free
   6:/home/hubert/daisy/gcc/arm-none-eabi/include/c++/10.2.1/ext/new_allocator.h **** // software; you can redistribute it and/or modify it under the
   7:/home/hubert/daisy/gcc/arm-none-eabi/include/c++/10.2.1/ext/new_allocator.h **** // terms of the GNU General Public License as published by the
   8:/home/hubert/daisy/gcc/arm-none-eabi/include/c++/10.2.1/ext/new_allocator.h **** // Free Software Foundation; either version 3, or (at your option)
   9:/home/hubert/daisy/gcc/arm-none-eabi/include/c++/10.2.1/ext/new_allocator.h **** // any later version.
  10:/home/hubert/daisy/gcc/arm-none-eabi/include/c++/10.2.1/ext/new_allocator.h **** 
  11:/home/hubert/daisy/gcc/arm-none-eabi/include/c++/10.2.1/ext/new_allocator.h **** // This library is distributed in the hope that it will be useful,
  12:/home/hubert/daisy/gcc/arm-none-eabi/include/c++/10.2.1/ext/new_allocator.h **** // but WITHOUT ANY WARRANTY; without even the implied warranty of
  13:/home/hubert/daisy/gcc/arm-none-eabi/include/c++/10.2.1/ext/new_allocator.h **** // MERCHANTABILITY or FITNESS FOR A PARTICULAR PURPOSE.  See the
  14:/home/hubert/daisy/gcc/arm-none-eabi/include/c++/10.2.1/ext/new_allocator.h **** // GNU General Public License for more details.
  15:/home/hubert/daisy/gcc/arm-none-eabi/include/c++/10.2.1/ext/new_allocator.h **** 
  16:/home/hubert/daisy/gcc/arm-none-eabi/include/c++/10.2.1/ext/new_allocator.h **** // Under Section 7 of GPL version 3, you are granted additional
  17:/home/hubert/daisy/gcc/arm-none-eabi/include/c++/10.2.1/ext/new_allocator.h **** // permissions described in the GCC Runtime Library Exception, version
  18:/home/hubert/daisy/gcc/arm-none-eabi/include/c++/10.2.1/ext/new_allocator.h **** // 3.1, as published by the Free Software Foundation.
  19:/home/hubert/daisy/gcc/arm-none-eabi/include/c++/10.2.1/ext/new_allocator.h **** 
  20:/home/hubert/daisy/gcc/arm-none-eabi/include/c++/10.2.1/ext/new_allocator.h **** // You should have received a copy of the GNU General Public License and
  21:/home/hubert/daisy/gcc/arm-none-eabi/include/c++/10.2.1/ext/new_allocator.h **** // a copy of the GCC Runtime Library Exception along with this program;
  22:/home/hubert/daisy/gcc/arm-none-eabi/include/c++/10.2.1/ext/new_allocator.h **** // see the files COPYING3 and COPYING.RUNTIME respectively.  If not, see
  23:/home/hubert/daisy/gcc/arm-none-eabi/include/c++/10.2.1/ext/new_allocator.h **** // <http://www.gnu.org/licenses/>.
  24:/home/hubert/daisy/gcc/arm-none-eabi/include/c++/10.2.1/ext/new_allocator.h **** 
  25:/home/hubert/daisy/gcc/arm-none-eabi/include/c++/10.2.1/ext/new_allocator.h **** /** @file ext/new_allocator.h
  26:/home/hubert/daisy/gcc/arm-none-eabi/include/c++/10.2.1/ext/new_allocator.h ****  *  This file is a GNU extension to the Standard C++ Library.
  27:/home/hubert/daisy/gcc/arm-none-eabi/include/c++/10.2.1/ext/new_allocator.h ****  */
  28:/home/hubert/daisy/gcc/arm-none-eabi/include/c++/10.2.1/ext/new_allocator.h **** 
  29:/home/hubert/daisy/gcc/arm-none-eabi/include/c++/10.2.1/ext/new_allocator.h **** #ifndef _NEW_ALLOCATOR_H
  30:/home/hubert/daisy/gcc/arm-none-eabi/include/c++/10.2.1/ext/new_allocator.h **** #define _NEW_ALLOCATOR_H 1
  31:/home/hubert/daisy/gcc/arm-none-eabi/include/c++/10.2.1/ext/new_allocator.h **** 
  32:/home/hubert/daisy/gcc/arm-none-eabi/include/c++/10.2.1/ext/new_allocator.h **** #include <bits/c++config.h>
  33:/home/hubert/daisy/gcc/arm-none-eabi/include/c++/10.2.1/ext/new_allocator.h **** #include <new>
  34:/home/hubert/daisy/gcc/arm-none-eabi/include/c++/10.2.1/ext/new_allocator.h **** #include <bits/functexcept.h>
  35:/home/hubert/daisy/gcc/arm-none-eabi/include/c++/10.2.1/ext/new_allocator.h **** #include <bits/move.h>
  36:/home/hubert/daisy/gcc/arm-none-eabi/include/c++/10.2.1/ext/new_allocator.h **** #if __cplusplus >= 201103L
  37:/home/hubert/daisy/gcc/arm-none-eabi/include/c++/10.2.1/ext/new_allocator.h **** #include <type_traits>
  38:/home/hubert/daisy/gcc/arm-none-eabi/include/c++/10.2.1/ext/new_allocator.h **** #endif
  39:/home/hubert/daisy/gcc/arm-none-eabi/include/c++/10.2.1/ext/new_allocator.h **** 
  40:/home/hubert/daisy/gcc/arm-none-eabi/include/c++/10.2.1/ext/new_allocator.h **** namespace __gnu_cxx _GLIBCXX_VISIBILITY(default)
  41:/home/hubert/daisy/gcc/arm-none-eabi/include/c++/10.2.1/ext/new_allocator.h **** {
  42:/home/hubert/daisy/gcc/arm-none-eabi/include/c++/10.2.1/ext/new_allocator.h **** _GLIBCXX_BEGIN_NAMESPACE_VERSION
  43:/home/hubert/daisy/gcc/arm-none-eabi/include/c++/10.2.1/ext/new_allocator.h **** 
  44:/home/hubert/daisy/gcc/arm-none-eabi/include/c++/10.2.1/ext/new_allocator.h ****   /**
  45:/home/hubert/daisy/gcc/arm-none-eabi/include/c++/10.2.1/ext/new_allocator.h ****    *  @brief  An allocator that uses global new, as per [20.4].
  46:/home/hubert/daisy/gcc/arm-none-eabi/include/c++/10.2.1/ext/new_allocator.h ****    *  @ingroup allocators
  47:/home/hubert/daisy/gcc/arm-none-eabi/include/c++/10.2.1/ext/new_allocator.h ****    *
ARM GAS  /tmp/cc4Uqqbc.s 			page 64


  48:/home/hubert/daisy/gcc/arm-none-eabi/include/c++/10.2.1/ext/new_allocator.h ****    *  This is precisely the allocator defined in the C++ Standard.
  49:/home/hubert/daisy/gcc/arm-none-eabi/include/c++/10.2.1/ext/new_allocator.h ****    *    - all allocation calls operator new
  50:/home/hubert/daisy/gcc/arm-none-eabi/include/c++/10.2.1/ext/new_allocator.h ****    *    - all deallocation calls operator delete
  51:/home/hubert/daisy/gcc/arm-none-eabi/include/c++/10.2.1/ext/new_allocator.h ****    *
  52:/home/hubert/daisy/gcc/arm-none-eabi/include/c++/10.2.1/ext/new_allocator.h ****    *  @tparam  _Tp  Type of allocated object.
  53:/home/hubert/daisy/gcc/arm-none-eabi/include/c++/10.2.1/ext/new_allocator.h ****    */
  54:/home/hubert/daisy/gcc/arm-none-eabi/include/c++/10.2.1/ext/new_allocator.h ****   template<typename _Tp>
  55:/home/hubert/daisy/gcc/arm-none-eabi/include/c++/10.2.1/ext/new_allocator.h ****     class new_allocator
  56:/home/hubert/daisy/gcc/arm-none-eabi/include/c++/10.2.1/ext/new_allocator.h ****     {
  57:/home/hubert/daisy/gcc/arm-none-eabi/include/c++/10.2.1/ext/new_allocator.h ****     public:
  58:/home/hubert/daisy/gcc/arm-none-eabi/include/c++/10.2.1/ext/new_allocator.h ****       typedef _Tp        value_type;
  59:/home/hubert/daisy/gcc/arm-none-eabi/include/c++/10.2.1/ext/new_allocator.h ****       typedef std::size_t     size_type;
  60:/home/hubert/daisy/gcc/arm-none-eabi/include/c++/10.2.1/ext/new_allocator.h ****       typedef std::ptrdiff_t  difference_type;
  61:/home/hubert/daisy/gcc/arm-none-eabi/include/c++/10.2.1/ext/new_allocator.h **** #if __cplusplus <= 201703L
  62:/home/hubert/daisy/gcc/arm-none-eabi/include/c++/10.2.1/ext/new_allocator.h ****       typedef _Tp*       pointer;
  63:/home/hubert/daisy/gcc/arm-none-eabi/include/c++/10.2.1/ext/new_allocator.h ****       typedef const _Tp* const_pointer;
  64:/home/hubert/daisy/gcc/arm-none-eabi/include/c++/10.2.1/ext/new_allocator.h ****       typedef _Tp&       reference;
  65:/home/hubert/daisy/gcc/arm-none-eabi/include/c++/10.2.1/ext/new_allocator.h ****       typedef const _Tp& const_reference;
  66:/home/hubert/daisy/gcc/arm-none-eabi/include/c++/10.2.1/ext/new_allocator.h **** 
  67:/home/hubert/daisy/gcc/arm-none-eabi/include/c++/10.2.1/ext/new_allocator.h ****       template<typename _Tp1>
  68:/home/hubert/daisy/gcc/arm-none-eabi/include/c++/10.2.1/ext/new_allocator.h **** 	struct rebind
  69:/home/hubert/daisy/gcc/arm-none-eabi/include/c++/10.2.1/ext/new_allocator.h **** 	{ typedef new_allocator<_Tp1> other; };
  70:/home/hubert/daisy/gcc/arm-none-eabi/include/c++/10.2.1/ext/new_allocator.h **** #endif
  71:/home/hubert/daisy/gcc/arm-none-eabi/include/c++/10.2.1/ext/new_allocator.h **** 
  72:/home/hubert/daisy/gcc/arm-none-eabi/include/c++/10.2.1/ext/new_allocator.h **** #if __cplusplus >= 201103L
  73:/home/hubert/daisy/gcc/arm-none-eabi/include/c++/10.2.1/ext/new_allocator.h ****       // _GLIBCXX_RESOLVE_LIB_DEFECTS
  74:/home/hubert/daisy/gcc/arm-none-eabi/include/c++/10.2.1/ext/new_allocator.h ****       // 2103. propagate_on_container_move_assignment
  75:/home/hubert/daisy/gcc/arm-none-eabi/include/c++/10.2.1/ext/new_allocator.h ****       typedef std::true_type propagate_on_container_move_assignment;
  76:/home/hubert/daisy/gcc/arm-none-eabi/include/c++/10.2.1/ext/new_allocator.h **** #endif
  77:/home/hubert/daisy/gcc/arm-none-eabi/include/c++/10.2.1/ext/new_allocator.h **** 
  78:/home/hubert/daisy/gcc/arm-none-eabi/include/c++/10.2.1/ext/new_allocator.h ****       _GLIBCXX20_CONSTEXPR
  79:/home/hubert/daisy/gcc/arm-none-eabi/include/c++/10.2.1/ext/new_allocator.h ****       new_allocator() _GLIBCXX_USE_NOEXCEPT { }
 1207              		.loc 20 79 7 view .LVU271
 1208              		.loc 20 79 7 is_stmt 0 view .LVU272
 1209              	.LBE660:
 1210              	.LBE659:
 1211              	.LBB661:
 1212              	.LBI661:
 1213              		.file 21 "/home/hubert/daisy/gcc/arm-none-eabi/include/c++/10.2.1/bits/basic_string.h"
   1:/home/hubert/daisy/gcc/arm-none-eabi/include/c++/10.2.1/bits/basic_string.h **** // Components for manipulating sequences of characters -*- C++ -*-
   2:/home/hubert/daisy/gcc/arm-none-eabi/include/c++/10.2.1/bits/basic_string.h **** 
   3:/home/hubert/daisy/gcc/arm-none-eabi/include/c++/10.2.1/bits/basic_string.h **** // Copyright (C) 1997-2020 Free Software Foundation, Inc.
   4:/home/hubert/daisy/gcc/arm-none-eabi/include/c++/10.2.1/bits/basic_string.h **** //
   5:/home/hubert/daisy/gcc/arm-none-eabi/include/c++/10.2.1/bits/basic_string.h **** // This file is part of the GNU ISO C++ Library.  This library is free
   6:/home/hubert/daisy/gcc/arm-none-eabi/include/c++/10.2.1/bits/basic_string.h **** // software; you can redistribute it and/or modify it under the
   7:/home/hubert/daisy/gcc/arm-none-eabi/include/c++/10.2.1/bits/basic_string.h **** // terms of the GNU General Public License as published by the
   8:/home/hubert/daisy/gcc/arm-none-eabi/include/c++/10.2.1/bits/basic_string.h **** // Free Software Foundation; either version 3, or (at your option)
   9:/home/hubert/daisy/gcc/arm-none-eabi/include/c++/10.2.1/bits/basic_string.h **** // any later version.
  10:/home/hubert/daisy/gcc/arm-none-eabi/include/c++/10.2.1/bits/basic_string.h **** 
  11:/home/hubert/daisy/gcc/arm-none-eabi/include/c++/10.2.1/bits/basic_string.h **** // This library is distributed in the hope that it will be useful,
  12:/home/hubert/daisy/gcc/arm-none-eabi/include/c++/10.2.1/bits/basic_string.h **** // but WITHOUT ANY WARRANTY; without even the implied warranty of
  13:/home/hubert/daisy/gcc/arm-none-eabi/include/c++/10.2.1/bits/basic_string.h **** // MERCHANTABILITY or FITNESS FOR A PARTICULAR PURPOSE.  See the
  14:/home/hubert/daisy/gcc/arm-none-eabi/include/c++/10.2.1/bits/basic_string.h **** // GNU General Public License for more details.
  15:/home/hubert/daisy/gcc/arm-none-eabi/include/c++/10.2.1/bits/basic_string.h **** 
  16:/home/hubert/daisy/gcc/arm-none-eabi/include/c++/10.2.1/bits/basic_string.h **** // Under Section 7 of GPL version 3, you are granted additional
  17:/home/hubert/daisy/gcc/arm-none-eabi/include/c++/10.2.1/bits/basic_string.h **** // permissions described in the GCC Runtime Library Exception, version
  18:/home/hubert/daisy/gcc/arm-none-eabi/include/c++/10.2.1/bits/basic_string.h **** // 3.1, as published by the Free Software Foundation.
ARM GAS  /tmp/cc4Uqqbc.s 			page 65


  19:/home/hubert/daisy/gcc/arm-none-eabi/include/c++/10.2.1/bits/basic_string.h **** 
  20:/home/hubert/daisy/gcc/arm-none-eabi/include/c++/10.2.1/bits/basic_string.h **** // You should have received a copy of the GNU General Public License and
  21:/home/hubert/daisy/gcc/arm-none-eabi/include/c++/10.2.1/bits/basic_string.h **** // a copy of the GCC Runtime Library Exception along with this program;
  22:/home/hubert/daisy/gcc/arm-none-eabi/include/c++/10.2.1/bits/basic_string.h **** // see the files COPYING3 and COPYING.RUNTIME respectively.  If not, see
  23:/home/hubert/daisy/gcc/arm-none-eabi/include/c++/10.2.1/bits/basic_string.h **** // <http://www.gnu.org/licenses/>.
  24:/home/hubert/daisy/gcc/arm-none-eabi/include/c++/10.2.1/bits/basic_string.h **** 
  25:/home/hubert/daisy/gcc/arm-none-eabi/include/c++/10.2.1/bits/basic_string.h **** /** @file bits/basic_string.h
  26:/home/hubert/daisy/gcc/arm-none-eabi/include/c++/10.2.1/bits/basic_string.h ****  *  This is an internal header file, included by other library headers.
  27:/home/hubert/daisy/gcc/arm-none-eabi/include/c++/10.2.1/bits/basic_string.h ****  *  Do not attempt to use it directly. @headername{string}
  28:/home/hubert/daisy/gcc/arm-none-eabi/include/c++/10.2.1/bits/basic_string.h ****  */
  29:/home/hubert/daisy/gcc/arm-none-eabi/include/c++/10.2.1/bits/basic_string.h **** 
  30:/home/hubert/daisy/gcc/arm-none-eabi/include/c++/10.2.1/bits/basic_string.h **** //
  31:/home/hubert/daisy/gcc/arm-none-eabi/include/c++/10.2.1/bits/basic_string.h **** // ISO C++ 14882: 21 Strings library
  32:/home/hubert/daisy/gcc/arm-none-eabi/include/c++/10.2.1/bits/basic_string.h **** //
  33:/home/hubert/daisy/gcc/arm-none-eabi/include/c++/10.2.1/bits/basic_string.h **** 
  34:/home/hubert/daisy/gcc/arm-none-eabi/include/c++/10.2.1/bits/basic_string.h **** #ifndef _BASIC_STRING_H
  35:/home/hubert/daisy/gcc/arm-none-eabi/include/c++/10.2.1/bits/basic_string.h **** #define _BASIC_STRING_H 1
  36:/home/hubert/daisy/gcc/arm-none-eabi/include/c++/10.2.1/bits/basic_string.h **** 
  37:/home/hubert/daisy/gcc/arm-none-eabi/include/c++/10.2.1/bits/basic_string.h **** #pragma GCC system_header
  38:/home/hubert/daisy/gcc/arm-none-eabi/include/c++/10.2.1/bits/basic_string.h **** 
  39:/home/hubert/daisy/gcc/arm-none-eabi/include/c++/10.2.1/bits/basic_string.h **** #include <ext/atomicity.h>
  40:/home/hubert/daisy/gcc/arm-none-eabi/include/c++/10.2.1/bits/basic_string.h **** #include <ext/alloc_traits.h>
  41:/home/hubert/daisy/gcc/arm-none-eabi/include/c++/10.2.1/bits/basic_string.h **** #include <debug/debug.h>
  42:/home/hubert/daisy/gcc/arm-none-eabi/include/c++/10.2.1/bits/basic_string.h **** 
  43:/home/hubert/daisy/gcc/arm-none-eabi/include/c++/10.2.1/bits/basic_string.h **** #if __cplusplus >= 201103L
  44:/home/hubert/daisy/gcc/arm-none-eabi/include/c++/10.2.1/bits/basic_string.h **** #include <initializer_list>
  45:/home/hubert/daisy/gcc/arm-none-eabi/include/c++/10.2.1/bits/basic_string.h **** #endif
  46:/home/hubert/daisy/gcc/arm-none-eabi/include/c++/10.2.1/bits/basic_string.h **** 
  47:/home/hubert/daisy/gcc/arm-none-eabi/include/c++/10.2.1/bits/basic_string.h **** #if __cplusplus >= 201703L
  48:/home/hubert/daisy/gcc/arm-none-eabi/include/c++/10.2.1/bits/basic_string.h **** # include <string_view>
  49:/home/hubert/daisy/gcc/arm-none-eabi/include/c++/10.2.1/bits/basic_string.h **** #endif
  50:/home/hubert/daisy/gcc/arm-none-eabi/include/c++/10.2.1/bits/basic_string.h **** 
  51:/home/hubert/daisy/gcc/arm-none-eabi/include/c++/10.2.1/bits/basic_string.h **** 
  52:/home/hubert/daisy/gcc/arm-none-eabi/include/c++/10.2.1/bits/basic_string.h **** namespace std _GLIBCXX_VISIBILITY(default)
  53:/home/hubert/daisy/gcc/arm-none-eabi/include/c++/10.2.1/bits/basic_string.h **** {
  54:/home/hubert/daisy/gcc/arm-none-eabi/include/c++/10.2.1/bits/basic_string.h **** _GLIBCXX_BEGIN_NAMESPACE_VERSION
  55:/home/hubert/daisy/gcc/arm-none-eabi/include/c++/10.2.1/bits/basic_string.h **** 
  56:/home/hubert/daisy/gcc/arm-none-eabi/include/c++/10.2.1/bits/basic_string.h **** #if _GLIBCXX_USE_CXX11_ABI
  57:/home/hubert/daisy/gcc/arm-none-eabi/include/c++/10.2.1/bits/basic_string.h **** _GLIBCXX_BEGIN_NAMESPACE_CXX11
  58:/home/hubert/daisy/gcc/arm-none-eabi/include/c++/10.2.1/bits/basic_string.h ****   /**
  59:/home/hubert/daisy/gcc/arm-none-eabi/include/c++/10.2.1/bits/basic_string.h ****    *  @class basic_string basic_string.h <string>
  60:/home/hubert/daisy/gcc/arm-none-eabi/include/c++/10.2.1/bits/basic_string.h ****    *  @brief  Managing sequences of characters and character-like objects.
  61:/home/hubert/daisy/gcc/arm-none-eabi/include/c++/10.2.1/bits/basic_string.h ****    *
  62:/home/hubert/daisy/gcc/arm-none-eabi/include/c++/10.2.1/bits/basic_string.h ****    *  @ingroup strings
  63:/home/hubert/daisy/gcc/arm-none-eabi/include/c++/10.2.1/bits/basic_string.h ****    *  @ingroup sequences
  64:/home/hubert/daisy/gcc/arm-none-eabi/include/c++/10.2.1/bits/basic_string.h ****    *
  65:/home/hubert/daisy/gcc/arm-none-eabi/include/c++/10.2.1/bits/basic_string.h ****    *  @tparam _CharT  Type of character
  66:/home/hubert/daisy/gcc/arm-none-eabi/include/c++/10.2.1/bits/basic_string.h ****    *  @tparam _Traits  Traits for character type, defaults to
  67:/home/hubert/daisy/gcc/arm-none-eabi/include/c++/10.2.1/bits/basic_string.h ****    *                   char_traits<_CharT>.
  68:/home/hubert/daisy/gcc/arm-none-eabi/include/c++/10.2.1/bits/basic_string.h ****    *  @tparam _Alloc  Allocator type, defaults to allocator<_CharT>.
  69:/home/hubert/daisy/gcc/arm-none-eabi/include/c++/10.2.1/bits/basic_string.h ****    *
  70:/home/hubert/daisy/gcc/arm-none-eabi/include/c++/10.2.1/bits/basic_string.h ****    *  Meets the requirements of a <a href="tables.html#65">container</a>, a
  71:/home/hubert/daisy/gcc/arm-none-eabi/include/c++/10.2.1/bits/basic_string.h ****    *  <a href="tables.html#66">reversible container</a>, and a
  72:/home/hubert/daisy/gcc/arm-none-eabi/include/c++/10.2.1/bits/basic_string.h ****    *  <a href="tables.html#67">sequence</a>.  Of the
  73:/home/hubert/daisy/gcc/arm-none-eabi/include/c++/10.2.1/bits/basic_string.h ****    *  <a href="tables.html#68">optional sequence requirements</a>, only
  74:/home/hubert/daisy/gcc/arm-none-eabi/include/c++/10.2.1/bits/basic_string.h ****    *  @c push_back, @c at, and @c %array access are supported.
  75:/home/hubert/daisy/gcc/arm-none-eabi/include/c++/10.2.1/bits/basic_string.h ****    */
ARM GAS  /tmp/cc4Uqqbc.s 			page 66


  76:/home/hubert/daisy/gcc/arm-none-eabi/include/c++/10.2.1/bits/basic_string.h ****   template<typename _CharT, typename _Traits, typename _Alloc>
  77:/home/hubert/daisy/gcc/arm-none-eabi/include/c++/10.2.1/bits/basic_string.h ****     class basic_string
  78:/home/hubert/daisy/gcc/arm-none-eabi/include/c++/10.2.1/bits/basic_string.h ****     {
  79:/home/hubert/daisy/gcc/arm-none-eabi/include/c++/10.2.1/bits/basic_string.h ****       typedef typename __gnu_cxx::__alloc_traits<_Alloc>::template
  80:/home/hubert/daisy/gcc/arm-none-eabi/include/c++/10.2.1/bits/basic_string.h **** 	rebind<_CharT>::other _Char_alloc_type;
  81:/home/hubert/daisy/gcc/arm-none-eabi/include/c++/10.2.1/bits/basic_string.h ****       typedef __gnu_cxx::__alloc_traits<_Char_alloc_type> _Alloc_traits;
  82:/home/hubert/daisy/gcc/arm-none-eabi/include/c++/10.2.1/bits/basic_string.h **** 
  83:/home/hubert/daisy/gcc/arm-none-eabi/include/c++/10.2.1/bits/basic_string.h ****       // Types:
  84:/home/hubert/daisy/gcc/arm-none-eabi/include/c++/10.2.1/bits/basic_string.h ****     public:
  85:/home/hubert/daisy/gcc/arm-none-eabi/include/c++/10.2.1/bits/basic_string.h ****       typedef _Traits					traits_type;
  86:/home/hubert/daisy/gcc/arm-none-eabi/include/c++/10.2.1/bits/basic_string.h ****       typedef typename _Traits::char_type		value_type;
  87:/home/hubert/daisy/gcc/arm-none-eabi/include/c++/10.2.1/bits/basic_string.h ****       typedef _Char_alloc_type				allocator_type;
  88:/home/hubert/daisy/gcc/arm-none-eabi/include/c++/10.2.1/bits/basic_string.h ****       typedef typename _Alloc_traits::size_type		size_type;
  89:/home/hubert/daisy/gcc/arm-none-eabi/include/c++/10.2.1/bits/basic_string.h ****       typedef typename _Alloc_traits::difference_type	difference_type;
  90:/home/hubert/daisy/gcc/arm-none-eabi/include/c++/10.2.1/bits/basic_string.h ****       typedef typename _Alloc_traits::reference		reference;
  91:/home/hubert/daisy/gcc/arm-none-eabi/include/c++/10.2.1/bits/basic_string.h ****       typedef typename _Alloc_traits::const_reference	const_reference;
  92:/home/hubert/daisy/gcc/arm-none-eabi/include/c++/10.2.1/bits/basic_string.h ****       typedef typename _Alloc_traits::pointer		pointer;
  93:/home/hubert/daisy/gcc/arm-none-eabi/include/c++/10.2.1/bits/basic_string.h ****       typedef typename _Alloc_traits::const_pointer	const_pointer;
  94:/home/hubert/daisy/gcc/arm-none-eabi/include/c++/10.2.1/bits/basic_string.h ****       typedef __gnu_cxx::__normal_iterator<pointer, basic_string>  iterator;
  95:/home/hubert/daisy/gcc/arm-none-eabi/include/c++/10.2.1/bits/basic_string.h ****       typedef __gnu_cxx::__normal_iterator<const_pointer, basic_string>
  96:/home/hubert/daisy/gcc/arm-none-eabi/include/c++/10.2.1/bits/basic_string.h **** 							const_iterator;
  97:/home/hubert/daisy/gcc/arm-none-eabi/include/c++/10.2.1/bits/basic_string.h ****       typedef std::reverse_iterator<const_iterator>	const_reverse_iterator;
  98:/home/hubert/daisy/gcc/arm-none-eabi/include/c++/10.2.1/bits/basic_string.h ****       typedef std::reverse_iterator<iterator>		reverse_iterator;
  99:/home/hubert/daisy/gcc/arm-none-eabi/include/c++/10.2.1/bits/basic_string.h **** 
 100:/home/hubert/daisy/gcc/arm-none-eabi/include/c++/10.2.1/bits/basic_string.h ****       ///  Value returned by various member functions when they fail.
 101:/home/hubert/daisy/gcc/arm-none-eabi/include/c++/10.2.1/bits/basic_string.h ****       static const size_type	npos = static_cast<size_type>(-1);
 102:/home/hubert/daisy/gcc/arm-none-eabi/include/c++/10.2.1/bits/basic_string.h **** 
 103:/home/hubert/daisy/gcc/arm-none-eabi/include/c++/10.2.1/bits/basic_string.h ****     protected:
 104:/home/hubert/daisy/gcc/arm-none-eabi/include/c++/10.2.1/bits/basic_string.h ****       // type used for positions in insert, erase etc.
 105:/home/hubert/daisy/gcc/arm-none-eabi/include/c++/10.2.1/bits/basic_string.h **** #if __cplusplus < 201103L
 106:/home/hubert/daisy/gcc/arm-none-eabi/include/c++/10.2.1/bits/basic_string.h ****       typedef iterator __const_iterator;
 107:/home/hubert/daisy/gcc/arm-none-eabi/include/c++/10.2.1/bits/basic_string.h **** #else
 108:/home/hubert/daisy/gcc/arm-none-eabi/include/c++/10.2.1/bits/basic_string.h ****       typedef const_iterator __const_iterator;
 109:/home/hubert/daisy/gcc/arm-none-eabi/include/c++/10.2.1/bits/basic_string.h **** #endif
 110:/home/hubert/daisy/gcc/arm-none-eabi/include/c++/10.2.1/bits/basic_string.h **** 
 111:/home/hubert/daisy/gcc/arm-none-eabi/include/c++/10.2.1/bits/basic_string.h ****     private:
 112:/home/hubert/daisy/gcc/arm-none-eabi/include/c++/10.2.1/bits/basic_string.h **** #if __cplusplus >= 201703L
 113:/home/hubert/daisy/gcc/arm-none-eabi/include/c++/10.2.1/bits/basic_string.h ****       // A helper type for avoiding boiler-plate.
 114:/home/hubert/daisy/gcc/arm-none-eabi/include/c++/10.2.1/bits/basic_string.h ****       typedef basic_string_view<_CharT, _Traits> __sv_type;
 115:/home/hubert/daisy/gcc/arm-none-eabi/include/c++/10.2.1/bits/basic_string.h **** 
 116:/home/hubert/daisy/gcc/arm-none-eabi/include/c++/10.2.1/bits/basic_string.h ****       template<typename _Tp, typename _Res>
 117:/home/hubert/daisy/gcc/arm-none-eabi/include/c++/10.2.1/bits/basic_string.h **** 	using _If_sv = enable_if_t<
 118:/home/hubert/daisy/gcc/arm-none-eabi/include/c++/10.2.1/bits/basic_string.h **** 	  __and_<is_convertible<const _Tp&, __sv_type>,
 119:/home/hubert/daisy/gcc/arm-none-eabi/include/c++/10.2.1/bits/basic_string.h **** 		 __not_<is_convertible<const _Tp*, const basic_string*>>,
 120:/home/hubert/daisy/gcc/arm-none-eabi/include/c++/10.2.1/bits/basic_string.h **** 		 __not_<is_convertible<const _Tp&, const _CharT*>>>::value,
 121:/home/hubert/daisy/gcc/arm-none-eabi/include/c++/10.2.1/bits/basic_string.h **** 	  _Res>;
 122:/home/hubert/daisy/gcc/arm-none-eabi/include/c++/10.2.1/bits/basic_string.h **** 
 123:/home/hubert/daisy/gcc/arm-none-eabi/include/c++/10.2.1/bits/basic_string.h ****       // Allows an implicit conversion to __sv_type.
 124:/home/hubert/daisy/gcc/arm-none-eabi/include/c++/10.2.1/bits/basic_string.h ****       static __sv_type
 125:/home/hubert/daisy/gcc/arm-none-eabi/include/c++/10.2.1/bits/basic_string.h ****       _S_to_string_view(__sv_type __svt) noexcept
 126:/home/hubert/daisy/gcc/arm-none-eabi/include/c++/10.2.1/bits/basic_string.h ****       { return __svt; }
 127:/home/hubert/daisy/gcc/arm-none-eabi/include/c++/10.2.1/bits/basic_string.h **** 
 128:/home/hubert/daisy/gcc/arm-none-eabi/include/c++/10.2.1/bits/basic_string.h ****       // Wraps a string_view by explicit conversion and thus
 129:/home/hubert/daisy/gcc/arm-none-eabi/include/c++/10.2.1/bits/basic_string.h ****       // allows to add an internal constructor that does not
 130:/home/hubert/daisy/gcc/arm-none-eabi/include/c++/10.2.1/bits/basic_string.h ****       // participate in overload resolution when a string_view
 131:/home/hubert/daisy/gcc/arm-none-eabi/include/c++/10.2.1/bits/basic_string.h ****       // is provided.
 132:/home/hubert/daisy/gcc/arm-none-eabi/include/c++/10.2.1/bits/basic_string.h ****       struct __sv_wrapper
ARM GAS  /tmp/cc4Uqqbc.s 			page 67


 133:/home/hubert/daisy/gcc/arm-none-eabi/include/c++/10.2.1/bits/basic_string.h ****       {
