ARM GAS  /tmp/ccqtC9dg.s 			page 1


   1              		.cpu cortex-m7
   2              		.eabi_attribute 28, 1
   3              		.eabi_attribute 20, 1
   4              		.eabi_attribute 21, 1
   5              		.eabi_attribute 23, 3
   6              		.eabi_attribute 24, 1
   7              		.eabi_attribute 25, 1
   8              		.eabi_attribute 26, 1
   9              		.eabi_attribute 30, 6
  10              		.eabi_attribute 34, 1
  11              		.eabi_attribute 18, 4
  12              		.file	"kxmx_bluemchen.cpp"
  13              		.text
  14              	.Ltext0:
  15              		.cfi_sections	.debug_frame
  16              		.section	.text._ZN5daisy9I2CHandle6ConfigC2Ev,"axG",%progbits,_ZN5daisy9I2CHandle6ConfigC5Ev,comda
  17              		.align	1
  18              		.weak	_ZN5daisy9I2CHandle6ConfigC2Ev
  19              		.arch armv7e-m
  20              		.syntax unified
  21              		.thumb
  22              		.thumb_func
  23              		.fpu fpv5-d16
  25              	_ZN5daisy9I2CHandle6ConfigC2Ev:
  26              	.LFB631:
  27              		.file 1 "../libDaisy/src/per/i2c.h"
   1:../libDaisy/src/per/i2c.h **** #pragma once
   2:../libDaisy/src/per/i2c.h **** #include "daisy_core.h"
   3:../libDaisy/src/per/i2c.h **** 
   4:../libDaisy/src/per/i2c.h **** namespace daisy
   5:../libDaisy/src/per/i2c.h **** {
   6:../libDaisy/src/per/i2c.h **** /** A handle for interacting with an I2C peripheral. This is a dumb
   7:../libDaisy/src/per/i2c.h ****  *  gateway that internally points to one of the four I2C peripherals
   8:../libDaisy/src/per/i2c.h ****  *  after it was initialised. It can then be copied and passed around.
   9:../libDaisy/src/per/i2c.h ****  *  Use an I2CHandle like this:
  10:../libDaisy/src/per/i2c.h ****  *  
  11:../libDaisy/src/per/i2c.h ****  *      // setup the configuration
  12:../libDaisy/src/per/i2c.h ****  *      I2CHandle::Config i2c_conf;
  13:../libDaisy/src/per/i2c.h ****  *      i2c_conf.periph = I2CHandle::Config::Peripheral::I2C_1;
  14:../libDaisy/src/per/i2c.h ****  *      i2c_conf.speed  = I2CHandle::Config::Speed::I2C_400KHZ;
  15:../libDaisy/src/per/i2c.h ****  *      i2c_conf.mode   = I2CHandle::Config::Mode::Master;
  16:../libDaisy/src/per/i2c.h ****  *      i2c_conf.pin_config.scl  = {DSY_GPIOB, 8};
  17:../libDaisy/src/per/i2c.h ****  *      i2c_conf.pin_config.sda  = {DSY_GPIOB, 9};
  18:../libDaisy/src/per/i2c.h ****  *      // initialise the peripheral
  19:../libDaisy/src/per/i2c.h ****  *      I2CHandle i2c;
  20:../libDaisy/src/per/i2c.h ****  *      i2c.Init(i2c_conf);
  21:../libDaisy/src/per/i2c.h ****  *      // now i2c points to the corresponding peripheral and can be used.
  22:../libDaisy/src/per/i2c.h ****  *      i2c.TransmitBlocking( ... );
  23:../libDaisy/src/per/i2c.h ****  */
  24:../libDaisy/src/per/i2c.h **** class I2CHandle
  25:../libDaisy/src/per/i2c.h **** {
  26:../libDaisy/src/per/i2c.h ****   public:
  27:../libDaisy/src/per/i2c.h ****     /** Contains settings for initialising an I2C interface. */
  28:../libDaisy/src/per/i2c.h ****     struct Config
  28              		.loc 1 28 12
  29              		.cfi_startproc
  30              		@ args = 0, pretend = 0, frame = 8
ARM GAS  /tmp/ccqtC9dg.s 			page 2


  31              		@ frame_needed = 1, uses_anonymous_args = 0
  32              		@ link register save eliminated.
  33 0000 80B4     		push	{r7}
  34              		.cfi_def_cfa_offset 4
  35              		.cfi_offset 7, -4
  36 0002 83B0     		sub	sp, sp, #12
  37              		.cfi_def_cfa_offset 16
  38 0004 00AF     		add	r7, sp, #0
  39              		.cfi_def_cfa_register 7
  40 0006 7860     		str	r0, [r7, #4]
  41              	.LBB2:
  42              		.loc 1 28 12
  43 0008 7B68     		ldr	r3, [r7, #4]
  44 000a 1022     		movs	r2, #16
  45 000c 1A74     		strb	r2, [r3, #16]
  46              	.LBE2:
  47 000e 7B68     		ldr	r3, [r7, #4]
  48 0010 1846     		mov	r0, r3
  49 0012 0C37     		adds	r7, r7, #12
  50              		.cfi_def_cfa_offset 4
  51 0014 BD46     		mov	sp, r7
  52              		.cfi_def_cfa_register 13
  53              		@ sp needed
  54 0016 5DF8047B 		ldr	r7, [sp], #4
  55              		.cfi_restore 7
  56              		.cfi_def_cfa_offset 0
  57 001a 7047     		bx	lr
  58              		.cfi_endproc
  59              	.LFE631:
  61              		.weak	_ZN5daisy9I2CHandle6ConfigC1Ev
  62              		.thumb_set _ZN5daisy9I2CHandle6ConfigC1Ev,_ZN5daisy9I2CHandle6ConfigC2Ev
  63              		.section	.text._ZN5daisy11UartHandler6ConfigC2Ev,"axG",%progbits,_ZN5daisy11UartHandler6ConfigC5Ev
  64              		.align	1
  65              		.weak	_ZN5daisy11UartHandler6ConfigC2Ev
  66              		.syntax unified
  67              		.thumb
  68              		.thumb_func
  69              		.fpu fpv5-d16
  71              	_ZN5daisy11UartHandler6ConfigC2Ev:
  72              	.LFB674:
  73              		.file 2 "../libDaisy/src/per/uart.h"
   1:../libDaisy/src/per/uart.h **** /* 
   2:../libDaisy/src/per/uart.h **** TODO
   3:../libDaisy/src/per/uart.h **** - Overflow handling, etc. for Rx Queue.
   4:../libDaisy/src/per/uart.h **** */
   5:../libDaisy/src/per/uart.h **** 
   6:../libDaisy/src/per/uart.h **** #pragma once
   7:../libDaisy/src/per/uart.h **** #ifndef DSY_UART_H
   8:../libDaisy/src/per/uart.h **** #define DSY_UART_H /**< macro */
   9:../libDaisy/src/per/uart.h **** #include "daisy_core.h"
  10:../libDaisy/src/per/uart.h **** 
  11:../libDaisy/src/per/uart.h **** 
  12:../libDaisy/src/per/uart.h **** namespace daisy
  13:../libDaisy/src/per/uart.h **** {
  14:../libDaisy/src/per/uart.h **** /** @addtogroup serial
  15:../libDaisy/src/per/uart.h ****     @{
  16:../libDaisy/src/per/uart.h ****     */
ARM GAS  /tmp/ccqtC9dg.s 			page 3


  17:../libDaisy/src/per/uart.h **** 
  18:../libDaisy/src/per/uart.h **** /** 
  19:../libDaisy/src/per/uart.h ****     Uart Peripheral
  20:../libDaisy/src/per/uart.h ****     @author shensley
  21:../libDaisy/src/per/uart.h ****     @date March 2020
  22:../libDaisy/src/per/uart.h ****     */
  23:../libDaisy/src/per/uart.h **** class UartHandler
  24:../libDaisy/src/per/uart.h **** {
  25:../libDaisy/src/per/uart.h ****   public:
  26:../libDaisy/src/per/uart.h ****     struct Config
  27:../libDaisy/src/per/uart.h ****     {
  28:../libDaisy/src/per/uart.h ****         enum class Peripheral
  29:../libDaisy/src/per/uart.h ****         {
  30:../libDaisy/src/per/uart.h ****             USART_1,
  31:../libDaisy/src/per/uart.h ****             USART_2,
  32:../libDaisy/src/per/uart.h ****             USART_3,
  33:../libDaisy/src/per/uart.h ****             UART_4,
  34:../libDaisy/src/per/uart.h ****             UART_5,
  35:../libDaisy/src/per/uart.h ****             USART_6,
  36:../libDaisy/src/per/uart.h ****             UART_7,
  37:../libDaisy/src/per/uart.h ****             UART_8,
  38:../libDaisy/src/per/uart.h ****             LPUART_1,
  39:../libDaisy/src/per/uart.h ****         };
  40:../libDaisy/src/per/uart.h **** 
  41:../libDaisy/src/per/uart.h ****         enum class StopBits
  42:../libDaisy/src/per/uart.h ****         {
  43:../libDaisy/src/per/uart.h ****             BITS_0_5,
  44:../libDaisy/src/per/uart.h ****             BITS_1,
  45:../libDaisy/src/per/uart.h ****             BITS_1_5,
  46:../libDaisy/src/per/uart.h ****             BITS_2,
  47:../libDaisy/src/per/uart.h ****         };
  48:../libDaisy/src/per/uart.h **** 
  49:../libDaisy/src/per/uart.h ****         enum class Parity
  50:../libDaisy/src/per/uart.h ****         {
  51:../libDaisy/src/per/uart.h ****             NONE,
  52:../libDaisy/src/per/uart.h ****             EVEN,
  53:../libDaisy/src/per/uart.h ****             ODD,
  54:../libDaisy/src/per/uart.h ****         };
  55:../libDaisy/src/per/uart.h **** 
  56:../libDaisy/src/per/uart.h ****         enum class Mode
  57:../libDaisy/src/per/uart.h ****         {
  58:../libDaisy/src/per/uart.h ****             RX,
  59:../libDaisy/src/per/uart.h ****             TX,
  60:../libDaisy/src/per/uart.h ****             TX_RX,
  61:../libDaisy/src/per/uart.h ****         };
  62:../libDaisy/src/per/uart.h **** 
  63:../libDaisy/src/per/uart.h ****         enum class WordLength
  64:../libDaisy/src/per/uart.h ****         {
  65:../libDaisy/src/per/uart.h ****             BITS_7,
  66:../libDaisy/src/per/uart.h ****             BITS_8,
  67:../libDaisy/src/per/uart.h ****             BITS_9,
  68:../libDaisy/src/per/uart.h ****         };
  69:../libDaisy/src/per/uart.h **** 
  70:../libDaisy/src/per/uart.h ****         struct
  71:../libDaisy/src/per/uart.h ****         {
  72:../libDaisy/src/per/uart.h ****             dsy_gpio_pin tx; /**< & */
  73:../libDaisy/src/per/uart.h ****             dsy_gpio_pin rx; /**< & */
ARM GAS  /tmp/ccqtC9dg.s 			page 4


  74:../libDaisy/src/per/uart.h ****         } pin_config;        /**< & */
  75:../libDaisy/src/per/uart.h **** 
  76:../libDaisy/src/per/uart.h ****         Config()
  74              		.loc 2 76 9
  75              		.cfi_startproc
  76              		@ args = 0, pretend = 0, frame = 8
  77              		@ frame_needed = 1, uses_anonymous_args = 0
  78              		@ link register save eliminated.
  79 0000 80B4     		push	{r7}
  80              		.cfi_def_cfa_offset 4
  81              		.cfi_offset 7, -4
  82 0002 83B0     		sub	sp, sp, #12
  83              		.cfi_def_cfa_offset 16
  84 0004 00AF     		add	r7, sp, #0
  85              		.cfi_def_cfa_register 7
  86 0006 7860     		str	r0, [r7, #4]
  87              	.LBB3:
  77:../libDaisy/src/per/uart.h ****         {
  78:../libDaisy/src/per/uart.h ****             // user must init periph, pin_config, and mode
  79:../libDaisy/src/per/uart.h ****             stopbits   = StopBits::BITS_1;
  88              		.loc 2 79 24
  89 0008 7B68     		ldr	r3, [r7, #4]
  90 000a 0122     		movs	r2, #1
  91 000c 9A60     		str	r2, [r3, #8]
  80:../libDaisy/src/per/uart.h ****             parity     = Parity::NONE;
  92              		.loc 2 80 24
  93 000e 7B68     		ldr	r3, [r7, #4]
  94 0010 0022     		movs	r2, #0
  95 0012 DA60     		str	r2, [r3, #12]
  81:../libDaisy/src/per/uart.h ****             wordlength = WordLength::BITS_8;
  96              		.loc 2 81 24
  97 0014 7B68     		ldr	r3, [r7, #4]
  98 0016 0122     		movs	r2, #1
  99 0018 5A61     		str	r2, [r3, #20]
  82:../libDaisy/src/per/uart.h ****             baudrate   = 31250;
 100              		.loc 2 82 24
 101 001a 7B68     		ldr	r3, [r7, #4]
 102 001c 47F61222 		movw	r2, #31250
 103 0020 9A61     		str	r2, [r3, #24]
 104              	.LBE3:
  83:../libDaisy/src/per/uart.h ****         }
 105              		.loc 2 83 9
 106 0022 7B68     		ldr	r3, [r7, #4]
 107 0024 1846     		mov	r0, r3
 108 0026 0C37     		adds	r7, r7, #12
 109              		.cfi_def_cfa_offset 4
 110 0028 BD46     		mov	sp, r7
 111              		.cfi_def_cfa_register 13
 112              		@ sp needed
 113 002a 5DF8047B 		ldr	r7, [sp], #4
 114              		.cfi_restore 7
 115              		.cfi_def_cfa_offset 0
 116 002e 7047     		bx	lr
 117              		.cfi_endproc
 118              	.LFE674:
 120              		.weak	_ZN5daisy11UartHandler6ConfigC1Ev
 121              		.thumb_set _ZN5daisy11UartHandler6ConfigC1Ev,_ZN5daisy11UartHandler6ConfigC2Ev
ARM GAS  /tmp/ccqtC9dg.s 			page 5


 122              		.section	.rodata._ZStL19piecewise_construct,"a"
 123              		.align	2
 126              	_ZStL19piecewise_construct:
 127 0000 00       		.space	1
 128              		.section	.text._ZN5daisy10MidiParser4InitEv,"axG",%progbits,_ZN5daisy10MidiParser4InitEv,comdat
 129              		.align	1
 130              		.weak	_ZN5daisy10MidiParser4InitEv
 131              		.syntax unified
 132              		.thumb
 133              		.thumb_func
 134              		.fpu fpv5-d16
 136              	_ZN5daisy10MidiParser4InitEv:
 137              	.LFB1597:
 138              		.file 3 "../libDaisy/src/hid/midi_parser.h"
   1:../libDaisy/src/hid/midi_parser.h **** #pragma once
   2:../libDaisy/src/hid/midi_parser.h **** #ifndef DSY_MIDI_PARSER_H
   3:../libDaisy/src/hid/midi_parser.h **** #define DSY_MIDI_PARSER_H
   4:../libDaisy/src/hid/midi_parser.h **** 
   5:../libDaisy/src/hid/midi_parser.h **** #include <stdint.h>
   6:../libDaisy/src/hid/midi_parser.h **** #include <stdlib.h>
   7:../libDaisy/src/hid/midi_parser.h **** #include "hid/MidiEvent.h"
   8:../libDaisy/src/hid/midi_parser.h **** 
   9:../libDaisy/src/hid/midi_parser.h **** namespace daisy
  10:../libDaisy/src/hid/midi_parser.h **** {
  11:../libDaisy/src/hid/midi_parser.h **** /** @brief   Utility class for parsing raw byte streams into MIDI messages
  12:../libDaisy/src/hid/midi_parser.h ****  *  @details Implemented as a state machine designed to parse one byte at a time
  13:../libDaisy/src/hid/midi_parser.h ****  *  @ingroup midi
  14:../libDaisy/src/hid/midi_parser.h ****  */
  15:../libDaisy/src/hid/midi_parser.h **** class MidiParser
  16:../libDaisy/src/hid/midi_parser.h **** {
  17:../libDaisy/src/hid/midi_parser.h ****   public:
  18:../libDaisy/src/hid/midi_parser.h ****     MidiParser(){};
  19:../libDaisy/src/hid/midi_parser.h ****     ~MidiParser() {}
  20:../libDaisy/src/hid/midi_parser.h **** 
  21:../libDaisy/src/hid/midi_parser.h ****     inline void Init() { Reset(); }
 139              		.loc 3 21 17
 140              		.cfi_startproc
 141              		@ args = 0, pretend = 0, frame = 8
 142              		@ frame_needed = 1, uses_anonymous_args = 0
 143 0000 80B5     		push	{r7, lr}
 144              		.cfi_def_cfa_offset 8
 145              		.cfi_offset 7, -8
 146              		.cfi_offset 14, -4
 147 0002 82B0     		sub	sp, sp, #8
 148              		.cfi_def_cfa_offset 16
 149 0004 00AF     		add	r7, sp, #0
 150              		.cfi_def_cfa_register 7
 151 0006 7860     		str	r0, [r7, #4]
 152              		.loc 3 21 31
 153 0008 7868     		ldr	r0, [r7, #4]
 154 000a FFF7FEFF 		bl	_ZN5daisy10MidiParser5ResetEv
 155              		.loc 3 21 35
 156 000e 00BF     		nop
 157 0010 0837     		adds	r7, r7, #8
 158              		.cfi_def_cfa_offset 8
 159 0012 BD46     		mov	sp, r7
 160              		.cfi_def_cfa_register 13
ARM GAS  /tmp/ccqtC9dg.s 			page 6


 161              		@ sp needed
 162 0014 80BD     		pop	{r7, pc}
 163              		.cfi_endproc
 164              	.LFE1597:
 166              		.section	.text._ZN5daisy17MidiUartTransport4InitENS0_6ConfigE,"axG",%progbits,_ZN5daisy17MidiUartT
 167              		.align	1
 168              		.weak	_ZN5daisy17MidiUartTransport4InitENS0_6ConfigE
 169              		.syntax unified
 170              		.thumb
 171              		.thumb_func
 172              		.fpu fpv5-d16
 174              	_ZN5daisy17MidiUartTransport4InitENS0_6ConfigE:
 175              	.LFB1619:
 176              		.file 4 "../libDaisy/src/hid/midi.h"
   1:../libDaisy/src/hid/midi.h **** #pragma once
   2:../libDaisy/src/hid/midi.h **** #ifndef DSY_MIDI_H
   3:../libDaisy/src/hid/midi.h **** #define DSY_MIDI_H
   4:../libDaisy/src/hid/midi.h **** 
   5:../libDaisy/src/hid/midi.h **** #include <stdint.h>
   6:../libDaisy/src/hid/midi.h **** #include <stdlib.h>
   7:../libDaisy/src/hid/midi.h **** #include <algorithm>
   8:../libDaisy/src/hid/midi.h **** #include "per/uart.h"
   9:../libDaisy/src/hid/midi.h **** #include "util/ringbuffer.h"
  10:../libDaisy/src/hid/midi.h **** #include "util/FIFO.h"
  11:../libDaisy/src/hid/midi.h **** #include "hid/midi_parser.h"
  12:../libDaisy/src/hid/midi.h **** #include "hid/usb_midi.h"
  13:../libDaisy/src/hid/midi.h **** #include "sys/dma.h"
  14:../libDaisy/src/hid/midi.h **** #include "sys/system.h"
  15:../libDaisy/src/hid/midi.h **** 
  16:../libDaisy/src/hid/midi.h **** namespace daisy
  17:../libDaisy/src/hid/midi.h **** {
  18:../libDaisy/src/hid/midi.h **** /** @brief   Transport layer for sending and receiving MIDI data over UART
  19:../libDaisy/src/hid/midi.h ****  *  @details This is the mode of communication used for TRS and DIN MIDI
  20:../libDaisy/src/hid/midi.h ****  *           There is an additional 2kB of RAM data used within this class
  21:../libDaisy/src/hid/midi.h ****  *           for processing bulk data from the UART peripheral
  22:../libDaisy/src/hid/midi.h ****  *  @ingroup midi
  23:../libDaisy/src/hid/midi.h **** */
  24:../libDaisy/src/hid/midi.h **** class MidiUartTransport
  25:../libDaisy/src/hid/midi.h **** {
  26:../libDaisy/src/hid/midi.h ****   public:
  27:../libDaisy/src/hid/midi.h ****     typedef void (*MidiRxParseCallback)(uint8_t* data,
  28:../libDaisy/src/hid/midi.h ****                                         size_t   size,
  29:../libDaisy/src/hid/midi.h ****                                         void*    context);
  30:../libDaisy/src/hid/midi.h **** 
  31:../libDaisy/src/hid/midi.h ****     MidiUartTransport() {}
  32:../libDaisy/src/hid/midi.h ****     ~MidiUartTransport() {}
  33:../libDaisy/src/hid/midi.h **** 
  34:../libDaisy/src/hid/midi.h ****     /** @brief Configuration structure for UART MIDI */
  35:../libDaisy/src/hid/midi.h ****     struct Config
  36:../libDaisy/src/hid/midi.h ****     {
  37:../libDaisy/src/hid/midi.h ****         UartHandler::Config::Peripheral periph;
  38:../libDaisy/src/hid/midi.h ****         dsy_gpio_pin                    rx;
  39:../libDaisy/src/hid/midi.h ****         dsy_gpio_pin                    tx;
  40:../libDaisy/src/hid/midi.h **** 
  41:../libDaisy/src/hid/midi.h ****         /** Pointer to buffer for DMA UART rx byte transfer in background.
  42:../libDaisy/src/hid/midi.h ****          *
  43:../libDaisy/src/hid/midi.h ****          *  @details By default this uses a shared buffer in DMA_BUFFER_MEM_SECTION,
ARM GAS  /tmp/ccqtC9dg.s 			page 7


  44:../libDaisy/src/hid/midi.h ****          *           which can only be utilized for a single UART peripheral. To
  45:../libDaisy/src/hid/midi.h ****          *           use MIDI with multiple UART peripherals, you must provide your own
  46:../libDaisy/src/hid/midi.h ****          *           buffer, allocated to a DMA-capable memory section.
  47:../libDaisy/src/hid/midi.h ****          */
  48:../libDaisy/src/hid/midi.h ****         uint8_t* rx_buffer;
  49:../libDaisy/src/hid/midi.h **** 
  50:../libDaisy/src/hid/midi.h ****         /** Size in bytes of rx_buffer.
  51:../libDaisy/src/hid/midi.h ****          *
  52:../libDaisy/src/hid/midi.h ****          *  @details This size determines the maximum Rx bytes readable by the UART in the backgrou
  53:../libDaisy/src/hid/midi.h ****          *           By default it's set to the size of the default shared rx_buffer (256 bytes).
  54:../libDaisy/src/hid/midi.h ****          *           While much smaller sizes can be used, data can get missed if the buffer is too
  55:../libDaisy/src/hid/midi.h ****          */
  56:../libDaisy/src/hid/midi.h ****         size_t rx_buffer_size;
  57:../libDaisy/src/hid/midi.h **** 
  58:../libDaisy/src/hid/midi.h ****         Config();
  59:../libDaisy/src/hid/midi.h ****     };
  60:../libDaisy/src/hid/midi.h **** 
  61:../libDaisy/src/hid/midi.h ****     /** @brief Initialization of UART using config struct */
  62:../libDaisy/src/hid/midi.h ****     inline void Init(Config config)
 177              		.loc 4 62 17
 178              		.cfi_startproc
 179              		@ args = 20, pretend = 16, frame = 40
 180              		@ frame_needed = 1, uses_anonymous_args = 0
 181 0000 84B0     		sub	sp, sp, #16
 182              		.cfi_def_cfa_offset 16
 183 0002 80B5     		push	{r7, lr}
 184              		.cfi_def_cfa_offset 24
 185              		.cfi_offset 7, -24
 186              		.cfi_offset 14, -20
 187 0004 8AB0     		sub	sp, sp, #40
 188              		.cfi_def_cfa_offset 64
 189 0006 00AF     		add	r7, sp, #0
 190              		.cfi_def_cfa_register 7
 191 0008 7860     		str	r0, [r7, #4]
 192 000a 07F13400 		add	r0, r7, #52
 193 000e 80E80E00 		stm	r0, {r1, r2, r3}
  63:../libDaisy/src/hid/midi.h ****     {
  64:../libDaisy/src/hid/midi.h ****         UartHandler::Config uart_config;
 194              		.loc 4 64 29
 195 0012 07F10803 		add	r3, r7, #8
 196 0016 1846     		mov	r0, r3
 197 0018 FFF7FEFF 		bl	_ZN5daisy11UartHandler6ConfigC1Ev
  65:../libDaisy/src/hid/midi.h **** 
  66:../libDaisy/src/hid/midi.h ****         //defaults
  67:../libDaisy/src/hid/midi.h ****         uart_config.baudrate   = 31250;
 198              		.loc 4 67 32
 199 001c 47F61223 		movw	r3, #31250
 200 0020 3B62     		str	r3, [r7, #32]
  68:../libDaisy/src/hid/midi.h ****         uart_config.stopbits   = UartHandler::Config::StopBits::BITS_1;
 201              		.loc 4 68 32
 202 0022 0123     		movs	r3, #1
 203 0024 3B61     		str	r3, [r7, #16]
  69:../libDaisy/src/hid/midi.h ****         uart_config.parity     = UartHandler::Config::Parity::NONE;
 204              		.loc 4 69 32
 205 0026 0023     		movs	r3, #0
 206 0028 7B61     		str	r3, [r7, #20]
  70:../libDaisy/src/hid/midi.h ****         uart_config.mode       = UartHandler::Config::Mode::TX_RX;
ARM GAS  /tmp/ccqtC9dg.s 			page 8


 207              		.loc 4 70 32
 208 002a 0223     		movs	r3, #2
 209 002c BB61     		str	r3, [r7, #24]
  71:../libDaisy/src/hid/midi.h ****         uart_config.wordlength = UartHandler::Config::WordLength::BITS_8;
 210              		.loc 4 71 32
 211 002e 0123     		movs	r3, #1
 212 0030 FB61     		str	r3, [r7, #28]
  72:../libDaisy/src/hid/midi.h **** 
  73:../libDaisy/src/hid/midi.h ****         //user settings
  74:../libDaisy/src/hid/midi.h ****         uart_config.periph        = config.periph;
 213              		.loc 4 74 44
 214 0032 7B6B     		ldr	r3, [r7, #52]
 215              		.loc 4 74 35
 216 0034 FB60     		str	r3, [r7, #12]
  75:../libDaisy/src/hid/midi.h ****         uart_config.pin_config.rx = config.rx;
 217              		.loc 4 75 35
 218 0036 3B8F     		ldrh	r3, [r7, #56]	@ movhi
 219 0038 7B81     		strh	r3, [r7, #10]	@ movhi
  76:../libDaisy/src/hid/midi.h ****         uart_config.pin_config.tx = config.tx;
 220              		.loc 4 76 35
 221 003a 7B8F     		ldrh	r3, [r7, #58]	@ movhi
 222 003c 3B81     		strh	r3, [r7, #8]	@ movhi
  77:../libDaisy/src/hid/midi.h **** 
  78:../libDaisy/src/hid/midi.h ****         rx_buffer      = config.rx_buffer;
 223              		.loc 4 78 33
 224 003e FA6B     		ldr	r2, [r7, #60]
 225              		.loc 4 78 24
 226 0040 7B68     		ldr	r3, [r7, #4]
 227 0042 5A60     		str	r2, [r3, #4]
  79:../libDaisy/src/hid/midi.h ****         rx_buffer_size = config.rx_buffer_size;
 228              		.loc 4 79 33
 229 0044 3A6C     		ldr	r2, [r7, #64]
 230              		.loc 4 79 24
 231 0046 7B68     		ldr	r3, [r7, #4]
 232 0048 9A60     		str	r2, [r3, #8]
  80:../libDaisy/src/hid/midi.h **** 
  81:../libDaisy/src/hid/midi.h ****         /** zero the buffer to ensure emptiness regardless of source memory */
  82:../libDaisy/src/hid/midi.h ****         std::fill(rx_buffer, rx_buffer + rx_buffer_size, 0);
 233              		.loc 4 82 18
 234 004a 7B68     		ldr	r3, [r7, #4]
 235 004c 5868     		ldr	r0, [r3, #4]
 236              		.loc 4 82 30
 237 004e 7B68     		ldr	r3, [r7, #4]
 238 0050 5A68     		ldr	r2, [r3, #4]
 239              		.loc 4 82 42
 240 0052 7B68     		ldr	r3, [r7, #4]
 241 0054 9B68     		ldr	r3, [r3, #8]
 242              		.loc 4 82 18
 243 0056 1344     		add	r3, r3, r2
 244              		.loc 4 82 58
 245 0058 0022     		movs	r2, #0
 246 005a 7A62     		str	r2, [r7, #36]
 247              		.loc 4 82 18
 248 005c 07F12402 		add	r2, r7, #36
 249 0060 1946     		mov	r1, r3
 250 0062 FFF7FEFF 		bl	_ZSt4fillIPhiEvT_S1_RKT0_
  83:../libDaisy/src/hid/midi.h **** 
ARM GAS  /tmp/ccqtC9dg.s 			page 9


  84:../libDaisy/src/hid/midi.h ****         uart_.Init(uart_config);
 251              		.loc 4 84 19
 252 0066 7B68     		ldr	r3, [r7, #4]
 253 0068 07F10802 		add	r2, r7, #8
 254 006c 1146     		mov	r1, r2
 255 006e 1846     		mov	r0, r3
 256 0070 FFF7FEFF 		bl	_ZN5daisy11UartHandler4InitERKNS0_6ConfigE
  85:../libDaisy/src/hid/midi.h ****     }
 257              		.loc 4 85 5
 258 0074 00BF     		nop
 259 0076 2837     		adds	r7, r7, #40
 260              		.cfi_def_cfa_offset 24
 261 0078 BD46     		mov	sp, r7
 262              		.cfi_def_cfa_register 13
 263              		@ sp needed
 264 007a BDE88040 		pop	{r7, lr}
 265              		.cfi_restore 14
 266              		.cfi_restore 7
 267              		.cfi_def_cfa_offset 16
 268 007e 04B0     		add	sp, sp, #16
 269              		.cfi_def_cfa_offset 0
 270 0080 7047     		bx	lr
 271              		.cfi_endproc
 272              	.LFE1619:
 274              		.section	.text._ZNK5daisy13AnalogControl5ValueEv,"axG",%progbits,_ZNK5daisy13AnalogControl5ValueEv
 275              		.align	1
 276              		.weak	_ZNK5daisy13AnalogControl5ValueEv
 277              		.syntax unified
 278              		.thumb
 279              		.thumb_func
 280              		.fpu fpv5-d16
 282              	_ZNK5daisy13AnalogControl5ValueEv:
 283              	.LFB1673:
 284              		.file 5 "../libDaisy/src/hid/ctrl.h"
   1:../libDaisy/src/hid/ctrl.h **** #pragma once
   2:../libDaisy/src/hid/ctrl.h **** #ifndef DSY_KNOB_H
   3:../libDaisy/src/hid/ctrl.h **** #define DSY_KNOB_H /**< & */
   4:../libDaisy/src/hid/ctrl.h **** #include <stdint.h>
   5:../libDaisy/src/hid/ctrl.h **** 
   6:../libDaisy/src/hid/ctrl.h **** #ifdef __cplusplus
   7:../libDaisy/src/hid/ctrl.h **** namespace daisy
   8:../libDaisy/src/hid/ctrl.h **** {
   9:../libDaisy/src/hid/ctrl.h **** /**
  10:../libDaisy/src/hid/ctrl.h ****     @brief Hardware Interface for control inputs \n 
  11:../libDaisy/src/hid/ctrl.h ****     Primarily designed for ADC input controls such as \n 
  12:../libDaisy/src/hid/ctrl.h ****     potentiometers, and control voltage. \n 
  13:../libDaisy/src/hid/ctrl.h ****     @author Stephen Hensley
  14:../libDaisy/src/hid/ctrl.h ****     @date November 2019
  15:../libDaisy/src/hid/ctrl.h ****     @ingroup controls
  16:../libDaisy/src/hid/ctrl.h **** */
  17:../libDaisy/src/hid/ctrl.h **** class AnalogControl
  18:../libDaisy/src/hid/ctrl.h **** {
  19:../libDaisy/src/hid/ctrl.h ****   public:
  20:../libDaisy/src/hid/ctrl.h ****     /** Constructor */
  21:../libDaisy/src/hid/ctrl.h ****     AnalogControl() {}
  22:../libDaisy/src/hid/ctrl.h ****     /** destructor */
  23:../libDaisy/src/hid/ctrl.h ****     ~AnalogControl() {}
ARM GAS  /tmp/ccqtC9dg.s 			page 10


  24:../libDaisy/src/hid/ctrl.h **** 
  25:../libDaisy/src/hid/ctrl.h ****     /** 
  26:../libDaisy/src/hid/ctrl.h ****     Initializes the control
  27:../libDaisy/src/hid/ctrl.h ****     \param *adcptr is a pointer to the raw adc read value -- This can be acquired with dsy_adc_get_
  28:../libDaisy/src/hid/ctrl.h ****     \param sr is the samplerate in Hz that the Process function will be called at.
  29:../libDaisy/src/hid/ctrl.h ****     \param flip determines whether the input is flipped (i.e. 1.f - input) or not before being proc
  30:../libDaisy/src/hid/ctrl.h ****     \param invert determines whether the input is inverted (i.e. -1.f * input) or note before being
  31:../libDaisy/src/hid/ctrl.h ****     \param slew_seconds is the slew time in seconds that it takes for the control to change to a ne
  32:../libDaisy/src/hid/ctrl.h ****     */
  33:../libDaisy/src/hid/ctrl.h ****     void Init(uint16_t *adcptr,
  34:../libDaisy/src/hid/ctrl.h ****               float     sr,
  35:../libDaisy/src/hid/ctrl.h ****               bool      flip         = false,
  36:../libDaisy/src/hid/ctrl.h ****               bool      invert       = false,
  37:../libDaisy/src/hid/ctrl.h ****               float     slew_seconds = 0.002f);
  38:../libDaisy/src/hid/ctrl.h **** 
  39:../libDaisy/src/hid/ctrl.h ****     /** 
  40:../libDaisy/src/hid/ctrl.h ****     This Initializes the AnalogControl for a -5V to 5V inverted input
  41:../libDaisy/src/hid/ctrl.h ****     All of the Init details are the same otherwise
  42:../libDaisy/src/hid/ctrl.h ****     \param *adcptr Pointer to analog digital converter
  43:../libDaisy/src/hid/ctrl.h ****     \param sr Audio engine sample rate
  44:../libDaisy/src/hid/ctrl.h ****     */
  45:../libDaisy/src/hid/ctrl.h ****     void InitBipolarCv(uint16_t *adcptr, float sr);
  46:../libDaisy/src/hid/ctrl.h **** 
  47:../libDaisy/src/hid/ctrl.h ****     /** 
  48:../libDaisy/src/hid/ctrl.h ****     Filters, and transforms a raw ADC read into a normalized range.
  49:../libDaisy/src/hid/ctrl.h ****     this should be called at the rate of specified by samplerate at Init time.   
  50:../libDaisy/src/hid/ctrl.h ****     Default Initializations will return 0.0 -> 1.0
  51:../libDaisy/src/hid/ctrl.h ****     Bi-polar CV inputs will return -1.0 -> 1.0
  52:../libDaisy/src/hid/ctrl.h ****     */
  53:../libDaisy/src/hid/ctrl.h ****     float Process();
  54:../libDaisy/src/hid/ctrl.h **** 
  55:../libDaisy/src/hid/ctrl.h ****     /** Returns the current stored value, without reprocessing */
  56:../libDaisy/src/hid/ctrl.h ****     inline float Value() const { return val_; }
 285              		.loc 5 56 18
 286              		.cfi_startproc
 287              		@ args = 0, pretend = 0, frame = 8
 288              		@ frame_needed = 1, uses_anonymous_args = 0
 289              		@ link register save eliminated.
 290 0000 80B4     		push	{r7}
 291              		.cfi_def_cfa_offset 4
 292              		.cfi_offset 7, -4
 293 0002 83B0     		sub	sp, sp, #12
 294              		.cfi_def_cfa_offset 16
 295 0004 00AF     		add	r7, sp, #0
 296              		.cfi_def_cfa_register 7
 297 0006 7860     		str	r0, [r7, #4]
 298              		.loc 5 56 41
 299 0008 7B68     		ldr	r3, [r7, #4]
 300 000a DB68     		ldr	r3, [r3, #12]	@ float
 301 000c 07EE903A 		vmov	s15, r3
 302              		.loc 5 56 47
 303 0010 B0EE670A 		vmov.f32	s0, s15
 304 0014 0C37     		adds	r7, r7, #12
 305              		.cfi_def_cfa_offset 4
 306 0016 BD46     		mov	sp, r7
 307              		.cfi_def_cfa_register 13
 308              		@ sp needed
ARM GAS  /tmp/ccqtC9dg.s 			page 11


 309 0018 5DF8047B 		ldr	r7, [sp], #4
 310              		.cfi_restore 7
 311              		.cfi_def_cfa_offset 0
 312 001c 7047     		bx	lr
 313              		.cfi_endproc
 314              	.LFE1673:
 316              		.section	.text._ZN5daisy12SdmmcHandler6Config8DefaultsEv,"axG",%progbits,_ZN5daisy12SdmmcHandler6C
 317              		.align	1
 318              		.weak	_ZN5daisy12SdmmcHandler6Config8DefaultsEv
 319              		.syntax unified
 320              		.thumb
 321              		.thumb_func
 322              		.fpu fpv5-d16
 324              	_ZN5daisy12SdmmcHandler6Config8DefaultsEv:
 325              	.LFB1717:
 326              		.file 6 "../libDaisy/src/per/sdmmc.h"
   1:../libDaisy/src/per/sdmmc.h **** /*
   2:../libDaisy/src/per/sdmmc.h **** TODO: 
   3:../libDaisy/src/per/sdmmc.h **** - Implement configuration (currently all settings are fixed).
   4:../libDaisy/src/per/sdmmc.h **** */
   5:../libDaisy/src/per/sdmmc.h **** #pragma once
   6:../libDaisy/src/per/sdmmc.h **** #ifndef DSY_SDMMC_H
   7:../libDaisy/src/per/sdmmc.h **** #define DSY_SDMMC_H /**< macro */
   8:../libDaisy/src/per/sdmmc.h **** 
   9:../libDaisy/src/per/sdmmc.h **** #include <stdint.h>
  10:../libDaisy/src/per/sdmmc.h **** 
  11:../libDaisy/src/per/sdmmc.h **** 
  12:../libDaisy/src/per/sdmmc.h **** namespace daisy
  13:../libDaisy/src/per/sdmmc.h **** {
  14:../libDaisy/src/per/sdmmc.h **** /** @ingroup peripheral
  15:../libDaisy/src/per/sdmmc.h ****     @{
  16:../libDaisy/src/per/sdmmc.h ****     */
  17:../libDaisy/src/per/sdmmc.h **** 
  18:../libDaisy/src/per/sdmmc.h **** /** Configuration for interfacing with SD cards.
  19:../libDaisy/src/per/sdmmc.h ****  *  Currently only supports operation using FatFS filesystem
  20:../libDaisy/src/per/sdmmc.h ****  * 
  21:../libDaisy/src/per/sdmmc.h ****  *  Only SDMMC1 is supported at this time.
  22:../libDaisy/src/per/sdmmc.h ****  *
  23:../libDaisy/src/per/sdmmc.h ****  *  Pins are fixed to the following:
  24:../libDaisy/src/per/sdmmc.h ****  *  PC12 - SDMMC1 CK
  25:../libDaisy/src/per/sdmmc.h ****  *  PD2  - SDMMC1 CMD
  26:../libDaisy/src/per/sdmmc.h ****  *  PC8  - SDMMC1 D0
  27:../libDaisy/src/per/sdmmc.h ****  *  PC9  - SDMMC1 D1 (optional)
  28:../libDaisy/src/per/sdmmc.h ****  *  PC10 - SDMMC1 D2 (optional)
  29:../libDaisy/src/per/sdmmc.h ****  *  PC11 - SDMMC1 D3 (optional)
  30:../libDaisy/src/per/sdmmc.h **** */
  31:../libDaisy/src/per/sdmmc.h **** class SdmmcHandler
  32:../libDaisy/src/per/sdmmc.h **** {
  33:../libDaisy/src/per/sdmmc.h ****   public:
  34:../libDaisy/src/per/sdmmc.h ****     /** Return values for the SdmmcHandler class */
  35:../libDaisy/src/per/sdmmc.h ****     enum class Result
  36:../libDaisy/src/per/sdmmc.h ****     {
  37:../libDaisy/src/per/sdmmc.h ****         OK,
  38:../libDaisy/src/per/sdmmc.h ****         ERROR,
  39:../libDaisy/src/per/sdmmc.h ****     };
  40:../libDaisy/src/per/sdmmc.h **** 
  41:../libDaisy/src/per/sdmmc.h ****     /** Sets whether 4-bit mode or 1-bit mode is used for the SDMMC */
ARM GAS  /tmp/ccqtC9dg.s 			page 12


  42:../libDaisy/src/per/sdmmc.h ****     enum class BusWidth
  43:../libDaisy/src/per/sdmmc.h ****     {
  44:../libDaisy/src/per/sdmmc.h ****         BITS_1, /**< Only 1 bit of data per clock is transferred */
  45:../libDaisy/src/per/sdmmc.h ****         BITS_4, /**< 4-bits of parallel data for each clock pulse */
  46:../libDaisy/src/per/sdmmc.h ****     };
  47:../libDaisy/src/per/sdmmc.h **** 
  48:../libDaisy/src/per/sdmmc.h ****     /** 
  49:../libDaisy/src/per/sdmmc.h ****     Sets the desired clock speed of the SD card bus. \n 
  50:../libDaisy/src/per/sdmmc.h ****     Initialization is always done at or below 400kHz, and then the user speed is set.
  51:../libDaisy/src/per/sdmmc.h ****     */
  52:../libDaisy/src/per/sdmmc.h ****     enum class Speed
  53:../libDaisy/src/per/sdmmc.h ****     {
  54:../libDaisy/src/per/sdmmc.h ****         SLOW, /**< 400kHz, initialization  performed at this rate, before moving to user value */
  55:../libDaisy/src/per/sdmmc.h ****         MEDIUM_SLOW, /**< 12.5MHz - half of standard rate */
  56:../libDaisy/src/per/sdmmc.h ****         STANDARD,    /**< 25MHz - DS (Default Speed for SDMMC) */
  57:../libDaisy/src/per/sdmmc.h ****         FAST,        /**< 50MHz - HS (High Speed signaling) */
  58:../libDaisy/src/per/sdmmc.h ****         VERY_FAST, /**< 100MHz - SDR50 Overclocked rate for maximum transfer rates */
  59:../libDaisy/src/per/sdmmc.h ****     };
  60:../libDaisy/src/per/sdmmc.h **** 
  61:../libDaisy/src/per/sdmmc.h ****     struct Config
  62:../libDaisy/src/per/sdmmc.h ****     {
  63:../libDaisy/src/per/sdmmc.h ****         Speed    speed;
  64:../libDaisy/src/per/sdmmc.h ****         BusWidth width;
  65:../libDaisy/src/per/sdmmc.h ****         bool
  66:../libDaisy/src/per/sdmmc.h ****             clock_powersave; /**< When true, the clock will stop between transfers to save power. *
  67:../libDaisy/src/per/sdmmc.h **** 
  68:../libDaisy/src/per/sdmmc.h ****         /** Configures settings to their default settings */
  69:../libDaisy/src/per/sdmmc.h ****         void Defaults()
 327              		.loc 6 69 14
 328              		.cfi_startproc
 329              		@ args = 0, pretend = 0, frame = 8
 330              		@ frame_needed = 1, uses_anonymous_args = 0
 331              		@ link register save eliminated.
 332 0000 80B4     		push	{r7}
 333              		.cfi_def_cfa_offset 4
 334              		.cfi_offset 7, -4
 335 0002 83B0     		sub	sp, sp, #12
 336              		.cfi_def_cfa_offset 16
 337 0004 00AF     		add	r7, sp, #0
 338              		.cfi_def_cfa_register 7
 339 0006 7860     		str	r0, [r7, #4]
  70:../libDaisy/src/per/sdmmc.h ****         {
  71:../libDaisy/src/per/sdmmc.h ****             speed           = Speed::FAST;
 340              		.loc 6 71 29
 341 0008 7B68     		ldr	r3, [r7, #4]
 342 000a 0322     		movs	r2, #3
 343 000c 1A60     		str	r2, [r3]
  72:../libDaisy/src/per/sdmmc.h ****             width           = BusWidth::BITS_4;
 344              		.loc 6 72 29
 345 000e 7B68     		ldr	r3, [r7, #4]
 346 0010 0122     		movs	r2, #1
 347 0012 5A60     		str	r2, [r3, #4]
  73:../libDaisy/src/per/sdmmc.h ****             clock_powersave = false;
 348              		.loc 6 73 29
 349 0014 7B68     		ldr	r3, [r7, #4]
 350 0016 0022     		movs	r2, #0
 351 0018 1A72     		strb	r2, [r3, #8]
ARM GAS  /tmp/ccqtC9dg.s 			page 13


  74:../libDaisy/src/per/sdmmc.h ****         }
 352              		.loc 6 74 9
 353 001a 00BF     		nop
 354 001c 0C37     		adds	r7, r7, #12
 355              		.cfi_def_cfa_offset 4
 356 001e BD46     		mov	sp, r7
 357              		.cfi_def_cfa_register 13
 358              		@ sp needed
 359 0020 5DF8047B 		ldr	r7, [sp], #4
 360              		.cfi_restore 7
 361              		.cfi_def_cfa_offset 0
 362 0024 7047     		bx	lr
 363              		.cfi_endproc
 364              	.LFE1717:
 366              		.section	.rodata._ZN5daisyL15kWavFileChunkIdE,"a"
 367              		.align	2
 370              	_ZN5daisyL15kWavFileChunkIdE:
 371 0000 52494646 		.word	1179011410
 372              		.section	.rodata._ZN5daisyL14kWavFileWaveIdE,"a"
 373              		.align	2
 376              	_ZN5daisyL14kWavFileWaveIdE:
 377 0000 57415645 		.word	1163280727
 378              		.section	.rodata._ZN5daisyL19kWavFileSubChunk1IdE,"a"
 379              		.align	2
 382              	_ZN5daisyL19kWavFileSubChunk1IdE:
 383 0000 666D7420 		.word	544501094
 384              		.section	.rodata._ZN5daisyL19kWavFileSubChunk2IdE,"a"
 385              		.align	2
 388              	_ZN5daisyL19kWavFileSubChunk2IdE:
 389 0000 64617461 		.word	1635017060
 390              		.section	.rodata._ZL19kMaxSr595DaisyChain,"a"
 391              		.align	2
 394              	_ZL19kMaxSr595DaisyChain:
 395 0000 10000000 		.word	16
 396              		.section	.rodata._ZN5daisy4seedL2D0E,"a"
 397              		.align	2
 400              	_ZN5daisy4seedL2D0E:
 401 0000 01       		.byte	1
 402 0001 0C       		.byte	12
 403              		.section	.rodata._ZN5daisy4seedL2D1E,"a"
 404              		.align	2
 407              	_ZN5daisy4seedL2D1E:
 408 0000 02       		.byte	2
 409 0001 0B       		.byte	11
 410              		.section	.rodata._ZN5daisy4seedL2D2E,"a"
 411              		.align	2
 414              	_ZN5daisy4seedL2D2E:
 415 0000 02       		.byte	2
 416 0001 0A       		.byte	10
 417              		.section	.rodata._ZN5daisy4seedL2D3E,"a"
 418              		.align	2
 421              	_ZN5daisy4seedL2D3E:
 422 0000 02       		.byte	2
 423 0001 09       		.byte	9
 424              		.section	.rodata._ZN5daisy4seedL2D4E,"a"
 425              		.align	2
 428              	_ZN5daisy4seedL2D4E:
ARM GAS  /tmp/ccqtC9dg.s 			page 14


 429 0000 02       		.byte	2
 430 0001 08       		.byte	8
 431              		.section	.rodata._ZN5daisy4seedL2D5E,"a"
 432              		.align	2
 435              	_ZN5daisy4seedL2D5E:
 436 0000 03       		.byte	3
 437 0001 02       		.byte	2
 438              		.section	.rodata._ZN5daisy4seedL2D6E,"a"
 439              		.align	2
 442              	_ZN5daisy4seedL2D6E:
 443 0000 02       		.byte	2
 444 0001 0C       		.byte	12
 445              		.section	.rodata._ZN5daisy4seedL2D7E,"a"
 446              		.align	2
 449              	_ZN5daisy4seedL2D7E:
 450 0000 06       		.byte	6
 451 0001 0A       		.byte	10
 452              		.section	.rodata._ZN5daisy4seedL2D8E,"a"
 453              		.align	2
 456              	_ZN5daisy4seedL2D8E:
 457 0000 06       		.byte	6
 458 0001 0B       		.byte	11
 459              		.section	.rodata._ZN5daisy4seedL2D9E,"a"
 460              		.align	2
 463              	_ZN5daisy4seedL2D9E:
 464 0000 01       		.byte	1
 465 0001 04       		.byte	4
 466              		.section	.rodata._ZN5daisy4seedL3D10E,"a"
 467              		.align	2
 470              	_ZN5daisy4seedL3D10E:
 471 0000 01       		.byte	1
 472 0001 05       		.byte	5
 473              		.section	.rodata._ZN5daisy4seedL3D11E,"a"
 474              		.align	2
 477              	_ZN5daisy4seedL3D11E:
 478 0000 01       		.byte	1
 479 0001 08       		.byte	8
 480              		.section	.rodata._ZN5daisy4seedL3D12E,"a"
 481              		.align	2
 484              	_ZN5daisy4seedL3D12E:
 485 0000 01       		.byte	1
 486 0001 09       		.byte	9
 487              		.section	.rodata._ZN5daisy4seedL3D13E,"a"
 488              		.align	2
 491              	_ZN5daisy4seedL3D13E:
 492 0000 01       		.byte	1
 493 0001 06       		.byte	6
 494              		.section	.rodata._ZN5daisy4seedL3D14E,"a"
 495              		.align	2
 498              	_ZN5daisy4seedL3D14E:
 499 0000 01       		.byte	1
 500 0001 07       		.byte	7
 501              		.section	.rodata._ZN5daisy4seedL3D15E,"a"
 502              		.align	2
 505              	_ZN5daisy4seedL3D15E:
 506 0000 02       		.byte	2
 507 0001 00       		.byte	0
ARM GAS  /tmp/ccqtC9dg.s 			page 15


 508              		.section	.rodata._ZN5daisy4seedL3D16E,"a"
 509              		.align	2
 512              	_ZN5daisy4seedL3D16E:
 513 0000 00       		.byte	0
 514 0001 03       		.byte	3
 515              		.section	.rodata._ZN5daisy4seedL3D17E,"a"
 516              		.align	2
 519              	_ZN5daisy4seedL3D17E:
 520 0000 01       		.byte	1
 521 0001 01       		.byte	1
 522              		.section	.rodata._ZN5daisy4seedL3D18E,"a"
 523              		.align	2
 526              	_ZN5daisy4seedL3D18E:
 527 0000 00       		.byte	0
 528 0001 07       		.byte	7
 529              		.section	.rodata._ZN5daisy4seedL3D19E,"a"
 530              		.align	2
 533              	_ZN5daisy4seedL3D19E:
 534 0000 00       		.byte	0
 535 0001 06       		.byte	6
 536              		.section	.rodata._ZN5daisy4seedL3D20E,"a"
 537              		.align	2
 540              	_ZN5daisy4seedL3D20E:
 541 0000 02       		.byte	2
 542 0001 01       		.byte	1
 543              		.section	.rodata._ZN5daisy4seedL3D21E,"a"
 544              		.align	2
 547              	_ZN5daisy4seedL3D21E:
 548 0000 02       		.byte	2
 549 0001 04       		.byte	4
 550              		.section	.rodata._ZN5daisy4seedL3D22E,"a"
 551              		.align	2
 554              	_ZN5daisy4seedL3D22E:
 555 0000 00       		.byte	0
 556 0001 05       		.byte	5
 557              		.section	.rodata._ZN5daisy4seedL3D23E,"a"
 558              		.align	2
 561              	_ZN5daisy4seedL3D23E:
 562 0000 00       		.byte	0
 563 0001 04       		.byte	4
 564              		.section	.rodata._ZN5daisy4seedL3D24E,"a"
 565              		.align	2
 568              	_ZN5daisy4seedL3D24E:
 569 0000 00       		.byte	0
 570 0001 01       		.byte	1
 571              		.section	.rodata._ZN5daisy4seedL3D25E,"a"
 572              		.align	2
 575              	_ZN5daisy4seedL3D25E:
 576 0000 0000     		.space	2
 577              		.section	.rodata._ZN5daisy4seedL3D26E,"a"
 578              		.align	2
 581              	_ZN5daisy4seedL3D26E:
 582 0000 03       		.byte	3
 583 0001 0B       		.byte	11
 584              		.section	.rodata._ZN5daisy4seedL3D27E,"a"
 585              		.align	2
 588              	_ZN5daisy4seedL3D27E:
ARM GAS  /tmp/ccqtC9dg.s 			page 16


 589 0000 06       		.byte	6
 590 0001 09       		.byte	9
 591              		.section	.rodata._ZN5daisy4seedL3D28E,"a"
 592              		.align	2
 595              	_ZN5daisy4seedL3D28E:
 596 0000 00       		.byte	0
 597 0001 02       		.byte	2
 598              		.section	.rodata._ZN5daisy4seedL3D29E,"a"
 599              		.align	2
 602              	_ZN5daisy4seedL3D29E:
 603 0000 01       		.byte	1
 604 0001 0E       		.byte	14
 605              		.section	.rodata._ZN5daisy4seedL3D30E,"a"
 606              		.align	2
 609              	_ZN5daisy4seedL3D30E:
 610 0000 01       		.byte	1
 611 0001 0F       		.byte	15
 612              		.section	.rodata._ZN5daisy4seedL2A0E,"a"
 613              		.align	2
 616              	_ZN5daisy4seedL2A0E:
 617 0000 02       		.byte	2
 618 0001 00       		.byte	0
 619              		.section	.rodata._ZN5daisy4seedL2A1E,"a"
 620              		.align	2
 623              	_ZN5daisy4seedL2A1E:
 624 0000 00       		.byte	0
 625 0001 03       		.byte	3
 626              		.section	.rodata._ZN5daisy4seedL2A2E,"a"
 627              		.align	2
 630              	_ZN5daisy4seedL2A2E:
 631 0000 01       		.byte	1
 632 0001 01       		.byte	1
 633              		.section	.rodata._ZN5daisy4seedL2A3E,"a"
 634              		.align	2
 637              	_ZN5daisy4seedL2A3E:
 638 0000 00       		.byte	0
 639 0001 07       		.byte	7
 640              		.section	.rodata._ZN5daisy4seedL2A4E,"a"
 641              		.align	2
 644              	_ZN5daisy4seedL2A4E:
 645 0000 00       		.byte	0
 646 0001 06       		.byte	6
 647              		.section	.rodata._ZN5daisy4seedL2A5E,"a"
 648              		.align	2
 651              	_ZN5daisy4seedL2A5E:
 652 0000 02       		.byte	2
 653 0001 01       		.byte	1
 654              		.section	.rodata._ZN5daisy4seedL2A6E,"a"
 655              		.align	2
 658              	_ZN5daisy4seedL2A6E:
 659 0000 02       		.byte	2
 660 0001 04       		.byte	4
 661              		.section	.rodata._ZN5daisy4seedL2A7E,"a"
 662              		.align	2
 665              	_ZN5daisy4seedL2A7E:
 666 0000 00       		.byte	0
 667 0001 05       		.byte	5
ARM GAS  /tmp/ccqtC9dg.s 			page 17


 668              		.section	.rodata._ZN5daisy4seedL2A8E,"a"
 669              		.align	2
 672              	_ZN5daisy4seedL2A8E:
 673 0000 00       		.byte	0
 674 0001 04       		.byte	4
 675              		.section	.rodata._ZN5daisy4seedL2A9E,"a"
 676              		.align	2
 679              	_ZN5daisy4seedL2A9E:
 680 0000 00       		.byte	0
 681 0001 01       		.byte	1
 682              		.section	.rodata._ZN5daisy4seedL3A10E,"a"
 683              		.align	2
 686              	_ZN5daisy4seedL3A10E:
 687 0000 0000     		.space	2
 688              		.section	.rodata._ZN5daisy4seedL3A11E,"a"
 689              		.align	2
 692              	_ZN5daisy4seedL3A11E:
 693 0000 00       		.byte	0
 694 0001 02       		.byte	2
 695              		.section	.rodata._ZN5daisy4seedL3D31E,"a"
 696              		.align	2
 699              	_ZN5daisy4seedL3D31E:
 700 0000 02       		.byte	2
 701 0001 02       		.byte	2
 702              		.section	.rodata._ZN5daisy4seedL3D32E,"a"
 703              		.align	2
 706              	_ZN5daisy4seedL3D32E:
 707 0000 02       		.byte	2
 708 0001 03       		.byte	3
 709              		.section	.rodata._ZN5daisy4seedL3A12E,"a"
 710              		.align	2
 713              	_ZN5daisy4seedL3A12E:
 714 0000 02       		.byte	2
 715 0001 02       		.byte	2
 716              		.section	.rodata._ZN5daisy4seedL3A13E,"a"
 717              		.align	2
 720              	_ZN5daisy4seedL3A13E:
 721 0000 02       		.byte	2
 722 0001 03       		.byte	3
 723              		.section	.text._ZN5daisy19SSD130xI2CTransport6ConfigC2Ev,"axG",%progbits,_ZN5daisy19SSD130xI2CTran
 724              		.align	1
 725              		.weak	_ZN5daisy19SSD130xI2CTransport6ConfigC2Ev
 726              		.syntax unified
 727              		.thumb
 728              		.thumb_func
 729              		.fpu fpv5-d16
 731              	_ZN5daisy19SSD130xI2CTransport6ConfigC2Ev:
 732              	.LFB2561:
 733              		.file 7 "../libDaisy/src/dev/oled_ssd130x.h"
   1:../libDaisy/src/dev/oled_ssd130x.h **** #pragma once
   2:../libDaisy/src/dev/oled_ssd130x.h **** #ifndef SA_OLED_SSD130X_H
   3:../libDaisy/src/dev/oled_ssd130x.h **** #define SA_OLED_SSD130X_H /**< & */
   4:../libDaisy/src/dev/oled_ssd130x.h **** 
   5:../libDaisy/src/dev/oled_ssd130x.h **** #include "per/i2c.h"
   6:../libDaisy/src/dev/oled_ssd130x.h **** #include "per/spi.h"
   7:../libDaisy/src/dev/oled_ssd130x.h **** #include "per/gpio.h"
   8:../libDaisy/src/dev/oled_ssd130x.h **** #include "sys/system.h"
ARM GAS  /tmp/ccqtC9dg.s 			page 18


   9:../libDaisy/src/dev/oled_ssd130x.h **** 
  10:../libDaisy/src/dev/oled_ssd130x.h **** namespace daisy
  11:../libDaisy/src/dev/oled_ssd130x.h **** {
  12:../libDaisy/src/dev/oled_ssd130x.h **** /**
  13:../libDaisy/src/dev/oled_ssd130x.h ****  * I2C Transport for SSD1306 / SSD1309 OLED display devices
  14:../libDaisy/src/dev/oled_ssd130x.h ****  */
  15:../libDaisy/src/dev/oled_ssd130x.h **** class SSD130xI2CTransport
  16:../libDaisy/src/dev/oled_ssd130x.h **** {
  17:../libDaisy/src/dev/oled_ssd130x.h ****   public:
  18:../libDaisy/src/dev/oled_ssd130x.h ****     struct Config
  19:../libDaisy/src/dev/oled_ssd130x.h ****     {
  20:../libDaisy/src/dev/oled_ssd130x.h ****         Config()
 734              		.loc 7 20 9
 735              		.cfi_startproc
 736              		@ args = 0, pretend = 0, frame = 8
 737              		@ frame_needed = 1, uses_anonymous_args = 0
 738 0000 80B5     		push	{r7, lr}
 739              		.cfi_def_cfa_offset 8
 740              		.cfi_offset 7, -8
 741              		.cfi_offset 14, -4
 742 0002 82B0     		sub	sp, sp, #8
 743              		.cfi_def_cfa_offset 16
 744 0004 00AF     		add	r7, sp, #0
 745              		.cfi_def_cfa_register 7
 746 0006 7860     		str	r0, [r7, #4]
 747              	.LBB4:
  21:../libDaisy/src/dev/oled_ssd130x.h ****         {
 748              		.loc 7 21 9
 749 0008 7B68     		ldr	r3, [r7, #4]
 750 000a 1846     		mov	r0, r3
 751 000c FFF7FEFF 		bl	_ZN5daisy9I2CHandle6ConfigC1Ev
  22:../libDaisy/src/dev/oled_ssd130x.h ****             // Intialize using defaults
  23:../libDaisy/src/dev/oled_ssd130x.h ****             Defaults();
 752              		.loc 7 23 21
 753 0010 7868     		ldr	r0, [r7, #4]
 754 0012 FFF7FEFF 		bl	_ZN5daisy19SSD130xI2CTransport6Config8DefaultsEv
 755              	.LBE4:
  24:../libDaisy/src/dev/oled_ssd130x.h ****         }
 756              		.loc 7 24 9
 757 0016 7B68     		ldr	r3, [r7, #4]
 758 0018 1846     		mov	r0, r3
 759 001a 0837     		adds	r7, r7, #8
 760              		.cfi_def_cfa_offset 8
 761 001c BD46     		mov	sp, r7
 762              		.cfi_def_cfa_register 13
 763              		@ sp needed
 764 001e 80BD     		pop	{r7, pc}
 765              		.cfi_endproc
 766              	.LFE2561:
 768              		.weak	_ZN5daisy19SSD130xI2CTransport6ConfigC1Ev
 769              		.thumb_set _ZN5daisy19SSD130xI2CTransport6ConfigC1Ev,_ZN5daisy19SSD130xI2CTransport6ConfigC2Ev
 770              		.section	.rodata
 771              		.align	2
 772              	.LC0:
 773 0000 01       		.byte	1
 774 0001 08       		.byte	8
 775 0002 0000     		.align	2
ARM GAS  /tmp/ccqtC9dg.s 			page 19


 776              	.LC1:
 777 0004 01       		.byte	1
 778 0005 09       		.byte	9
 779              		.section	.text._ZN5daisy19SSD130xI2CTransport6Config8DefaultsEv,"axG",%progbits,_ZN5daisy19SSD130x
 780              		.align	1
 781              		.weak	_ZN5daisy19SSD130xI2CTransport6Config8DefaultsEv
 782              		.syntax unified
 783              		.thumb
 784              		.thumb_func
 785              		.fpu fpv5-d16
 787              	_ZN5daisy19SSD130xI2CTransport6Config8DefaultsEv:
 788              	.LFB2563:
  25:../libDaisy/src/dev/oled_ssd130x.h ****         I2CHandle::Config i2c_config;
  26:../libDaisy/src/dev/oled_ssd130x.h ****         uint8_t           i2c_address;
  27:../libDaisy/src/dev/oled_ssd130x.h ****         void              Defaults()
 789              		.loc 7 27 27
 790              		.cfi_startproc
 791              		@ args = 0, pretend = 0, frame = 8
 792              		@ frame_needed = 1, uses_anonymous_args = 0
 793              		@ link register save eliminated.
 794 0000 80B4     		push	{r7}
 795              		.cfi_def_cfa_offset 4
 796              		.cfi_offset 7, -4
 797 0002 83B0     		sub	sp, sp, #12
 798              		.cfi_def_cfa_offset 16
 799 0004 00AF     		add	r7, sp, #0
 800              		.cfi_def_cfa_register 7
 801 0006 7860     		str	r0, [r7, #4]
  28:../libDaisy/src/dev/oled_ssd130x.h ****         {
  29:../libDaisy/src/dev/oled_ssd130x.h ****             i2c_config.periph         = I2CHandle::Config::Peripheral::I2C_1;
 802              		.loc 7 29 39
 803 0008 7B68     		ldr	r3, [r7, #4]
 804 000a 0022     		movs	r2, #0
 805 000c 1A60     		str	r2, [r3]
  30:../libDaisy/src/dev/oled_ssd130x.h ****             i2c_config.speed          = I2CHandle::Config::Speed::I2C_1MHZ;
 806              		.loc 7 30 39
 807 000e 7B68     		ldr	r3, [r7, #4]
 808 0010 0222     		movs	r2, #2
 809 0012 9A60     		str	r2, [r3, #8]
  31:../libDaisy/src/dev/oled_ssd130x.h ****             i2c_config.mode           = I2CHandle::Config::Mode::I2C_MASTER;
 810              		.loc 7 31 39
 811 0014 7B68     		ldr	r3, [r7, #4]
 812 0016 0022     		movs	r2, #0
 813 0018 DA60     		str	r2, [r3, #12]
  32:../libDaisy/src/dev/oled_ssd130x.h ****             i2c_config.pin_config.scl = {DSY_GPIOB, 8};
 814              		.loc 7 32 39
 815 001a 7B68     		ldr	r3, [r7, #4]
 816 001c 074A     		ldr	r2, .L13
 817 001e 1288     		ldrh	r2, [r2]	@ movhi
 818 0020 9A80     		strh	r2, [r3, #4]	@ movhi
  33:../libDaisy/src/dev/oled_ssd130x.h ****             i2c_config.pin_config.sda = {DSY_GPIOB, 9};
 819              		.loc 7 33 39
 820 0022 7B68     		ldr	r3, [r7, #4]
 821 0024 064A     		ldr	r2, .L13+4
 822 0026 1288     		ldrh	r2, [r2]	@ movhi
 823 0028 DA80     		strh	r2, [r3, #6]	@ movhi
  34:../libDaisy/src/dev/oled_ssd130x.h ****             i2c_address               = 0x3C;
ARM GAS  /tmp/ccqtC9dg.s 			page 20


 824              		.loc 7 34 39
 825 002a 7B68     		ldr	r3, [r7, #4]
 826 002c 3C22     		movs	r2, #60
 827 002e 1A75     		strb	r2, [r3, #20]
  35:../libDaisy/src/dev/oled_ssd130x.h ****         }
 828              		.loc 7 35 9
 829 0030 00BF     		nop
 830 0032 0C37     		adds	r7, r7, #12
 831              		.cfi_def_cfa_offset 4
 832 0034 BD46     		mov	sp, r7
 833              		.cfi_def_cfa_register 13
 834              		@ sp needed
 835 0036 5DF8047B 		ldr	r7, [sp], #4
 836              		.cfi_restore 7
 837              		.cfi_def_cfa_offset 0
 838 003a 7047     		bx	lr
 839              	.L14:
 840              		.align	2
 841              	.L13:
 842 003c 00000000 		.word	.LC0
 843 0040 04000000 		.word	.LC1
 844              		.cfi_endproc
 845              	.LFE2563:
 847              		.section	.text._ZN5daisy19SSD130xI2CTransport4InitERKNS0_6ConfigE,"axG",%progbits,_ZN5daisy19SSD13
 848              		.align	1
 849              		.weak	_ZN5daisy19SSD130xI2CTransport4InitERKNS0_6ConfigE
 850              		.syntax unified
 851              		.thumb
 852              		.thumb_func
 853              		.fpu fpv5-d16
 855              	_ZN5daisy19SSD130xI2CTransport4InitERKNS0_6ConfigE:
 856              	.LFB2564:
  36:../libDaisy/src/dev/oled_ssd130x.h ****     };
  37:../libDaisy/src/dev/oled_ssd130x.h ****     void Init(const Config& config)
 857              		.loc 7 37 10
 858              		.cfi_startproc
 859              		@ args = 0, pretend = 0, frame = 8
 860              		@ frame_needed = 1, uses_anonymous_args = 0
 861 0000 80B5     		push	{r7, lr}
 862              		.cfi_def_cfa_offset 8
 863              		.cfi_offset 7, -8
 864              		.cfi_offset 14, -4
 865 0002 82B0     		sub	sp, sp, #8
 866              		.cfi_def_cfa_offset 16
 867 0004 00AF     		add	r7, sp, #0
 868              		.cfi_def_cfa_register 7
 869 0006 7860     		str	r0, [r7, #4]
 870 0008 3960     		str	r1, [r7]
  38:../libDaisy/src/dev/oled_ssd130x.h ****     {
  39:../libDaisy/src/dev/oled_ssd130x.h ****         i2c_address_ = config.i2c_address;
 871              		.loc 7 39 31
 872 000a 3B68     		ldr	r3, [r7]
 873 000c 1A7D     		ldrb	r2, [r3, #20]	@ zero_extendqisi2
 874              		.loc 7 39 22
 875 000e 7B68     		ldr	r3, [r7, #4]
 876 0010 1A71     		strb	r2, [r3, #4]
  40:../libDaisy/src/dev/oled_ssd130x.h ****         i2c_.Init(config.i2c_config);
ARM GAS  /tmp/ccqtC9dg.s 			page 21


 877              		.loc 7 40 18
 878 0012 7B68     		ldr	r3, [r7, #4]
 879              		.loc 7 40 26
 880 0014 3A68     		ldr	r2, [r7]
 881              		.loc 7 40 18
 882 0016 1146     		mov	r1, r2
 883 0018 1846     		mov	r0, r3
 884 001a FFF7FEFF 		bl	_ZN5daisy9I2CHandle4InitERKNS0_6ConfigE
  41:../libDaisy/src/dev/oled_ssd130x.h ****     };
 885              		.loc 7 41 5
 886 001e 00BF     		nop
 887 0020 0837     		adds	r7, r7, #8
 888              		.cfi_def_cfa_offset 8
 889 0022 BD46     		mov	sp, r7
 890              		.cfi_def_cfa_register 13
 891              		@ sp needed
 892 0024 80BD     		pop	{r7, pc}
 893              		.cfi_endproc
 894              	.LFE2564:
 896              		.section	.text._ZN5daisy19SSD130xI2CTransport11SendCommandEh,"axG",%progbits,_ZN5daisy19SSD130xI2C
 897              		.align	1
 898              		.weak	_ZN5daisy19SSD130xI2CTransport11SendCommandEh
 899              		.syntax unified
 900              		.thumb
 901              		.thumb_func
 902              		.fpu fpv5-d16
 904              	_ZN5daisy19SSD130xI2CTransport11SendCommandEh:
 905              	.LFB2565:
  42:../libDaisy/src/dev/oled_ssd130x.h ****     void SendCommand(uint8_t cmd)
 906              		.loc 7 42 10
 907              		.cfi_startproc
 908              		@ args = 0, pretend = 0, frame = 16
 909              		@ frame_needed = 1, uses_anonymous_args = 0
 910 0000 80B5     		push	{r7, lr}
 911              		.cfi_def_cfa_offset 8
 912              		.cfi_offset 7, -8
 913              		.cfi_offset 14, -4
 914 0002 86B0     		sub	sp, sp, #24
 915              		.cfi_def_cfa_offset 32
 916 0004 02AF     		add	r7, sp, #8
 917              		.cfi_def_cfa 7, 24
 918 0006 7860     		str	r0, [r7, #4]
 919 0008 0B46     		mov	r3, r1
 920 000a FB70     		strb	r3, [r7, #3]
  43:../libDaisy/src/dev/oled_ssd130x.h ****     {
  44:../libDaisy/src/dev/oled_ssd130x.h ****         uint8_t buf[2] = {0X00, cmd};
 921              		.loc 7 44 17
 922 000c 0023     		movs	r3, #0
 923 000e BB81     		strh	r3, [r7, #12]	@ movhi
 924              		.loc 7 44 36
 925 0010 FB78     		ldrb	r3, [r7, #3]
 926 0012 7B73     		strb	r3, [r7, #13]
  45:../libDaisy/src/dev/oled_ssd130x.h ****         i2c_.TransmitBlocking(i2c_address_, buf, 2, 1000);
 927              		.loc 7 45 30
 928 0014 7868     		ldr	r0, [r7, #4]
 929              		.loc 7 45 31
 930 0016 7B68     		ldr	r3, [r7, #4]
ARM GAS  /tmp/ccqtC9dg.s 			page 22


 931 0018 1B79     		ldrb	r3, [r3, #4]	@ zero_extendqisi2
 932              		.loc 7 45 30
 933 001a 99B2     		uxth	r1, r3
 934 001c 07F10C02 		add	r2, r7, #12
 935 0020 4FF47A73 		mov	r3, #1000
 936 0024 0093     		str	r3, [sp]
 937 0026 0223     		movs	r3, #2
 938 0028 FFF7FEFF 		bl	_ZN5daisy9I2CHandle16TransmitBlockingEtPhtm
  46:../libDaisy/src/dev/oled_ssd130x.h ****     };
 939              		.loc 7 46 5
 940 002c 00BF     		nop
 941 002e 1037     		adds	r7, r7, #16
 942              		.cfi_def_cfa_offset 8
 943 0030 BD46     		mov	sp, r7
 944              		.cfi_def_cfa_register 13
 945              		@ sp needed
 946 0032 80BD     		pop	{r7, pc}
 947              		.cfi_endproc
 948              	.LFE2565:
 950              		.global	sdmmc_cfg
 951              		.section	.bss.sdmmc_cfg,"aw",%nobits
 952              		.align	2
 955              	sdmmc_cfg:
 956 0000 00000000 		.space	12
 956      00000000 
 956      00000000 
 957              		.section	.text._ZN4kxmx9Bluemchen4InitEv,"ax",%progbits
 958              		.align	1
 959              		.global	_ZN4kxmx9Bluemchen4InitEv
 960              		.syntax unified
 961              		.thumb
 962              		.thumb_func
 963              		.fpu fpv5-d16
 965              	_ZN4kxmx9Bluemchen4InitEv:
 966              	.LFB2595:
 967              		.file 8 "../kxmx_bluemchen/src/kxmx_bluemchen.cpp"
   1:../kxmx_bluemchen/src/kxmx_bluemchen.cpp **** #include "kxmx_bluemchen.h"
   2:../kxmx_bluemchen/src/kxmx_bluemchen.cpp **** 
   3:../kxmx_bluemchen/src/kxmx_bluemchen.cpp **** using namespace kxmx;
   4:../kxmx_bluemchen/src/kxmx_bluemchen.cpp **** 
   5:../kxmx_bluemchen/src/kxmx_bluemchen.cpp **** #define PIN_ENC_CLICK 28
   6:../kxmx_bluemchen/src/kxmx_bluemchen.cpp **** #define PIN_ENC_B 26
   7:../kxmx_bluemchen/src/kxmx_bluemchen.cpp **** #define PIN_ENC_A 27
   8:../kxmx_bluemchen/src/kxmx_bluemchen.cpp **** 
   9:../kxmx_bluemchen/src/kxmx_bluemchen.cpp **** #define PIN_KNOB_1 16
  10:../kxmx_bluemchen/src/kxmx_bluemchen.cpp **** #define PIN_KNOB_2 15
  11:../kxmx_bluemchen/src/kxmx_bluemchen.cpp **** 
  12:../kxmx_bluemchen/src/kxmx_bluemchen.cpp **** #define PIN_CV_1 21
  13:../kxmx_bluemchen/src/kxmx_bluemchen.cpp **** #define PIN_CV_2 18
  14:../kxmx_bluemchen/src/kxmx_bluemchen.cpp **** 
  15:../kxmx_bluemchen/src/kxmx_bluemchen.cpp **** daisy::SdmmcHandler::Config sdmmc_cfg;
  16:../kxmx_bluemchen/src/kxmx_bluemchen.cpp **** 
  17:../kxmx_bluemchen/src/kxmx_bluemchen.cpp **** void Bluemchen::Init()
  18:../kxmx_bluemchen/src/kxmx_bluemchen.cpp **** {
 968              		.loc 8 18 1
 969              		.cfi_startproc
 970              		@ args = 0, pretend = 0, frame = 32
ARM GAS  /tmp/ccqtC9dg.s 			page 23


 971              		@ frame_needed = 1, uses_anonymous_args = 0
 972 0000 80B5     		push	{r7, lr}
 973              		.cfi_def_cfa_offset 8
 974              		.cfi_offset 7, -8
 975              		.cfi_offset 14, -4
 976 0002 88B0     		sub	sp, sp, #32
 977              		.cfi_def_cfa_offset 40
 978 0004 00AF     		add	r7, sp, #0
 979              		.cfi_def_cfa_register 7
 980 0006 7860     		str	r0, [r7, #4]
  19:../kxmx_bluemchen/src/kxmx_bluemchen.cpp ****     seed.Configure();
 981              		.loc 8 19 19
 982 0008 7B68     		ldr	r3, [r7, #4]
 983 000a 1846     		mov	r0, r3
 984 000c FFF7FEFF 		bl	_ZN5daisy9DaisySeed9ConfigureEv
  20:../kxmx_bluemchen/src/kxmx_bluemchen.cpp ****     seed.Init(true);
 985              		.loc 8 20 14
 986 0010 7B68     		ldr	r3, [r7, #4]
 987 0012 0121     		movs	r1, #1
 988 0014 1846     		mov	r0, r3
 989 0016 FFF7FEFF 		bl	_ZN5daisy9DaisySeed4InitEb
  21:../kxmx_bluemchen/src/kxmx_bluemchen.cpp ****     InitEncoder();
 990              		.loc 8 21 16
 991 001a 7868     		ldr	r0, [r7, #4]
 992 001c FFF7FEFF 		bl	_ZN4kxmx9Bluemchen11InitEncoderEv
  22:../kxmx_bluemchen/src/kxmx_bluemchen.cpp ****     InitDisplay();
 993              		.loc 8 22 16
 994 0020 7868     		ldr	r0, [r7, #4]
 995 0022 FFF7FEFF 		bl	_ZN4kxmx9Bluemchen11InitDisplayEv
  23:../kxmx_bluemchen/src/kxmx_bluemchen.cpp ****     InitMidi();
 996              		.loc 8 23 13
 997 0026 7868     		ldr	r0, [r7, #4]
 998 0028 FFF7FEFF 		bl	_ZN4kxmx9Bluemchen8InitMidiEv
  24:../kxmx_bluemchen/src/kxmx_bluemchen.cpp ****     InitControls();
 999              		.loc 8 24 17
 1000 002c 7868     		ldr	r0, [r7, #4]
 1001 002e FFF7FEFF 		bl	_ZN4kxmx9Bluemchen12InitControlsEv
  25:../kxmx_bluemchen/src/kxmx_bluemchen.cpp ****     InitMicroSD();
 1002              		.loc 8 25 16
 1003 0032 7868     		ldr	r0, [r7, #4]
 1004 0034 FFF7FEFF 		bl	_ZN4kxmx9Bluemchen11InitMicroSDEv
  26:../kxmx_bluemchen/src/kxmx_bluemchen.cpp **** 
  27:../kxmx_bluemchen/src/kxmx_bluemchen.cpp ****     daisy::DacHandle::Config cfg;
  28:../kxmx_bluemchen/src/kxmx_bluemchen.cpp ****     cfg.bitdepth   = daisy::DacHandle::BitDepth::BITS_12;
 1005              		.loc 8 28 20
 1006 0038 0123     		movs	r3, #1
 1007 003a BB61     		str	r3, [r7, #24]
  29:../kxmx_bluemchen/src/kxmx_bluemchen.cpp ****     cfg.buff_state = daisy::DacHandle::BufferState::ENABLED;
 1008              		.loc 8 29 20
 1009 003c 0023     		movs	r3, #0
 1010 003e FB61     		str	r3, [r7, #28]
  30:../kxmx_bluemchen/src/kxmx_bluemchen.cpp ****     cfg.mode       = daisy::DacHandle::Mode::POLLING;
 1011              		.loc 8 30 20
 1012 0040 0023     		movs	r3, #0
 1013 0042 7B61     		str	r3, [r7, #20]
  31:../kxmx_bluemchen/src/kxmx_bluemchen.cpp ****     cfg.chn        = daisy::DacHandle::Channel::BOTH;
 1014              		.loc 8 31 20
ARM GAS  /tmp/ccqtC9dg.s 			page 24


 1015 0044 0223     		movs	r3, #2
 1016 0046 3B61     		str	r3, [r7, #16]
  32:../kxmx_bluemchen/src/kxmx_bluemchen.cpp ****     seed.dac.Init(cfg);
 1017              		.loc 8 32 18
 1018 0048 7B68     		ldr	r3, [r7, #4]
 1019 004a 2033     		adds	r3, r3, #32
 1020 004c 07F10C02 		add	r2, r7, #12
 1021 0050 1146     		mov	r1, r2
 1022 0052 1846     		mov	r0, r3
 1023 0054 FFF7FEFF 		bl	_ZN5daisy9DacHandle4InitERKNS0_6ConfigE
  33:../kxmx_bluemchen/src/kxmx_bluemchen.cpp ****     seed.dac.WriteValue(daisy::DacHandle::Channel::BOTH, 0);
 1024              		.loc 8 33 24
 1025 0058 7B68     		ldr	r3, [r7, #4]
 1026 005a 2033     		adds	r3, r3, #32
 1027 005c 0022     		movs	r2, #0
 1028 005e 0221     		movs	r1, #2
 1029 0060 1846     		mov	r0, r3
 1030 0062 FFF7FEFF 		bl	_ZN5daisy9DacHandle10WriteValueENS0_7ChannelEt
  34:../kxmx_bluemchen/src/kxmx_bluemchen.cpp **** }
 1031              		.loc 8 34 1
 1032 0066 00BF     		nop
 1033 0068 2037     		adds	r7, r7, #32
 1034              		.cfi_def_cfa_offset 8
 1035 006a BD46     		mov	sp, r7
 1036              		.cfi_def_cfa_register 13
 1037              		@ sp needed
 1038 006c 80BD     		pop	{r7, pc}
 1039              		.cfi_endproc
 1040              	.LFE2595:
 1042              		.section	.text._ZN4kxmx9Bluemchen18SetAudioSampleRateEN5daisy9SaiHandle6Config10SampleRateE,"ax",%
 1043              		.align	1
 1044              		.global	_ZN4kxmx9Bluemchen18SetAudioSampleRateEN5daisy9SaiHandle6Config10SampleRateE
 1045              		.syntax unified
 1046              		.thumb
 1047              		.thumb_func
 1048              		.fpu fpv5-d16
 1050              	_ZN4kxmx9Bluemchen18SetAudioSampleRateEN5daisy9SaiHandle6Config10SampleRateE:
 1051              	.LFB2596:
  35:../kxmx_bluemchen/src/kxmx_bluemchen.cpp **** 
  36:../kxmx_bluemchen/src/kxmx_bluemchen.cpp **** void Bluemchen::SetAudioSampleRate(daisy::SaiHandle::Config::SampleRate sr)
  37:../kxmx_bluemchen/src/kxmx_bluemchen.cpp **** {
 1052              		.loc 8 37 1
 1053              		.cfi_startproc
 1054              		@ args = 0, pretend = 0, frame = 8
 1055              		@ frame_needed = 1, uses_anonymous_args = 0
 1056 0000 80B5     		push	{r7, lr}
 1057              		.cfi_def_cfa_offset 8
 1058              		.cfi_offset 7, -8
 1059              		.cfi_offset 14, -4
 1060 0002 82B0     		sub	sp, sp, #8
 1061              		.cfi_def_cfa_offset 16
 1062 0004 00AF     		add	r7, sp, #0
 1063              		.cfi_def_cfa_register 7
 1064 0006 7860     		str	r0, [r7, #4]
 1065 0008 3960     		str	r1, [r7]
  38:../kxmx_bluemchen/src/kxmx_bluemchen.cpp ****     seed.SetAudioSampleRate(sr);
 1066              		.loc 8 38 28
ARM GAS  /tmp/ccqtC9dg.s 			page 25


 1067 000a 7B68     		ldr	r3, [r7, #4]
 1068 000c 3968     		ldr	r1, [r7]
 1069 000e 1846     		mov	r0, r3
 1070 0010 FFF7FEFF 		bl	_ZN5daisy9DaisySeed18SetAudioSampleRateENS_9SaiHandle6Config10SampleRateE
  39:../kxmx_bluemchen/src/kxmx_bluemchen.cpp **** }
 1071              		.loc 8 39 1
 1072 0014 00BF     		nop
 1073 0016 0837     		adds	r7, r7, #8
 1074              		.cfi_def_cfa_offset 8
 1075 0018 BD46     		mov	sp, r7
 1076              		.cfi_def_cfa_register 13
 1077              		@ sp needed
 1078 001a 80BD     		pop	{r7, pc}
 1079              		.cfi_endproc
 1080              	.LFE2596:
 1082              		.section	.text._ZN4kxmx9Bluemchen15AudioSampleRateEv,"ax",%progbits
 1083              		.align	1
 1084              		.global	_ZN4kxmx9Bluemchen15AudioSampleRateEv
 1085              		.syntax unified
 1086              		.thumb
 1087              		.thumb_func
 1088              		.fpu fpv5-d16
 1090              	_ZN4kxmx9Bluemchen15AudioSampleRateEv:
 1091              	.LFB2597:
  40:../kxmx_bluemchen/src/kxmx_bluemchen.cpp **** 
  41:../kxmx_bluemchen/src/kxmx_bluemchen.cpp **** float Bluemchen::AudioSampleRate()
  42:../kxmx_bluemchen/src/kxmx_bluemchen.cpp **** {
 1092              		.loc 8 42 1
 1093              		.cfi_startproc
 1094              		@ args = 0, pretend = 0, frame = 8
 1095              		@ frame_needed = 1, uses_anonymous_args = 0
 1096 0000 80B5     		push	{r7, lr}
 1097              		.cfi_def_cfa_offset 8
 1098              		.cfi_offset 7, -8
 1099              		.cfi_offset 14, -4
 1100 0002 82B0     		sub	sp, sp, #8
 1101              		.cfi_def_cfa_offset 16
 1102 0004 00AF     		add	r7, sp, #0
 1103              		.cfi_def_cfa_register 7
 1104 0006 7860     		str	r0, [r7, #4]
  43:../kxmx_bluemchen/src/kxmx_bluemchen.cpp ****     return seed.AudioSampleRate();
 1105              		.loc 8 43 32
 1106 0008 7B68     		ldr	r3, [r7, #4]
 1107 000a 1846     		mov	r0, r3
 1108 000c FFF7FEFF 		bl	_ZN5daisy9DaisySeed15AudioSampleRateEv
 1109 0010 F0EE407A 		vmov.f32	s15, s0
  44:../kxmx_bluemchen/src/kxmx_bluemchen.cpp **** }
 1110              		.loc 8 44 1
 1111 0014 B0EE670A 		vmov.f32	s0, s15
 1112 0018 0837     		adds	r7, r7, #8
 1113              		.cfi_def_cfa_offset 8
 1114 001a BD46     		mov	sp, r7
 1115              		.cfi_def_cfa_register 13
 1116              		@ sp needed
 1117 001c 80BD     		pop	{r7, pc}
 1118              		.cfi_endproc
 1119              	.LFE2597:
ARM GAS  /tmp/ccqtC9dg.s 			page 26


 1121              		.section	.text._ZN4kxmx9Bluemchen17SetAudioBlockSizeEj,"ax",%progbits
 1122              		.align	1
 1123              		.global	_ZN4kxmx9Bluemchen17SetAudioBlockSizeEj
 1124              		.syntax unified
 1125              		.thumb
 1126              		.thumb_func
 1127              		.fpu fpv5-d16
 1129              	_ZN4kxmx9Bluemchen17SetAudioBlockSizeEj:
 1130              	.LFB2598:
  45:../kxmx_bluemchen/src/kxmx_bluemchen.cpp **** 
  46:../kxmx_bluemchen/src/kxmx_bluemchen.cpp **** void Bluemchen::SetAudioBlockSize(size_t size)
  47:../kxmx_bluemchen/src/kxmx_bluemchen.cpp **** {
 1131              		.loc 8 47 1
 1132              		.cfi_startproc
 1133              		@ args = 0, pretend = 0, frame = 8
 1134              		@ frame_needed = 1, uses_anonymous_args = 0
 1135 0000 80B5     		push	{r7, lr}
 1136              		.cfi_def_cfa_offset 8
 1137              		.cfi_offset 7, -8
 1138              		.cfi_offset 14, -4
 1139 0002 82B0     		sub	sp, sp, #8
 1140              		.cfi_def_cfa_offset 16
 1141 0004 00AF     		add	r7, sp, #0
 1142              		.cfi_def_cfa_register 7
 1143 0006 7860     		str	r0, [r7, #4]
 1144 0008 3960     		str	r1, [r7]
  48:../kxmx_bluemchen/src/kxmx_bluemchen.cpp ****     seed.SetAudioBlockSize(size);
 1145              		.loc 8 48 27
 1146 000a 7B68     		ldr	r3, [r7, #4]
 1147 000c 3968     		ldr	r1, [r7]
 1148 000e 1846     		mov	r0, r3
 1149 0010 FFF7FEFF 		bl	_ZN5daisy9DaisySeed17SetAudioBlockSizeEj
  49:../kxmx_bluemchen/src/kxmx_bluemchen.cpp **** }
 1150              		.loc 8 49 1
 1151 0014 00BF     		nop
 1152 0016 0837     		adds	r7, r7, #8
 1153              		.cfi_def_cfa_offset 8
 1154 0018 BD46     		mov	sp, r7
 1155              		.cfi_def_cfa_register 13
 1156              		@ sp needed
 1157 001a 80BD     		pop	{r7, pc}
 1158              		.cfi_endproc
 1159              	.LFE2598:
 1161              		.section	.text._ZN4kxmx9Bluemchen14AudioBlockSizeEv,"ax",%progbits
 1162              		.align	1
 1163              		.global	_ZN4kxmx9Bluemchen14AudioBlockSizeEv
 1164              		.syntax unified
 1165              		.thumb
 1166              		.thumb_func
 1167              		.fpu fpv5-d16
 1169              	_ZN4kxmx9Bluemchen14AudioBlockSizeEv:
 1170              	.LFB2599:
  50:../kxmx_bluemchen/src/kxmx_bluemchen.cpp **** 
  51:../kxmx_bluemchen/src/kxmx_bluemchen.cpp **** size_t Bluemchen::AudioBlockSize()
  52:../kxmx_bluemchen/src/kxmx_bluemchen.cpp **** {
 1171              		.loc 8 52 1
 1172              		.cfi_startproc
ARM GAS  /tmp/ccqtC9dg.s 			page 27


 1173              		@ args = 0, pretend = 0, frame = 8
 1174              		@ frame_needed = 1, uses_anonymous_args = 0
 1175 0000 80B5     		push	{r7, lr}
 1176              		.cfi_def_cfa_offset 8
 1177              		.cfi_offset 7, -8
 1178              		.cfi_offset 14, -4
 1179 0002 82B0     		sub	sp, sp, #8
 1180              		.cfi_def_cfa_offset 16
 1181 0004 00AF     		add	r7, sp, #0
 1182              		.cfi_def_cfa_register 7
 1183 0006 7860     		str	r0, [r7, #4]
  53:../kxmx_bluemchen/src/kxmx_bluemchen.cpp ****     return seed.AudioBlockSize();
 1184              		.loc 8 53 31
 1185 0008 7B68     		ldr	r3, [r7, #4]
 1186 000a 1846     		mov	r0, r3
 1187 000c FFF7FEFF 		bl	_ZN5daisy9DaisySeed14AudioBlockSizeEv
 1188 0010 0346     		mov	r3, r0
  54:../kxmx_bluemchen/src/kxmx_bluemchen.cpp **** }
 1189              		.loc 8 54 1
 1190 0012 1846     		mov	r0, r3
 1191 0014 0837     		adds	r7, r7, #8
 1192              		.cfi_def_cfa_offset 8
 1193 0016 BD46     		mov	sp, r7
 1194              		.cfi_def_cfa_register 13
 1195              		@ sp needed
 1196 0018 80BD     		pop	{r7, pc}
 1197              		.cfi_endproc
 1198              	.LFE2599:
 1200              		.section	.text._ZN4kxmx9Bluemchen17AudioCallbackRateEv,"ax",%progbits
 1201              		.align	1
 1202              		.global	_ZN4kxmx9Bluemchen17AudioCallbackRateEv
 1203              		.syntax unified
 1204              		.thumb
 1205              		.thumb_func
 1206              		.fpu fpv5-d16
 1208              	_ZN4kxmx9Bluemchen17AudioCallbackRateEv:
 1209              	.LFB2600:
  55:../kxmx_bluemchen/src/kxmx_bluemchen.cpp **** 
  56:../kxmx_bluemchen/src/kxmx_bluemchen.cpp **** float Bluemchen::AudioCallbackRate()
  57:../kxmx_bluemchen/src/kxmx_bluemchen.cpp **** {
 1210              		.loc 8 57 1
 1211              		.cfi_startproc
 1212              		@ args = 0, pretend = 0, frame = 8
 1213              		@ frame_needed = 1, uses_anonymous_args = 0
 1214 0000 80B5     		push	{r7, lr}
 1215              		.cfi_def_cfa_offset 8
 1216              		.cfi_offset 7, -8
 1217              		.cfi_offset 14, -4
 1218 0002 82B0     		sub	sp, sp, #8
 1219              		.cfi_def_cfa_offset 16
 1220 0004 00AF     		add	r7, sp, #0
 1221              		.cfi_def_cfa_register 7
 1222 0006 7860     		str	r0, [r7, #4]
  58:../kxmx_bluemchen/src/kxmx_bluemchen.cpp ****     return seed.AudioCallbackRate();
 1223              		.loc 8 58 34
 1224 0008 7B68     		ldr	r3, [r7, #4]
 1225 000a 1846     		mov	r0, r3
ARM GAS  /tmp/ccqtC9dg.s 			page 28


 1226 000c FFF7FEFF 		bl	_ZNK5daisy9DaisySeed17AudioCallbackRateEv
 1227 0010 F0EE407A 		vmov.f32	s15, s0
  59:../kxmx_bluemchen/src/kxmx_bluemchen.cpp **** }
 1228              		.loc 8 59 1
 1229 0014 B0EE670A 		vmov.f32	s0, s15
 1230 0018 0837     		adds	r7, r7, #8
 1231              		.cfi_def_cfa_offset 8
 1232 001a BD46     		mov	sp, r7
 1233              		.cfi_def_cfa_register 13
 1234              		@ sp needed
 1235 001c 80BD     		pop	{r7, pc}
 1236              		.cfi_endproc
 1237              	.LFE2600:
 1239              		.section	.text._ZN4kxmx9Bluemchen10StartAudioEPFvPKPKfPPfjE,"ax",%progbits
 1240              		.align	1
 1241              		.global	_ZN4kxmx9Bluemchen10StartAudioEPFvPKPKfPPfjE
 1242              		.syntax unified
 1243              		.thumb
 1244              		.thumb_func
 1245              		.fpu fpv5-d16
 1247              	_ZN4kxmx9Bluemchen10StartAudioEPFvPKPKfPPfjE:
 1248              	.LFB2601:
  60:../kxmx_bluemchen/src/kxmx_bluemchen.cpp **** 
  61:../kxmx_bluemchen/src/kxmx_bluemchen.cpp **** void Bluemchen::StartAudio(daisy::AudioHandle::AudioCallback cb)
  62:../kxmx_bluemchen/src/kxmx_bluemchen.cpp **** {
 1249              		.loc 8 62 1
 1250              		.cfi_startproc
 1251              		@ args = 0, pretend = 0, frame = 8
 1252              		@ frame_needed = 1, uses_anonymous_args = 0
 1253 0000 80B5     		push	{r7, lr}
 1254              		.cfi_def_cfa_offset 8
 1255              		.cfi_offset 7, -8
 1256              		.cfi_offset 14, -4
 1257 0002 82B0     		sub	sp, sp, #8
 1258              		.cfi_def_cfa_offset 16
 1259 0004 00AF     		add	r7, sp, #0
 1260              		.cfi_def_cfa_register 7
 1261 0006 7860     		str	r0, [r7, #4]
 1262 0008 3960     		str	r1, [r7]
  63:../kxmx_bluemchen/src/kxmx_bluemchen.cpp ****     seed.StartAudio(cb);
 1263              		.loc 8 63 20
 1264 000a 7B68     		ldr	r3, [r7, #4]
 1265 000c 3968     		ldr	r1, [r7]
 1266 000e 1846     		mov	r0, r3
 1267 0010 FFF7FEFF 		bl	_ZN5daisy9DaisySeed10StartAudioEPFvPKPKfPPfjE
  64:../kxmx_bluemchen/src/kxmx_bluemchen.cpp **** }
 1268              		.loc 8 64 1
 1269 0014 00BF     		nop
 1270 0016 0837     		adds	r7, r7, #8
 1271              		.cfi_def_cfa_offset 8
 1272 0018 BD46     		mov	sp, r7
 1273              		.cfi_def_cfa_register 13
 1274              		@ sp needed
 1275 001a 80BD     		pop	{r7, pc}
 1276              		.cfi_endproc
 1277              	.LFE2601:
 1279              		.section	.text._ZN4kxmx9Bluemchen10StartAudioEPFvPKfPfjE,"ax",%progbits
ARM GAS  /tmp/ccqtC9dg.s 			page 29


 1280              		.align	1
 1281              		.global	_ZN4kxmx9Bluemchen10StartAudioEPFvPKfPfjE
 1282              		.syntax unified
 1283              		.thumb
 1284              		.thumb_func
 1285              		.fpu fpv5-d16
 1287              	_ZN4kxmx9Bluemchen10StartAudioEPFvPKfPfjE:
 1288              	.LFB2602:
  65:../kxmx_bluemchen/src/kxmx_bluemchen.cpp **** 
  66:../kxmx_bluemchen/src/kxmx_bluemchen.cpp **** void Bluemchen::StartAudio(daisy::AudioHandle::InterleavingAudioCallback cb)
  67:../kxmx_bluemchen/src/kxmx_bluemchen.cpp **** {
 1289              		.loc 8 67 1
 1290              		.cfi_startproc
 1291              		@ args = 0, pretend = 0, frame = 8
 1292              		@ frame_needed = 1, uses_anonymous_args = 0
 1293 0000 80B5     		push	{r7, lr}
 1294              		.cfi_def_cfa_offset 8
 1295              		.cfi_offset 7, -8
 1296              		.cfi_offset 14, -4
 1297 0002 82B0     		sub	sp, sp, #8
 1298              		.cfi_def_cfa_offset 16
 1299 0004 00AF     		add	r7, sp, #0
 1300              		.cfi_def_cfa_register 7
 1301 0006 7860     		str	r0, [r7, #4]
 1302 0008 3960     		str	r1, [r7]
  68:../kxmx_bluemchen/src/kxmx_bluemchen.cpp ****     seed.StartAudio(cb);
 1303              		.loc 8 68 20
 1304 000a 7B68     		ldr	r3, [r7, #4]
 1305 000c 3968     		ldr	r1, [r7]
 1306 000e 1846     		mov	r0, r3
 1307 0010 FFF7FEFF 		bl	_ZN5daisy9DaisySeed10StartAudioEPFvPKfPfjE
  69:../kxmx_bluemchen/src/kxmx_bluemchen.cpp **** }
 1308              		.loc 8 69 1
 1309 0014 00BF     		nop
 1310 0016 0837     		adds	r7, r7, #8
 1311              		.cfi_def_cfa_offset 8
 1312 0018 BD46     		mov	sp, r7
 1313              		.cfi_def_cfa_register 13
 1314              		@ sp needed
 1315 001a 80BD     		pop	{r7, pc}
 1316              		.cfi_endproc
 1317              	.LFE2602:
 1319              		.section	.text._ZN4kxmx9Bluemchen9StopAudioEv,"ax",%progbits
 1320              		.align	1
 1321              		.global	_ZN4kxmx9Bluemchen9StopAudioEv
 1322              		.syntax unified
 1323              		.thumb
 1324              		.thumb_func
 1325              		.fpu fpv5-d16
 1327              	_ZN4kxmx9Bluemchen9StopAudioEv:
 1328              	.LFB2603:
  70:../kxmx_bluemchen/src/kxmx_bluemchen.cpp **** 
  71:../kxmx_bluemchen/src/kxmx_bluemchen.cpp **** void Bluemchen::StopAudio()
  72:../kxmx_bluemchen/src/kxmx_bluemchen.cpp **** {
 1329              		.loc 8 72 1
 1330              		.cfi_startproc
 1331              		@ args = 0, pretend = 0, frame = 8
ARM GAS  /tmp/ccqtC9dg.s 			page 30


 1332              		@ frame_needed = 1, uses_anonymous_args = 0
 1333 0000 80B5     		push	{r7, lr}
 1334              		.cfi_def_cfa_offset 8
 1335              		.cfi_offset 7, -8
 1336              		.cfi_offset 14, -4
 1337 0002 82B0     		sub	sp, sp, #8
 1338              		.cfi_def_cfa_offset 16
 1339 0004 00AF     		add	r7, sp, #0
 1340              		.cfi_def_cfa_register 7
 1341 0006 7860     		str	r0, [r7, #4]
  73:../kxmx_bluemchen/src/kxmx_bluemchen.cpp ****     seed.StopAudio();
 1342              		.loc 8 73 19
 1343 0008 7B68     		ldr	r3, [r7, #4]
 1344 000a 1846     		mov	r0, r3
 1345 000c FFF7FEFF 		bl	_ZN5daisy9DaisySeed9StopAudioEv
  74:../kxmx_bluemchen/src/kxmx_bluemchen.cpp **** }
 1346              		.loc 8 74 1
 1347 0010 00BF     		nop
 1348 0012 0837     		adds	r7, r7, #8
 1349              		.cfi_def_cfa_offset 8
 1350 0014 BD46     		mov	sp, r7
 1351              		.cfi_def_cfa_register 13
 1352              		@ sp needed
 1353 0016 80BD     		pop	{r7, pc}
 1354              		.cfi_endproc
 1355              	.LFE2603:
 1357              		.section	.text._ZN4kxmx9Bluemchen19ChangeAudioCallbackEPFvPKPKfPPfjE,"ax",%progbits
 1358              		.align	1
 1359              		.global	_ZN4kxmx9Bluemchen19ChangeAudioCallbackEPFvPKPKfPPfjE
 1360              		.syntax unified
 1361              		.thumb
 1362              		.thumb_func
 1363              		.fpu fpv5-d16
 1365              	_ZN4kxmx9Bluemchen19ChangeAudioCallbackEPFvPKPKfPPfjE:
 1366              	.LFB2604:
  75:../kxmx_bluemchen/src/kxmx_bluemchen.cpp **** 
  76:../kxmx_bluemchen/src/kxmx_bluemchen.cpp **** void Bluemchen::ChangeAudioCallback(daisy::AudioHandle::AudioCallback cb)
  77:../kxmx_bluemchen/src/kxmx_bluemchen.cpp **** {
 1367              		.loc 8 77 1
 1368              		.cfi_startproc
 1369              		@ args = 0, pretend = 0, frame = 8
 1370              		@ frame_needed = 1, uses_anonymous_args = 0
 1371 0000 80B5     		push	{r7, lr}
 1372              		.cfi_def_cfa_offset 8
 1373              		.cfi_offset 7, -8
 1374              		.cfi_offset 14, -4
 1375 0002 82B0     		sub	sp, sp, #8
 1376              		.cfi_def_cfa_offset 16
 1377 0004 00AF     		add	r7, sp, #0
 1378              		.cfi_def_cfa_register 7
 1379 0006 7860     		str	r0, [r7, #4]
 1380 0008 3960     		str	r1, [r7]
  78:../kxmx_bluemchen/src/kxmx_bluemchen.cpp ****     seed.ChangeAudioCallback(cb);
 1381              		.loc 8 78 29
 1382 000a 7B68     		ldr	r3, [r7, #4]
 1383 000c 3968     		ldr	r1, [r7]
 1384 000e 1846     		mov	r0, r3
ARM GAS  /tmp/ccqtC9dg.s 			page 31


 1385 0010 FFF7FEFF 		bl	_ZN5daisy9DaisySeed19ChangeAudioCallbackEPFvPKPKfPPfjE
  79:../kxmx_bluemchen/src/kxmx_bluemchen.cpp **** }
 1386              		.loc 8 79 1
 1387 0014 00BF     		nop
 1388 0016 0837     		adds	r7, r7, #8
 1389              		.cfi_def_cfa_offset 8
 1390 0018 BD46     		mov	sp, r7
 1391              		.cfi_def_cfa_register 13
 1392              		@ sp needed
 1393 001a 80BD     		pop	{r7, pc}
 1394              		.cfi_endproc
 1395              	.LFE2604:
 1397              		.section	.text._ZN4kxmx9Bluemchen8StartAdcEv,"ax",%progbits
 1398              		.align	1
 1399              		.global	_ZN4kxmx9Bluemchen8StartAdcEv
 1400              		.syntax unified
 1401              		.thumb
 1402              		.thumb_func
 1403              		.fpu fpv5-d16
 1405              	_ZN4kxmx9Bluemchen8StartAdcEv:
 1406              	.LFB2605:
  80:../kxmx_bluemchen/src/kxmx_bluemchen.cpp **** 
  81:../kxmx_bluemchen/src/kxmx_bluemchen.cpp **** void Bluemchen::StartAdc()
  82:../kxmx_bluemchen/src/kxmx_bluemchen.cpp **** {
 1407              		.loc 8 82 1
 1408              		.cfi_startproc
 1409              		@ args = 0, pretend = 0, frame = 8
 1410              		@ frame_needed = 1, uses_anonymous_args = 0
 1411 0000 80B5     		push	{r7, lr}
 1412              		.cfi_def_cfa_offset 8
 1413              		.cfi_offset 7, -8
 1414              		.cfi_offset 14, -4
 1415 0002 82B0     		sub	sp, sp, #8
 1416              		.cfi_def_cfa_offset 16
 1417 0004 00AF     		add	r7, sp, #0
 1418              		.cfi_def_cfa_register 7
 1419 0006 7860     		str	r0, [r7, #4]
  83:../kxmx_bluemchen/src/kxmx_bluemchen.cpp ****     seed.adc.Start();
 1420              		.loc 8 83 19
 1421 0008 7B68     		ldr	r3, [r7, #4]
 1422 000a 1833     		adds	r3, r3, #24
 1423 000c 1846     		mov	r0, r3
 1424 000e FFF7FEFF 		bl	_ZN5daisy9AdcHandle5StartEv
  84:../kxmx_bluemchen/src/kxmx_bluemchen.cpp **** }
 1425              		.loc 8 84 1
 1426 0012 00BF     		nop
 1427 0014 0837     		adds	r7, r7, #8
 1428              		.cfi_def_cfa_offset 8
 1429 0016 BD46     		mov	sp, r7
 1430              		.cfi_def_cfa_register 13
 1431              		@ sp needed
 1432 0018 80BD     		pop	{r7, pc}
 1433              		.cfi_endproc
 1434              	.LFE2605:
 1436              		.section	.text._ZN4kxmx9Bluemchen7StopAdcEv,"ax",%progbits
 1437              		.align	1
 1438              		.global	_ZN4kxmx9Bluemchen7StopAdcEv
ARM GAS  /tmp/ccqtC9dg.s 			page 32


 1439              		.syntax unified
 1440              		.thumb
 1441              		.thumb_func
 1442              		.fpu fpv5-d16
 1444              	_ZN4kxmx9Bluemchen7StopAdcEv:
 1445              	.LFB2606:
  85:../kxmx_bluemchen/src/kxmx_bluemchen.cpp **** void Bluemchen::StopAdc()
  86:../kxmx_bluemchen/src/kxmx_bluemchen.cpp **** {
 1446              		.loc 8 86 1
 1447              		.cfi_startproc
 1448              		@ args = 0, pretend = 0, frame = 8
 1449              		@ frame_needed = 1, uses_anonymous_args = 0
 1450 0000 80B5     		push	{r7, lr}
 1451              		.cfi_def_cfa_offset 8
 1452              		.cfi_offset 7, -8
 1453              		.cfi_offset 14, -4
 1454 0002 82B0     		sub	sp, sp, #8
 1455              		.cfi_def_cfa_offset 16
 1456 0004 00AF     		add	r7, sp, #0
 1457              		.cfi_def_cfa_register 7
 1458 0006 7860     		str	r0, [r7, #4]
  87:../kxmx_bluemchen/src/kxmx_bluemchen.cpp ****     seed.adc.Stop();
 1459              		.loc 8 87 18
 1460 0008 7B68     		ldr	r3, [r7, #4]
 1461 000a 1833     		adds	r3, r3, #24
 1462 000c 1846     		mov	r0, r3
 1463 000e FFF7FEFF 		bl	_ZN5daisy9AdcHandle4StopEv
  88:../kxmx_bluemchen/src/kxmx_bluemchen.cpp **** }
 1464              		.loc 8 88 1
 1465 0012 00BF     		nop
 1466 0014 0837     		adds	r7, r7, #8
 1467              		.cfi_def_cfa_offset 8
 1468 0016 BD46     		mov	sp, r7
 1469              		.cfi_def_cfa_register 13
 1470              		@ sp needed
 1471 0018 80BD     		pop	{r7, pc}
 1472              		.cfi_endproc
 1473              	.LFE2606:
 1475              		.section	.text._ZN4kxmx9Bluemchen21ProcessAnalogControlsEv,"ax",%progbits
 1476              		.align	1
 1477              		.global	_ZN4kxmx9Bluemchen21ProcessAnalogControlsEv
 1478              		.syntax unified
 1479              		.thumb
 1480              		.thumb_func
 1481              		.fpu fpv5-d16
 1483              	_ZN4kxmx9Bluemchen21ProcessAnalogControlsEv:
 1484              	.LFB2607:
  89:../kxmx_bluemchen/src/kxmx_bluemchen.cpp **** 
  90:../kxmx_bluemchen/src/kxmx_bluemchen.cpp **** void Bluemchen::ProcessAnalogControls()
  91:../kxmx_bluemchen/src/kxmx_bluemchen.cpp **** {
 1485              		.loc 8 91 1
 1486              		.cfi_startproc
 1487              		@ args = 0, pretend = 0, frame = 16
 1488              		@ frame_needed = 1, uses_anonymous_args = 0
 1489 0000 80B5     		push	{r7, lr}
 1490              		.cfi_def_cfa_offset 8
 1491              		.cfi_offset 7, -8
ARM GAS  /tmp/ccqtC9dg.s 			page 33


 1492              		.cfi_offset 14, -4
 1493 0002 84B0     		sub	sp, sp, #16
 1494              		.cfi_def_cfa_offset 24
 1495 0004 00AF     		add	r7, sp, #0
 1496              		.cfi_def_cfa_register 7
 1497 0006 7860     		str	r0, [r7, #4]
 1498              	.LBB5:
  92:../kxmx_bluemchen/src/kxmx_bluemchen.cpp ****     for(size_t i = 0; i < CTRL_LAST; i++)
 1499              		.loc 8 92 16
 1500 0008 0023     		movs	r3, #0
 1501 000a FB60     		str	r3, [r7, #12]
 1502              	.L34:
 1503              		.loc 8 92 25 discriminator 3
 1504 000c FB68     		ldr	r3, [r7, #12]
 1505 000e 032B     		cmp	r3, #3
 1506 0010 0BD8     		bhi	.L35
  93:../kxmx_bluemchen/src/kxmx_bluemchen.cpp ****     {
  94:../kxmx_bluemchen/src/kxmx_bluemchen.cpp ****         controls[i].Process();
 1507              		.loc 8 94 28 discriminator 2
 1508 0012 FB68     		ldr	r3, [r7, #12]
 1509 0014 5B01     		lsls	r3, r3, #5
 1510 0016 6833     		adds	r3, r3, #104
 1511 0018 7A68     		ldr	r2, [r7, #4]
 1512 001a 1344     		add	r3, r3, r2
 1513 001c 1846     		mov	r0, r3
 1514 001e FFF7FEFF 		bl	_ZN5daisy13AnalogControl7ProcessEv
  92:../kxmx_bluemchen/src/kxmx_bluemchen.cpp ****     for(size_t i = 0; i < CTRL_LAST; i++)
 1515              		.loc 8 92 5 discriminator 2
 1516 0022 FB68     		ldr	r3, [r7, #12]
 1517 0024 0133     		adds	r3, r3, #1
 1518 0026 FB60     		str	r3, [r7, #12]
 1519 0028 F0E7     		b	.L34
 1520              	.L35:
 1521              	.LBE5:
  95:../kxmx_bluemchen/src/kxmx_bluemchen.cpp ****     }
  96:../kxmx_bluemchen/src/kxmx_bluemchen.cpp **** }
 1522              		.loc 8 96 1
 1523 002a 00BF     		nop
 1524 002c 1037     		adds	r7, r7, #16
 1525              		.cfi_def_cfa_offset 8
 1526 002e BD46     		mov	sp, r7
 1527              		.cfi_def_cfa_register 13
 1528              		@ sp needed
 1529 0030 80BD     		pop	{r7, pc}
 1530              		.cfi_endproc
 1531              	.LFE2607:
 1533              		.section	.text._ZN4kxmx9Bluemchen22ProcessDigitalControlsEv,"ax",%progbits
 1534              		.align	1
 1535              		.global	_ZN4kxmx9Bluemchen22ProcessDigitalControlsEv
 1536              		.syntax unified
 1537              		.thumb
 1538              		.thumb_func
 1539              		.fpu fpv5-d16
 1541              	_ZN4kxmx9Bluemchen22ProcessDigitalControlsEv:
 1542              	.LFB2608:
  97:../kxmx_bluemchen/src/kxmx_bluemchen.cpp **** void Bluemchen::ProcessDigitalControls()
  98:../kxmx_bluemchen/src/kxmx_bluemchen.cpp **** {
ARM GAS  /tmp/ccqtC9dg.s 			page 34


 1543              		.loc 8 98 1
 1544              		.cfi_startproc
 1545              		@ args = 0, pretend = 0, frame = 8
 1546              		@ frame_needed = 1, uses_anonymous_args = 0
 1547 0000 80B5     		push	{r7, lr}
 1548              		.cfi_def_cfa_offset 8
 1549              		.cfi_offset 7, -8
 1550              		.cfi_offset 14, -4
 1551 0002 82B0     		sub	sp, sp, #8
 1552              		.cfi_def_cfa_offset 16
 1553 0004 00AF     		add	r7, sp, #0
 1554              		.cfi_def_cfa_register 7
 1555 0006 7860     		str	r0, [r7, #4]
  99:../kxmx_bluemchen/src/kxmx_bluemchen.cpp ****     encoder.Debounce();
 1556              		.loc 8 99 21
 1557 0008 7B68     		ldr	r3, [r7, #4]
 1558 000a 4033     		adds	r3, r3, #64
 1559 000c 1846     		mov	r0, r3
 1560 000e FFF7FEFF 		bl	_ZN5daisy7Encoder8DebounceEv
 100:../kxmx_bluemchen/src/kxmx_bluemchen.cpp **** }
 1561              		.loc 8 100 1
 1562 0012 00BF     		nop
 1563 0014 0837     		adds	r7, r7, #8
 1564              		.cfi_def_cfa_offset 8
 1565 0016 BD46     		mov	sp, r7
 1566              		.cfi_def_cfa_register 13
 1567              		@ sp needed
 1568 0018 80BD     		pop	{r7, pc}
 1569              		.cfi_endproc
 1570              	.LFE2608:
 1572              		.section	.text._ZN4kxmx9Bluemchen12GetKnobValueENS0_4CtrlE,"ax",%progbits
 1573              		.align	1
 1574              		.global	_ZN4kxmx9Bluemchen12GetKnobValueENS0_4CtrlE
 1575              		.syntax unified
 1576              		.thumb
 1577              		.thumb_func
 1578              		.fpu fpv5-d16
 1580              	_ZN4kxmx9Bluemchen12GetKnobValueENS0_4CtrlE:
 1581              	.LFB2609:
 101:../kxmx_bluemchen/src/kxmx_bluemchen.cpp **** float Bluemchen::GetKnobValue(Ctrl c)
 102:../kxmx_bluemchen/src/kxmx_bluemchen.cpp **** {
 1582              		.loc 8 102 1
 1583              		.cfi_startproc
 1584              		@ args = 0, pretend = 0, frame = 8
 1585              		@ frame_needed = 1, uses_anonymous_args = 0
 1586 0000 80B5     		push	{r7, lr}
 1587              		.cfi_def_cfa_offset 8
 1588              		.cfi_offset 7, -8
 1589              		.cfi_offset 14, -4
 1590 0002 82B0     		sub	sp, sp, #8
 1591              		.cfi_def_cfa_offset 16
 1592 0004 00AF     		add	r7, sp, #0
 1593              		.cfi_def_cfa_register 7
 1594 0006 7860     		str	r0, [r7, #4]
 1595 0008 0B46     		mov	r3, r1
 1596 000a FB70     		strb	r3, [r7, #3]
 103:../kxmx_bluemchen/src/kxmx_bluemchen.cpp ****     return (controls[c].Value());
ARM GAS  /tmp/ccqtC9dg.s 			page 35


 1597              		.loc 8 103 22
 1598 000c FB78     		ldrb	r3, [r7, #3]	@ zero_extendqisi2
 1599              		.loc 8 103 30
 1600 000e 5B01     		lsls	r3, r3, #5
 1601 0010 6833     		adds	r3, r3, #104
 1602 0012 7A68     		ldr	r2, [r7, #4]
 1603 0014 1344     		add	r3, r3, r2
 1604 0016 1846     		mov	r0, r3
 1605 0018 FFF7FEFF 		bl	_ZNK5daisy13AnalogControl5ValueEv
 1606 001c F0EE407A 		vmov.f32	s15, s0
 104:../kxmx_bluemchen/src/kxmx_bluemchen.cpp **** }
 1607              		.loc 8 104 1
 1608 0020 B0EE670A 		vmov.f32	s0, s15
 1609 0024 0837     		adds	r7, r7, #8
 1610              		.cfi_def_cfa_offset 8
 1611 0026 BD46     		mov	sp, r7
 1612              		.cfi_def_cfa_register 13
 1613              		@ sp needed
 1614 0028 80BD     		pop	{r7, pc}
 1615              		.cfi_endproc
 1616              	.LFE2609:
 1618              		.section	.text._ZN4kxmx9Bluemchen7DelayMsEj,"ax",%progbits
 1619              		.align	1
 1620              		.global	_ZN4kxmx9Bluemchen7DelayMsEj
 1621              		.syntax unified
 1622              		.thumb
 1623              		.thumb_func
 1624              		.fpu fpv5-d16
 1626              	_ZN4kxmx9Bluemchen7DelayMsEj:
 1627              	.LFB2610:
 105:../kxmx_bluemchen/src/kxmx_bluemchen.cpp **** void Bluemchen::DelayMs(size_t del)
 106:../kxmx_bluemchen/src/kxmx_bluemchen.cpp **** {
 1628              		.loc 8 106 1
 1629              		.cfi_startproc
 1630              		@ args = 0, pretend = 0, frame = 8
 1631              		@ frame_needed = 1, uses_anonymous_args = 0
 1632 0000 80B5     		push	{r7, lr}
 1633              		.cfi_def_cfa_offset 8
 1634              		.cfi_offset 7, -8
 1635              		.cfi_offset 14, -4
 1636 0002 82B0     		sub	sp, sp, #8
 1637              		.cfi_def_cfa_offset 16
 1638 0004 00AF     		add	r7, sp, #0
 1639              		.cfi_def_cfa_register 7
 1640 0006 7860     		str	r0, [r7, #4]
 1641 0008 3960     		str	r1, [r7]
 107:../kxmx_bluemchen/src/kxmx_bluemchen.cpp ****     daisy::System::Delay(del);
 1642              		.loc 8 107 25
 1643 000a 3868     		ldr	r0, [r7]
 1644 000c FFF7FEFF 		bl	_ZN5daisy6System5DelayEm
 108:../kxmx_bluemchen/src/kxmx_bluemchen.cpp **** }
 1645              		.loc 8 108 1
 1646 0010 00BF     		nop
 1647 0012 0837     		adds	r7, r7, #8
 1648              		.cfi_def_cfa_offset 8
 1649 0014 BD46     		mov	sp, r7
 1650              		.cfi_def_cfa_register 13
ARM GAS  /tmp/ccqtC9dg.s 			page 36


 1651              		@ sp needed
 1652 0016 80BD     		pop	{r7, pc}
 1653              		.cfi_endproc
 1654              	.LFE2610:
 1656              		.section	.text._ZN4kxmx9Bluemchen12InitControlsEv,"ax",%progbits
 1657              		.align	1
 1658              		.global	_ZN4kxmx9Bluemchen12InitControlsEv
 1659              		.syntax unified
 1660              		.thumb
 1661              		.thumb_func
 1662              		.fpu fpv5-d16
 1664              	_ZN4kxmx9Bluemchen12InitControlsEv:
 1665              	.LFB2611:
 109:../kxmx_bluemchen/src/kxmx_bluemchen.cpp **** 
 110:../kxmx_bluemchen/src/kxmx_bluemchen.cpp **** void Bluemchen::InitControls()
 111:../kxmx_bluemchen/src/kxmx_bluemchen.cpp **** {
 1666              		.loc 8 111 1
 1667              		.cfi_startproc
 1668              		@ args = 0, pretend = 0, frame = 96
 1669              		@ frame_needed = 1, uses_anonymous_args = 0
 1670 0000 B0B5     		push	{r4, r5, r7, lr}
 1671              		.cfi_def_cfa_offset 16
 1672              		.cfi_offset 4, -16
 1673              		.cfi_offset 5, -12
 1674              		.cfi_offset 7, -8
 1675              		.cfi_offset 14, -4
 1676 0002 98B0     		sub	sp, sp, #96
 1677              		.cfi_def_cfa_offset 112
 1678 0004 00AF     		add	r7, sp, #0
 1679              		.cfi_def_cfa_register 7
 1680 0006 7860     		str	r0, [r7, #4]
 112:../kxmx_bluemchen/src/kxmx_bluemchen.cpp ****     daisy::AdcChannelConfig cfg[4];
 113:../kxmx_bluemchen/src/kxmx_bluemchen.cpp **** 
 114:../kxmx_bluemchen/src/kxmx_bluemchen.cpp ****     // Init ADC channels for the knobs...
 115:../kxmx_bluemchen/src/kxmx_bluemchen.cpp ****     cfg[0].InitSingle(seed.GetPin(PIN_KNOB_1));
 1681              		.loc 8 115 22
 1682 0008 1020     		movs	r0, #16
 1683 000a FFF7FEFF 		bl	_ZN5daisy9DaisySeed6GetPinEh
 1684 000e 0346     		mov	r3, r0	@ movhi
 1685 0010 A7F85030 		strh	r3, [r7, #80]	@ movhi
 1686 0014 07F10803 		add	r3, r7, #8
 1687 0018 0222     		movs	r2, #2
 1688 001a 396D     		ldr	r1, [r7, #80]
 1689 001c 1846     		mov	r0, r3
 1690 001e FFF7FEFF 		bl	_ZN5daisy16AdcChannelConfig10InitSingleE12dsy_gpio_pinNS0_15ConversionSpeedE
 116:../kxmx_bluemchen/src/kxmx_bluemchen.cpp ****     cfg[1].InitSingle(seed.GetPin(PIN_KNOB_2));
 1691              		.loc 8 116 22
 1692 0022 0F20     		movs	r0, #15
 1693 0024 FFF7FEFF 		bl	_ZN5daisy9DaisySeed6GetPinEh
 1694 0028 0346     		mov	r3, r0	@ movhi
 1695 002a A7F85430 		strh	r3, [r7, #84]	@ movhi
 1696 002e 07F10803 		add	r3, r7, #8
 1697 0032 1233     		adds	r3, r3, #18
 1698 0034 0222     		movs	r2, #2
 1699 0036 796D     		ldr	r1, [r7, #84]
 1700 0038 1846     		mov	r0, r3
 1701 003a FFF7FEFF 		bl	_ZN5daisy16AdcChannelConfig10InitSingleE12dsy_gpio_pinNS0_15ConversionSpeedE
ARM GAS  /tmp/ccqtC9dg.s 			page 37


 117:../kxmx_bluemchen/src/kxmx_bluemchen.cpp **** 
 118:../kxmx_bluemchen/src/kxmx_bluemchen.cpp ****     // ...and the CV inputs.
 119:../kxmx_bluemchen/src/kxmx_bluemchen.cpp ****     cfg[2].InitSingle(seed.GetPin(PIN_CV_1));
 1702              		.loc 8 119 22
 1703 003e 1520     		movs	r0, #21
 1704 0040 FFF7FEFF 		bl	_ZN5daisy9DaisySeed6GetPinEh
 1705 0044 0346     		mov	r3, r0	@ movhi
 1706 0046 A7F85830 		strh	r3, [r7, #88]	@ movhi
 1707 004a 07F10803 		add	r3, r7, #8
 1708 004e 2433     		adds	r3, r3, #36
 1709 0050 0222     		movs	r2, #2
 1710 0052 B96D     		ldr	r1, [r7, #88]
 1711 0054 1846     		mov	r0, r3
 1712 0056 FFF7FEFF 		bl	_ZN5daisy16AdcChannelConfig10InitSingleE12dsy_gpio_pinNS0_15ConversionSpeedE
 120:../kxmx_bluemchen/src/kxmx_bluemchen.cpp ****     cfg[3].InitSingle(seed.GetPin(PIN_CV_2));
 1713              		.loc 8 120 22
 1714 005a 1220     		movs	r0, #18
 1715 005c FFF7FEFF 		bl	_ZN5daisy9DaisySeed6GetPinEh
 1716 0060 0346     		mov	r3, r0	@ movhi
 1717 0062 A7F85C30 		strh	r3, [r7, #92]	@ movhi
 1718 0066 07F10803 		add	r3, r7, #8
 1719 006a 3633     		adds	r3, r3, #54
 1720 006c 0222     		movs	r2, #2
 1721 006e F96D     		ldr	r1, [r7, #92]
 1722 0070 1846     		mov	r0, r3
 1723 0072 FFF7FEFF 		bl	_ZN5daisy16AdcChannelConfig10InitSingleE12dsy_gpio_pinNS0_15ConversionSpeedE
 121:../kxmx_bluemchen/src/kxmx_bluemchen.cpp **** 
 122:../kxmx_bluemchen/src/kxmx_bluemchen.cpp ****     // Initialize ADC config
 123:../kxmx_bluemchen/src/kxmx_bluemchen.cpp ****     seed.adc.Init(cfg, 4);
 1724              		.loc 8 123 18
 1725 0076 7B68     		ldr	r3, [r7, #4]
 1726 0078 03F11800 		add	r0, r3, #24
 1727 007c 07F10801 		add	r1, r7, #8
 1728 0080 0423     		movs	r3, #4
 1729 0082 0422     		movs	r2, #4
 1730 0084 FFF7FEFF 		bl	_ZN5daisy9AdcHandle4InitEPNS_16AdcChannelConfigEjNS0_12OverSamplingE
 124:../kxmx_bluemchen/src/kxmx_bluemchen.cpp **** 
 125:../kxmx_bluemchen/src/kxmx_bluemchen.cpp ****     // Initialize the Knob controls
 126:../kxmx_bluemchen/src/kxmx_bluemchen.cpp ****     controls[CTRL_1].Init(seed.adc.GetPtr(0), AudioCallbackRate(), false);
 1731              		.loc 8 126 26
 1732 0088 7B68     		ldr	r3, [r7, #4]
 1733 008a 03F16804 		add	r4, r3, #104
 1734 008e 7B68     		ldr	r3, [r7, #4]
 1735 0090 1833     		adds	r3, r3, #24
 1736 0092 0021     		movs	r1, #0
 1737 0094 1846     		mov	r0, r3
 1738 0096 FFF7FEFF 		bl	_ZNK5daisy9AdcHandle6GetPtrEh
 1739 009a 0546     		mov	r5, r0
 1740 009c 7868     		ldr	r0, [r7, #4]
 1741 009e FFF7FEFF 		bl	_ZN4kxmx9Bluemchen17AudioCallbackRateEv
 1742 00a2 F0EE407A 		vmov.f32	s15, s0
 1743 00a6 DFED2C0A 		vldr.32	s1, .L41
 1744 00aa 0023     		movs	r3, #0
 1745 00ac 0022     		movs	r2, #0
 1746 00ae B0EE670A 		vmov.f32	s0, s15
 1747 00b2 2946     		mov	r1, r5
 1748 00b4 2046     		mov	r0, r4
ARM GAS  /tmp/ccqtC9dg.s 			page 38


 1749 00b6 FFF7FEFF 		bl	_ZN5daisy13AnalogControl4InitEPtfbbf
 127:../kxmx_bluemchen/src/kxmx_bluemchen.cpp ****     controls[CTRL_2].Init(seed.adc.GetPtr(1), AudioCallbackRate(), false);
 1750              		.loc 8 127 26
 1751 00ba 7B68     		ldr	r3, [r7, #4]
 1752 00bc 03F18804 		add	r4, r3, #136
 1753 00c0 7B68     		ldr	r3, [r7, #4]
 1754 00c2 1833     		adds	r3, r3, #24
 1755 00c4 0121     		movs	r1, #1
 1756 00c6 1846     		mov	r0, r3
 1757 00c8 FFF7FEFF 		bl	_ZNK5daisy9AdcHandle6GetPtrEh
 1758 00cc 0546     		mov	r5, r0
 1759 00ce 7868     		ldr	r0, [r7, #4]
 1760 00d0 FFF7FEFF 		bl	_ZN4kxmx9Bluemchen17AudioCallbackRateEv
 1761 00d4 F0EE407A 		vmov.f32	s15, s0
 1762 00d8 DFED1F0A 		vldr.32	s1, .L41
 1763 00dc 0023     		movs	r3, #0
 1764 00de 0022     		movs	r2, #0
 1765 00e0 B0EE670A 		vmov.f32	s0, s15
 1766 00e4 2946     		mov	r1, r5
 1767 00e6 2046     		mov	r0, r4
 1768 00e8 FFF7FEFF 		bl	_ZN5daisy13AnalogControl4InitEPtfbbf
 128:../kxmx_bluemchen/src/kxmx_bluemchen.cpp ****     // Initialize the CV controls
 129:../kxmx_bluemchen/src/kxmx_bluemchen.cpp ****     controls[CTRL_3].Init(seed.adc.GetPtr(2), AudioCallbackRate(), true);
 1769              		.loc 8 129 26
 1770 00ec 7B68     		ldr	r3, [r7, #4]
 1771 00ee 03F1A804 		add	r4, r3, #168
 1772 00f2 7B68     		ldr	r3, [r7, #4]
 1773 00f4 1833     		adds	r3, r3, #24
 1774 00f6 0221     		movs	r1, #2
 1775 00f8 1846     		mov	r0, r3
 1776 00fa FFF7FEFF 		bl	_ZNK5daisy9AdcHandle6GetPtrEh
 1777 00fe 0546     		mov	r5, r0
 1778 0100 7868     		ldr	r0, [r7, #4]
 1779 0102 FFF7FEFF 		bl	_ZN4kxmx9Bluemchen17AudioCallbackRateEv
 1780 0106 F0EE407A 		vmov.f32	s15, s0
 1781 010a DFED130A 		vldr.32	s1, .L41
 1782 010e 0023     		movs	r3, #0
 1783 0110 0122     		movs	r2, #1
 1784 0112 B0EE670A 		vmov.f32	s0, s15
 1785 0116 2946     		mov	r1, r5
 1786 0118 2046     		mov	r0, r4
 1787 011a FFF7FEFF 		bl	_ZN5daisy13AnalogControl4InitEPtfbbf
 130:../kxmx_bluemchen/src/kxmx_bluemchen.cpp ****     controls[CTRL_4].Init(seed.adc.GetPtr(3), AudioCallbackRate(), true);
 1788              		.loc 8 130 26
 1789 011e 7B68     		ldr	r3, [r7, #4]
 1790 0120 03F1C804 		add	r4, r3, #200
 1791 0124 7B68     		ldr	r3, [r7, #4]
 1792 0126 1833     		adds	r3, r3, #24
 1793 0128 0321     		movs	r1, #3
 1794 012a 1846     		mov	r0, r3
 1795 012c FFF7FEFF 		bl	_ZNK5daisy9AdcHandle6GetPtrEh
 1796 0130 0546     		mov	r5, r0
 1797 0132 7868     		ldr	r0, [r7, #4]
 1798 0134 FFF7FEFF 		bl	_ZN4kxmx9Bluemchen17AudioCallbackRateEv
 1799 0138 F0EE407A 		vmov.f32	s15, s0
 1800 013c DFED060A 		vldr.32	s1, .L41
 1801 0140 0023     		movs	r3, #0
ARM GAS  /tmp/ccqtC9dg.s 			page 39


 1802 0142 0122     		movs	r2, #1
 1803 0144 B0EE670A 		vmov.f32	s0, s15
 1804 0148 2946     		mov	r1, r5
 1805 014a 2046     		mov	r0, r4
 1806 014c FFF7FEFF 		bl	_ZN5daisy13AnalogControl4InitEPtfbbf
 131:../kxmx_bluemchen/src/kxmx_bluemchen.cpp **** }
 1807              		.loc 8 131 1
 1808 0150 00BF     		nop
 1809 0152 6037     		adds	r7, r7, #96
 1810              		.cfi_def_cfa_offset 16
 1811 0154 BD46     		mov	sp, r7
 1812              		.cfi_def_cfa_register 13
 1813              		@ sp needed
 1814 0156 B0BD     		pop	{r4, r5, r7, pc}
 1815              	.L42:
 1816              		.align	2
 1817              	.L41:
 1818 0158 6F12033B 		.word	990057071
 1819              		.cfi_endproc
 1820              	.LFE2611:
 1822              		.section	.text._ZN5daisy13SSD130xDriverILj64ELj32ENS_19SSD130xI2CTransportEE6ConfigC2Ev,"axG",%pro
 1823              		.align	1
 1824              		.weak	_ZN5daisy13SSD130xDriverILj64ELj32ENS_19SSD130xI2CTransportEE6ConfigC2Ev
 1825              		.syntax unified
 1826              		.thumb
 1827              		.thumb_func
 1828              		.fpu fpv5-d16
 1830              	_ZN5daisy13SSD130xDriverILj64ELj32ENS_19SSD130xI2CTransportEE6ConfigC2Ev:
 1831              	.LFB2615:
  47:../libDaisy/src/dev/oled_ssd130x.h **** 
  48:../libDaisy/src/dev/oled_ssd130x.h ****     void SendData(uint8_t* buff, size_t size)
  49:../libDaisy/src/dev/oled_ssd130x.h ****     {
  50:../libDaisy/src/dev/oled_ssd130x.h ****         for(size_t i = 0; i < size; i++)
  51:../libDaisy/src/dev/oled_ssd130x.h ****         {
  52:../libDaisy/src/dev/oled_ssd130x.h ****             uint8_t buf[2] = {0X40, buff[i]};
  53:../libDaisy/src/dev/oled_ssd130x.h ****             i2c_.TransmitBlocking(i2c_address_, buf, 2, 1000);
  54:../libDaisy/src/dev/oled_ssd130x.h ****         }
  55:../libDaisy/src/dev/oled_ssd130x.h ****     };
  56:../libDaisy/src/dev/oled_ssd130x.h **** 
  57:../libDaisy/src/dev/oled_ssd130x.h ****   private:
  58:../libDaisy/src/dev/oled_ssd130x.h ****     daisy::I2CHandle i2c_;
  59:../libDaisy/src/dev/oled_ssd130x.h ****     uint8_t          i2c_address_;
  60:../libDaisy/src/dev/oled_ssd130x.h **** };
  61:../libDaisy/src/dev/oled_ssd130x.h **** 
  62:../libDaisy/src/dev/oled_ssd130x.h **** /**
  63:../libDaisy/src/dev/oled_ssd130x.h ****  * 4 Wire SPI Transport for SSD1306 / SSD1309 OLED display devices
  64:../libDaisy/src/dev/oled_ssd130x.h ****  */
  65:../libDaisy/src/dev/oled_ssd130x.h **** class SSD130x4WireSpiTransport
  66:../libDaisy/src/dev/oled_ssd130x.h **** {
  67:../libDaisy/src/dev/oled_ssd130x.h ****   public:
  68:../libDaisy/src/dev/oled_ssd130x.h ****     struct Config
  69:../libDaisy/src/dev/oled_ssd130x.h ****     {
  70:../libDaisy/src/dev/oled_ssd130x.h ****         Config()
  71:../libDaisy/src/dev/oled_ssd130x.h ****         {
  72:../libDaisy/src/dev/oled_ssd130x.h ****             // Initialize using defaults
  73:../libDaisy/src/dev/oled_ssd130x.h ****             Defaults();
  74:../libDaisy/src/dev/oled_ssd130x.h ****         }
ARM GAS  /tmp/ccqtC9dg.s 			page 40


  75:../libDaisy/src/dev/oled_ssd130x.h ****         SpiHandle::Config spi_config;
  76:../libDaisy/src/dev/oled_ssd130x.h ****         struct
  77:../libDaisy/src/dev/oled_ssd130x.h ****         {
  78:../libDaisy/src/dev/oled_ssd130x.h ****             dsy_gpio_pin dc;    /**< & */
  79:../libDaisy/src/dev/oled_ssd130x.h ****             dsy_gpio_pin reset; /**< & */
  80:../libDaisy/src/dev/oled_ssd130x.h ****         } pin_config;
  81:../libDaisy/src/dev/oled_ssd130x.h ****         void Defaults()
  82:../libDaisy/src/dev/oled_ssd130x.h ****         {
  83:../libDaisy/src/dev/oled_ssd130x.h ****             // SPI peripheral config
  84:../libDaisy/src/dev/oled_ssd130x.h ****             spi_config.periph = SpiHandle::Config::Peripheral::SPI_1;
  85:../libDaisy/src/dev/oled_ssd130x.h ****             spi_config.mode   = SpiHandle::Config::Mode::MASTER;
  86:../libDaisy/src/dev/oled_ssd130x.h ****             spi_config.direction
  87:../libDaisy/src/dev/oled_ssd130x.h ****                 = SpiHandle::Config::Direction::TWO_LINES_TX_ONLY;
  88:../libDaisy/src/dev/oled_ssd130x.h ****             spi_config.datasize       = 8;
  89:../libDaisy/src/dev/oled_ssd130x.h ****             spi_config.clock_polarity = SpiHandle::Config::ClockPolarity::LOW;
  90:../libDaisy/src/dev/oled_ssd130x.h ****             spi_config.clock_phase    = SpiHandle::Config::ClockPhase::ONE_EDGE;
  91:../libDaisy/src/dev/oled_ssd130x.h ****             spi_config.nss            = SpiHandle::Config::NSS::HARD_OUTPUT;
  92:../libDaisy/src/dev/oled_ssd130x.h ****             spi_config.baud_prescaler = SpiHandle::Config::BaudPrescaler::PS_8;
  93:../libDaisy/src/dev/oled_ssd130x.h ****             // SPI pin config
  94:../libDaisy/src/dev/oled_ssd130x.h ****             spi_config.pin_config.sclk = {DSY_GPIOG, 11};
  95:../libDaisy/src/dev/oled_ssd130x.h ****             spi_config.pin_config.miso = {DSY_GPIOX, 0};
  96:../libDaisy/src/dev/oled_ssd130x.h ****             spi_config.pin_config.mosi = {DSY_GPIOB, 5};
  97:../libDaisy/src/dev/oled_ssd130x.h ****             spi_config.pin_config.nss  = {DSY_GPIOG, 10};
  98:../libDaisy/src/dev/oled_ssd130x.h ****             // SSD130x control pin config
  99:../libDaisy/src/dev/oled_ssd130x.h ****             pin_config.dc    = {DSY_GPIOB, 4};
 100:../libDaisy/src/dev/oled_ssd130x.h ****             pin_config.reset = {DSY_GPIOB, 15};
 101:../libDaisy/src/dev/oled_ssd130x.h ****         }
 102:../libDaisy/src/dev/oled_ssd130x.h ****     };
 103:../libDaisy/src/dev/oled_ssd130x.h ****     void Init(const Config& config)
 104:../libDaisy/src/dev/oled_ssd130x.h ****     {
 105:../libDaisy/src/dev/oled_ssd130x.h ****         // Initialize both GPIO
 106:../libDaisy/src/dev/oled_ssd130x.h ****         pin_dc_.mode = DSY_GPIO_MODE_OUTPUT_PP;
 107:../libDaisy/src/dev/oled_ssd130x.h ****         pin_dc_.pin  = config.pin_config.dc;
 108:../libDaisy/src/dev/oled_ssd130x.h ****         dsy_gpio_init(&pin_dc_);
 109:../libDaisy/src/dev/oled_ssd130x.h ****         pin_reset_.mode = DSY_GPIO_MODE_OUTPUT_PP;
 110:../libDaisy/src/dev/oled_ssd130x.h ****         pin_reset_.pin  = config.pin_config.reset;
 111:../libDaisy/src/dev/oled_ssd130x.h ****         dsy_gpio_init(&pin_reset_);
 112:../libDaisy/src/dev/oled_ssd130x.h **** 
 113:../libDaisy/src/dev/oled_ssd130x.h ****         // Initialize SPI
 114:../libDaisy/src/dev/oled_ssd130x.h ****         spi_.Init(config.spi_config);
 115:../libDaisy/src/dev/oled_ssd130x.h **** 
 116:../libDaisy/src/dev/oled_ssd130x.h ****         // Reset and Configure OLED.
 117:../libDaisy/src/dev/oled_ssd130x.h ****         dsy_gpio_write(&pin_reset_, 0);
 118:../libDaisy/src/dev/oled_ssd130x.h ****         System::Delay(10);
 119:../libDaisy/src/dev/oled_ssd130x.h ****         dsy_gpio_write(&pin_reset_, 1);
 120:../libDaisy/src/dev/oled_ssd130x.h ****         System::Delay(10);
 121:../libDaisy/src/dev/oled_ssd130x.h ****     };
 122:../libDaisy/src/dev/oled_ssd130x.h ****     void SendCommand(uint8_t cmd)
 123:../libDaisy/src/dev/oled_ssd130x.h ****     {
 124:../libDaisy/src/dev/oled_ssd130x.h ****         dsy_gpio_write(&pin_dc_, 0);
 125:../libDaisy/src/dev/oled_ssd130x.h ****         spi_.BlockingTransmit(&cmd, 1);
 126:../libDaisy/src/dev/oled_ssd130x.h ****     };
 127:../libDaisy/src/dev/oled_ssd130x.h **** 
 128:../libDaisy/src/dev/oled_ssd130x.h ****     void SendData(uint8_t* buff, size_t size)
 129:../libDaisy/src/dev/oled_ssd130x.h ****     {
 130:../libDaisy/src/dev/oled_ssd130x.h ****         dsy_gpio_write(&pin_dc_, 1);
 131:../libDaisy/src/dev/oled_ssd130x.h ****         spi_.BlockingTransmit(buff, size);
ARM GAS  /tmp/ccqtC9dg.s 			page 41


 132:../libDaisy/src/dev/oled_ssd130x.h ****     };
 133:../libDaisy/src/dev/oled_ssd130x.h **** 
 134:../libDaisy/src/dev/oled_ssd130x.h ****   private:
 135:../libDaisy/src/dev/oled_ssd130x.h ****     SpiHandle spi_;
 136:../libDaisy/src/dev/oled_ssd130x.h ****     dsy_gpio  pin_reset_;
 137:../libDaisy/src/dev/oled_ssd130x.h ****     dsy_gpio  pin_dc_;
 138:../libDaisy/src/dev/oled_ssd130x.h **** };
 139:../libDaisy/src/dev/oled_ssd130x.h **** 
 140:../libDaisy/src/dev/oled_ssd130x.h **** /**
 141:../libDaisy/src/dev/oled_ssd130x.h ****  * Soft SPI Transport for SSD1306 / SSD1309 OLED display devices
 142:../libDaisy/src/dev/oled_ssd130x.h ****  */
 143:../libDaisy/src/dev/oled_ssd130x.h **** class SSD130x4WireSoftSpiTransport
 144:../libDaisy/src/dev/oled_ssd130x.h **** {
 145:../libDaisy/src/dev/oled_ssd130x.h ****   public:
 146:../libDaisy/src/dev/oled_ssd130x.h ****     struct Config
 147:../libDaisy/src/dev/oled_ssd130x.h ****     {
 148:../libDaisy/src/dev/oled_ssd130x.h ****         Config()
 149:../libDaisy/src/dev/oled_ssd130x.h ****         {
 150:../libDaisy/src/dev/oled_ssd130x.h ****             // Initialize using defaults
 151:../libDaisy/src/dev/oled_ssd130x.h ****             Defaults();
 152:../libDaisy/src/dev/oled_ssd130x.h ****         }
 153:../libDaisy/src/dev/oled_ssd130x.h ****         struct
 154:../libDaisy/src/dev/oled_ssd130x.h ****         {
 155:../libDaisy/src/dev/oled_ssd130x.h ****             uint32_t     sclk_delay;
 156:../libDaisy/src/dev/oled_ssd130x.h ****             dsy_gpio_pin sclk;
 157:../libDaisy/src/dev/oled_ssd130x.h ****             dsy_gpio_pin mosi;
 158:../libDaisy/src/dev/oled_ssd130x.h ****             dsy_gpio_pin dc;
 159:../libDaisy/src/dev/oled_ssd130x.h ****             dsy_gpio_pin reset;
 160:../libDaisy/src/dev/oled_ssd130x.h ****         } pin_config;
 161:../libDaisy/src/dev/oled_ssd130x.h ****         void Defaults()
 162:../libDaisy/src/dev/oled_ssd130x.h ****         {
 163:../libDaisy/src/dev/oled_ssd130x.h ****             pin_config.sclk_delay = 0; // fast as possible?!
 164:../libDaisy/src/dev/oled_ssd130x.h ****             // SPI peripheral config
 165:../libDaisy/src/dev/oled_ssd130x.h ****             pin_config.sclk = {DSY_GPIOD, 3}; /**< D10 - SPI2 SCK  */
 166:../libDaisy/src/dev/oled_ssd130x.h ****             pin_config.mosi = {DSY_GPIOC, 3}; /**< D9  - SPI2 MOSI */
 167:../libDaisy/src/dev/oled_ssd130x.h ****             // SSD130x control pin config
 168:../libDaisy/src/dev/oled_ssd130x.h ****             pin_config.dc    = {DSY_GPIOC, 11}; //D2
 169:../libDaisy/src/dev/oled_ssd130x.h ****             pin_config.reset = {DSY_GPIOC, 10}; //D3
 170:../libDaisy/src/dev/oled_ssd130x.h ****         }
 171:../libDaisy/src/dev/oled_ssd130x.h ****     };
 172:../libDaisy/src/dev/oled_ssd130x.h ****     void Init(const Config& config)
 173:../libDaisy/src/dev/oled_ssd130x.h ****     {
 174:../libDaisy/src/dev/oled_ssd130x.h ****         // Initialize both GPIO
 175:../libDaisy/src/dev/oled_ssd130x.h ****         pin_sclk_.mode = DSY_GPIO_MODE_OUTPUT_PP;
 176:../libDaisy/src/dev/oled_ssd130x.h ****         pin_sclk_.pin  = config.pin_config.sclk;
 177:../libDaisy/src/dev/oled_ssd130x.h ****         dsy_gpio_init(&pin_sclk_);
 178:../libDaisy/src/dev/oled_ssd130x.h ****         dsy_gpio_write(&pin_sclk_, 1); //ClockPolarity::LOW
 179:../libDaisy/src/dev/oled_ssd130x.h ****         clk_delay      = config.pin_config.sclk_delay;
 180:../libDaisy/src/dev/oled_ssd130x.h ****         pin_mosi_.mode = DSY_GPIO_MODE_OUTPUT_PP;
 181:../libDaisy/src/dev/oled_ssd130x.h ****         pin_mosi_.pin  = config.pin_config.mosi;
 182:../libDaisy/src/dev/oled_ssd130x.h ****         dsy_gpio_init(&pin_mosi_);
 183:../libDaisy/src/dev/oled_ssd130x.h ****         dsy_gpio_write(&pin_mosi_, 0);
 184:../libDaisy/src/dev/oled_ssd130x.h **** 
 185:../libDaisy/src/dev/oled_ssd130x.h ****         pin_dc_.mode = DSY_GPIO_MODE_OUTPUT_PP;
 186:../libDaisy/src/dev/oled_ssd130x.h ****         pin_dc_.pin  = config.pin_config.dc;
 187:../libDaisy/src/dev/oled_ssd130x.h ****         dsy_gpio_init(&pin_dc_);
 188:../libDaisy/src/dev/oled_ssd130x.h ****         pin_reset_.mode = DSY_GPIO_MODE_OUTPUT_PP;
ARM GAS  /tmp/ccqtC9dg.s 			page 42


 189:../libDaisy/src/dev/oled_ssd130x.h ****         pin_reset_.pin  = config.pin_config.reset;
 190:../libDaisy/src/dev/oled_ssd130x.h ****         dsy_gpio_init(&pin_reset_);
 191:../libDaisy/src/dev/oled_ssd130x.h **** 
 192:../libDaisy/src/dev/oled_ssd130x.h ****         // Reset and Configure OLED.
 193:../libDaisy/src/dev/oled_ssd130x.h ****         dsy_gpio_write(&pin_reset_, 0);
 194:../libDaisy/src/dev/oled_ssd130x.h ****         System::Delay(10);
 195:../libDaisy/src/dev/oled_ssd130x.h ****         dsy_gpio_write(&pin_reset_, 1);
 196:../libDaisy/src/dev/oled_ssd130x.h ****         System::Delay(10);
 197:../libDaisy/src/dev/oled_ssd130x.h ****     };
 198:../libDaisy/src/dev/oled_ssd130x.h ****     void SendCommand(uint8_t cmd)
 199:../libDaisy/src/dev/oled_ssd130x.h ****     {
 200:../libDaisy/src/dev/oled_ssd130x.h ****         dsy_gpio_write(&pin_dc_, 0);
 201:../libDaisy/src/dev/oled_ssd130x.h ****         SoftSpiTransmit(cmd);
 202:../libDaisy/src/dev/oled_ssd130x.h ****     };
 203:../libDaisy/src/dev/oled_ssd130x.h **** 
 204:../libDaisy/src/dev/oled_ssd130x.h ****     void SendData(uint8_t* buff, size_t size)
 205:../libDaisy/src/dev/oled_ssd130x.h ****     {
 206:../libDaisy/src/dev/oled_ssd130x.h ****         dsy_gpio_write(&pin_dc_, 1);
 207:../libDaisy/src/dev/oled_ssd130x.h ****         for(size_t i = 0; i < size; i++)
 208:../libDaisy/src/dev/oled_ssd130x.h ****             SoftSpiTransmit(buff[i]);
 209:../libDaisy/src/dev/oled_ssd130x.h ****     };
 210:../libDaisy/src/dev/oled_ssd130x.h **** 
 211:../libDaisy/src/dev/oled_ssd130x.h ****   private:
 212:../libDaisy/src/dev/oled_ssd130x.h ****     void SoftSpiTransmit(uint8_t val)
 213:../libDaisy/src/dev/oled_ssd130x.h ****     {
 214:../libDaisy/src/dev/oled_ssd130x.h ****         // bit flip
 215:../libDaisy/src/dev/oled_ssd130x.h ****         val = ((val & 0x01) << 7) | ((val & 0x02) << 5) | ((val & 0x04) << 3)
 216:../libDaisy/src/dev/oled_ssd130x.h ****               | ((val & 0x08) << 1) | ((val & 0x10) >> 1) | ((val & 0x20) >> 3)
 217:../libDaisy/src/dev/oled_ssd130x.h ****               | ((val & 0x40) >> 5) | ((val & 0x80) >> 7);
 218:../libDaisy/src/dev/oled_ssd130x.h **** 
 219:../libDaisy/src/dev/oled_ssd130x.h ****         for(uint8_t bit = 0u; bit < 8u; bit++)
 220:../libDaisy/src/dev/oled_ssd130x.h ****         {
 221:../libDaisy/src/dev/oled_ssd130x.h ****             dsy_gpio_write(&pin_mosi_, ((val & (1 << bit)) ? 1 : 0));
 222:../libDaisy/src/dev/oled_ssd130x.h **** 
 223:../libDaisy/src/dev/oled_ssd130x.h ****             System::DelayTicks(clk_delay);
 224:../libDaisy/src/dev/oled_ssd130x.h **** 
 225:../libDaisy/src/dev/oled_ssd130x.h ****             dsy_gpio_toggle(&pin_sclk_);
 226:../libDaisy/src/dev/oled_ssd130x.h **** 
 227:../libDaisy/src/dev/oled_ssd130x.h ****             System::DelayTicks(clk_delay);
 228:../libDaisy/src/dev/oled_ssd130x.h **** 
 229:../libDaisy/src/dev/oled_ssd130x.h ****             dsy_gpio_toggle(&pin_sclk_);
 230:../libDaisy/src/dev/oled_ssd130x.h ****         }
 231:../libDaisy/src/dev/oled_ssd130x.h ****     }
 232:../libDaisy/src/dev/oled_ssd130x.h **** 
 233:../libDaisy/src/dev/oled_ssd130x.h ****     uint32_t clk_delay;
 234:../libDaisy/src/dev/oled_ssd130x.h ****     dsy_gpio pin_sclk_;
 235:../libDaisy/src/dev/oled_ssd130x.h ****     dsy_gpio pin_mosi_;
 236:../libDaisy/src/dev/oled_ssd130x.h ****     dsy_gpio pin_reset_;
 237:../libDaisy/src/dev/oled_ssd130x.h ****     dsy_gpio pin_dc_;
 238:../libDaisy/src/dev/oled_ssd130x.h **** };
 239:../libDaisy/src/dev/oled_ssd130x.h **** 
 240:../libDaisy/src/dev/oled_ssd130x.h **** 
 241:../libDaisy/src/dev/oled_ssd130x.h **** /**
 242:../libDaisy/src/dev/oled_ssd130x.h ****  * A driver implementation for the SSD1306/SSD1309
 243:../libDaisy/src/dev/oled_ssd130x.h ****  */
 244:../libDaisy/src/dev/oled_ssd130x.h **** template <size_t width, size_t height, typename Transport>
 245:../libDaisy/src/dev/oled_ssd130x.h **** class SSD130xDriver
ARM GAS  /tmp/ccqtC9dg.s 			page 43


 246:../libDaisy/src/dev/oled_ssd130x.h **** {
 247:../libDaisy/src/dev/oled_ssd130x.h ****   public:
 248:../libDaisy/src/dev/oled_ssd130x.h ****     struct Config
 1832              		.loc 7 248 12
 1833              		.cfi_startproc
 1834              		@ args = 0, pretend = 0, frame = 8
 1835              		@ frame_needed = 1, uses_anonymous_args = 0
 1836 0000 80B5     		push	{r7, lr}
 1837              		.cfi_def_cfa_offset 8
 1838              		.cfi_offset 7, -8
 1839              		.cfi_offset 14, -4
 1840 0002 82B0     		sub	sp, sp, #8
 1841              		.cfi_def_cfa_offset 16
 1842 0004 00AF     		add	r7, sp, #0
 1843              		.cfi_def_cfa_register 7
 1844 0006 7860     		str	r0, [r7, #4]
 1845              	.LBB6:
 1846              		.loc 7 248 12
 1847 0008 7B68     		ldr	r3, [r7, #4]
 1848 000a 1846     		mov	r0, r3
 1849 000c FFF7FEFF 		bl	_ZN5daisy19SSD130xI2CTransport6ConfigC1Ev
 1850              	.LBE6:
 1851 0010 7B68     		ldr	r3, [r7, #4]
 1852 0012 1846     		mov	r0, r3
 1853 0014 0837     		adds	r7, r7, #8
 1854              		.cfi_def_cfa_offset 8
 1855 0016 BD46     		mov	sp, r7
 1856              		.cfi_def_cfa_register 13
 1857              		@ sp needed
 1858 0018 80BD     		pop	{r7, pc}
 1859              		.cfi_endproc
 1860              	.LFE2615:
 1862              		.weak	_ZN5daisy13SSD130xDriverILj64ELj32ENS_19SSD130xI2CTransportEE6ConfigC1Ev
 1863              		.thumb_set _ZN5daisy13SSD130xDriverILj64ELj32ENS_19SSD130xI2CTransportEE6ConfigC1Ev,_ZN5daisy13SSD
 1864              		.section	.text._ZN5daisy11OledDisplayINS_13SSD130xDriverILj64ELj32ENS_19SSD130xI2CTransportEEEE6Co
 1865              		.align	1
 1866              		.weak	_ZN5daisy11OledDisplayINS_13SSD130xDriverILj64ELj32ENS_19SSD130xI2CTransportEEEE6ConfigC2Ev
 1867              		.syntax unified
 1868              		.thumb
 1869              		.thumb_func
 1870              		.fpu fpv5-d16
 1872              	_ZN5daisy11OledDisplayINS_13SSD130xDriverILj64ELj32ENS_19SSD130xI2CTransportEEEE6ConfigC2Ev:
 1873              	.LFB2617:
 1874              		.file 9 "../libDaisy/src/hid/disp/oled_display.h"
   1:../libDaisy/src/hid/disp/oled_display.h **** #pragma once
   2:../libDaisy/src/hid/disp/oled_display.h **** #ifndef DSY_OLED_DISPLAY_H
   3:../libDaisy/src/hid/disp/oled_display.h **** #define DSY_OLED_DISPLAY_H /**< Macro */
   4:../libDaisy/src/hid/disp/oled_display.h **** 
   5:../libDaisy/src/hid/disp/oled_display.h **** #include "display.h"
   6:../libDaisy/src/hid/disp/oled_display.h **** 
   7:../libDaisy/src/hid/disp/oled_display.h **** namespace daisy
   8:../libDaisy/src/hid/disp/oled_display.h **** {
   9:../libDaisy/src/hid/disp/oled_display.h **** /** 
  10:../libDaisy/src/hid/disp/oled_display.h ****  * This class is for drawing to a monochrome OLED display. 
  11:../libDaisy/src/hid/disp/oled_display.h ****  * @ingroup device
  12:../libDaisy/src/hid/disp/oled_display.h **** */
  13:../libDaisy/src/hid/disp/oled_display.h **** template <typename DisplayDriver>
ARM GAS  /tmp/ccqtC9dg.s 			page 44


  14:../libDaisy/src/hid/disp/oled_display.h **** class OledDisplay : public OneBitGraphicsDisplayImpl<OledDisplay<DisplayDriver>>
  15:../libDaisy/src/hid/disp/oled_display.h **** {
  16:../libDaisy/src/hid/disp/oled_display.h ****   public:
  17:../libDaisy/src/hid/disp/oled_display.h ****     OledDisplay() {}
  18:../libDaisy/src/hid/disp/oled_display.h ****     virtual ~OledDisplay() {}
  19:../libDaisy/src/hid/disp/oled_display.h **** 
  20:../libDaisy/src/hid/disp/oled_display.h ****     struct Config
 1875              		.loc 9 20 12
 1876              		.cfi_startproc
 1877              		@ args = 0, pretend = 0, frame = 8
 1878              		@ frame_needed = 1, uses_anonymous_args = 0
 1879 0000 80B5     		push	{r7, lr}
 1880              		.cfi_def_cfa_offset 8
 1881              		.cfi_offset 7, -8
 1882              		.cfi_offset 14, -4
 1883 0002 82B0     		sub	sp, sp, #8
 1884              		.cfi_def_cfa_offset 16
 1885 0004 00AF     		add	r7, sp, #0
 1886              		.cfi_def_cfa_register 7
 1887 0006 7860     		str	r0, [r7, #4]
 1888              	.LBB7:
 1889              		.loc 9 20 12
 1890 0008 7B68     		ldr	r3, [r7, #4]
 1891 000a 1846     		mov	r0, r3
 1892 000c FFF7FEFF 		bl	_ZN5daisy13SSD130xDriverILj64ELj32ENS_19SSD130xI2CTransportEE6ConfigC1Ev
 1893              	.LBE7:
 1894 0010 7B68     		ldr	r3, [r7, #4]
 1895 0012 1846     		mov	r0, r3
 1896 0014 0837     		adds	r7, r7, #8
 1897              		.cfi_def_cfa_offset 8
 1898 0016 BD46     		mov	sp, r7
 1899              		.cfi_def_cfa_register 13
 1900              		@ sp needed
 1901 0018 80BD     		pop	{r7, pc}
 1902              		.cfi_endproc
 1903              	.LFE2617:
 1905              		.weak	_ZN5daisy11OledDisplayINS_13SSD130xDriverILj64ELj32ENS_19SSD130xI2CTransportEEEE6ConfigC1Ev
 1906              		.thumb_set _ZN5daisy11OledDisplayINS_13SSD130xDriverILj64ELj32ENS_19SSD130xI2CTransportEEEE6Config
 1907              		.section	.text._ZN4kxmx9Bluemchen11InitDisplayEv,"ax",%progbits
 1908              		.align	1
 1909              		.global	_ZN4kxmx9Bluemchen11InitDisplayEv
 1910              		.syntax unified
 1911              		.thumb
 1912              		.thumb_func
 1913              		.fpu fpv5-d16
 1915              	_ZN4kxmx9Bluemchen11InitDisplayEv:
 1916              	.LFB2612:
 132:../kxmx_bluemchen/src/kxmx_bluemchen.cpp **** 
 133:../kxmx_bluemchen/src/kxmx_bluemchen.cpp **** void Bluemchen::InitDisplay()
 134:../kxmx_bluemchen/src/kxmx_bluemchen.cpp **** {
 1917              		.loc 8 134 1
 1918              		.cfi_startproc
 1919              		@ args = 0, pretend = 0, frame = 32
 1920              		@ frame_needed = 1, uses_anonymous_args = 0
 1921 0000 B0B5     		push	{r4, r5, r7, lr}
 1922              		.cfi_def_cfa_offset 16
 1923              		.cfi_offset 4, -16
ARM GAS  /tmp/ccqtC9dg.s 			page 45


 1924              		.cfi_offset 5, -12
 1925              		.cfi_offset 7, -8
 1926              		.cfi_offset 14, -4
 1927 0002 8CB0     		sub	sp, sp, #48
 1928              		.cfi_def_cfa_offset 64
 1929 0004 04AF     		add	r7, sp, #16
 1930              		.cfi_def_cfa 7, 48
 1931 0006 7860     		str	r0, [r7, #4]
 135:../kxmx_bluemchen/src/kxmx_bluemchen.cpp ****     daisy::OledDisplay<daisy::SSD130xI2c64x32Driver>::Config display_config;
 1932              		.loc 8 135 62
 1933 0008 07F10803 		add	r3, r7, #8
 1934 000c 1846     		mov	r0, r3
 1935 000e FFF7FEFF 		bl	_ZN5daisy11OledDisplayINS_13SSD130xDriverILj64ELj32ENS_19SSD130xI2CTransportEEEE6ConfigC1Ev
 136:../kxmx_bluemchen/src/kxmx_bluemchen.cpp ****     display_config.driver_config.transport_config.Defaults();
 1936              		.loc 8 136 59
 1937 0012 07F10803 		add	r3, r7, #8
 1938 0016 1846     		mov	r0, r3
 1939 0018 FFF7FEFF 		bl	_ZN5daisy19SSD130xI2CTransport6Config8DefaultsEv
 137:../kxmx_bluemchen/src/kxmx_bluemchen.cpp ****     display.Init(display_config);
 1940              		.loc 8 137 17
 1941 001c 7B68     		ldr	r3, [r7, #4]
 1942 001e 49F24C24 		movw	r4, #37452
 1943 0022 1C44     		add	r4, r4, r3
 1944 0024 6D46     		mov	r5, sp
 1945 0026 07F11403 		add	r3, r7, #20
 1946 002a 93E80700 		ldm	r3, {r0, r1, r2}
 1947 002e 85E80700 		stm	r5, {r0, r1, r2}
 1948 0032 07F10803 		add	r3, r7, #8
 1949 0036 0ECB     		ldm	r3, {r1, r2, r3}
 1950 0038 2046     		mov	r0, r4
 1951 003a FFF7FEFF 		bl	_ZN5daisy11OledDisplayINS_13SSD130xDriverILj64ELj32ENS_19SSD130xI2CTransportEEEE4InitENS4_6Conf
 138:../kxmx_bluemchen/src/kxmx_bluemchen.cpp **** }
 1952              		.loc 8 138 1
 1953 003e 00BF     		nop
 1954 0040 2037     		adds	r7, r7, #32
 1955              		.cfi_def_cfa_offset 16
 1956 0042 BD46     		mov	sp, r7
 1957              		.cfi_def_cfa_register 13
 1958              		@ sp needed
 1959 0044 B0BD     		pop	{r4, r5, r7, pc}
 1960              		.cfi_endproc
 1961              	.LFE2612:
 1963              		.section	.text._ZN5daisy11MidiHandlerINS_17MidiUartTransportEE6ConfigC2Ev,"axG",%progbits,_ZN5dais
 1964              		.align	1
 1965              		.weak	_ZN5daisy11MidiHandlerINS_17MidiUartTransportEE6ConfigC2Ev
 1966              		.syntax unified
 1967              		.thumb
 1968              		.thumb_func
 1969              		.fpu fpv5-d16
 1971              	_ZN5daisy11MidiHandlerINS_17MidiUartTransportEE6ConfigC2Ev:
 1972              	.LFB2621:
  86:../libDaisy/src/hid/midi.h **** 
  87:../libDaisy/src/hid/midi.h ****     /** @brief Start the UART peripheral in listening mode.
  88:../libDaisy/src/hid/midi.h ****      *  This will fill an internal data structure in the background */
  89:../libDaisy/src/hid/midi.h ****     inline void StartRx(MidiRxParseCallback parse_callback, void* context)
  90:../libDaisy/src/hid/midi.h ****     {
  91:../libDaisy/src/hid/midi.h ****         parse_context_  = context;
ARM GAS  /tmp/ccqtC9dg.s 			page 46


  92:../libDaisy/src/hid/midi.h ****         parse_callback_ = parse_callback;
  93:../libDaisy/src/hid/midi.h ****         dsy_dma_clear_cache_for_buffer((uint8_t*)this,
  94:../libDaisy/src/hid/midi.h ****                                        sizeof(MidiUartTransport));
  95:../libDaisy/src/hid/midi.h ****         uart_.DmaListenStart(
  96:../libDaisy/src/hid/midi.h ****             rx_buffer, rx_buffer_size, MidiUartTransport::rxCallback, this);
  97:../libDaisy/src/hid/midi.h ****     }
  98:../libDaisy/src/hid/midi.h **** 
  99:../libDaisy/src/hid/midi.h ****     /** @brief returns whether the UART peripheral is actively listening in the background or not *
 100:../libDaisy/src/hid/midi.h ****     inline bool RxActive() { return uart_.IsListening(); }
 101:../libDaisy/src/hid/midi.h **** 
 102:../libDaisy/src/hid/midi.h ****     /** @brief This is a no-op for UART transport - Rx is via DMA callback with circular buffer */
 103:../libDaisy/src/hid/midi.h ****     inline void FlushRx() {}
 104:../libDaisy/src/hid/midi.h **** 
 105:../libDaisy/src/hid/midi.h ****     /** @brief sends the buffer of bytes out of the UART peripheral */
 106:../libDaisy/src/hid/midi.h ****     inline void Tx(uint8_t* buff, size_t size) { uart_.PollTx(buff, size); }
 107:../libDaisy/src/hid/midi.h **** 
 108:../libDaisy/src/hid/midi.h ****   private:
 109:../libDaisy/src/hid/midi.h ****     UartHandler         uart_;
 110:../libDaisy/src/hid/midi.h ****     uint8_t*            rx_buffer;
 111:../libDaisy/src/hid/midi.h ****     size_t              rx_buffer_size;
 112:../libDaisy/src/hid/midi.h ****     void*               parse_context_;
 113:../libDaisy/src/hid/midi.h ****     MidiRxParseCallback parse_callback_;
 114:../libDaisy/src/hid/midi.h **** 
 115:../libDaisy/src/hid/midi.h ****     /** Static callback for Uart MIDI that occurs when
 116:../libDaisy/src/hid/midi.h ****          *  new data is available from the peripheral.
 117:../libDaisy/src/hid/midi.h ****          *  The new data is transferred from the peripheral to the
 118:../libDaisy/src/hid/midi.h ****          *  MIDI instance's byte FIFO that feeds the MIDI parser.
 119:../libDaisy/src/hid/midi.h ****          *
 120:../libDaisy/src/hid/midi.h ****          *  TODO: Handle UartHandler errors better/at all.
 121:../libDaisy/src/hid/midi.h ****          *  (If there is a UART error, there's not really any recovery
 122:../libDaisy/src/hid/midi.h ****          *  option at the moment)
 123:../libDaisy/src/hid/midi.h ****          */
 124:../libDaisy/src/hid/midi.h ****     static void rxCallback(uint8_t*            data,
 125:../libDaisy/src/hid/midi.h ****                            size_t              size,
 126:../libDaisy/src/hid/midi.h ****                            void*               context,
 127:../libDaisy/src/hid/midi.h ****                            UartHandler::Result res)
 128:../libDaisy/src/hid/midi.h ****     {
 129:../libDaisy/src/hid/midi.h ****         /** Read context as transport type */
 130:../libDaisy/src/hid/midi.h ****         MidiUartTransport* transport
 131:../libDaisy/src/hid/midi.h ****             = reinterpret_cast<MidiUartTransport*>(context);
 132:../libDaisy/src/hid/midi.h ****         if(res == UartHandler::Result::OK)
 133:../libDaisy/src/hid/midi.h ****         {
 134:../libDaisy/src/hid/midi.h ****             if(transport->parse_callback_)
 135:../libDaisy/src/hid/midi.h ****             {
 136:../libDaisy/src/hid/midi.h ****                 transport->parse_callback_(
 137:../libDaisy/src/hid/midi.h ****                     data, size, transport->parse_context_);
 138:../libDaisy/src/hid/midi.h ****             }
 139:../libDaisy/src/hid/midi.h ****         }
 140:../libDaisy/src/hid/midi.h ****     }
 141:../libDaisy/src/hid/midi.h **** };
 142:../libDaisy/src/hid/midi.h **** 
 143:../libDaisy/src/hid/midi.h **** /**
 144:../libDaisy/src/hid/midi.h ****     @brief Simple MIDI Handler \n
 145:../libDaisy/src/hid/midi.h ****     Parses bytes from an input into valid MidiEvents. \n
 146:../libDaisy/src/hid/midi.h ****     The MidiEvents fill a FIFO queue that the user can pop messages from.
 147:../libDaisy/src/hid/midi.h ****     @author shensley
 148:../libDaisy/src/hid/midi.h ****     @date March 2020
ARM GAS  /tmp/ccqtC9dg.s 			page 47


 149:../libDaisy/src/hid/midi.h ****     @ingroup midi
 150:../libDaisy/src/hid/midi.h **** */
 151:../libDaisy/src/hid/midi.h **** template <typename Transport>
 152:../libDaisy/src/hid/midi.h **** class MidiHandler
 153:../libDaisy/src/hid/midi.h **** {
 154:../libDaisy/src/hid/midi.h ****   public:
 155:../libDaisy/src/hid/midi.h ****     MidiHandler() {}
 156:../libDaisy/src/hid/midi.h ****     ~MidiHandler() {}
 157:../libDaisy/src/hid/midi.h **** 
 158:../libDaisy/src/hid/midi.h ****     struct Config
 1973              		.loc 4 158 12
 1974              		.cfi_startproc
 1975              		@ args = 0, pretend = 0, frame = 8
 1976              		@ frame_needed = 1, uses_anonymous_args = 0
 1977 0000 80B5     		push	{r7, lr}
 1978              		.cfi_def_cfa_offset 8
 1979              		.cfi_offset 7, -8
 1980              		.cfi_offset 14, -4
 1981 0002 82B0     		sub	sp, sp, #8
 1982              		.cfi_def_cfa_offset 16
 1983 0004 00AF     		add	r7, sp, #0
 1984              		.cfi_def_cfa_register 7
 1985 0006 7860     		str	r0, [r7, #4]
 1986              	.LBB8:
 1987              		.loc 4 158 12
 1988 0008 7B68     		ldr	r3, [r7, #4]
 1989 000a 1846     		mov	r0, r3
 1990 000c FFF7FEFF 		bl	_ZN5daisy17MidiUartTransport6ConfigC1Ev
 1991              	.LBE8:
 1992 0010 7B68     		ldr	r3, [r7, #4]
 1993 0012 1846     		mov	r0, r3
 1994 0014 0837     		adds	r7, r7, #8
 1995              		.cfi_def_cfa_offset 8
 1996 0016 BD46     		mov	sp, r7
 1997              		.cfi_def_cfa_register 13
 1998              		@ sp needed
 1999 0018 80BD     		pop	{r7, pc}
 2000              		.cfi_endproc
 2001              	.LFE2621:
 2003              		.weak	_ZN5daisy11MidiHandlerINS_17MidiUartTransportEE6ConfigC1Ev
 2004              		.thumb_set _ZN5daisy11MidiHandlerINS_17MidiUartTransportEE6ConfigC1Ev,_ZN5daisy11MidiHandlerINS_17
 2005              		.section	.text._ZN4kxmx9Bluemchen8InitMidiEv,"ax",%progbits
 2006              		.align	1
 2007              		.global	_ZN4kxmx9Bluemchen8InitMidiEv
 2008              		.syntax unified
 2009              		.thumb
 2010              		.thumb_func
 2011              		.fpu fpv5-d16
 2013              	_ZN4kxmx9Bluemchen8InitMidiEv:
 2014              	.LFB2619:
 139:../kxmx_bluemchen/src/kxmx_bluemchen.cpp **** 
 140:../kxmx_bluemchen/src/kxmx_bluemchen.cpp **** void Bluemchen::InitMidi()
 141:../kxmx_bluemchen/src/kxmx_bluemchen.cpp **** {
 2015              		.loc 8 141 1
 2016              		.cfi_startproc
 2017              		@ args = 0, pretend = 0, frame = 24
 2018              		@ frame_needed = 1, uses_anonymous_args = 0
ARM GAS  /tmp/ccqtC9dg.s 			page 48


 2019 0000 80B5     		push	{r7, lr}
 2020              		.cfi_def_cfa_offset 8
 2021              		.cfi_offset 7, -8
 2022              		.cfi_offset 14, -4
 2023 0002 88B0     		sub	sp, sp, #32
 2024              		.cfi_def_cfa_offset 40
 2025 0004 02AF     		add	r7, sp, #8
 2026              		.cfi_def_cfa 7, 32
 2027 0006 7860     		str	r0, [r7, #4]
 142:../kxmx_bluemchen/src/kxmx_bluemchen.cpp ****     daisy::MidiUartHandler::Config midi_config;
 2028              		.loc 8 142 36
 2029 0008 07F10803 		add	r3, r7, #8
 2030 000c 1846     		mov	r0, r3
 2031 000e FFF7FEFF 		bl	_ZN5daisy11MidiHandlerINS_17MidiUartTransportEE6ConfigC1Ev
 143:../kxmx_bluemchen/src/kxmx_bluemchen.cpp ****     midi.Init(midi_config);
 2032              		.loc 8 143 14
 2033 0012 7B68     		ldr	r3, [r7, #4]
 2034 0014 03F1E800 		add	r0, r3, #232
 2035 0018 7B69     		ldr	r3, [r7, #20]
 2036 001a 0093     		str	r3, [sp]
 2037 001c 07F10803 		add	r3, r7, #8
 2038 0020 0ECB     		ldm	r3, {r1, r2, r3}
 2039 0022 FFF7FEFF 		bl	_ZN5daisy11MidiHandlerINS_17MidiUartTransportEE4InitENS2_6ConfigE
 144:../kxmx_bluemchen/src/kxmx_bluemchen.cpp **** }
 2040              		.loc 8 144 1
 2041 0026 00BF     		nop
 2042 0028 1837     		adds	r7, r7, #24
 2043              		.cfi_def_cfa_offset 8
 2044 002a BD46     		mov	sp, r7
 2045              		.cfi_def_cfa_register 13
 2046              		@ sp needed
 2047 002c 80BD     		pop	{r7, pc}
 2048              		.cfi_endproc
 2049              	.LFE2619:
 2051              		.section	.text._ZN4kxmx9Bluemchen11InitEncoderEv,"ax",%progbits
 2052              		.align	1
 2053              		.global	_ZN4kxmx9Bluemchen11InitEncoderEv
 2054              		.syntax unified
 2055              		.thumb
 2056              		.thumb_func
 2057              		.fpu fpv5-d16
 2059              	_ZN4kxmx9Bluemchen11InitEncoderEv:
 2060              	.LFB2623:
 145:../kxmx_bluemchen/src/kxmx_bluemchen.cpp **** 
 146:../kxmx_bluemchen/src/kxmx_bluemchen.cpp **** void Bluemchen::InitEncoder()
 147:../kxmx_bluemchen/src/kxmx_bluemchen.cpp **** {
 2061              		.loc 8 147 1
 2062              		.cfi_startproc
 2063              		@ args = 0, pretend = 0, frame = 24
 2064              		@ frame_needed = 1, uses_anonymous_args = 0
 2065 0000 90B5     		push	{r4, r7, lr}
 2066              		.cfi_def_cfa_offset 12
 2067              		.cfi_offset 4, -12
 2068              		.cfi_offset 7, -8
 2069              		.cfi_offset 14, -4
 2070 0002 87B0     		sub	sp, sp, #28
 2071              		.cfi_def_cfa_offset 40
ARM GAS  /tmp/ccqtC9dg.s 			page 49


 2072 0004 00AF     		add	r7, sp, #0
 2073              		.cfi_def_cfa_register 7
 2074 0006 7860     		str	r0, [r7, #4]
 148:../kxmx_bluemchen/src/kxmx_bluemchen.cpp ****     encoder.Init(seed.GetPin(PIN_ENC_A),
 2075              		.loc 8 148 17
 2076 0008 7B68     		ldr	r3, [r7, #4]
 2077 000a 03F14004 		add	r4, r3, #64
 2078 000e 1B20     		movs	r0, #27
 2079 0010 FFF7FEFF 		bl	_ZN5daisy9DaisySeed6GetPinEh
 2080 0014 0346     		mov	r3, r0	@ movhi
 2081 0016 BB81     		strh	r3, [r7, #12]	@ movhi
 2082 0018 1A20     		movs	r0, #26
 2083 001a FFF7FEFF 		bl	_ZN5daisy9DaisySeed6GetPinEh
 2084 001e 0346     		mov	r3, r0	@ movhi
 2085 0020 3B82     		strh	r3, [r7, #16]	@ movhi
 2086 0022 1C20     		movs	r0, #28
 2087 0024 FFF7FEFF 		bl	_ZN5daisy9DaisySeed6GetPinEh
 2088 0028 0346     		mov	r3, r0	@ movhi
 2089 002a BB82     		strh	r3, [r7, #20]	@ movhi
 2090 002c 7868     		ldr	r0, [r7, #4]
 2091 002e FFF7FEFF 		bl	_ZN4kxmx9Bluemchen17AudioCallbackRateEv
 2092 0032 F0EE407A 		vmov.f32	s15, s0
 2093 0036 B0EE670A 		vmov.f32	s0, s15
 2094 003a 7B69     		ldr	r3, [r7, #20]
 2095 003c 3A69     		ldr	r2, [r7, #16]
 2096 003e F968     		ldr	r1, [r7, #12]
 2097 0040 2046     		mov	r0, r4
 2098 0042 FFF7FEFF 		bl	_ZN5daisy7Encoder4InitE12dsy_gpio_pinS1_S1_f
 149:../kxmx_bluemchen/src/kxmx_bluemchen.cpp ****                  seed.GetPin(PIN_ENC_B),
 150:../kxmx_bluemchen/src/kxmx_bluemchen.cpp ****                  seed.GetPin(PIN_ENC_CLICK),
 151:../kxmx_bluemchen/src/kxmx_bluemchen.cpp ****                  AudioCallbackRate());
 152:../kxmx_bluemchen/src/kxmx_bluemchen.cpp **** }
 2099              		.loc 8 152 1
 2100 0046 00BF     		nop
 2101 0048 1C37     		adds	r7, r7, #28
 2102              		.cfi_def_cfa_offset 12
 2103 004a BD46     		mov	sp, r7
 2104              		.cfi_def_cfa_register 13
 2105              		@ sp needed
 2106 004c 90BD     		pop	{r4, r7, pc}
 2107              		.cfi_endproc
 2108              	.LFE2623:
 2110              		.section	.text._ZN4kxmx9Bluemchen11InitMicroSDEv,"ax",%progbits
 2111              		.align	1
 2112              		.global	_ZN4kxmx9Bluemchen11InitMicroSDEv
 2113              		.syntax unified
 2114              		.thumb
 2115              		.thumb_func
 2116              		.fpu fpv5-d16
 2118              	_ZN4kxmx9Bluemchen11InitMicroSDEv:
 2119              	.LFB2624:
 153:../kxmx_bluemchen/src/kxmx_bluemchen.cpp **** 
 154:../kxmx_bluemchen/src/kxmx_bluemchen.cpp **** void Bluemchen::InitMicroSD()
 155:../kxmx_bluemchen/src/kxmx_bluemchen.cpp **** {
 2120              		.loc 8 155 1
 2121              		.cfi_startproc
 2122              		@ args = 0, pretend = 0, frame = 8
ARM GAS  /tmp/ccqtC9dg.s 			page 50


 2123              		@ frame_needed = 1, uses_anonymous_args = 0
 2124 0000 80B5     		push	{r7, lr}
 2125              		.cfi_def_cfa_offset 8
 2126              		.cfi_offset 7, -8
 2127              		.cfi_offset 14, -4
 2128 0002 82B0     		sub	sp, sp, #8
 2129              		.cfi_def_cfa_offset 16
 2130 0004 00AF     		add	r7, sp, #0
 2131              		.cfi_def_cfa_register 7
 2132 0006 7860     		str	r0, [r7, #4]
 156:../kxmx_bluemchen/src/kxmx_bluemchen.cpp ****     sdmmc_cfg.Defaults();
 2133              		.loc 8 156 23
 2134 0008 0748     		ldr	r0, .L53
 2135 000a FFF7FEFF 		bl	_ZN5daisy12SdmmcHandler6Config8DefaultsEv
 157:../kxmx_bluemchen/src/kxmx_bluemchen.cpp ****     sd.Init(sdmmc_cfg);
 2136              		.loc 8 157 12
 2137 000e 7A68     		ldr	r2, [r7, #4]
 2138 0010 49F24823 		movw	r3, #37448
 2139 0014 1344     		add	r3, r3, r2
 2140 0016 0449     		ldr	r1, .L53
 2141 0018 1846     		mov	r0, r3
 2142 001a FFF7FEFF 		bl	_ZN5daisy12SdmmcHandler4InitERKNS0_6ConfigE
 158:../kxmx_bluemchen/src/kxmx_bluemchen.cpp **** }
 2143              		.loc 8 158 1
 2144 001e 00BF     		nop
 2145 0020 0837     		adds	r7, r7, #8
 2146              		.cfi_def_cfa_offset 8
 2147 0022 BD46     		mov	sp, r7
 2148              		.cfi_def_cfa_register 13
 2149              		@ sp needed
 2150 0024 80BD     		pop	{r7, pc}
 2151              	.L54:
 2152 0026 00BF     		.align	2
 2153              	.L53:
 2154 0028 00000000 		.word	sdmmc_cfg
 2155              		.cfi_endproc
 2156              	.LFE2624:
 2158              		.section	.text._ZSt4fillIPhiEvT_S1_RKT0_,"axG",%progbits,_ZSt4fillIPhiEvT_S1_RKT0_,comdat
 2159              		.align	1
 2160              		.weak	_ZSt4fillIPhiEvT_S1_RKT0_
 2161              		.syntax unified
 2162              		.thumb
 2163              		.thumb_func
 2164              		.fpu fpv5-d16
 2166              	_ZSt4fillIPhiEvT_S1_RKT0_:
 2167              	.LFB2625:
 2168              		.file 10 "/home/hubert/daisy/gcc/arm-none-eabi/include/c++/10.2.1/bits/stl_algobase.h"
   1:/home/hubert/daisy/gcc/arm-none-eabi/include/c++/10.2.1/bits/stl_algobase.h **** // Core algorithmic facilities -*- C++ -*-
   2:/home/hubert/daisy/gcc/arm-none-eabi/include/c++/10.2.1/bits/stl_algobase.h **** 
   3:/home/hubert/daisy/gcc/arm-none-eabi/include/c++/10.2.1/bits/stl_algobase.h **** // Copyright (C) 2001-2020 Free Software Foundation, Inc.
   4:/home/hubert/daisy/gcc/arm-none-eabi/include/c++/10.2.1/bits/stl_algobase.h **** //
   5:/home/hubert/daisy/gcc/arm-none-eabi/include/c++/10.2.1/bits/stl_algobase.h **** // This file is part of the GNU ISO C++ Library.  This library is free
   6:/home/hubert/daisy/gcc/arm-none-eabi/include/c++/10.2.1/bits/stl_algobase.h **** // software; you can redistribute it and/or modify it under the
   7:/home/hubert/daisy/gcc/arm-none-eabi/include/c++/10.2.1/bits/stl_algobase.h **** // terms of the GNU General Public License as published by the
   8:/home/hubert/daisy/gcc/arm-none-eabi/include/c++/10.2.1/bits/stl_algobase.h **** // Free Software Foundation; either version 3, or (at your option)
   9:/home/hubert/daisy/gcc/arm-none-eabi/include/c++/10.2.1/bits/stl_algobase.h **** // any later version.
  10:/home/hubert/daisy/gcc/arm-none-eabi/include/c++/10.2.1/bits/stl_algobase.h **** 
ARM GAS  /tmp/ccqtC9dg.s 			page 51


  11:/home/hubert/daisy/gcc/arm-none-eabi/include/c++/10.2.1/bits/stl_algobase.h **** // This library is distributed in the hope that it will be useful,
  12:/home/hubert/daisy/gcc/arm-none-eabi/include/c++/10.2.1/bits/stl_algobase.h **** // but WITHOUT ANY WARRANTY; without even the implied warranty of
  13:/home/hubert/daisy/gcc/arm-none-eabi/include/c++/10.2.1/bits/stl_algobase.h **** // MERCHANTABILITY or FITNESS FOR A PARTICULAR PURPOSE.  See the
  14:/home/hubert/daisy/gcc/arm-none-eabi/include/c++/10.2.1/bits/stl_algobase.h **** // GNU General Public License for more details.
  15:/home/hubert/daisy/gcc/arm-none-eabi/include/c++/10.2.1/bits/stl_algobase.h **** 
  16:/home/hubert/daisy/gcc/arm-none-eabi/include/c++/10.2.1/bits/stl_algobase.h **** // Under Section 7 of GPL version 3, you are granted additional
  17:/home/hubert/daisy/gcc/arm-none-eabi/include/c++/10.2.1/bits/stl_algobase.h **** // permissions described in the GCC Runtime Library Exception, version
  18:/home/hubert/daisy/gcc/arm-none-eabi/include/c++/10.2.1/bits/stl_algobase.h **** // 3.1, as published by the Free Software Foundation.
  19:/home/hubert/daisy/gcc/arm-none-eabi/include/c++/10.2.1/bits/stl_algobase.h **** 
  20:/home/hubert/daisy/gcc/arm-none-eabi/include/c++/10.2.1/bits/stl_algobase.h **** // You should have received a copy of the GNU General Public License and
  21:/home/hubert/daisy/gcc/arm-none-eabi/include/c++/10.2.1/bits/stl_algobase.h **** // a copy of the GCC Runtime Library Exception along with this program;
  22:/home/hubert/daisy/gcc/arm-none-eabi/include/c++/10.2.1/bits/stl_algobase.h **** // see the files COPYING3 and COPYING.RUNTIME respectively.  If not, see
  23:/home/hubert/daisy/gcc/arm-none-eabi/include/c++/10.2.1/bits/stl_algobase.h **** // <http://www.gnu.org/licenses/>.
  24:/home/hubert/daisy/gcc/arm-none-eabi/include/c++/10.2.1/bits/stl_algobase.h **** 
  25:/home/hubert/daisy/gcc/arm-none-eabi/include/c++/10.2.1/bits/stl_algobase.h **** /*
  26:/home/hubert/daisy/gcc/arm-none-eabi/include/c++/10.2.1/bits/stl_algobase.h ****  *
  27:/home/hubert/daisy/gcc/arm-none-eabi/include/c++/10.2.1/bits/stl_algobase.h ****  * Copyright (c) 1994
  28:/home/hubert/daisy/gcc/arm-none-eabi/include/c++/10.2.1/bits/stl_algobase.h ****  * Hewlett-Packard Company
  29:/home/hubert/daisy/gcc/arm-none-eabi/include/c++/10.2.1/bits/stl_algobase.h ****  *
  30:/home/hubert/daisy/gcc/arm-none-eabi/include/c++/10.2.1/bits/stl_algobase.h ****  * Permission to use, copy, modify, distribute and sell this software
  31:/home/hubert/daisy/gcc/arm-none-eabi/include/c++/10.2.1/bits/stl_algobase.h ****  * and its documentation for any purpose is hereby granted without fee,
  32:/home/hubert/daisy/gcc/arm-none-eabi/include/c++/10.2.1/bits/stl_algobase.h ****  * provided that the above copyright notice appear in all copies and
  33:/home/hubert/daisy/gcc/arm-none-eabi/include/c++/10.2.1/bits/stl_algobase.h ****  * that both that copyright notice and this permission notice appear
  34:/home/hubert/daisy/gcc/arm-none-eabi/include/c++/10.2.1/bits/stl_algobase.h ****  * in supporting documentation.  Hewlett-Packard Company makes no
  35:/home/hubert/daisy/gcc/arm-none-eabi/include/c++/10.2.1/bits/stl_algobase.h ****  * representations about the suitability of this software for any
  36:/home/hubert/daisy/gcc/arm-none-eabi/include/c++/10.2.1/bits/stl_algobase.h ****  * purpose.  It is provided "as is" without express or implied warranty.
  37:/home/hubert/daisy/gcc/arm-none-eabi/include/c++/10.2.1/bits/stl_algobase.h ****  *
  38:/home/hubert/daisy/gcc/arm-none-eabi/include/c++/10.2.1/bits/stl_algobase.h ****  *
  39:/home/hubert/daisy/gcc/arm-none-eabi/include/c++/10.2.1/bits/stl_algobase.h ****  * Copyright (c) 1996-1998
  40:/home/hubert/daisy/gcc/arm-none-eabi/include/c++/10.2.1/bits/stl_algobase.h ****  * Silicon Graphics Computer Systems, Inc.
  41:/home/hubert/daisy/gcc/arm-none-eabi/include/c++/10.2.1/bits/stl_algobase.h ****  *
  42:/home/hubert/daisy/gcc/arm-none-eabi/include/c++/10.2.1/bits/stl_algobase.h ****  * Permission to use, copy, modify, distribute and sell this software
  43:/home/hubert/daisy/gcc/arm-none-eabi/include/c++/10.2.1/bits/stl_algobase.h ****  * and its documentation for any purpose is hereby granted without fee,
  44:/home/hubert/daisy/gcc/arm-none-eabi/include/c++/10.2.1/bits/stl_algobase.h ****  * provided that the above copyright notice appear in all copies and
  45:/home/hubert/daisy/gcc/arm-none-eabi/include/c++/10.2.1/bits/stl_algobase.h ****  * that both that copyright notice and this permission notice appear
  46:/home/hubert/daisy/gcc/arm-none-eabi/include/c++/10.2.1/bits/stl_algobase.h ****  * in supporting documentation.  Silicon Graphics makes no
  47:/home/hubert/daisy/gcc/arm-none-eabi/include/c++/10.2.1/bits/stl_algobase.h ****  * representations about the suitability of this software for any
  48:/home/hubert/daisy/gcc/arm-none-eabi/include/c++/10.2.1/bits/stl_algobase.h ****  * purpose.  It is provided "as is" without express or implied warranty.
  49:/home/hubert/daisy/gcc/arm-none-eabi/include/c++/10.2.1/bits/stl_algobase.h ****  */
  50:/home/hubert/daisy/gcc/arm-none-eabi/include/c++/10.2.1/bits/stl_algobase.h **** 
  51:/home/hubert/daisy/gcc/arm-none-eabi/include/c++/10.2.1/bits/stl_algobase.h **** /** @file bits/stl_algobase.h
  52:/home/hubert/daisy/gcc/arm-none-eabi/include/c++/10.2.1/bits/stl_algobase.h ****  *  This is an internal header file, included by other library headers.
  53:/home/hubert/daisy/gcc/arm-none-eabi/include/c++/10.2.1/bits/stl_algobase.h ****  *  Do not attempt to use it directly. @headername{algorithm}
  54:/home/hubert/daisy/gcc/arm-none-eabi/include/c++/10.2.1/bits/stl_algobase.h ****  */
  55:/home/hubert/daisy/gcc/arm-none-eabi/include/c++/10.2.1/bits/stl_algobase.h **** 
  56:/home/hubert/daisy/gcc/arm-none-eabi/include/c++/10.2.1/bits/stl_algobase.h **** #ifndef _STL_ALGOBASE_H
  57:/home/hubert/daisy/gcc/arm-none-eabi/include/c++/10.2.1/bits/stl_algobase.h **** #define _STL_ALGOBASE_H 1
  58:/home/hubert/daisy/gcc/arm-none-eabi/include/c++/10.2.1/bits/stl_algobase.h **** 
  59:/home/hubert/daisy/gcc/arm-none-eabi/include/c++/10.2.1/bits/stl_algobase.h **** #include <bits/c++config.h>
  60:/home/hubert/daisy/gcc/arm-none-eabi/include/c++/10.2.1/bits/stl_algobase.h **** #include <bits/functexcept.h>
  61:/home/hubert/daisy/gcc/arm-none-eabi/include/c++/10.2.1/bits/stl_algobase.h **** #include <bits/cpp_type_traits.h>
  62:/home/hubert/daisy/gcc/arm-none-eabi/include/c++/10.2.1/bits/stl_algobase.h **** #include <ext/type_traits.h>
  63:/home/hubert/daisy/gcc/arm-none-eabi/include/c++/10.2.1/bits/stl_algobase.h **** #include <ext/numeric_traits.h>
  64:/home/hubert/daisy/gcc/arm-none-eabi/include/c++/10.2.1/bits/stl_algobase.h **** #include <bits/stl_pair.h>
  65:/home/hubert/daisy/gcc/arm-none-eabi/include/c++/10.2.1/bits/stl_algobase.h **** #include <bits/stl_iterator_base_types.h>
  66:/home/hubert/daisy/gcc/arm-none-eabi/include/c++/10.2.1/bits/stl_algobase.h **** #include <bits/stl_iterator_base_funcs.h>
  67:/home/hubert/daisy/gcc/arm-none-eabi/include/c++/10.2.1/bits/stl_algobase.h **** #include <bits/stl_iterator.h>
ARM GAS  /tmp/ccqtC9dg.s 			page 52


  68:/home/hubert/daisy/gcc/arm-none-eabi/include/c++/10.2.1/bits/stl_algobase.h **** #include <bits/concept_check.h>
  69:/home/hubert/daisy/gcc/arm-none-eabi/include/c++/10.2.1/bits/stl_algobase.h **** #include <debug/debug.h>
  70:/home/hubert/daisy/gcc/arm-none-eabi/include/c++/10.2.1/bits/stl_algobase.h **** #include <bits/move.h> // For std::swap
  71:/home/hubert/daisy/gcc/arm-none-eabi/include/c++/10.2.1/bits/stl_algobase.h **** #include <bits/predefined_ops.h>
  72:/home/hubert/daisy/gcc/arm-none-eabi/include/c++/10.2.1/bits/stl_algobase.h **** #if __cplusplus >= 201103L
  73:/home/hubert/daisy/gcc/arm-none-eabi/include/c++/10.2.1/bits/stl_algobase.h **** # include <type_traits>
  74:/home/hubert/daisy/gcc/arm-none-eabi/include/c++/10.2.1/bits/stl_algobase.h **** #endif
  75:/home/hubert/daisy/gcc/arm-none-eabi/include/c++/10.2.1/bits/stl_algobase.h **** #if __cplusplus > 201703L
  76:/home/hubert/daisy/gcc/arm-none-eabi/include/c++/10.2.1/bits/stl_algobase.h **** # include <compare>
  77:/home/hubert/daisy/gcc/arm-none-eabi/include/c++/10.2.1/bits/stl_algobase.h **** #endif
  78:/home/hubert/daisy/gcc/arm-none-eabi/include/c++/10.2.1/bits/stl_algobase.h **** 
  79:/home/hubert/daisy/gcc/arm-none-eabi/include/c++/10.2.1/bits/stl_algobase.h **** namespace std _GLIBCXX_VISIBILITY(default)
  80:/home/hubert/daisy/gcc/arm-none-eabi/include/c++/10.2.1/bits/stl_algobase.h **** {
  81:/home/hubert/daisy/gcc/arm-none-eabi/include/c++/10.2.1/bits/stl_algobase.h **** _GLIBCXX_BEGIN_NAMESPACE_VERSION
  82:/home/hubert/daisy/gcc/arm-none-eabi/include/c++/10.2.1/bits/stl_algobase.h **** 
  83:/home/hubert/daisy/gcc/arm-none-eabi/include/c++/10.2.1/bits/stl_algobase.h ****   /*
  84:/home/hubert/daisy/gcc/arm-none-eabi/include/c++/10.2.1/bits/stl_algobase.h ****    * A constexpr wrapper for __builtin_memcmp.
  85:/home/hubert/daisy/gcc/arm-none-eabi/include/c++/10.2.1/bits/stl_algobase.h ****    * @param __num The number of elements of type _Tp (not bytes).
  86:/home/hubert/daisy/gcc/arm-none-eabi/include/c++/10.2.1/bits/stl_algobase.h ****    */
  87:/home/hubert/daisy/gcc/arm-none-eabi/include/c++/10.2.1/bits/stl_algobase.h ****   template<typename _Tp, typename _Up>
  88:/home/hubert/daisy/gcc/arm-none-eabi/include/c++/10.2.1/bits/stl_algobase.h ****     _GLIBCXX14_CONSTEXPR
  89:/home/hubert/daisy/gcc/arm-none-eabi/include/c++/10.2.1/bits/stl_algobase.h ****     inline int
  90:/home/hubert/daisy/gcc/arm-none-eabi/include/c++/10.2.1/bits/stl_algobase.h ****     __memcmp(const _Tp* __first1, const _Up* __first2, size_t __num)
  91:/home/hubert/daisy/gcc/arm-none-eabi/include/c++/10.2.1/bits/stl_algobase.h ****     {
  92:/home/hubert/daisy/gcc/arm-none-eabi/include/c++/10.2.1/bits/stl_algobase.h **** #if __cplusplus >= 201103L
  93:/home/hubert/daisy/gcc/arm-none-eabi/include/c++/10.2.1/bits/stl_algobase.h ****       static_assert(sizeof(_Tp) == sizeof(_Up), "can be compared with memcmp");
  94:/home/hubert/daisy/gcc/arm-none-eabi/include/c++/10.2.1/bits/stl_algobase.h **** #endif
  95:/home/hubert/daisy/gcc/arm-none-eabi/include/c++/10.2.1/bits/stl_algobase.h **** #ifdef __cpp_lib_is_constant_evaluated
  96:/home/hubert/daisy/gcc/arm-none-eabi/include/c++/10.2.1/bits/stl_algobase.h ****       if (std::is_constant_evaluated())
  97:/home/hubert/daisy/gcc/arm-none-eabi/include/c++/10.2.1/bits/stl_algobase.h **** 	{
  98:/home/hubert/daisy/gcc/arm-none-eabi/include/c++/10.2.1/bits/stl_algobase.h **** 	  for(; __num > 0; ++__first1, ++__first2, --__num)
  99:/home/hubert/daisy/gcc/arm-none-eabi/include/c++/10.2.1/bits/stl_algobase.h **** 	    if (*__first1 != *__first2)
 100:/home/hubert/daisy/gcc/arm-none-eabi/include/c++/10.2.1/bits/stl_algobase.h **** 	      return *__first1 < *__first2 ? -1 : 1;
 101:/home/hubert/daisy/gcc/arm-none-eabi/include/c++/10.2.1/bits/stl_algobase.h **** 	  return 0;
 102:/home/hubert/daisy/gcc/arm-none-eabi/include/c++/10.2.1/bits/stl_algobase.h **** 	}
 103:/home/hubert/daisy/gcc/arm-none-eabi/include/c++/10.2.1/bits/stl_algobase.h ****       else
 104:/home/hubert/daisy/gcc/arm-none-eabi/include/c++/10.2.1/bits/stl_algobase.h **** #endif
 105:/home/hubert/daisy/gcc/arm-none-eabi/include/c++/10.2.1/bits/stl_algobase.h **** 	return __builtin_memcmp(__first1, __first2, sizeof(_Tp) * __num);
 106:/home/hubert/daisy/gcc/arm-none-eabi/include/c++/10.2.1/bits/stl_algobase.h ****     }
 107:/home/hubert/daisy/gcc/arm-none-eabi/include/c++/10.2.1/bits/stl_algobase.h **** 
 108:/home/hubert/daisy/gcc/arm-none-eabi/include/c++/10.2.1/bits/stl_algobase.h **** #if __cplusplus < 201103L
 109:/home/hubert/daisy/gcc/arm-none-eabi/include/c++/10.2.1/bits/stl_algobase.h ****   // See http://gcc.gnu.org/ml/libstdc++/2004-08/msg00167.html: in a
 110:/home/hubert/daisy/gcc/arm-none-eabi/include/c++/10.2.1/bits/stl_algobase.h ****   // nutshell, we are partially implementing the resolution of DR 187,
 111:/home/hubert/daisy/gcc/arm-none-eabi/include/c++/10.2.1/bits/stl_algobase.h ****   // when it's safe, i.e., the value_types are equal.
 112:/home/hubert/daisy/gcc/arm-none-eabi/include/c++/10.2.1/bits/stl_algobase.h ****   template<bool _BoolType>
 113:/home/hubert/daisy/gcc/arm-none-eabi/include/c++/10.2.1/bits/stl_algobase.h ****     struct __iter_swap
 114:/home/hubert/daisy/gcc/arm-none-eabi/include/c++/10.2.1/bits/stl_algobase.h ****     {
 115:/home/hubert/daisy/gcc/arm-none-eabi/include/c++/10.2.1/bits/stl_algobase.h ****       template<typename _ForwardIterator1, typename _ForwardIterator2>
 116:/home/hubert/daisy/gcc/arm-none-eabi/include/c++/10.2.1/bits/stl_algobase.h **** 	static void
 117:/home/hubert/daisy/gcc/arm-none-eabi/include/c++/10.2.1/bits/stl_algobase.h **** 	iter_swap(_ForwardIterator1 __a, _ForwardIterator2 __b)
 118:/home/hubert/daisy/gcc/arm-none-eabi/include/c++/10.2.1/bits/stl_algobase.h **** 	{
 119:/home/hubert/daisy/gcc/arm-none-eabi/include/c++/10.2.1/bits/stl_algobase.h **** 	  typedef typename iterator_traits<_ForwardIterator1>::value_type
 120:/home/hubert/daisy/gcc/arm-none-eabi/include/c++/10.2.1/bits/stl_algobase.h **** 	    _ValueType1;
 121:/home/hubert/daisy/gcc/arm-none-eabi/include/c++/10.2.1/bits/stl_algobase.h **** 	  _ValueType1 __tmp = *__a;
 122:/home/hubert/daisy/gcc/arm-none-eabi/include/c++/10.2.1/bits/stl_algobase.h **** 	  *__a = *__b;
 123:/home/hubert/daisy/gcc/arm-none-eabi/include/c++/10.2.1/bits/stl_algobase.h **** 	  *__b = __tmp;
 124:/home/hubert/daisy/gcc/arm-none-eabi/include/c++/10.2.1/bits/stl_algobase.h **** 	}
ARM GAS  /tmp/ccqtC9dg.s 			page 53


 125:/home/hubert/daisy/gcc/arm-none-eabi/include/c++/10.2.1/bits/stl_algobase.h ****     };
 126:/home/hubert/daisy/gcc/arm-none-eabi/include/c++/10.2.1/bits/stl_algobase.h **** 
 127:/home/hubert/daisy/gcc/arm-none-eabi/include/c++/10.2.1/bits/stl_algobase.h ****   template<>
 128:/home/hubert/daisy/gcc/arm-none-eabi/include/c++/10.2.1/bits/stl_algobase.h ****     struct __iter_swap<true>
 129:/home/hubert/daisy/gcc/arm-none-eabi/include/c++/10.2.1/bits/stl_algobase.h ****     {
 130:/home/hubert/daisy/gcc/arm-none-eabi/include/c++/10.2.1/bits/stl_algobase.h ****       template<typename _ForwardIterator1, typename _ForwardIterator2>
 131:/home/hubert/daisy/gcc/arm-none-eabi/include/c++/10.2.1/bits/stl_algobase.h **** 	static void
 132:/home/hubert/daisy/gcc/arm-none-eabi/include/c++/10.2.1/bits/stl_algobase.h **** 	iter_swap(_ForwardIterator1 __a, _ForwardIterator2 __b)
 133:/home/hubert/daisy/gcc/arm-none-eabi/include/c++/10.2.1/bits/stl_algobase.h **** 	{
 134:/home/hubert/daisy/gcc/arm-none-eabi/include/c++/10.2.1/bits/stl_algobase.h **** 	  swap(*__a, *__b);
 135:/home/hubert/daisy/gcc/arm-none-eabi/include/c++/10.2.1/bits/stl_algobase.h **** 	}
 136:/home/hubert/daisy/gcc/arm-none-eabi/include/c++/10.2.1/bits/stl_algobase.h ****     };
 137:/home/hubert/daisy/gcc/arm-none-eabi/include/c++/10.2.1/bits/stl_algobase.h **** #endif // C++03
 138:/home/hubert/daisy/gcc/arm-none-eabi/include/c++/10.2.1/bits/stl_algobase.h **** 
 139:/home/hubert/daisy/gcc/arm-none-eabi/include/c++/10.2.1/bits/stl_algobase.h ****   /**
 140:/home/hubert/daisy/gcc/arm-none-eabi/include/c++/10.2.1/bits/stl_algobase.h ****    *  @brief Swaps the contents of two iterators.
 141:/home/hubert/daisy/gcc/arm-none-eabi/include/c++/10.2.1/bits/stl_algobase.h ****    *  @ingroup mutating_algorithms
 142:/home/hubert/daisy/gcc/arm-none-eabi/include/c++/10.2.1/bits/stl_algobase.h ****    *  @param  __a  An iterator.
 143:/home/hubert/daisy/gcc/arm-none-eabi/include/c++/10.2.1/bits/stl_algobase.h ****    *  @param  __b  Another iterator.
 144:/home/hubert/daisy/gcc/arm-none-eabi/include/c++/10.2.1/bits/stl_algobase.h ****    *  @return   Nothing.
 145:/home/hubert/daisy/gcc/arm-none-eabi/include/c++/10.2.1/bits/stl_algobase.h ****    *
 146:/home/hubert/daisy/gcc/arm-none-eabi/include/c++/10.2.1/bits/stl_algobase.h ****    *  This function swaps the values pointed to by two iterators, not the
 147:/home/hubert/daisy/gcc/arm-none-eabi/include/c++/10.2.1/bits/stl_algobase.h ****    *  iterators themselves.
 148:/home/hubert/daisy/gcc/arm-none-eabi/include/c++/10.2.1/bits/stl_algobase.h ****   */
 149:/home/hubert/daisy/gcc/arm-none-eabi/include/c++/10.2.1/bits/stl_algobase.h ****   template<typename _ForwardIterator1, typename _ForwardIterator2>
 150:/home/hubert/daisy/gcc/arm-none-eabi/include/c++/10.2.1/bits/stl_algobase.h ****     _GLIBCXX20_CONSTEXPR
 151:/home/hubert/daisy/gcc/arm-none-eabi/include/c++/10.2.1/bits/stl_algobase.h ****     inline void
 152:/home/hubert/daisy/gcc/arm-none-eabi/include/c++/10.2.1/bits/stl_algobase.h ****     iter_swap(_ForwardIterator1 __a, _ForwardIterator2 __b)
 153:/home/hubert/daisy/gcc/arm-none-eabi/include/c++/10.2.1/bits/stl_algobase.h ****     {
 154:/home/hubert/daisy/gcc/arm-none-eabi/include/c++/10.2.1/bits/stl_algobase.h ****       // concept requirements
 155:/home/hubert/daisy/gcc/arm-none-eabi/include/c++/10.2.1/bits/stl_algobase.h ****       __glibcxx_function_requires(_Mutable_ForwardIteratorConcept<
 156:/home/hubert/daisy/gcc/arm-none-eabi/include/c++/10.2.1/bits/stl_algobase.h **** 				  _ForwardIterator1>)
 157:/home/hubert/daisy/gcc/arm-none-eabi/include/c++/10.2.1/bits/stl_algobase.h ****       __glibcxx_function_requires(_Mutable_ForwardIteratorConcept<
 158:/home/hubert/daisy/gcc/arm-none-eabi/include/c++/10.2.1/bits/stl_algobase.h **** 				  _ForwardIterator2>)
 159:/home/hubert/daisy/gcc/arm-none-eabi/include/c++/10.2.1/bits/stl_algobase.h **** 
 160:/home/hubert/daisy/gcc/arm-none-eabi/include/c++/10.2.1/bits/stl_algobase.h **** #if __cplusplus < 201103L
 161:/home/hubert/daisy/gcc/arm-none-eabi/include/c++/10.2.1/bits/stl_algobase.h ****       typedef typename iterator_traits<_ForwardIterator1>::value_type
 162:/home/hubert/daisy/gcc/arm-none-eabi/include/c++/10.2.1/bits/stl_algobase.h **** 	_ValueType1;
 163:/home/hubert/daisy/gcc/arm-none-eabi/include/c++/10.2.1/bits/stl_algobase.h ****       typedef typename iterator_traits<_ForwardIterator2>::value_type
 164:/home/hubert/daisy/gcc/arm-none-eabi/include/c++/10.2.1/bits/stl_algobase.h **** 	_ValueType2;
 165:/home/hubert/daisy/gcc/arm-none-eabi/include/c++/10.2.1/bits/stl_algobase.h **** 
 166:/home/hubert/daisy/gcc/arm-none-eabi/include/c++/10.2.1/bits/stl_algobase.h ****       __glibcxx_function_requires(_ConvertibleConcept<_ValueType1,
 167:/home/hubert/daisy/gcc/arm-none-eabi/include/c++/10.2.1/bits/stl_algobase.h **** 				  _ValueType2>)
 168:/home/hubert/daisy/gcc/arm-none-eabi/include/c++/10.2.1/bits/stl_algobase.h ****       __glibcxx_function_requires(_ConvertibleConcept<_ValueType2,
 169:/home/hubert/daisy/gcc/arm-none-eabi/include/c++/10.2.1/bits/stl_algobase.h **** 				  _ValueType1>)
 170:/home/hubert/daisy/gcc/arm-none-eabi/include/c++/10.2.1/bits/stl_algobase.h **** 
 171:/home/hubert/daisy/gcc/arm-none-eabi/include/c++/10.2.1/bits/stl_algobase.h ****       typedef typename iterator_traits<_ForwardIterator1>::reference
 172:/home/hubert/daisy/gcc/arm-none-eabi/include/c++/10.2.1/bits/stl_algobase.h **** 	_ReferenceType1;
 173:/home/hubert/daisy/gcc/arm-none-eabi/include/c++/10.2.1/bits/stl_algobase.h ****       typedef typename iterator_traits<_ForwardIterator2>::reference
 174:/home/hubert/daisy/gcc/arm-none-eabi/include/c++/10.2.1/bits/stl_algobase.h **** 	_ReferenceType2;
 175:/home/hubert/daisy/gcc/arm-none-eabi/include/c++/10.2.1/bits/stl_algobase.h ****       std::__iter_swap<__are_same<_ValueType1, _ValueType2>::__value
 176:/home/hubert/daisy/gcc/arm-none-eabi/include/c++/10.2.1/bits/stl_algobase.h **** 	&& __are_same<_ValueType1&, _ReferenceType1>::__value
 177:/home/hubert/daisy/gcc/arm-none-eabi/include/c++/10.2.1/bits/stl_algobase.h **** 	&& __are_same<_ValueType2&, _ReferenceType2>::__value>::
 178:/home/hubert/daisy/gcc/arm-none-eabi/include/c++/10.2.1/bits/stl_algobase.h **** 	iter_swap(__a, __b);
 179:/home/hubert/daisy/gcc/arm-none-eabi/include/c++/10.2.1/bits/stl_algobase.h **** #else
 180:/home/hubert/daisy/gcc/arm-none-eabi/include/c++/10.2.1/bits/stl_algobase.h ****       // _GLIBCXX_RESOLVE_LIB_DEFECTS
 181:/home/hubert/daisy/gcc/arm-none-eabi/include/c++/10.2.1/bits/stl_algobase.h ****       // 187. iter_swap underspecified
ARM GAS  /tmp/ccqtC9dg.s 			page 54


 182:/home/hubert/daisy/gcc/arm-none-eabi/include/c++/10.2.1/bits/stl_algobase.h ****       swap(*__a, *__b);
 183:/home/hubert/daisy/gcc/arm-none-eabi/include/c++/10.2.1/bits/stl_algobase.h **** #endif
 184:/home/hubert/daisy/gcc/arm-none-eabi/include/c++/10.2.1/bits/stl_algobase.h ****     }
 185:/home/hubert/daisy/gcc/arm-none-eabi/include/c++/10.2.1/bits/stl_algobase.h **** 
 186:/home/hubert/daisy/gcc/arm-none-eabi/include/c++/10.2.1/bits/stl_algobase.h ****   /**
 187:/home/hubert/daisy/gcc/arm-none-eabi/include/c++/10.2.1/bits/stl_algobase.h ****    *  @brief Swap the elements of two sequences.
 188:/home/hubert/daisy/gcc/arm-none-eabi/include/c++/10.2.1/bits/stl_algobase.h ****    *  @ingroup mutating_algorithms
 189:/home/hubert/daisy/gcc/arm-none-eabi/include/c++/10.2.1/bits/stl_algobase.h ****    *  @param  __first1  A forward iterator.
 190:/home/hubert/daisy/gcc/arm-none-eabi/include/c++/10.2.1/bits/stl_algobase.h ****    *  @param  __last1   A forward iterator.
 191:/home/hubert/daisy/gcc/arm-none-eabi/include/c++/10.2.1/bits/stl_algobase.h ****    *  @param  __first2  A forward iterator.
 192:/home/hubert/daisy/gcc/arm-none-eabi/include/c++/10.2.1/bits/stl_algobase.h ****    *  @return   An iterator equal to @p first2+(last1-first1).
 193:/home/hubert/daisy/gcc/arm-none-eabi/include/c++/10.2.1/bits/stl_algobase.h ****    *
 194:/home/hubert/daisy/gcc/arm-none-eabi/include/c++/10.2.1/bits/stl_algobase.h ****    *  Swaps each element in the range @p [first1,last1) with the
 195:/home/hubert/daisy/gcc/arm-none-eabi/include/c++/10.2.1/bits/stl_algobase.h ****    *  corresponding element in the range @p [first2,(last1-first1)).
 196:/home/hubert/daisy/gcc/arm-none-eabi/include/c++/10.2.1/bits/stl_algobase.h ****    *  The ranges must not overlap.
 197:/home/hubert/daisy/gcc/arm-none-eabi/include/c++/10.2.1/bits/stl_algobase.h ****   */
 198:/home/hubert/daisy/gcc/arm-none-eabi/include/c++/10.2.1/bits/stl_algobase.h ****   template<typename _ForwardIterator1, typename _ForwardIterator2>
 199:/home/hubert/daisy/gcc/arm-none-eabi/include/c++/10.2.1/bits/stl_algobase.h ****     _GLIBCXX20_CONSTEXPR
 200:/home/hubert/daisy/gcc/arm-none-eabi/include/c++/10.2.1/bits/stl_algobase.h ****     _ForwardIterator2
 201:/home/hubert/daisy/gcc/arm-none-eabi/include/c++/10.2.1/bits/stl_algobase.h ****     swap_ranges(_ForwardIterator1 __first1, _ForwardIterator1 __last1,
 202:/home/hubert/daisy/gcc/arm-none-eabi/include/c++/10.2.1/bits/stl_algobase.h **** 		_ForwardIterator2 __first2)
 203:/home/hubert/daisy/gcc/arm-none-eabi/include/c++/10.2.1/bits/stl_algobase.h ****     {
 204:/home/hubert/daisy/gcc/arm-none-eabi/include/c++/10.2.1/bits/stl_algobase.h ****       // concept requirements
 205:/home/hubert/daisy/gcc/arm-none-eabi/include/c++/10.2.1/bits/stl_algobase.h ****       __glibcxx_function_requires(_Mutable_ForwardIteratorConcept<
 206:/home/hubert/daisy/gcc/arm-none-eabi/include/c++/10.2.1/bits/stl_algobase.h **** 				  _ForwardIterator1>)
 207:/home/hubert/daisy/gcc/arm-none-eabi/include/c++/10.2.1/bits/stl_algobase.h ****       __glibcxx_function_requires(_Mutable_ForwardIteratorConcept<
 208:/home/hubert/daisy/gcc/arm-none-eabi/include/c++/10.2.1/bits/stl_algobase.h **** 				  _ForwardIterator2>)
 209:/home/hubert/daisy/gcc/arm-none-eabi/include/c++/10.2.1/bits/stl_algobase.h ****       __glibcxx_requires_valid_range(__first1, __last1);
 210:/home/hubert/daisy/gcc/arm-none-eabi/include/c++/10.2.1/bits/stl_algobase.h **** 
 211:/home/hubert/daisy/gcc/arm-none-eabi/include/c++/10.2.1/bits/stl_algobase.h ****       for (; __first1 != __last1; ++__first1, (void)++__first2)
 212:/home/hubert/daisy/gcc/arm-none-eabi/include/c++/10.2.1/bits/stl_algobase.h **** 	std::iter_swap(__first1, __first2);
 213:/home/hubert/daisy/gcc/arm-none-eabi/include/c++/10.2.1/bits/stl_algobase.h ****       return __first2;
 214:/home/hubert/daisy/gcc/arm-none-eabi/include/c++/10.2.1/bits/stl_algobase.h ****     }
 215:/home/hubert/daisy/gcc/arm-none-eabi/include/c++/10.2.1/bits/stl_algobase.h **** 
 216:/home/hubert/daisy/gcc/arm-none-eabi/include/c++/10.2.1/bits/stl_algobase.h ****   /**
 217:/home/hubert/daisy/gcc/arm-none-eabi/include/c++/10.2.1/bits/stl_algobase.h ****    *  @brief This does what you think it does.
 218:/home/hubert/daisy/gcc/arm-none-eabi/include/c++/10.2.1/bits/stl_algobase.h ****    *  @ingroup sorting_algorithms
 219:/home/hubert/daisy/gcc/arm-none-eabi/include/c++/10.2.1/bits/stl_algobase.h ****    *  @param  __a  A thing of arbitrary type.
 220:/home/hubert/daisy/gcc/arm-none-eabi/include/c++/10.2.1/bits/stl_algobase.h ****    *  @param  __b  Another thing of arbitrary type.
 221:/home/hubert/daisy/gcc/arm-none-eabi/include/c++/10.2.1/bits/stl_algobase.h ****    *  @return   The lesser of the parameters.
 222:/home/hubert/daisy/gcc/arm-none-eabi/include/c++/10.2.1/bits/stl_algobase.h ****    *
 223:/home/hubert/daisy/gcc/arm-none-eabi/include/c++/10.2.1/bits/stl_algobase.h ****    *  This is the simple classic generic implementation.  It will work on
 224:/home/hubert/daisy/gcc/arm-none-eabi/include/c++/10.2.1/bits/stl_algobase.h ****    *  temporary expressions, since they are only evaluated once, unlike a
 225:/home/hubert/daisy/gcc/arm-none-eabi/include/c++/10.2.1/bits/stl_algobase.h ****    *  preprocessor macro.
 226:/home/hubert/daisy/gcc/arm-none-eabi/include/c++/10.2.1/bits/stl_algobase.h ****   */
 227:/home/hubert/daisy/gcc/arm-none-eabi/include/c++/10.2.1/bits/stl_algobase.h ****   template<typename _Tp>
 228:/home/hubert/daisy/gcc/arm-none-eabi/include/c++/10.2.1/bits/stl_algobase.h ****     _GLIBCXX14_CONSTEXPR
 229:/home/hubert/daisy/gcc/arm-none-eabi/include/c++/10.2.1/bits/stl_algobase.h ****     inline const _Tp&
 230:/home/hubert/daisy/gcc/arm-none-eabi/include/c++/10.2.1/bits/stl_algobase.h ****     min(const _Tp& __a, const _Tp& __b)
 231:/home/hubert/daisy/gcc/arm-none-eabi/include/c++/10.2.1/bits/stl_algobase.h ****     {
 232:/home/hubert/daisy/gcc/arm-none-eabi/include/c++/10.2.1/bits/stl_algobase.h ****       // concept requirements
 233:/home/hubert/daisy/gcc/arm-none-eabi/include/c++/10.2.1/bits/stl_algobase.h ****       __glibcxx_function_requires(_LessThanComparableConcept<_Tp>)
 234:/home/hubert/daisy/gcc/arm-none-eabi/include/c++/10.2.1/bits/stl_algobase.h ****       //return __b < __a ? __b : __a;
 235:/home/hubert/daisy/gcc/arm-none-eabi/include/c++/10.2.1/bits/stl_algobase.h ****       if (__b < __a)
 236:/home/hubert/daisy/gcc/arm-none-eabi/include/c++/10.2.1/bits/stl_algobase.h **** 	return __b;
 237:/home/hubert/daisy/gcc/arm-none-eabi/include/c++/10.2.1/bits/stl_algobase.h ****       return __a;
 238:/home/hubert/daisy/gcc/arm-none-eabi/include/c++/10.2.1/bits/stl_algobase.h ****     }
ARM GAS  /tmp/ccqtC9dg.s 			page 55


 239:/home/hubert/daisy/gcc/arm-none-eabi/include/c++/10.2.1/bits/stl_algobase.h **** 
 240:/home/hubert/daisy/gcc/arm-none-eabi/include/c++/10.2.1/bits/stl_algobase.h ****   /**
 241:/home/hubert/daisy/gcc/arm-none-eabi/include/c++/10.2.1/bits/stl_algobase.h ****    *  @brief This does what you think it does.
 242:/home/hubert/daisy/gcc/arm-none-eabi/include/c++/10.2.1/bits/stl_algobase.h ****    *  @ingroup sorting_algorithms
 243:/home/hubert/daisy/gcc/arm-none-eabi/include/c++/10.2.1/bits/stl_algobase.h ****    *  @param  __a  A thing of arbitrary type.
 244:/home/hubert/daisy/gcc/arm-none-eabi/include/c++/10.2.1/bits/stl_algobase.h ****    *  @param  __b  Another thing of arbitrary type.
 245:/home/hubert/daisy/gcc/arm-none-eabi/include/c++/10.2.1/bits/stl_algobase.h ****    *  @return   The greater of the parameters.
 246:/home/hubert/daisy/gcc/arm-none-eabi/include/c++/10.2.1/bits/stl_algobase.h ****    *
 247:/home/hubert/daisy/gcc/arm-none-eabi/include/c++/10.2.1/bits/stl_algobase.h ****    *  This is the simple classic generic implementation.  It will work on
 248:/home/hubert/daisy/gcc/arm-none-eabi/include/c++/10.2.1/bits/stl_algobase.h ****    *  temporary expressions, since they are only evaluated once, unlike a
 249:/home/hubert/daisy/gcc/arm-none-eabi/include/c++/10.2.1/bits/stl_algobase.h ****    *  preprocessor macro.
 250:/home/hubert/daisy/gcc/arm-none-eabi/include/c++/10.2.1/bits/stl_algobase.h ****   */
 251:/home/hubert/daisy/gcc/arm-none-eabi/include/c++/10.2.1/bits/stl_algobase.h ****   template<typename _Tp>
 252:/home/hubert/daisy/gcc/arm-none-eabi/include/c++/10.2.1/bits/stl_algobase.h ****     _GLIBCXX14_CONSTEXPR
 253:/home/hubert/daisy/gcc/arm-none-eabi/include/c++/10.2.1/bits/stl_algobase.h ****     inline const _Tp&
 254:/home/hubert/daisy/gcc/arm-none-eabi/include/c++/10.2.1/bits/stl_algobase.h ****     max(const _Tp& __a, const _Tp& __b)
 255:/home/hubert/daisy/gcc/arm-none-eabi/include/c++/10.2.1/bits/stl_algobase.h ****     {
 256:/home/hubert/daisy/gcc/arm-none-eabi/include/c++/10.2.1/bits/stl_algobase.h ****       // concept requirements
 257:/home/hubert/daisy/gcc/arm-none-eabi/include/c++/10.2.1/bits/stl_algobase.h ****       __glibcxx_function_requires(_LessThanComparableConcept<_Tp>)
 258:/home/hubert/daisy/gcc/arm-none-eabi/include/c++/10.2.1/bits/stl_algobase.h ****       //return  __a < __b ? __b : __a;
 259:/home/hubert/daisy/gcc/arm-none-eabi/include/c++/10.2.1/bits/stl_algobase.h ****       if (__a < __b)
 260:/home/hubert/daisy/gcc/arm-none-eabi/include/c++/10.2.1/bits/stl_algobase.h **** 	return __b;
 261:/home/hubert/daisy/gcc/arm-none-eabi/include/c++/10.2.1/bits/stl_algobase.h ****       return __a;
 262:/home/hubert/daisy/gcc/arm-none-eabi/include/c++/10.2.1/bits/stl_algobase.h ****     }
 263:/home/hubert/daisy/gcc/arm-none-eabi/include/c++/10.2.1/bits/stl_algobase.h **** 
 264:/home/hubert/daisy/gcc/arm-none-eabi/include/c++/10.2.1/bits/stl_algobase.h ****   /**
 265:/home/hubert/daisy/gcc/arm-none-eabi/include/c++/10.2.1/bits/stl_algobase.h ****    *  @brief This does what you think it does.
 266:/home/hubert/daisy/gcc/arm-none-eabi/include/c++/10.2.1/bits/stl_algobase.h ****    *  @ingroup sorting_algorithms
 267:/home/hubert/daisy/gcc/arm-none-eabi/include/c++/10.2.1/bits/stl_algobase.h ****    *  @param  __a  A thing of arbitrary type.
 268:/home/hubert/daisy/gcc/arm-none-eabi/include/c++/10.2.1/bits/stl_algobase.h ****    *  @param  __b  Another thing of arbitrary type.
 269:/home/hubert/daisy/gcc/arm-none-eabi/include/c++/10.2.1/bits/stl_algobase.h ****    *  @param  __comp  A @link comparison_functors comparison functor@endlink.
 270:/home/hubert/daisy/gcc/arm-none-eabi/include/c++/10.2.1/bits/stl_algobase.h ****    *  @return   The lesser of the parameters.
 271:/home/hubert/daisy/gcc/arm-none-eabi/include/c++/10.2.1/bits/stl_algobase.h ****    *
 272:/home/hubert/daisy/gcc/arm-none-eabi/include/c++/10.2.1/bits/stl_algobase.h ****    *  This will work on temporary expressions, since they are only evaluated
 273:/home/hubert/daisy/gcc/arm-none-eabi/include/c++/10.2.1/bits/stl_algobase.h ****    *  once, unlike a preprocessor macro.
 274:/home/hubert/daisy/gcc/arm-none-eabi/include/c++/10.2.1/bits/stl_algobase.h ****   */
 275:/home/hubert/daisy/gcc/arm-none-eabi/include/c++/10.2.1/bits/stl_algobase.h ****   template<typename _Tp, typename _Compare>
 276:/home/hubert/daisy/gcc/arm-none-eabi/include/c++/10.2.1/bits/stl_algobase.h ****     _GLIBCXX14_CONSTEXPR
 277:/home/hubert/daisy/gcc/arm-none-eabi/include/c++/10.2.1/bits/stl_algobase.h ****     inline const _Tp&
 278:/home/hubert/daisy/gcc/arm-none-eabi/include/c++/10.2.1/bits/stl_algobase.h ****     min(const _Tp& __a, const _Tp& __b, _Compare __comp)
 279:/home/hubert/daisy/gcc/arm-none-eabi/include/c++/10.2.1/bits/stl_algobase.h ****     {
 280:/home/hubert/daisy/gcc/arm-none-eabi/include/c++/10.2.1/bits/stl_algobase.h ****       //return __comp(__b, __a) ? __b : __a;
 281:/home/hubert/daisy/gcc/arm-none-eabi/include/c++/10.2.1/bits/stl_algobase.h ****       if (__comp(__b, __a))
 282:/home/hubert/daisy/gcc/arm-none-eabi/include/c++/10.2.1/bits/stl_algobase.h **** 	return __b;
 283:/home/hubert/daisy/gcc/arm-none-eabi/include/c++/10.2.1/bits/stl_algobase.h ****       return __a;
 284:/home/hubert/daisy/gcc/arm-none-eabi/include/c++/10.2.1/bits/stl_algobase.h ****     }
 285:/home/hubert/daisy/gcc/arm-none-eabi/include/c++/10.2.1/bits/stl_algobase.h **** 
 286:/home/hubert/daisy/gcc/arm-none-eabi/include/c++/10.2.1/bits/stl_algobase.h ****   /**
 287:/home/hubert/daisy/gcc/arm-none-eabi/include/c++/10.2.1/bits/stl_algobase.h ****    *  @brief This does what you think it does.
 288:/home/hubert/daisy/gcc/arm-none-eabi/include/c++/10.2.1/bits/stl_algobase.h ****    *  @ingroup sorting_algorithms
 289:/home/hubert/daisy/gcc/arm-none-eabi/include/c++/10.2.1/bits/stl_algobase.h ****    *  @param  __a  A thing of arbitrary type.
 290:/home/hubert/daisy/gcc/arm-none-eabi/include/c++/10.2.1/bits/stl_algobase.h ****    *  @param  __b  Another thing of arbitrary type.
 291:/home/hubert/daisy/gcc/arm-none-eabi/include/c++/10.2.1/bits/stl_algobase.h ****    *  @param  __comp  A @link comparison_functors comparison functor@endlink.
 292:/home/hubert/daisy/gcc/arm-none-eabi/include/c++/10.2.1/bits/stl_algobase.h ****    *  @return   The greater of the parameters.
 293:/home/hubert/daisy/gcc/arm-none-eabi/include/c++/10.2.1/bits/stl_algobase.h ****    *
 294:/home/hubert/daisy/gcc/arm-none-eabi/include/c++/10.2.1/bits/stl_algobase.h ****    *  This will work on temporary expressions, since they are only evaluated
 295:/home/hubert/daisy/gcc/arm-none-eabi/include/c++/10.2.1/bits/stl_algobase.h ****    *  once, unlike a preprocessor macro.
ARM GAS  /tmp/ccqtC9dg.s 			page 56


 296:/home/hubert/daisy/gcc/arm-none-eabi/include/c++/10.2.1/bits/stl_algobase.h ****   */
 297:/home/hubert/daisy/gcc/arm-none-eabi/include/c++/10.2.1/bits/stl_algobase.h ****   template<typename _Tp, typename _Compare>
 298:/home/hubert/daisy/gcc/arm-none-eabi/include/c++/10.2.1/bits/stl_algobase.h ****     _GLIBCXX14_CONSTEXPR
 299:/home/hubert/daisy/gcc/arm-none-eabi/include/c++/10.2.1/bits/stl_algobase.h ****     inline const _Tp&
 300:/home/hubert/daisy/gcc/arm-none-eabi/include/c++/10.2.1/bits/stl_algobase.h ****     max(const _Tp& __a, const _Tp& __b, _Compare __comp)
 301:/home/hubert/daisy/gcc/arm-none-eabi/include/c++/10.2.1/bits/stl_algobase.h ****     {
 302:/home/hubert/daisy/gcc/arm-none-eabi/include/c++/10.2.1/bits/stl_algobase.h ****       //return __comp(__a, __b) ? __b : __a;
 303:/home/hubert/daisy/gcc/arm-none-eabi/include/c++/10.2.1/bits/stl_algobase.h ****       if (__comp(__a, __b))
 304:/home/hubert/daisy/gcc/arm-none-eabi/include/c++/10.2.1/bits/stl_algobase.h **** 	return __b;
 305:/home/hubert/daisy/gcc/arm-none-eabi/include/c++/10.2.1/bits/stl_algobase.h ****       return __a;
 306:/home/hubert/daisy/gcc/arm-none-eabi/include/c++/10.2.1/bits/stl_algobase.h ****     }
 307:/home/hubert/daisy/gcc/arm-none-eabi/include/c++/10.2.1/bits/stl_algobase.h **** 
 308:/home/hubert/daisy/gcc/arm-none-eabi/include/c++/10.2.1/bits/stl_algobase.h ****   // Fallback implementation of the function in bits/stl_iterator.h used to
 309:/home/hubert/daisy/gcc/arm-none-eabi/include/c++/10.2.1/bits/stl_algobase.h ****   // remove the __normal_iterator wrapper. See copy, fill, ...
 310:/home/hubert/daisy/gcc/arm-none-eabi/include/c++/10.2.1/bits/stl_algobase.h ****   template<typename _Iterator>
 311:/home/hubert/daisy/gcc/arm-none-eabi/include/c++/10.2.1/bits/stl_algobase.h ****     _GLIBCXX20_CONSTEXPR
 312:/home/hubert/daisy/gcc/arm-none-eabi/include/c++/10.2.1/bits/stl_algobase.h ****     inline _Iterator
 313:/home/hubert/daisy/gcc/arm-none-eabi/include/c++/10.2.1/bits/stl_algobase.h ****     __niter_base(_Iterator __it)
 314:/home/hubert/daisy/gcc/arm-none-eabi/include/c++/10.2.1/bits/stl_algobase.h ****     _GLIBCXX_NOEXCEPT_IF(std::is_nothrow_copy_constructible<_Iterator>::value)
 315:/home/hubert/daisy/gcc/arm-none-eabi/include/c++/10.2.1/bits/stl_algobase.h ****     { return __it; }
 316:/home/hubert/daisy/gcc/arm-none-eabi/include/c++/10.2.1/bits/stl_algobase.h **** 
 317:/home/hubert/daisy/gcc/arm-none-eabi/include/c++/10.2.1/bits/stl_algobase.h ****   // Reverse the __niter_base transformation to get a
 318:/home/hubert/daisy/gcc/arm-none-eabi/include/c++/10.2.1/bits/stl_algobase.h ****   // __normal_iterator back again (this assumes that __normal_iterator
 319:/home/hubert/daisy/gcc/arm-none-eabi/include/c++/10.2.1/bits/stl_algobase.h ****   // is only used to wrap random access iterators, like pointers).
 320:/home/hubert/daisy/gcc/arm-none-eabi/include/c++/10.2.1/bits/stl_algobase.h ****   template<typename _From, typename _To>
 321:/home/hubert/daisy/gcc/arm-none-eabi/include/c++/10.2.1/bits/stl_algobase.h ****     _GLIBCXX20_CONSTEXPR
 322:/home/hubert/daisy/gcc/arm-none-eabi/include/c++/10.2.1/bits/stl_algobase.h ****     inline _From
 323:/home/hubert/daisy/gcc/arm-none-eabi/include/c++/10.2.1/bits/stl_algobase.h ****     __niter_wrap(_From __from, _To __res)
 324:/home/hubert/daisy/gcc/arm-none-eabi/include/c++/10.2.1/bits/stl_algobase.h ****     { return __from + (__res - std::__niter_base(__from)); }
 325:/home/hubert/daisy/gcc/arm-none-eabi/include/c++/10.2.1/bits/stl_algobase.h **** 
 326:/home/hubert/daisy/gcc/arm-none-eabi/include/c++/10.2.1/bits/stl_algobase.h ****   // No need to wrap, iterator already has the right type.
 327:/home/hubert/daisy/gcc/arm-none-eabi/include/c++/10.2.1/bits/stl_algobase.h ****   template<typename _Iterator>
 328:/home/hubert/daisy/gcc/arm-none-eabi/include/c++/10.2.1/bits/stl_algobase.h ****     _GLIBCXX20_CONSTEXPR
 329:/home/hubert/daisy/gcc/arm-none-eabi/include/c++/10.2.1/bits/stl_algobase.h ****     inline _Iterator
 330:/home/hubert/daisy/gcc/arm-none-eabi/include/c++/10.2.1/bits/stl_algobase.h ****     __niter_wrap(const _Iterator&, _Iterator __res)
 331:/home/hubert/daisy/gcc/arm-none-eabi/include/c++/10.2.1/bits/stl_algobase.h ****     { return __res; }
 332:/home/hubert/daisy/gcc/arm-none-eabi/include/c++/10.2.1/bits/stl_algobase.h **** 
 333:/home/hubert/daisy/gcc/arm-none-eabi/include/c++/10.2.1/bits/stl_algobase.h ****   // All of these auxiliary structs serve two purposes.  (1) Replace
 334:/home/hubert/daisy/gcc/arm-none-eabi/include/c++/10.2.1/bits/stl_algobase.h ****   // calls to copy with memmove whenever possible.  (Memmove, not memcpy,
 335:/home/hubert/daisy/gcc/arm-none-eabi/include/c++/10.2.1/bits/stl_algobase.h ****   // because the input and output ranges are permitted to overlap.)
 336:/home/hubert/daisy/gcc/arm-none-eabi/include/c++/10.2.1/bits/stl_algobase.h ****   // (2) If we're using random access iterators, then write the loop as
 337:/home/hubert/daisy/gcc/arm-none-eabi/include/c++/10.2.1/bits/stl_algobase.h ****   // a for loop with an explicit count.
 338:/home/hubert/daisy/gcc/arm-none-eabi/include/c++/10.2.1/bits/stl_algobase.h **** 
 339:/home/hubert/daisy/gcc/arm-none-eabi/include/c++/10.2.1/bits/stl_algobase.h ****   template<bool _IsMove, bool _IsSimple, typename _Category>
 340:/home/hubert/daisy/gcc/arm-none-eabi/include/c++/10.2.1/bits/stl_algobase.h ****     struct __copy_move
 341:/home/hubert/daisy/gcc/arm-none-eabi/include/c++/10.2.1/bits/stl_algobase.h ****     {
 342:/home/hubert/daisy/gcc/arm-none-eabi/include/c++/10.2.1/bits/stl_algobase.h ****       template<typename _II, typename _OI>
 343:/home/hubert/daisy/gcc/arm-none-eabi/include/c++/10.2.1/bits/stl_algobase.h **** 	_GLIBCXX20_CONSTEXPR
 344:/home/hubert/daisy/gcc/arm-none-eabi/include/c++/10.2.1/bits/stl_algobase.h **** 	static _OI
 345:/home/hubert/daisy/gcc/arm-none-eabi/include/c++/10.2.1/bits/stl_algobase.h **** 	__copy_m(_II __first, _II __last, _OI __result)
 346:/home/hubert/daisy/gcc/arm-none-eabi/include/c++/10.2.1/bits/stl_algobase.h **** 	{
 347:/home/hubert/daisy/gcc/arm-none-eabi/include/c++/10.2.1/bits/stl_algobase.h **** 	  for (; __first != __last; ++__result, (void)++__first)
 348:/home/hubert/daisy/gcc/arm-none-eabi/include/c++/10.2.1/bits/stl_algobase.h **** 	    *__result = *__first;
 349:/home/hubert/daisy/gcc/arm-none-eabi/include/c++/10.2.1/bits/stl_algobase.h **** 	  return __result;
 350:/home/hubert/daisy/gcc/arm-none-eabi/include/c++/10.2.1/bits/stl_algobase.h **** 	}
 351:/home/hubert/daisy/gcc/arm-none-eabi/include/c++/10.2.1/bits/stl_algobase.h ****     };
 352:/home/hubert/daisy/gcc/arm-none-eabi/include/c++/10.2.1/bits/stl_algobase.h **** 
ARM GAS  /tmp/ccqtC9dg.s 			page 57


 353:/home/hubert/daisy/gcc/arm-none-eabi/include/c++/10.2.1/bits/stl_algobase.h **** #if __cplusplus >= 201103L
 354:/home/hubert/daisy/gcc/arm-none-eabi/include/c++/10.2.1/bits/stl_algobase.h ****   template<typename _Category>
 355:/home/hubert/daisy/gcc/arm-none-eabi/include/c++/10.2.1/bits/stl_algobase.h ****     struct __copy_move<true, false, _Category>
 356:/home/hubert/daisy/gcc/arm-none-eabi/include/c++/10.2.1/bits/stl_algobase.h ****     {
 357:/home/hubert/daisy/gcc/arm-none-eabi/include/c++/10.2.1/bits/stl_algobase.h ****       template<typename _II, typename _OI>
 358:/home/hubert/daisy/gcc/arm-none-eabi/include/c++/10.2.1/bits/stl_algobase.h **** 	_GLIBCXX20_CONSTEXPR
 359:/home/hubert/daisy/gcc/arm-none-eabi/include/c++/10.2.1/bits/stl_algobase.h **** 	static _OI
 360:/home/hubert/daisy/gcc/arm-none-eabi/include/c++/10.2.1/bits/stl_algobase.h **** 	__copy_m(_II __first, _II __last, _OI __result)
 361:/home/hubert/daisy/gcc/arm-none-eabi/include/c++/10.2.1/bits/stl_algobase.h **** 	{
 362:/home/hubert/daisy/gcc/arm-none-eabi/include/c++/10.2.1/bits/stl_algobase.h **** 	  for (; __first != __last; ++__result, (void)++__first)
 363:/home/hubert/daisy/gcc/arm-none-eabi/include/c++/10.2.1/bits/stl_algobase.h **** 	    *__result = std::move(*__first);
 364:/home/hubert/daisy/gcc/arm-none-eabi/include/c++/10.2.1/bits/stl_algobase.h **** 	  return __result;
 365:/home/hubert/daisy/gcc/arm-none-eabi/include/c++/10.2.1/bits/stl_algobase.h **** 	}
 366:/home/hubert/daisy/gcc/arm-none-eabi/include/c++/10.2.1/bits/stl_algobase.h ****     };
 367:/home/hubert/daisy/gcc/arm-none-eabi/include/c++/10.2.1/bits/stl_algobase.h **** #endif
 368:/home/hubert/daisy/gcc/arm-none-eabi/include/c++/10.2.1/bits/stl_algobase.h **** 
 369:/home/hubert/daisy/gcc/arm-none-eabi/include/c++/10.2.1/bits/stl_algobase.h ****   template<>
 370:/home/hubert/daisy/gcc/arm-none-eabi/include/c++/10.2.1/bits/stl_algobase.h ****     struct __copy_move<false, false, random_access_iterator_tag>
 371:/home/hubert/daisy/gcc/arm-none-eabi/include/c++/10.2.1/bits/stl_algobase.h ****     {
 372:/home/hubert/daisy/gcc/arm-none-eabi/include/c++/10.2.1/bits/stl_algobase.h ****       template<typename _II, typename _OI>
 373:/home/hubert/daisy/gcc/arm-none-eabi/include/c++/10.2.1/bits/stl_algobase.h **** 	_GLIBCXX20_CONSTEXPR
 374:/home/hubert/daisy/gcc/arm-none-eabi/include/c++/10.2.1/bits/stl_algobase.h **** 	static _OI
 375:/home/hubert/daisy/gcc/arm-none-eabi/include/c++/10.2.1/bits/stl_algobase.h **** 	__copy_m(_II __first, _II __last, _OI __result)
 376:/home/hubert/daisy/gcc/arm-none-eabi/include/c++/10.2.1/bits/stl_algobase.h **** 	{
 377:/home/hubert/daisy/gcc/arm-none-eabi/include/c++/10.2.1/bits/stl_algobase.h **** 	  typedef typename iterator_traits<_II>::difference_type _Distance;
 378:/home/hubert/daisy/gcc/arm-none-eabi/include/c++/10.2.1/bits/stl_algobase.h **** 	  for(_Distance __n = __last - __first; __n > 0; --__n)
 379:/home/hubert/daisy/gcc/arm-none-eabi/include/c++/10.2.1/bits/stl_algobase.h **** 	    {
 380:/home/hubert/daisy/gcc/arm-none-eabi/include/c++/10.2.1/bits/stl_algobase.h **** 	      *__result = *__first;
 381:/home/hubert/daisy/gcc/arm-none-eabi/include/c++/10.2.1/bits/stl_algobase.h **** 	      ++__first;
 382:/home/hubert/daisy/gcc/arm-none-eabi/include/c++/10.2.1/bits/stl_algobase.h **** 	      ++__result;
 383:/home/hubert/daisy/gcc/arm-none-eabi/include/c++/10.2.1/bits/stl_algobase.h **** 	    }
 384:/home/hubert/daisy/gcc/arm-none-eabi/include/c++/10.2.1/bits/stl_algobase.h **** 	  return __result;
 385:/home/hubert/daisy/gcc/arm-none-eabi/include/c++/10.2.1/bits/stl_algobase.h **** 	}
 386:/home/hubert/daisy/gcc/arm-none-eabi/include/c++/10.2.1/bits/stl_algobase.h ****     };
 387:/home/hubert/daisy/gcc/arm-none-eabi/include/c++/10.2.1/bits/stl_algobase.h **** 
 388:/home/hubert/daisy/gcc/arm-none-eabi/include/c++/10.2.1/bits/stl_algobase.h **** #if __cplusplus >= 201103L
 389:/home/hubert/daisy/gcc/arm-none-eabi/include/c++/10.2.1/bits/stl_algobase.h ****   template<>
 390:/home/hubert/daisy/gcc/arm-none-eabi/include/c++/10.2.1/bits/stl_algobase.h ****     struct __copy_move<true, false, random_access_iterator_tag>
 391:/home/hubert/daisy/gcc/arm-none-eabi/include/c++/10.2.1/bits/stl_algobase.h ****     {
 392:/home/hubert/daisy/gcc/arm-none-eabi/include/c++/10.2.1/bits/stl_algobase.h ****       template<typename _II, typename _OI>
 393:/home/hubert/daisy/gcc/arm-none-eabi/include/c++/10.2.1/bits/stl_algobase.h **** 	_GLIBCXX20_CONSTEXPR
 394:/home/hubert/daisy/gcc/arm-none-eabi/include/c++/10.2.1/bits/stl_algobase.h **** 	static _OI
 395:/home/hubert/daisy/gcc/arm-none-eabi/include/c++/10.2.1/bits/stl_algobase.h **** 	__copy_m(_II __first, _II __last, _OI __result)
 396:/home/hubert/daisy/gcc/arm-none-eabi/include/c++/10.2.1/bits/stl_algobase.h **** 	{
 397:/home/hubert/daisy/gcc/arm-none-eabi/include/c++/10.2.1/bits/stl_algobase.h **** 	  typedef typename iterator_traits<_II>::difference_type _Distance;
 398:/home/hubert/daisy/gcc/arm-none-eabi/include/c++/10.2.1/bits/stl_algobase.h **** 	  for(_Distance __n = __last - __first; __n > 0; --__n)
 399:/home/hubert/daisy/gcc/arm-none-eabi/include/c++/10.2.1/bits/stl_algobase.h **** 	    {
 400:/home/hubert/daisy/gcc/arm-none-eabi/include/c++/10.2.1/bits/stl_algobase.h **** 	      *__result = std::move(*__first);
 401:/home/hubert/daisy/gcc/arm-none-eabi/include/c++/10.2.1/bits/stl_algobase.h **** 	      ++__first;
 402:/home/hubert/daisy/gcc/arm-none-eabi/include/c++/10.2.1/bits/stl_algobase.h **** 	      ++__result;
 403:/home/hubert/daisy/gcc/arm-none-eabi/include/c++/10.2.1/bits/stl_algobase.h **** 	    }
 404:/home/hubert/daisy/gcc/arm-none-eabi/include/c++/10.2.1/bits/stl_algobase.h **** 	  return __result;
 405:/home/hubert/daisy/gcc/arm-none-eabi/include/c++/10.2.1/bits/stl_algobase.h **** 	}
 406:/home/hubert/daisy/gcc/arm-none-eabi/include/c++/10.2.1/bits/stl_algobase.h ****     };
 407:/home/hubert/daisy/gcc/arm-none-eabi/include/c++/10.2.1/bits/stl_algobase.h **** #endif
 408:/home/hubert/daisy/gcc/arm-none-eabi/include/c++/10.2.1/bits/stl_algobase.h **** 
 409:/home/hubert/daisy/gcc/arm-none-eabi/include/c++/10.2.1/bits/stl_algobase.h ****   template<bool _IsMove>
ARM GAS  /tmp/ccqtC9dg.s 			page 58


 410:/home/hubert/daisy/gcc/arm-none-eabi/include/c++/10.2.1/bits/stl_algobase.h ****     struct __copy_move<_IsMove, true, random_access_iterator_tag>
 411:/home/hubert/daisy/gcc/arm-none-eabi/include/c++/10.2.1/bits/stl_algobase.h ****     {
 412:/home/hubert/daisy/gcc/arm-none-eabi/include/c++/10.2.1/bits/stl_algobase.h ****       template<typename _Tp>
 413:/home/hubert/daisy/gcc/arm-none-eabi/include/c++/10.2.1/bits/stl_algobase.h **** 	_GLIBCXX20_CONSTEXPR
 414:/home/hubert/daisy/gcc/arm-none-eabi/include/c++/10.2.1/bits/stl_algobase.h **** 	static _Tp*
 415:/home/hubert/daisy/gcc/arm-none-eabi/include/c++/10.2.1/bits/stl_algobase.h **** 	__copy_m(const _Tp* __first, const _Tp* __last, _Tp* __result)
 416:/home/hubert/daisy/gcc/arm-none-eabi/include/c++/10.2.1/bits/stl_algobase.h **** 	{
 417:/home/hubert/daisy/gcc/arm-none-eabi/include/c++/10.2.1/bits/stl_algobase.h **** #if __cplusplus >= 201103L
 418:/home/hubert/daisy/gcc/arm-none-eabi/include/c++/10.2.1/bits/stl_algobase.h **** 	  using __assignable = conditional<_IsMove,
 419:/home/hubert/daisy/gcc/arm-none-eabi/include/c++/10.2.1/bits/stl_algobase.h **** 					   is_move_assignable<_Tp>,
 420:/home/hubert/daisy/gcc/arm-none-eabi/include/c++/10.2.1/bits/stl_algobase.h **** 					   is_copy_assignable<_Tp>>;
 421:/home/hubert/daisy/gcc/arm-none-eabi/include/c++/10.2.1/bits/stl_algobase.h **** 	  // trivial types can have deleted assignment
 422:/home/hubert/daisy/gcc/arm-none-eabi/include/c++/10.2.1/bits/stl_algobase.h **** 	  static_assert( __assignable::type::value, "type is not assignable" );
 423:/home/hubert/daisy/gcc/arm-none-eabi/include/c++/10.2.1/bits/stl_algobase.h **** #endif
 424:/home/hubert/daisy/gcc/arm-none-eabi/include/c++/10.2.1/bits/stl_algobase.h **** 	  const ptrdiff_t _Num = __last - __first;
 425:/home/hubert/daisy/gcc/arm-none-eabi/include/c++/10.2.1/bits/stl_algobase.h **** 	  if (_Num)
 426:/home/hubert/daisy/gcc/arm-none-eabi/include/c++/10.2.1/bits/stl_algobase.h **** 	    __builtin_memmove(__result, __first, sizeof(_Tp) * _Num);
 427:/home/hubert/daisy/gcc/arm-none-eabi/include/c++/10.2.1/bits/stl_algobase.h **** 	  return __result + _Num;
 428:/home/hubert/daisy/gcc/arm-none-eabi/include/c++/10.2.1/bits/stl_algobase.h **** 	}
 429:/home/hubert/daisy/gcc/arm-none-eabi/include/c++/10.2.1/bits/stl_algobase.h ****     };
 430:/home/hubert/daisy/gcc/arm-none-eabi/include/c++/10.2.1/bits/stl_algobase.h **** 
 431:/home/hubert/daisy/gcc/arm-none-eabi/include/c++/10.2.1/bits/stl_algobase.h ****   // Helpers for streambuf iterators (either istream or ostream).
 432:/home/hubert/daisy/gcc/arm-none-eabi/include/c++/10.2.1/bits/stl_algobase.h ****   // NB: avoid including <iosfwd>, relatively large.
 433:/home/hubert/daisy/gcc/arm-none-eabi/include/c++/10.2.1/bits/stl_algobase.h ****   template<typename _CharT>
 434:/home/hubert/daisy/gcc/arm-none-eabi/include/c++/10.2.1/bits/stl_algobase.h ****     struct char_traits;
 435:/home/hubert/daisy/gcc/arm-none-eabi/include/c++/10.2.1/bits/stl_algobase.h **** 
 436:/home/hubert/daisy/gcc/arm-none-eabi/include/c++/10.2.1/bits/stl_algobase.h ****   template<typename _CharT, typename _Traits>
 437:/home/hubert/daisy/gcc/arm-none-eabi/include/c++/10.2.1/bits/stl_algobase.h ****     class istreambuf_iterator;
 438:/home/hubert/daisy/gcc/arm-none-eabi/include/c++/10.2.1/bits/stl_algobase.h **** 
 439:/home/hubert/daisy/gcc/arm-none-eabi/include/c++/10.2.1/bits/stl_algobase.h ****   template<typename _CharT, typename _Traits>
 440:/home/hubert/daisy/gcc/arm-none-eabi/include/c++/10.2.1/bits/stl_algobase.h ****     class ostreambuf_iterator;
 441:/home/hubert/daisy/gcc/arm-none-eabi/include/c++/10.2.1/bits/stl_algobase.h **** 
 442:/home/hubert/daisy/gcc/arm-none-eabi/include/c++/10.2.1/bits/stl_algobase.h ****   template<bool _IsMove, typename _CharT>
 443:/home/hubert/daisy/gcc/arm-none-eabi/include/c++/10.2.1/bits/stl_algobase.h ****     typename __gnu_cxx::__enable_if<__is_char<_CharT>::__value,
 444:/home/hubert/daisy/gcc/arm-none-eabi/include/c++/10.2.1/bits/stl_algobase.h **** 	     ostreambuf_iterator<_CharT, char_traits<_CharT> > >::__type
 445:/home/hubert/daisy/gcc/arm-none-eabi/include/c++/10.2.1/bits/stl_algobase.h ****     __copy_move_a2(_CharT*, _CharT*,
 446:/home/hubert/daisy/gcc/arm-none-eabi/include/c++/10.2.1/bits/stl_algobase.h **** 		   ostreambuf_iterator<_CharT, char_traits<_CharT> >);
 447:/home/hubert/daisy/gcc/arm-none-eabi/include/c++/10.2.1/bits/stl_algobase.h **** 
 448:/home/hubert/daisy/gcc/arm-none-eabi/include/c++/10.2.1/bits/stl_algobase.h ****   template<bool _IsMove, typename _CharT>
 449:/home/hubert/daisy/gcc/arm-none-eabi/include/c++/10.2.1/bits/stl_algobase.h ****     typename __gnu_cxx::__enable_if<__is_char<_CharT>::__value,
 450:/home/hubert/daisy/gcc/arm-none-eabi/include/c++/10.2.1/bits/stl_algobase.h **** 	     ostreambuf_iterator<_CharT, char_traits<_CharT> > >::__type
 451:/home/hubert/daisy/gcc/arm-none-eabi/include/c++/10.2.1/bits/stl_algobase.h ****     __copy_move_a2(const _CharT*, const _CharT*,
 452:/home/hubert/daisy/gcc/arm-none-eabi/include/c++/10.2.1/bits/stl_algobase.h **** 		   ostreambuf_iterator<_CharT, char_traits<_CharT> >);
 453:/home/hubert/daisy/gcc/arm-none-eabi/include/c++/10.2.1/bits/stl_algobase.h **** 
 454:/home/hubert/daisy/gcc/arm-none-eabi/include/c++/10.2.1/bits/stl_algobase.h ****   template<bool _IsMove, typename _CharT>
 455:/home/hubert/daisy/gcc/arm-none-eabi/include/c++/10.2.1/bits/stl_algobase.h ****     typename __gnu_cxx::__enable_if<__is_char<_CharT>::__value,
 456:/home/hubert/daisy/gcc/arm-none-eabi/include/c++/10.2.1/bits/stl_algobase.h **** 				    _CharT*>::__type
 457:/home/hubert/daisy/gcc/arm-none-eabi/include/c++/10.2.1/bits/stl_algobase.h ****     __copy_move_a2(istreambuf_iterator<_CharT, char_traits<_CharT> >,
 458:/home/hubert/daisy/gcc/arm-none-eabi/include/c++/10.2.1/bits/stl_algobase.h **** 		   istreambuf_iterator<_CharT, char_traits<_CharT> >, _CharT*);
 459:/home/hubert/daisy/gcc/arm-none-eabi/include/c++/10.2.1/bits/stl_algobase.h **** 
 460:/home/hubert/daisy/gcc/arm-none-eabi/include/c++/10.2.1/bits/stl_algobase.h ****   template<bool _IsMove, typename _II, typename _OI>
 461:/home/hubert/daisy/gcc/arm-none-eabi/include/c++/10.2.1/bits/stl_algobase.h ****     _GLIBCXX20_CONSTEXPR
 462:/home/hubert/daisy/gcc/arm-none-eabi/include/c++/10.2.1/bits/stl_algobase.h ****     inline _OI
 463:/home/hubert/daisy/gcc/arm-none-eabi/include/c++/10.2.1/bits/stl_algobase.h ****     __copy_move_a2(_II __first, _II __last, _OI __result)
 464:/home/hubert/daisy/gcc/arm-none-eabi/include/c++/10.2.1/bits/stl_algobase.h ****     {
 465:/home/hubert/daisy/gcc/arm-none-eabi/include/c++/10.2.1/bits/stl_algobase.h ****       typedef typename iterator_traits<_II>::iterator_category _Category;
 466:/home/hubert/daisy/gcc/arm-none-eabi/include/c++/10.2.1/bits/stl_algobase.h **** #ifdef __cpp_lib_is_constant_evaluated
ARM GAS  /tmp/ccqtC9dg.s 			page 59


 467:/home/hubert/daisy/gcc/arm-none-eabi/include/c++/10.2.1/bits/stl_algobase.h ****       if (std::is_constant_evaluated())
 468:/home/hubert/daisy/gcc/arm-none-eabi/include/c++/10.2.1/bits/stl_algobase.h **** 	return std::__copy_move<_IsMove, false, _Category>::
 469:/home/hubert/daisy/gcc/arm-none-eabi/include/c++/10.2.1/bits/stl_algobase.h **** 	  __copy_m(__first, __last, __result);
 470:/home/hubert/daisy/gcc/arm-none-eabi/include/c++/10.2.1/bits/stl_algobase.h **** #endif
 471:/home/hubert/daisy/gcc/arm-none-eabi/include/c++/10.2.1/bits/stl_algobase.h ****       return std::__copy_move<_IsMove, __memcpyable<_OI, _II>::__value,
 472:/home/hubert/daisy/gcc/arm-none-eabi/include/c++/10.2.1/bits/stl_algobase.h **** 			      _Category>::__copy_m(__first, __last, __result);
 473:/home/hubert/daisy/gcc/arm-none-eabi/include/c++/10.2.1/bits/stl_algobase.h ****     }
 474:/home/hubert/daisy/gcc/arm-none-eabi/include/c++/10.2.1/bits/stl_algobase.h **** 
 475:/home/hubert/daisy/gcc/arm-none-eabi/include/c++/10.2.1/bits/stl_algobase.h **** _GLIBCXX_BEGIN_NAMESPACE_CONTAINER
 476:/home/hubert/daisy/gcc/arm-none-eabi/include/c++/10.2.1/bits/stl_algobase.h **** 
 477:/home/hubert/daisy/gcc/arm-none-eabi/include/c++/10.2.1/bits/stl_algobase.h ****   template<typename _Tp, typename _Ref, typename _Ptr>
 478:/home/hubert/daisy/gcc/arm-none-eabi/include/c++/10.2.1/bits/stl_algobase.h ****     struct _Deque_iterator;
 479:/home/hubert/daisy/gcc/arm-none-eabi/include/c++/10.2.1/bits/stl_algobase.h **** 
 480:/home/hubert/daisy/gcc/arm-none-eabi/include/c++/10.2.1/bits/stl_algobase.h **** _GLIBCXX_END_NAMESPACE_CONTAINER
 481:/home/hubert/daisy/gcc/arm-none-eabi/include/c++/10.2.1/bits/stl_algobase.h **** 
 482:/home/hubert/daisy/gcc/arm-none-eabi/include/c++/10.2.1/bits/stl_algobase.h ****   template<bool _IsMove,
 483:/home/hubert/daisy/gcc/arm-none-eabi/include/c++/10.2.1/bits/stl_algobase.h **** 	   typename _Tp, typename _Ref, typename _Ptr, typename _OI>
 484:/home/hubert/daisy/gcc/arm-none-eabi/include/c++/10.2.1/bits/stl_algobase.h ****     _OI
 485:/home/hubert/daisy/gcc/arm-none-eabi/include/c++/10.2.1/bits/stl_algobase.h ****     __copy_move_a1(_GLIBCXX_STD_C::_Deque_iterator<_Tp, _Ref, _Ptr>,
 486:/home/hubert/daisy/gcc/arm-none-eabi/include/c++/10.2.1/bits/stl_algobase.h **** 		   _GLIBCXX_STD_C::_Deque_iterator<_Tp, _Ref, _Ptr>,
 487:/home/hubert/daisy/gcc/arm-none-eabi/include/c++/10.2.1/bits/stl_algobase.h **** 		   _OI);
 488:/home/hubert/daisy/gcc/arm-none-eabi/include/c++/10.2.1/bits/stl_algobase.h **** 
 489:/home/hubert/daisy/gcc/arm-none-eabi/include/c++/10.2.1/bits/stl_algobase.h ****   template<bool _IsMove,
 490:/home/hubert/daisy/gcc/arm-none-eabi/include/c++/10.2.1/bits/stl_algobase.h **** 	   typename _ITp, typename _IRef, typename _IPtr, typename _OTp>
 491:/home/hubert/daisy/gcc/arm-none-eabi/include/c++/10.2.1/bits/stl_algobase.h ****     _GLIBCXX_STD_C::_Deque_iterator<_OTp, _OTp&, _OTp*>
 492:/home/hubert/daisy/gcc/arm-none-eabi/include/c++/10.2.1/bits/stl_algobase.h ****     __copy_move_a1(_GLIBCXX_STD_C::_Deque_iterator<_ITp, _IRef, _IPtr>,
 493:/home/hubert/daisy/gcc/arm-none-eabi/include/c++/10.2.1/bits/stl_algobase.h **** 		   _GLIBCXX_STD_C::_Deque_iterator<_ITp, _IRef, _IPtr>,
 494:/home/hubert/daisy/gcc/arm-none-eabi/include/c++/10.2.1/bits/stl_algobase.h **** 		   _GLIBCXX_STD_C::_Deque_iterator<_OTp, _OTp&, _OTp*>);
 495:/home/hubert/daisy/gcc/arm-none-eabi/include/c++/10.2.1/bits/stl_algobase.h **** 
 496:/home/hubert/daisy/gcc/arm-none-eabi/include/c++/10.2.1/bits/stl_algobase.h ****   template<bool _IsMove, typename _II, typename _Tp>
 497:/home/hubert/daisy/gcc/arm-none-eabi/include/c++/10.2.1/bits/stl_algobase.h ****     typename __gnu_cxx::__enable_if<
 498:/home/hubert/daisy/gcc/arm-none-eabi/include/c++/10.2.1/bits/stl_algobase.h ****       __is_random_access_iter<_II>::__value,
 499:/home/hubert/daisy/gcc/arm-none-eabi/include/c++/10.2.1/bits/stl_algobase.h ****       _GLIBCXX_STD_C::_Deque_iterator<_Tp, _Tp&, _Tp*> >::__type
 500:/home/hubert/daisy/gcc/arm-none-eabi/include/c++/10.2.1/bits/stl_algobase.h ****     __copy_move_a1(_II, _II, _GLIBCXX_STD_C::_Deque_iterator<_Tp, _Tp&, _Tp*>);
 501:/home/hubert/daisy/gcc/arm-none-eabi/include/c++/10.2.1/bits/stl_algobase.h **** 
 502:/home/hubert/daisy/gcc/arm-none-eabi/include/c++/10.2.1/bits/stl_algobase.h ****   template<bool _IsMove, typename _II, typename _OI>
 503:/home/hubert/daisy/gcc/arm-none-eabi/include/c++/10.2.1/bits/stl_algobase.h ****     _GLIBCXX20_CONSTEXPR
 504:/home/hubert/daisy/gcc/arm-none-eabi/include/c++/10.2.1/bits/stl_algobase.h ****     inline _OI
 505:/home/hubert/daisy/gcc/arm-none-eabi/include/c++/10.2.1/bits/stl_algobase.h ****     __copy_move_a1(_II __first, _II __last, _OI __result)
 506:/home/hubert/daisy/gcc/arm-none-eabi/include/c++/10.2.1/bits/stl_algobase.h ****     { return std::__copy_move_a2<_IsMove>(__first, __last, __result); }
 507:/home/hubert/daisy/gcc/arm-none-eabi/include/c++/10.2.1/bits/stl_algobase.h **** 
 508:/home/hubert/daisy/gcc/arm-none-eabi/include/c++/10.2.1/bits/stl_algobase.h ****   template<bool _IsMove, typename _II, typename _OI>
 509:/home/hubert/daisy/gcc/arm-none-eabi/include/c++/10.2.1/bits/stl_algobase.h ****     _GLIBCXX20_CONSTEXPR
 510:/home/hubert/daisy/gcc/arm-none-eabi/include/c++/10.2.1/bits/stl_algobase.h ****     inline _OI
 511:/home/hubert/daisy/gcc/arm-none-eabi/include/c++/10.2.1/bits/stl_algobase.h ****     __copy_move_a(_II __first, _II __last, _OI __result)
 512:/home/hubert/daisy/gcc/arm-none-eabi/include/c++/10.2.1/bits/stl_algobase.h ****     {
 513:/home/hubert/daisy/gcc/arm-none-eabi/include/c++/10.2.1/bits/stl_algobase.h ****       return std::__niter_wrap(__result,
 514:/home/hubert/daisy/gcc/arm-none-eabi/include/c++/10.2.1/bits/stl_algobase.h **** 		std::__copy_move_a1<_IsMove>(std::__niter_base(__first),
 515:/home/hubert/daisy/gcc/arm-none-eabi/include/c++/10.2.1/bits/stl_algobase.h **** 					     std::__niter_base(__last),
 516:/home/hubert/daisy/gcc/arm-none-eabi/include/c++/10.2.1/bits/stl_algobase.h **** 					     std::__niter_base(__result)));
 517:/home/hubert/daisy/gcc/arm-none-eabi/include/c++/10.2.1/bits/stl_algobase.h ****     }
 518:/home/hubert/daisy/gcc/arm-none-eabi/include/c++/10.2.1/bits/stl_algobase.h **** 
 519:/home/hubert/daisy/gcc/arm-none-eabi/include/c++/10.2.1/bits/stl_algobase.h ****   template<bool _IsMove,
 520:/home/hubert/daisy/gcc/arm-none-eabi/include/c++/10.2.1/bits/stl_algobase.h **** 	   typename _Ite, typename _Seq, typename _Cat, typename _OI>
 521:/home/hubert/daisy/gcc/arm-none-eabi/include/c++/10.2.1/bits/stl_algobase.h ****     _OI
 522:/home/hubert/daisy/gcc/arm-none-eabi/include/c++/10.2.1/bits/stl_algobase.h ****     __copy_move_a(const ::__gnu_debug::_Safe_iterator<_Ite, _Seq, _Cat>&,
 523:/home/hubert/daisy/gcc/arm-none-eabi/include/c++/10.2.1/bits/stl_algobase.h **** 		  const ::__gnu_debug::_Safe_iterator<_Ite, _Seq, _Cat>&,
ARM GAS  /tmp/ccqtC9dg.s 			page 60


 524:/home/hubert/daisy/gcc/arm-none-eabi/include/c++/10.2.1/bits/stl_algobase.h **** 		  _OI);
 525:/home/hubert/daisy/gcc/arm-none-eabi/include/c++/10.2.1/bits/stl_algobase.h **** 
 526:/home/hubert/daisy/gcc/arm-none-eabi/include/c++/10.2.1/bits/stl_algobase.h ****   template<bool _IsMove,
 527:/home/hubert/daisy/gcc/arm-none-eabi/include/c++/10.2.1/bits/stl_algobase.h **** 	   typename _II, typename _Ite, typename _Seq, typename _Cat>
 528:/home/hubert/daisy/gcc/arm-none-eabi/include/c++/10.2.1/bits/stl_algobase.h ****     __gnu_debug::_Safe_iterator<_Ite, _Seq, _Cat>
 529:/home/hubert/daisy/gcc/arm-none-eabi/include/c++/10.2.1/bits/stl_algobase.h ****     __copy_move_a(_II, _II,
 530:/home/hubert/daisy/gcc/arm-none-eabi/include/c++/10.2.1/bits/stl_algobase.h **** 		  const ::__gnu_debug::_Safe_iterator<_Ite, _Seq, _Cat>&);
 531:/home/hubert/daisy/gcc/arm-none-eabi/include/c++/10.2.1/bits/stl_algobase.h **** 
 532:/home/hubert/daisy/gcc/arm-none-eabi/include/c++/10.2.1/bits/stl_algobase.h ****   template<bool _IsMove,
 533:/home/hubert/daisy/gcc/arm-none-eabi/include/c++/10.2.1/bits/stl_algobase.h **** 	   typename _IIte, typename _ISeq, typename _ICat,
 534:/home/hubert/daisy/gcc/arm-none-eabi/include/c++/10.2.1/bits/stl_algobase.h **** 	   typename _OIte, typename _OSeq, typename _OCat>
 535:/home/hubert/daisy/gcc/arm-none-eabi/include/c++/10.2.1/bits/stl_algobase.h ****     ::__gnu_debug::_Safe_iterator<_OIte, _OSeq, _OCat>
 536:/home/hubert/daisy/gcc/arm-none-eabi/include/c++/10.2.1/bits/stl_algobase.h ****     __copy_move_a(const ::__gnu_debug::_Safe_iterator<_IIte, _ISeq, _ICat>&,
 537:/home/hubert/daisy/gcc/arm-none-eabi/include/c++/10.2.1/bits/stl_algobase.h **** 		  const ::__gnu_debug::_Safe_iterator<_IIte, _ISeq, _ICat>&,
 538:/home/hubert/daisy/gcc/arm-none-eabi/include/c++/10.2.1/bits/stl_algobase.h **** 		  const ::__gnu_debug::_Safe_iterator<_OIte, _OSeq, _OCat>&);
 539:/home/hubert/daisy/gcc/arm-none-eabi/include/c++/10.2.1/bits/stl_algobase.h **** 
 540:/home/hubert/daisy/gcc/arm-none-eabi/include/c++/10.2.1/bits/stl_algobase.h ****   /**
 541:/home/hubert/daisy/gcc/arm-none-eabi/include/c++/10.2.1/bits/stl_algobase.h ****    *  @brief Copies the range [first,last) into result.
 542:/home/hubert/daisy/gcc/arm-none-eabi/include/c++/10.2.1/bits/stl_algobase.h ****    *  @ingroup mutating_algorithms
 543:/home/hubert/daisy/gcc/arm-none-eabi/include/c++/10.2.1/bits/stl_algobase.h ****    *  @param  __first  An input iterator.
 544:/home/hubert/daisy/gcc/arm-none-eabi/include/c++/10.2.1/bits/stl_algobase.h ****    *  @param  __last   An input iterator.
 545:/home/hubert/daisy/gcc/arm-none-eabi/include/c++/10.2.1/bits/stl_algobase.h ****    *  @param  __result An output iterator.
 546:/home/hubert/daisy/gcc/arm-none-eabi/include/c++/10.2.1/bits/stl_algobase.h ****    *  @return   result + (last - first)
 547:/home/hubert/daisy/gcc/arm-none-eabi/include/c++/10.2.1/bits/stl_algobase.h ****    *
 548:/home/hubert/daisy/gcc/arm-none-eabi/include/c++/10.2.1/bits/stl_algobase.h ****    *  This inline function will boil down to a call to @c memmove whenever
 549:/home/hubert/daisy/gcc/arm-none-eabi/include/c++/10.2.1/bits/stl_algobase.h ****    *  possible.  Failing that, if random access iterators are passed, then the
 550:/home/hubert/daisy/gcc/arm-none-eabi/include/c++/10.2.1/bits/stl_algobase.h ****    *  loop count will be known (and therefore a candidate for compiler
 551:/home/hubert/daisy/gcc/arm-none-eabi/include/c++/10.2.1/bits/stl_algobase.h ****    *  optimizations such as unrolling).  Result may not be contained within
 552:/home/hubert/daisy/gcc/arm-none-eabi/include/c++/10.2.1/bits/stl_algobase.h ****    *  [first,last); the copy_backward function should be used instead.
 553:/home/hubert/daisy/gcc/arm-none-eabi/include/c++/10.2.1/bits/stl_algobase.h ****    *
 554:/home/hubert/daisy/gcc/arm-none-eabi/include/c++/10.2.1/bits/stl_algobase.h ****    *  Note that the end of the output range is permitted to be contained
 555:/home/hubert/daisy/gcc/arm-none-eabi/include/c++/10.2.1/bits/stl_algobase.h ****    *  within [first,last).
 556:/home/hubert/daisy/gcc/arm-none-eabi/include/c++/10.2.1/bits/stl_algobase.h ****   */
 557:/home/hubert/daisy/gcc/arm-none-eabi/include/c++/10.2.1/bits/stl_algobase.h ****   template<typename _II, typename _OI>
 558:/home/hubert/daisy/gcc/arm-none-eabi/include/c++/10.2.1/bits/stl_algobase.h ****     _GLIBCXX20_CONSTEXPR
 559:/home/hubert/daisy/gcc/arm-none-eabi/include/c++/10.2.1/bits/stl_algobase.h ****     inline _OI
 560:/home/hubert/daisy/gcc/arm-none-eabi/include/c++/10.2.1/bits/stl_algobase.h ****     copy(_II __first, _II __last, _OI __result)
 561:/home/hubert/daisy/gcc/arm-none-eabi/include/c++/10.2.1/bits/stl_algobase.h ****     {
 562:/home/hubert/daisy/gcc/arm-none-eabi/include/c++/10.2.1/bits/stl_algobase.h ****       // concept requirements
 563:/home/hubert/daisy/gcc/arm-none-eabi/include/c++/10.2.1/bits/stl_algobase.h ****       __glibcxx_function_requires(_InputIteratorConcept<_II>)
 564:/home/hubert/daisy/gcc/arm-none-eabi/include/c++/10.2.1/bits/stl_algobase.h ****       __glibcxx_function_requires(_OutputIteratorConcept<_OI,
 565:/home/hubert/daisy/gcc/arm-none-eabi/include/c++/10.2.1/bits/stl_algobase.h **** 	    typename iterator_traits<_II>::value_type>)
 566:/home/hubert/daisy/gcc/arm-none-eabi/include/c++/10.2.1/bits/stl_algobase.h ****       __glibcxx_requires_can_increment_range(__first, __last, __result);
 567:/home/hubert/daisy/gcc/arm-none-eabi/include/c++/10.2.1/bits/stl_algobase.h **** 
 568:/home/hubert/daisy/gcc/arm-none-eabi/include/c++/10.2.1/bits/stl_algobase.h ****       return std::__copy_move_a<__is_move_iterator<_II>::__value>
 569:/home/hubert/daisy/gcc/arm-none-eabi/include/c++/10.2.1/bits/stl_algobase.h **** 	     (std::__miter_base(__first), std::__miter_base(__last), __result);
 570:/home/hubert/daisy/gcc/arm-none-eabi/include/c++/10.2.1/bits/stl_algobase.h ****     }
 571:/home/hubert/daisy/gcc/arm-none-eabi/include/c++/10.2.1/bits/stl_algobase.h **** 
 572:/home/hubert/daisy/gcc/arm-none-eabi/include/c++/10.2.1/bits/stl_algobase.h **** #if __cplusplus >= 201103L
 573:/home/hubert/daisy/gcc/arm-none-eabi/include/c++/10.2.1/bits/stl_algobase.h ****   /**
 574:/home/hubert/daisy/gcc/arm-none-eabi/include/c++/10.2.1/bits/stl_algobase.h ****    *  @brief Moves the range [first,last) into result.
 575:/home/hubert/daisy/gcc/arm-none-eabi/include/c++/10.2.1/bits/stl_algobase.h ****    *  @ingroup mutating_algorithms
 576:/home/hubert/daisy/gcc/arm-none-eabi/include/c++/10.2.1/bits/stl_algobase.h ****    *  @param  __first  An input iterator.
 577:/home/hubert/daisy/gcc/arm-none-eabi/include/c++/10.2.1/bits/stl_algobase.h ****    *  @param  __last   An input iterator.
 578:/home/hubert/daisy/gcc/arm-none-eabi/include/c++/10.2.1/bits/stl_algobase.h ****    *  @param  __result An output iterator.
 579:/home/hubert/daisy/gcc/arm-none-eabi/include/c++/10.2.1/bits/stl_algobase.h ****    *  @return   result + (last - first)
 580:/home/hubert/daisy/gcc/arm-none-eabi/include/c++/10.2.1/bits/stl_algobase.h ****    *
ARM GAS  /tmp/ccqtC9dg.s 			page 61


 581:/home/hubert/daisy/gcc/arm-none-eabi/include/c++/10.2.1/bits/stl_algobase.h ****    *  This inline function will boil down to a call to @c memmove whenever
 582:/home/hubert/daisy/gcc/arm-none-eabi/include/c++/10.2.1/bits/stl_algobase.h ****    *  possible.  Failing that, if random access iterators are passed, then the
 583:/home/hubert/daisy/gcc/arm-none-eabi/include/c++/10.2.1/bits/stl_algobase.h ****    *  loop count will be known (and therefore a candidate for compiler
 584:/home/hubert/daisy/gcc/arm-none-eabi/include/c++/10.2.1/bits/stl_algobase.h ****    *  optimizations such as unrolling).  Result may not be contained within
 585:/home/hubert/daisy/gcc/arm-none-eabi/include/c++/10.2.1/bits/stl_algobase.h ****    *  [first,last); the move_backward function should be used instead.
 586:/home/hubert/daisy/gcc/arm-none-eabi/include/c++/10.2.1/bits/stl_algobase.h ****    *
 587:/home/hubert/daisy/gcc/arm-none-eabi/include/c++/10.2.1/bits/stl_algobase.h ****    *  Note that the end of the output range is permitted to be contained
 588:/home/hubert/daisy/gcc/arm-none-eabi/include/c++/10.2.1/bits/stl_algobase.h ****    *  within [first,last).
 589:/home/hubert/daisy/gcc/arm-none-eabi/include/c++/10.2.1/bits/stl_algobase.h ****   */
 590:/home/hubert/daisy/gcc/arm-none-eabi/include/c++/10.2.1/bits/stl_algobase.h ****   template<typename _II, typename _OI>
 591:/home/hubert/daisy/gcc/arm-none-eabi/include/c++/10.2.1/bits/stl_algobase.h ****     _GLIBCXX20_CONSTEXPR
 592:/home/hubert/daisy/gcc/arm-none-eabi/include/c++/10.2.1/bits/stl_algobase.h ****     inline _OI
 593:/home/hubert/daisy/gcc/arm-none-eabi/include/c++/10.2.1/bits/stl_algobase.h ****     move(_II __first, _II __last, _OI __result)
 594:/home/hubert/daisy/gcc/arm-none-eabi/include/c++/10.2.1/bits/stl_algobase.h ****     {
 595:/home/hubert/daisy/gcc/arm-none-eabi/include/c++/10.2.1/bits/stl_algobase.h ****       // concept requirements
 596:/home/hubert/daisy/gcc/arm-none-eabi/include/c++/10.2.1/bits/stl_algobase.h ****       __glibcxx_function_requires(_InputIteratorConcept<_II>)
 597:/home/hubert/daisy/gcc/arm-none-eabi/include/c++/10.2.1/bits/stl_algobase.h ****       __glibcxx_function_requires(_OutputIteratorConcept<_OI,
 598:/home/hubert/daisy/gcc/arm-none-eabi/include/c++/10.2.1/bits/stl_algobase.h **** 	    typename iterator_traits<_II>::value_type>)
 599:/home/hubert/daisy/gcc/arm-none-eabi/include/c++/10.2.1/bits/stl_algobase.h ****       __glibcxx_requires_can_increment_range(__first, __last, __result);
 600:/home/hubert/daisy/gcc/arm-none-eabi/include/c++/10.2.1/bits/stl_algobase.h **** 
 601:/home/hubert/daisy/gcc/arm-none-eabi/include/c++/10.2.1/bits/stl_algobase.h ****       return std::__copy_move_a<true>(std::__miter_base(__first),
 602:/home/hubert/daisy/gcc/arm-none-eabi/include/c++/10.2.1/bits/stl_algobase.h **** 				      std::__miter_base(__last), __result);
 603:/home/hubert/daisy/gcc/arm-none-eabi/include/c++/10.2.1/bits/stl_algobase.h ****     }
 604:/home/hubert/daisy/gcc/arm-none-eabi/include/c++/10.2.1/bits/stl_algobase.h **** 
 605:/home/hubert/daisy/gcc/arm-none-eabi/include/c++/10.2.1/bits/stl_algobase.h **** #define _GLIBCXX_MOVE3(_Tp, _Up, _Vp) std::move(_Tp, _Up, _Vp)
 606:/home/hubert/daisy/gcc/arm-none-eabi/include/c++/10.2.1/bits/stl_algobase.h **** #else
 607:/home/hubert/daisy/gcc/arm-none-eabi/include/c++/10.2.1/bits/stl_algobase.h **** #define _GLIBCXX_MOVE3(_Tp, _Up, _Vp) std::copy(_Tp, _Up, _Vp)
 608:/home/hubert/daisy/gcc/arm-none-eabi/include/c++/10.2.1/bits/stl_algobase.h **** #endif
 609:/home/hubert/daisy/gcc/arm-none-eabi/include/c++/10.2.1/bits/stl_algobase.h **** 
 610:/home/hubert/daisy/gcc/arm-none-eabi/include/c++/10.2.1/bits/stl_algobase.h ****   template<bool _IsMove, bool _IsSimple, typename _Category>
 611:/home/hubert/daisy/gcc/arm-none-eabi/include/c++/10.2.1/bits/stl_algobase.h ****     struct __copy_move_backward
 612:/home/hubert/daisy/gcc/arm-none-eabi/include/c++/10.2.1/bits/stl_algobase.h ****     {
 613:/home/hubert/daisy/gcc/arm-none-eabi/include/c++/10.2.1/bits/stl_algobase.h ****       template<typename _BI1, typename _BI2>
 614:/home/hubert/daisy/gcc/arm-none-eabi/include/c++/10.2.1/bits/stl_algobase.h **** 	_GLIBCXX20_CONSTEXPR
 615:/home/hubert/daisy/gcc/arm-none-eabi/include/c++/10.2.1/bits/stl_algobase.h **** 	static _BI2
 616:/home/hubert/daisy/gcc/arm-none-eabi/include/c++/10.2.1/bits/stl_algobase.h **** 	__copy_move_b(_BI1 __first, _BI1 __last, _BI2 __result)
 617:/home/hubert/daisy/gcc/arm-none-eabi/include/c++/10.2.1/bits/stl_algobase.h **** 	{
 618:/home/hubert/daisy/gcc/arm-none-eabi/include/c++/10.2.1/bits/stl_algobase.h **** 	  while (__first != __last)
 619:/home/hubert/daisy/gcc/arm-none-eabi/include/c++/10.2.1/bits/stl_algobase.h **** 	    *--__result = *--__last;
 620:/home/hubert/daisy/gcc/arm-none-eabi/include/c++/10.2.1/bits/stl_algobase.h **** 	  return __result;
 621:/home/hubert/daisy/gcc/arm-none-eabi/include/c++/10.2.1/bits/stl_algobase.h **** 	}
 622:/home/hubert/daisy/gcc/arm-none-eabi/include/c++/10.2.1/bits/stl_algobase.h ****     };
 623:/home/hubert/daisy/gcc/arm-none-eabi/include/c++/10.2.1/bits/stl_algobase.h **** 
 624:/home/hubert/daisy/gcc/arm-none-eabi/include/c++/10.2.1/bits/stl_algobase.h **** #if __cplusplus >= 201103L
 625:/home/hubert/daisy/gcc/arm-none-eabi/include/c++/10.2.1/bits/stl_algobase.h ****   template<typename _Category>
 626:/home/hubert/daisy/gcc/arm-none-eabi/include/c++/10.2.1/bits/stl_algobase.h ****     struct __copy_move_backward<true, false, _Category>
 627:/home/hubert/daisy/gcc/arm-none-eabi/include/c++/10.2.1/bits/stl_algobase.h ****     {
 628:/home/hubert/daisy/gcc/arm-none-eabi/include/c++/10.2.1/bits/stl_algobase.h ****       template<typename _BI1, typename _BI2>
 629:/home/hubert/daisy/gcc/arm-none-eabi/include/c++/10.2.1/bits/stl_algobase.h **** 	_GLIBCXX20_CONSTEXPR
 630:/home/hubert/daisy/gcc/arm-none-eabi/include/c++/10.2.1/bits/stl_algobase.h **** 	static _BI2
 631:/home/hubert/daisy/gcc/arm-none-eabi/include/c++/10.2.1/bits/stl_algobase.h **** 	__copy_move_b(_BI1 __first, _BI1 __last, _BI2 __result)
 632:/home/hubert/daisy/gcc/arm-none-eabi/include/c++/10.2.1/bits/stl_algobase.h **** 	{
 633:/home/hubert/daisy/gcc/arm-none-eabi/include/c++/10.2.1/bits/stl_algobase.h **** 	  while (__first != __last)
 634:/home/hubert/daisy/gcc/arm-none-eabi/include/c++/10.2.1/bits/stl_algobase.h **** 	    *--__result = std::move(*--__last);
 635:/home/hubert/daisy/gcc/arm-none-eabi/include/c++/10.2.1/bits/stl_algobase.h **** 	  return __result;
 636:/home/hubert/daisy/gcc/arm-none-eabi/include/c++/10.2.1/bits/stl_algobase.h **** 	}
 637:/home/hubert/daisy/gcc/arm-none-eabi/include/c++/10.2.1/bits/stl_algobase.h ****     };
ARM GAS  /tmp/ccqtC9dg.s 			page 62


 638:/home/hubert/daisy/gcc/arm-none-eabi/include/c++/10.2.1/bits/stl_algobase.h **** #endif
 639:/home/hubert/daisy/gcc/arm-none-eabi/include/c++/10.2.1/bits/stl_algobase.h **** 
 640:/home/hubert/daisy/gcc/arm-none-eabi/include/c++/10.2.1/bits/stl_algobase.h ****   template<>
 641:/home/hubert/daisy/gcc/arm-none-eabi/include/c++/10.2.1/bits/stl_algobase.h ****     struct __copy_move_backward<false, false, random_access_iterator_tag>
 642:/home/hubert/daisy/gcc/arm-none-eabi/include/c++/10.2.1/bits/stl_algobase.h ****     {
 643:/home/hubert/daisy/gcc/arm-none-eabi/include/c++/10.2.1/bits/stl_algobase.h ****       template<typename _BI1, typename _BI2>
 644:/home/hubert/daisy/gcc/arm-none-eabi/include/c++/10.2.1/bits/stl_algobase.h **** 	_GLIBCXX20_CONSTEXPR
 645:/home/hubert/daisy/gcc/arm-none-eabi/include/c++/10.2.1/bits/stl_algobase.h **** 	static _BI2
 646:/home/hubert/daisy/gcc/arm-none-eabi/include/c++/10.2.1/bits/stl_algobase.h **** 	__copy_move_b(_BI1 __first, _BI1 __last, _BI2 __result)
 647:/home/hubert/daisy/gcc/arm-none-eabi/include/c++/10.2.1/bits/stl_algobase.h **** 	{
 648:/home/hubert/daisy/gcc/arm-none-eabi/include/c++/10.2.1/bits/stl_algobase.h **** 	  typename iterator_traits<_BI1>::difference_type
 649:/home/hubert/daisy/gcc/arm-none-eabi/include/c++/10.2.1/bits/stl_algobase.h **** 	    __n = __last - __first;
 650:/home/hubert/daisy/gcc/arm-none-eabi/include/c++/10.2.1/bits/stl_algobase.h **** 	  for (; __n > 0; --__n)
 651:/home/hubert/daisy/gcc/arm-none-eabi/include/c++/10.2.1/bits/stl_algobase.h **** 	    *--__result = *--__last;
 652:/home/hubert/daisy/gcc/arm-none-eabi/include/c++/10.2.1/bits/stl_algobase.h **** 	  return __result;
 653:/home/hubert/daisy/gcc/arm-none-eabi/include/c++/10.2.1/bits/stl_algobase.h **** 	}
 654:/home/hubert/daisy/gcc/arm-none-eabi/include/c++/10.2.1/bits/stl_algobase.h ****     };
 655:/home/hubert/daisy/gcc/arm-none-eabi/include/c++/10.2.1/bits/stl_algobase.h **** 
 656:/home/hubert/daisy/gcc/arm-none-eabi/include/c++/10.2.1/bits/stl_algobase.h **** #if __cplusplus >= 201103L
 657:/home/hubert/daisy/gcc/arm-none-eabi/include/c++/10.2.1/bits/stl_algobase.h ****   template<>
 658:/home/hubert/daisy/gcc/arm-none-eabi/include/c++/10.2.1/bits/stl_algobase.h ****     struct __copy_move_backward<true, false, random_access_iterator_tag>
 659:/home/hubert/daisy/gcc/arm-none-eabi/include/c++/10.2.1/bits/stl_algobase.h ****     {
 660:/home/hubert/daisy/gcc/arm-none-eabi/include/c++/10.2.1/bits/stl_algobase.h ****       template<typename _BI1, typename _BI2>
 661:/home/hubert/daisy/gcc/arm-none-eabi/include/c++/10.2.1/bits/stl_algobase.h **** 	_GLIBCXX20_CONSTEXPR
 662:/home/hubert/daisy/gcc/arm-none-eabi/include/c++/10.2.1/bits/stl_algobase.h **** 	static _BI2
 663:/home/hubert/daisy/gcc/arm-none-eabi/include/c++/10.2.1/bits/stl_algobase.h **** 	__copy_move_b(_BI1 __first, _BI1 __last, _BI2 __result)
 664:/home/hubert/daisy/gcc/arm-none-eabi/include/c++/10.2.1/bits/stl_algobase.h **** 	{
 665:/home/hubert/daisy/gcc/arm-none-eabi/include/c++/10.2.1/bits/stl_algobase.h **** 	  typename iterator_traits<_BI1>::difference_type
 666:/home/hubert/daisy/gcc/arm-none-eabi/include/c++/10.2.1/bits/stl_algobase.h **** 	    __n = __last - __first;
 667:/home/hubert/daisy/gcc/arm-none-eabi/include/c++/10.2.1/bits/stl_algobase.h **** 	  for (; __n > 0; --__n)
 668:/home/hubert/daisy/gcc/arm-none-eabi/include/c++/10.2.1/bits/stl_algobase.h **** 	    *--__result = std::move(*--__last);
 669:/home/hubert/daisy/gcc/arm-none-eabi/include/c++/10.2.1/bits/stl_algobase.h **** 	  return __result;
 670:/home/hubert/daisy/gcc/arm-none-eabi/include/c++/10.2.1/bits/stl_algobase.h **** 	}
 671:/home/hubert/daisy/gcc/arm-none-eabi/include/c++/10.2.1/bits/stl_algobase.h ****     };
 672:/home/hubert/daisy/gcc/arm-none-eabi/include/c++/10.2.1/bits/stl_algobase.h **** #endif
 673:/home/hubert/daisy/gcc/arm-none-eabi/include/c++/10.2.1/bits/stl_algobase.h **** 
 674:/home/hubert/daisy/gcc/arm-none-eabi/include/c++/10.2.1/bits/stl_algobase.h ****   template<bool _IsMove>
 675:/home/hubert/daisy/gcc/arm-none-eabi/include/c++/10.2.1/bits/stl_algobase.h ****     struct __copy_move_backward<_IsMove, true, random_access_iterator_tag>
 676:/home/hubert/daisy/gcc/arm-none-eabi/include/c++/10.2.1/bits/stl_algobase.h ****     {
 677:/home/hubert/daisy/gcc/arm-none-eabi/include/c++/10.2.1/bits/stl_algobase.h ****       template<typename _Tp>
 678:/home/hubert/daisy/gcc/arm-none-eabi/include/c++/10.2.1/bits/stl_algobase.h **** 	_GLIBCXX20_CONSTEXPR
 679:/home/hubert/daisy/gcc/arm-none-eabi/include/c++/10.2.1/bits/stl_algobase.h **** 	static _Tp*
 680:/home/hubert/daisy/gcc/arm-none-eabi/include/c++/10.2.1/bits/stl_algobase.h **** 	__copy_move_b(const _Tp* __first, const _Tp* __last, _Tp* __result)
 681:/home/hubert/daisy/gcc/arm-none-eabi/include/c++/10.2.1/bits/stl_algobase.h **** 	{
 682:/home/hubert/daisy/gcc/arm-none-eabi/include/c++/10.2.1/bits/stl_algobase.h **** #if __cplusplus >= 201103L
 683:/home/hubert/daisy/gcc/arm-none-eabi/include/c++/10.2.1/bits/stl_algobase.h **** 	  using __assignable = conditional<_IsMove,
 684:/home/hubert/daisy/gcc/arm-none-eabi/include/c++/10.2.1/bits/stl_algobase.h **** 					   is_move_assignable<_Tp>,
 685:/home/hubert/daisy/gcc/arm-none-eabi/include/c++/10.2.1/bits/stl_algobase.h **** 					   is_copy_assignable<_Tp>>;
 686:/home/hubert/daisy/gcc/arm-none-eabi/include/c++/10.2.1/bits/stl_algobase.h **** 	  // trivial types can have deleted assignment
 687:/home/hubert/daisy/gcc/arm-none-eabi/include/c++/10.2.1/bits/stl_algobase.h **** 	  static_assert( __assignable::type::value, "type is not assignable" );
 688:/home/hubert/daisy/gcc/arm-none-eabi/include/c++/10.2.1/bits/stl_algobase.h **** #endif
 689:/home/hubert/daisy/gcc/arm-none-eabi/include/c++/10.2.1/bits/stl_algobase.h **** 	  const ptrdiff_t _Num = __last - __first;
 690:/home/hubert/daisy/gcc/arm-none-eabi/include/c++/10.2.1/bits/stl_algobase.h **** 	  if (_Num)
 691:/home/hubert/daisy/gcc/arm-none-eabi/include/c++/10.2.1/bits/stl_algobase.h **** 	    __builtin_memmove(__result - _Num, __first, sizeof(_Tp) * _Num);
 692:/home/hubert/daisy/gcc/arm-none-eabi/include/c++/10.2.1/bits/stl_algobase.h **** 	  return __result - _Num;
 693:/home/hubert/daisy/gcc/arm-none-eabi/include/c++/10.2.1/bits/stl_algobase.h **** 	}
 694:/home/hubert/daisy/gcc/arm-none-eabi/include/c++/10.2.1/bits/stl_algobase.h ****     };
ARM GAS  /tmp/ccqtC9dg.s 			page 63


 695:/home/hubert/daisy/gcc/arm-none-eabi/include/c++/10.2.1/bits/stl_algobase.h **** 
 696:/home/hubert/daisy/gcc/arm-none-eabi/include/c++/10.2.1/bits/stl_algobase.h ****   template<bool _IsMove, typename _BI1, typename _BI2>
 697:/home/hubert/daisy/gcc/arm-none-eabi/include/c++/10.2.1/bits/stl_algobase.h ****     _GLIBCXX20_CONSTEXPR
 698:/home/hubert/daisy/gcc/arm-none-eabi/include/c++/10.2.1/bits/stl_algobase.h ****     inline _BI2
 699:/home/hubert/daisy/gcc/arm-none-eabi/include/c++/10.2.1/bits/stl_algobase.h ****     __copy_move_backward_a2(_BI1 __first, _BI1 __last, _BI2 __result)
 700:/home/hubert/daisy/gcc/arm-none-eabi/include/c++/10.2.1/bits/stl_algobase.h ****     {
 701:/home/hubert/daisy/gcc/arm-none-eabi/include/c++/10.2.1/bits/stl_algobase.h ****       typedef typename iterator_traits<_BI1>::iterator_category _Category;
 702:/home/hubert/daisy/gcc/arm-none-eabi/include/c++/10.2.1/bits/stl_algobase.h **** #ifdef __cpp_lib_is_constant_evaluated
 703:/home/hubert/daisy/gcc/arm-none-eabi/include/c++/10.2.1/bits/stl_algobase.h ****       if (std::is_constant_evaluated())
 704:/home/hubert/daisy/gcc/arm-none-eabi/include/c++/10.2.1/bits/stl_algobase.h **** 	return std::__copy_move_backward<_IsMove, false, _Category>::
 705:/home/hubert/daisy/gcc/arm-none-eabi/include/c++/10.2.1/bits/stl_algobase.h **** 	  __copy_move_b(__first, __last, __result);
 706:/home/hubert/daisy/gcc/arm-none-eabi/include/c++/10.2.1/bits/stl_algobase.h **** #endif
 707:/home/hubert/daisy/gcc/arm-none-eabi/include/c++/10.2.1/bits/stl_algobase.h ****       return std::__copy_move_backward<_IsMove,
 708:/home/hubert/daisy/gcc/arm-none-eabi/include/c++/10.2.1/bits/stl_algobase.h **** 				       __memcpyable<_BI2, _BI1>::__value,
 709:/home/hubert/daisy/gcc/arm-none-eabi/include/c++/10.2.1/bits/stl_algobase.h **** 				       _Category>::__copy_move_b(__first,
 710:/home/hubert/daisy/gcc/arm-none-eabi/include/c++/10.2.1/bits/stl_algobase.h **** 								 __last,
 711:/home/hubert/daisy/gcc/arm-none-eabi/include/c++/10.2.1/bits/stl_algobase.h **** 								 __result);
 712:/home/hubert/daisy/gcc/arm-none-eabi/include/c++/10.2.1/bits/stl_algobase.h ****     }
 713:/home/hubert/daisy/gcc/arm-none-eabi/include/c++/10.2.1/bits/stl_algobase.h **** 
 714:/home/hubert/daisy/gcc/arm-none-eabi/include/c++/10.2.1/bits/stl_algobase.h ****   template<bool _IsMove, typename _BI1, typename _BI2>
 715:/home/hubert/daisy/gcc/arm-none-eabi/include/c++/10.2.1/bits/stl_algobase.h ****     _GLIBCXX20_CONSTEXPR
 716:/home/hubert/daisy/gcc/arm-none-eabi/include/c++/10.2.1/bits/stl_algobase.h ****     inline _BI2
 717:/home/hubert/daisy/gcc/arm-none-eabi/include/c++/10.2.1/bits/stl_algobase.h ****     __copy_move_backward_a1(_BI1 __first, _BI1 __last, _BI2 __result)
 718:/home/hubert/daisy/gcc/arm-none-eabi/include/c++/10.2.1/bits/stl_algobase.h ****     { return std::__copy_move_backward_a2<_IsMove>(__first, __last, __result); }
 719:/home/hubert/daisy/gcc/arm-none-eabi/include/c++/10.2.1/bits/stl_algobase.h **** 
 720:/home/hubert/daisy/gcc/arm-none-eabi/include/c++/10.2.1/bits/stl_algobase.h ****   template<bool _IsMove,
 721:/home/hubert/daisy/gcc/arm-none-eabi/include/c++/10.2.1/bits/stl_algobase.h **** 	   typename _Tp, typename _Ref, typename _Ptr, typename _OI>
 722:/home/hubert/daisy/gcc/arm-none-eabi/include/c++/10.2.1/bits/stl_algobase.h ****     _OI
 723:/home/hubert/daisy/gcc/arm-none-eabi/include/c++/10.2.1/bits/stl_algobase.h ****     __copy_move_backward_a1(_GLIBCXX_STD_C::_Deque_iterator<_Tp, _Ref, _Ptr>,
 724:/home/hubert/daisy/gcc/arm-none-eabi/include/c++/10.2.1/bits/stl_algobase.h **** 			    _GLIBCXX_STD_C::_Deque_iterator<_Tp, _Ref, _Ptr>,
 725:/home/hubert/daisy/gcc/arm-none-eabi/include/c++/10.2.1/bits/stl_algobase.h **** 			    _OI);
 726:/home/hubert/daisy/gcc/arm-none-eabi/include/c++/10.2.1/bits/stl_algobase.h **** 
 727:/home/hubert/daisy/gcc/arm-none-eabi/include/c++/10.2.1/bits/stl_algobase.h ****   template<bool _IsMove,
 728:/home/hubert/daisy/gcc/arm-none-eabi/include/c++/10.2.1/bits/stl_algobase.h **** 	   typename _ITp, typename _IRef, typename _IPtr, typename _OTp>
 729:/home/hubert/daisy/gcc/arm-none-eabi/include/c++/10.2.1/bits/stl_algobase.h ****     _GLIBCXX_STD_C::_Deque_iterator<_OTp, _OTp&, _OTp*>
 730:/home/hubert/daisy/gcc/arm-none-eabi/include/c++/10.2.1/bits/stl_algobase.h ****     __copy_move_backward_a1(
 731:/home/hubert/daisy/gcc/arm-none-eabi/include/c++/10.2.1/bits/stl_algobase.h **** 			_GLIBCXX_STD_C::_Deque_iterator<_ITp, _IRef, _IPtr>,
 732:/home/hubert/daisy/gcc/arm-none-eabi/include/c++/10.2.1/bits/stl_algobase.h **** 			_GLIBCXX_STD_C::_Deque_iterator<_ITp, _IRef, _IPtr>,
 733:/home/hubert/daisy/gcc/arm-none-eabi/include/c++/10.2.1/bits/stl_algobase.h **** 			_GLIBCXX_STD_C::_Deque_iterator<_OTp, _OTp&, _OTp*>);
 734:/home/hubert/daisy/gcc/arm-none-eabi/include/c++/10.2.1/bits/stl_algobase.h **** 
 735:/home/hubert/daisy/gcc/arm-none-eabi/include/c++/10.2.1/bits/stl_algobase.h ****   template<bool _IsMove, typename _II, typename _Tp>
 736:/home/hubert/daisy/gcc/arm-none-eabi/include/c++/10.2.1/bits/stl_algobase.h ****     typename __gnu_cxx::__enable_if<
 737:/home/hubert/daisy/gcc/arm-none-eabi/include/c++/10.2.1/bits/stl_algobase.h ****       __is_random_access_iter<_II>::__value,
 738:/home/hubert/daisy/gcc/arm-none-eabi/include/c++/10.2.1/bits/stl_algobase.h ****       _GLIBCXX_STD_C::_Deque_iterator<_Tp, _Tp&, _Tp*> >::__type
 739:/home/hubert/daisy/gcc/arm-none-eabi/include/c++/10.2.1/bits/stl_algobase.h ****     __copy_move_backward_a1(_II, _II,
 740:/home/hubert/daisy/gcc/arm-none-eabi/include/c++/10.2.1/bits/stl_algobase.h **** 			    _GLIBCXX_STD_C::_Deque_iterator<_Tp, _Tp&, _Tp*>);
 741:/home/hubert/daisy/gcc/arm-none-eabi/include/c++/10.2.1/bits/stl_algobase.h **** 
 742:/home/hubert/daisy/gcc/arm-none-eabi/include/c++/10.2.1/bits/stl_algobase.h ****   template<bool _IsMove, typename _II, typename _OI>
 743:/home/hubert/daisy/gcc/arm-none-eabi/include/c++/10.2.1/bits/stl_algobase.h ****     _GLIBCXX20_CONSTEXPR
 744:/home/hubert/daisy/gcc/arm-none-eabi/include/c++/10.2.1/bits/stl_algobase.h ****     inline _OI
 745:/home/hubert/daisy/gcc/arm-none-eabi/include/c++/10.2.1/bits/stl_algobase.h ****     __copy_move_backward_a(_II __first, _II __last, _OI __result)
 746:/home/hubert/daisy/gcc/arm-none-eabi/include/c++/10.2.1/bits/stl_algobase.h ****     {
 747:/home/hubert/daisy/gcc/arm-none-eabi/include/c++/10.2.1/bits/stl_algobase.h ****       return std::__niter_wrap(__result,
 748:/home/hubert/daisy/gcc/arm-none-eabi/include/c++/10.2.1/bits/stl_algobase.h **** 		std::__copy_move_backward_a1<_IsMove>
 749:/home/hubert/daisy/gcc/arm-none-eabi/include/c++/10.2.1/bits/stl_algobase.h **** 		  (std::__niter_base(__first), std::__niter_base(__last),
 750:/home/hubert/daisy/gcc/arm-none-eabi/include/c++/10.2.1/bits/stl_algobase.h **** 		   std::__niter_base(__result)));
 751:/home/hubert/daisy/gcc/arm-none-eabi/include/c++/10.2.1/bits/stl_algobase.h ****     }
ARM GAS  /tmp/ccqtC9dg.s 			page 64


 752:/home/hubert/daisy/gcc/arm-none-eabi/include/c++/10.2.1/bits/stl_algobase.h **** 
 753:/home/hubert/daisy/gcc/arm-none-eabi/include/c++/10.2.1/bits/stl_algobase.h ****   template<bool _IsMove,
 754:/home/hubert/daisy/gcc/arm-none-eabi/include/c++/10.2.1/bits/stl_algobase.h **** 	   typename _Ite, typename _Seq, typename _Cat, typename _OI>
 755:/home/hubert/daisy/gcc/arm-none-eabi/include/c++/10.2.1/bits/stl_algobase.h ****     _OI
 756:/home/hubert/daisy/gcc/arm-none-eabi/include/c++/10.2.1/bits/stl_algobase.h ****     __copy_move_backward_a(
 757:/home/hubert/daisy/gcc/arm-none-eabi/include/c++/10.2.1/bits/stl_algobase.h **** 		const ::__gnu_debug::_Safe_iterator<_Ite, _Seq, _Cat>&,
 758:/home/hubert/daisy/gcc/arm-none-eabi/include/c++/10.2.1/bits/stl_algobase.h **** 		const ::__gnu_debug::_Safe_iterator<_Ite, _Seq, _Cat>&,
 759:/home/hubert/daisy/gcc/arm-none-eabi/include/c++/10.2.1/bits/stl_algobase.h **** 		_OI);
 760:/home/hubert/daisy/gcc/arm-none-eabi/include/c++/10.2.1/bits/stl_algobase.h **** 
 761:/home/hubert/daisy/gcc/arm-none-eabi/include/c++/10.2.1/bits/stl_algobase.h ****   template<bool _IsMove,
 762:/home/hubert/daisy/gcc/arm-none-eabi/include/c++/10.2.1/bits/stl_algobase.h **** 	   typename _II, typename _Ite, typename _Seq, typename _Cat>
 763:/home/hubert/daisy/gcc/arm-none-eabi/include/c++/10.2.1/bits/stl_algobase.h ****     __gnu_debug::_Safe_iterator<_Ite, _Seq, _Cat>
 764:/home/hubert/daisy/gcc/arm-none-eabi/include/c++/10.2.1/bits/stl_algobase.h ****     __copy_move_backward_a(_II, _II,
 765:/home/hubert/daisy/gcc/arm-none-eabi/include/c++/10.2.1/bits/stl_algobase.h **** 		const ::__gnu_debug::_Safe_iterator<_Ite, _Seq, _Cat>&);
 766:/home/hubert/daisy/gcc/arm-none-eabi/include/c++/10.2.1/bits/stl_algobase.h **** 
 767:/home/hubert/daisy/gcc/arm-none-eabi/include/c++/10.2.1/bits/stl_algobase.h ****   template<bool _IsMove,
 768:/home/hubert/daisy/gcc/arm-none-eabi/include/c++/10.2.1/bits/stl_algobase.h **** 	   typename _IIte, typename _ISeq, typename _ICat,
 769:/home/hubert/daisy/gcc/arm-none-eabi/include/c++/10.2.1/bits/stl_algobase.h **** 	   typename _OIte, typename _OSeq, typename _OCat>
 770:/home/hubert/daisy/gcc/arm-none-eabi/include/c++/10.2.1/bits/stl_algobase.h ****     ::__gnu_debug::_Safe_iterator<_OIte, _OSeq, _OCat>
 771:/home/hubert/daisy/gcc/arm-none-eabi/include/c++/10.2.1/bits/stl_algobase.h ****     __copy_move_backward_a(
 772:/home/hubert/daisy/gcc/arm-none-eabi/include/c++/10.2.1/bits/stl_algobase.h **** 		const ::__gnu_debug::_Safe_iterator<_IIte, _ISeq, _ICat>&,
 773:/home/hubert/daisy/gcc/arm-none-eabi/include/c++/10.2.1/bits/stl_algobase.h **** 		const ::__gnu_debug::_Safe_iterator<_IIte, _ISeq, _ICat>&,
 774:/home/hubert/daisy/gcc/arm-none-eabi/include/c++/10.2.1/bits/stl_algobase.h **** 		const ::__gnu_debug::_Safe_iterator<_OIte, _OSeq, _OCat>&);
 775:/home/hubert/daisy/gcc/arm-none-eabi/include/c++/10.2.1/bits/stl_algobase.h **** 
 776:/home/hubert/daisy/gcc/arm-none-eabi/include/c++/10.2.1/bits/stl_algobase.h ****   /**
 777:/home/hubert/daisy/gcc/arm-none-eabi/include/c++/10.2.1/bits/stl_algobase.h ****    *  @brief Copies the range [first,last) into result.
 778:/home/hubert/daisy/gcc/arm-none-eabi/include/c++/10.2.1/bits/stl_algobase.h ****    *  @ingroup mutating_algorithms
 779:/home/hubert/daisy/gcc/arm-none-eabi/include/c++/10.2.1/bits/stl_algobase.h ****    *  @param  __first  A bidirectional iterator.
 780:/home/hubert/daisy/gcc/arm-none-eabi/include/c++/10.2.1/bits/stl_algobase.h ****    *  @param  __last   A bidirectional iterator.
 781:/home/hubert/daisy/gcc/arm-none-eabi/include/c++/10.2.1/bits/stl_algobase.h ****    *  @param  __result A bidirectional iterator.
 782:/home/hubert/daisy/gcc/arm-none-eabi/include/c++/10.2.1/bits/stl_algobase.h ****    *  @return   result - (last - first)
 783:/home/hubert/daisy/gcc/arm-none-eabi/include/c++/10.2.1/bits/stl_algobase.h ****    *
 784:/home/hubert/daisy/gcc/arm-none-eabi/include/c++/10.2.1/bits/stl_algobase.h ****    *  The function has the same effect as copy, but starts at the end of the
 785:/home/hubert/daisy/gcc/arm-none-eabi/include/c++/10.2.1/bits/stl_algobase.h ****    *  range and works its way to the start, returning the start of the result.
 786:/home/hubert/daisy/gcc/arm-none-eabi/include/c++/10.2.1/bits/stl_algobase.h ****    *  This inline function will boil down to a call to @c memmove whenever
 787:/home/hubert/daisy/gcc/arm-none-eabi/include/c++/10.2.1/bits/stl_algobase.h ****    *  possible.  Failing that, if random access iterators are passed, then the
 788:/home/hubert/daisy/gcc/arm-none-eabi/include/c++/10.2.1/bits/stl_algobase.h ****    *  loop count will be known (and therefore a candidate for compiler
 789:/home/hubert/daisy/gcc/arm-none-eabi/include/c++/10.2.1/bits/stl_algobase.h ****    *  optimizations such as unrolling).
 790:/home/hubert/daisy/gcc/arm-none-eabi/include/c++/10.2.1/bits/stl_algobase.h ****    *
 791:/home/hubert/daisy/gcc/arm-none-eabi/include/c++/10.2.1/bits/stl_algobase.h ****    *  Result may not be in the range (first,last].  Use copy instead.  Note
 792:/home/hubert/daisy/gcc/arm-none-eabi/include/c++/10.2.1/bits/stl_algobase.h ****    *  that the start of the output range may overlap [first,last).
 793:/home/hubert/daisy/gcc/arm-none-eabi/include/c++/10.2.1/bits/stl_algobase.h ****   */
 794:/home/hubert/daisy/gcc/arm-none-eabi/include/c++/10.2.1/bits/stl_algobase.h ****   template<typename _BI1, typename _BI2>
 795:/home/hubert/daisy/gcc/arm-none-eabi/include/c++/10.2.1/bits/stl_algobase.h ****     _GLIBCXX20_CONSTEXPR
 796:/home/hubert/daisy/gcc/arm-none-eabi/include/c++/10.2.1/bits/stl_algobase.h ****     inline _BI2
 797:/home/hubert/daisy/gcc/arm-none-eabi/include/c++/10.2.1/bits/stl_algobase.h ****     copy_backward(_BI1 __first, _BI1 __last, _BI2 __result)
 798:/home/hubert/daisy/gcc/arm-none-eabi/include/c++/10.2.1/bits/stl_algobase.h ****     {
 799:/home/hubert/daisy/gcc/arm-none-eabi/include/c++/10.2.1/bits/stl_algobase.h ****       // concept requirements
 800:/home/hubert/daisy/gcc/arm-none-eabi/include/c++/10.2.1/bits/stl_algobase.h ****       __glibcxx_function_requires(_BidirectionalIteratorConcept<_BI1>)
 801:/home/hubert/daisy/gcc/arm-none-eabi/include/c++/10.2.1/bits/stl_algobase.h ****       __glibcxx_function_requires(_Mutable_BidirectionalIteratorConcept<_BI2>)
 802:/home/hubert/daisy/gcc/arm-none-eabi/include/c++/10.2.1/bits/stl_algobase.h ****       __glibcxx_function_requires(_ConvertibleConcept<
 803:/home/hubert/daisy/gcc/arm-none-eabi/include/c++/10.2.1/bits/stl_algobase.h **** 	    typename iterator_traits<_BI1>::value_type,
 804:/home/hubert/daisy/gcc/arm-none-eabi/include/c++/10.2.1/bits/stl_algobase.h **** 	    typename iterator_traits<_BI2>::value_type>)
 805:/home/hubert/daisy/gcc/arm-none-eabi/include/c++/10.2.1/bits/stl_algobase.h ****       __glibcxx_requires_can_decrement_range(__first, __last, __result);
 806:/home/hubert/daisy/gcc/arm-none-eabi/include/c++/10.2.1/bits/stl_algobase.h **** 
 807:/home/hubert/daisy/gcc/arm-none-eabi/include/c++/10.2.1/bits/stl_algobase.h ****       return std::__copy_move_backward_a<__is_move_iterator<_BI1>::__value>
 808:/home/hubert/daisy/gcc/arm-none-eabi/include/c++/10.2.1/bits/stl_algobase.h **** 	     (std::__miter_base(__first), std::__miter_base(__last), __result);
ARM GAS  /tmp/ccqtC9dg.s 			page 65


 809:/home/hubert/daisy/gcc/arm-none-eabi/include/c++/10.2.1/bits/stl_algobase.h ****     }
 810:/home/hubert/daisy/gcc/arm-none-eabi/include/c++/10.2.1/bits/stl_algobase.h **** 
 811:/home/hubert/daisy/gcc/arm-none-eabi/include/c++/10.2.1/bits/stl_algobase.h **** #if __cplusplus >= 201103L
 812:/home/hubert/daisy/gcc/arm-none-eabi/include/c++/10.2.1/bits/stl_algobase.h ****   /**
 813:/home/hubert/daisy/gcc/arm-none-eabi/include/c++/10.2.1/bits/stl_algobase.h ****    *  @brief Moves the range [first,last) into result.
 814:/home/hubert/daisy/gcc/arm-none-eabi/include/c++/10.2.1/bits/stl_algobase.h ****    *  @ingroup mutating_algorithms
 815:/home/hubert/daisy/gcc/arm-none-eabi/include/c++/10.2.1/bits/stl_algobase.h ****    *  @param  __first  A bidirectional iterator.
 816:/home/hubert/daisy/gcc/arm-none-eabi/include/c++/10.2.1/bits/stl_algobase.h ****    *  @param  __last   A bidirectional iterator.
 817:/home/hubert/daisy/gcc/arm-none-eabi/include/c++/10.2.1/bits/stl_algobase.h ****    *  @param  __result A bidirectional iterator.
 818:/home/hubert/daisy/gcc/arm-none-eabi/include/c++/10.2.1/bits/stl_algobase.h ****    *  @return   result - (last - first)
 819:/home/hubert/daisy/gcc/arm-none-eabi/include/c++/10.2.1/bits/stl_algobase.h ****    *
 820:/home/hubert/daisy/gcc/arm-none-eabi/include/c++/10.2.1/bits/stl_algobase.h ****    *  The function has the same effect as move, but starts at the end of the
 821:/home/hubert/daisy/gcc/arm-none-eabi/include/c++/10.2.1/bits/stl_algobase.h ****    *  range and works its way to the start, returning the start of the result.
 822:/home/hubert/daisy/gcc/arm-none-eabi/include/c++/10.2.1/bits/stl_algobase.h ****    *  This inline function will boil down to a call to @c memmove whenever
 823:/home/hubert/daisy/gcc/arm-none-eabi/include/c++/10.2.1/bits/stl_algobase.h ****    *  possible.  Failing that, if random access iterators are passed, then the
 824:/home/hubert/daisy/gcc/arm-none-eabi/include/c++/10.2.1/bits/stl_algobase.h ****    *  loop count will be known (and therefore a candidate for compiler
 825:/home/hubert/daisy/gcc/arm-none-eabi/include/c++/10.2.1/bits/stl_algobase.h ****    *  optimizations such as unrolling).
 826:/home/hubert/daisy/gcc/arm-none-eabi/include/c++/10.2.1/bits/stl_algobase.h ****    *
 827:/home/hubert/daisy/gcc/arm-none-eabi/include/c++/10.2.1/bits/stl_algobase.h ****    *  Result may not be in the range (first,last].  Use move instead.  Note
 828:/home/hubert/daisy/gcc/arm-none-eabi/include/c++/10.2.1/bits/stl_algobase.h ****    *  that the start of the output range may overlap [first,last).
 829:/home/hubert/daisy/gcc/arm-none-eabi/include/c++/10.2.1/bits/stl_algobase.h ****   */
 830:/home/hubert/daisy/gcc/arm-none-eabi/include/c++/10.2.1/bits/stl_algobase.h ****   template<typename _BI1, typename _BI2>
 831:/home/hubert/daisy/gcc/arm-none-eabi/include/c++/10.2.1/bits/stl_algobase.h ****     _GLIBCXX20_CONSTEXPR
 832:/home/hubert/daisy/gcc/arm-none-eabi/include/c++/10.2.1/bits/stl_algobase.h ****     inline _BI2
 833:/home/hubert/daisy/gcc/arm-none-eabi/include/c++/10.2.1/bits/stl_algobase.h ****     move_backward(_BI1 __first, _BI1 __last, _BI2 __result)
 834:/home/hubert/daisy/gcc/arm-none-eabi/include/c++/10.2.1/bits/stl_algobase.h ****     {
 835:/home/hubert/daisy/gcc/arm-none-eabi/include/c++/10.2.1/bits/stl_algobase.h ****       // concept requirements
 836:/home/hubert/daisy/gcc/arm-none-eabi/include/c++/10.2.1/bits/stl_algobase.h ****       __glibcxx_function_requires(_BidirectionalIteratorConcept<_BI1>)
 837:/home/hubert/daisy/gcc/arm-none-eabi/include/c++/10.2.1/bits/stl_algobase.h ****       __glibcxx_function_requires(_Mutable_BidirectionalIteratorConcept<_BI2>)
 838:/home/hubert/daisy/gcc/arm-none-eabi/include/c++/10.2.1/bits/stl_algobase.h ****       __glibcxx_function_requires(_ConvertibleConcept<
 839:/home/hubert/daisy/gcc/arm-none-eabi/include/c++/10.2.1/bits/stl_algobase.h **** 	    typename iterator_traits<_BI1>::value_type,
 840:/home/hubert/daisy/gcc/arm-none-eabi/include/c++/10.2.1/bits/stl_algobase.h **** 	    typename iterator_traits<_BI2>::value_type>)
 841:/home/hubert/daisy/gcc/arm-none-eabi/include/c++/10.2.1/bits/stl_algobase.h ****       __glibcxx_requires_can_decrement_range(__first, __last, __result);
 842:/home/hubert/daisy/gcc/arm-none-eabi/include/c++/10.2.1/bits/stl_algobase.h **** 
 843:/home/hubert/daisy/gcc/arm-none-eabi/include/c++/10.2.1/bits/stl_algobase.h ****       return std::__copy_move_backward_a<true>(std::__miter_base(__first),
 844:/home/hubert/daisy/gcc/arm-none-eabi/include/c++/10.2.1/bits/stl_algobase.h **** 					       std::__miter_base(__last),
 845:/home/hubert/daisy/gcc/arm-none-eabi/include/c++/10.2.1/bits/stl_algobase.h **** 					       __result);
 846:/home/hubert/daisy/gcc/arm-none-eabi/include/c++/10.2.1/bits/stl_algobase.h ****     }
 847:/home/hubert/daisy/gcc/arm-none-eabi/include/c++/10.2.1/bits/stl_algobase.h **** 
 848:/home/hubert/daisy/gcc/arm-none-eabi/include/c++/10.2.1/bits/stl_algobase.h **** #define _GLIBCXX_MOVE_BACKWARD3(_Tp, _Up, _Vp) std::move_backward(_Tp, _Up, _Vp)
 849:/home/hubert/daisy/gcc/arm-none-eabi/include/c++/10.2.1/bits/stl_algobase.h **** #else
 850:/home/hubert/daisy/gcc/arm-none-eabi/include/c++/10.2.1/bits/stl_algobase.h **** #define _GLIBCXX_MOVE_BACKWARD3(_Tp, _Up, _Vp) std::copy_backward(_Tp, _Up, _Vp)
 851:/home/hubert/daisy/gcc/arm-none-eabi/include/c++/10.2.1/bits/stl_algobase.h **** #endif
 852:/home/hubert/daisy/gcc/arm-none-eabi/include/c++/10.2.1/bits/stl_algobase.h **** 
 853:/home/hubert/daisy/gcc/arm-none-eabi/include/c++/10.2.1/bits/stl_algobase.h ****   template<typename _ForwardIterator, typename _Tp>
 854:/home/hubert/daisy/gcc/arm-none-eabi/include/c++/10.2.1/bits/stl_algobase.h ****     _GLIBCXX20_CONSTEXPR
 855:/home/hubert/daisy/gcc/arm-none-eabi/include/c++/10.2.1/bits/stl_algobase.h ****     inline typename
 856:/home/hubert/daisy/gcc/arm-none-eabi/include/c++/10.2.1/bits/stl_algobase.h ****     __gnu_cxx::__enable_if<!__is_scalar<_Tp>::__value, void>::__type
 857:/home/hubert/daisy/gcc/arm-none-eabi/include/c++/10.2.1/bits/stl_algobase.h ****     __fill_a1(_ForwardIterator __first, _ForwardIterator __last,
 858:/home/hubert/daisy/gcc/arm-none-eabi/include/c++/10.2.1/bits/stl_algobase.h **** 	      const _Tp& __value)
 859:/home/hubert/daisy/gcc/arm-none-eabi/include/c++/10.2.1/bits/stl_algobase.h ****     {
 860:/home/hubert/daisy/gcc/arm-none-eabi/include/c++/10.2.1/bits/stl_algobase.h ****       for (; __first != __last; ++__first)
 861:/home/hubert/daisy/gcc/arm-none-eabi/include/c++/10.2.1/bits/stl_algobase.h **** 	*__first = __value;
 862:/home/hubert/daisy/gcc/arm-none-eabi/include/c++/10.2.1/bits/stl_algobase.h ****     }
 863:/home/hubert/daisy/gcc/arm-none-eabi/include/c++/10.2.1/bits/stl_algobase.h **** 
 864:/home/hubert/daisy/gcc/arm-none-eabi/include/c++/10.2.1/bits/stl_algobase.h ****   template<typename _ForwardIterator, typename _Tp>
 865:/home/hubert/daisy/gcc/arm-none-eabi/include/c++/10.2.1/bits/stl_algobase.h ****     _GLIBCXX20_CONSTEXPR
ARM GAS  /tmp/ccqtC9dg.s 			page 66


 866:/home/hubert/daisy/gcc/arm-none-eabi/include/c++/10.2.1/bits/stl_algobase.h ****     inline typename
 867:/home/hubert/daisy/gcc/arm-none-eabi/include/c++/10.2.1/bits/stl_algobase.h ****     __gnu_cxx::__enable_if<__is_scalar<_Tp>::__value, void>::__type
 868:/home/hubert/daisy/gcc/arm-none-eabi/include/c++/10.2.1/bits/stl_algobase.h ****     __fill_a1(_ForwardIterator __first, _ForwardIterator __last,
 869:/home/hubert/daisy/gcc/arm-none-eabi/include/c++/10.2.1/bits/stl_algobase.h **** 	      const _Tp& __value)
 870:/home/hubert/daisy/gcc/arm-none-eabi/include/c++/10.2.1/bits/stl_algobase.h ****     {
 871:/home/hubert/daisy/gcc/arm-none-eabi/include/c++/10.2.1/bits/stl_algobase.h ****       const _Tp __tmp = __value;
 872:/home/hubert/daisy/gcc/arm-none-eabi/include/c++/10.2.1/bits/stl_algobase.h ****       for (; __first != __last; ++__first)
 873:/home/hubert/daisy/gcc/arm-none-eabi/include/c++/10.2.1/bits/stl_algobase.h **** 	*__first = __tmp;
 874:/home/hubert/daisy/gcc/arm-none-eabi/include/c++/10.2.1/bits/stl_algobase.h ****     }
 875:/home/hubert/daisy/gcc/arm-none-eabi/include/c++/10.2.1/bits/stl_algobase.h **** 
 876:/home/hubert/daisy/gcc/arm-none-eabi/include/c++/10.2.1/bits/stl_algobase.h ****   // Specialization: for char types we can use memset.
 877:/home/hubert/daisy/gcc/arm-none-eabi/include/c++/10.2.1/bits/stl_algobase.h ****   template<typename _Tp>
 878:/home/hubert/daisy/gcc/arm-none-eabi/include/c++/10.2.1/bits/stl_algobase.h ****     _GLIBCXX20_CONSTEXPR
 879:/home/hubert/daisy/gcc/arm-none-eabi/include/c++/10.2.1/bits/stl_algobase.h ****     inline typename
 880:/home/hubert/daisy/gcc/arm-none-eabi/include/c++/10.2.1/bits/stl_algobase.h ****     __gnu_cxx::__enable_if<__is_byte<_Tp>::__value, void>::__type
 881:/home/hubert/daisy/gcc/arm-none-eabi/include/c++/10.2.1/bits/stl_algobase.h ****     __fill_a1(_Tp* __first, _Tp* __last, const _Tp& __c)
 882:/home/hubert/daisy/gcc/arm-none-eabi/include/c++/10.2.1/bits/stl_algobase.h ****     {
 883:/home/hubert/daisy/gcc/arm-none-eabi/include/c++/10.2.1/bits/stl_algobase.h ****       const _Tp __tmp = __c;
 884:/home/hubert/daisy/gcc/arm-none-eabi/include/c++/10.2.1/bits/stl_algobase.h **** #if __cpp_lib_is_constant_evaluated
 885:/home/hubert/daisy/gcc/arm-none-eabi/include/c++/10.2.1/bits/stl_algobase.h ****       if (std::is_constant_evaluated())
 886:/home/hubert/daisy/gcc/arm-none-eabi/include/c++/10.2.1/bits/stl_algobase.h **** 	{
 887:/home/hubert/daisy/gcc/arm-none-eabi/include/c++/10.2.1/bits/stl_algobase.h **** 	  for (; __first != __last; ++__first)
 888:/home/hubert/daisy/gcc/arm-none-eabi/include/c++/10.2.1/bits/stl_algobase.h **** 	    *__first = __tmp;
 889:/home/hubert/daisy/gcc/arm-none-eabi/include/c++/10.2.1/bits/stl_algobase.h **** 	  return;
 890:/home/hubert/daisy/gcc/arm-none-eabi/include/c++/10.2.1/bits/stl_algobase.h **** 	}
