ARM GAS  /tmp/ccIWsbgU.s 			page 1


   1              		.cpu cortex-m7
   2              		.eabi_attribute 28, 1
   3              		.eabi_attribute 20, 1
   4              		.eabi_attribute 21, 1
   5              		.eabi_attribute 23, 3
   6              		.eabi_attribute 24, 1
   7              		.eabi_attribute 25, 1
   8              		.eabi_attribute 26, 1
   9              		.eabi_attribute 30, 6
  10              		.eabi_attribute 34, 1
  11              		.eabi_attribute 18, 4
  12              		.file	"main.cpp"
  13              		.text
  14              	.Ltext0:
  15              		.cfi_sections	.debug_frame
  16              		.section	.text._ZSt3absf,"axG",%progbits,_ZSt3absf,comdat
  17              		.align	1
  18              		.weak	_ZSt3absf
  19              		.arch armv7e-m
  20              		.syntax unified
  21              		.thumb
  22              		.thumb_func
  23              		.fpu fpv5-d16
  25              	_ZSt3absf:
  26              	.LFB141:
  27              		.file 1 "/home/hubert/daisy/gcc/arm-none-eabi/include/c++/10.2.1/bits/std_abs.h"
   1:/home/hubert/daisy/gcc/arm-none-eabi/include/c++/10.2.1/bits/std_abs.h **** // -*- C++ -*- C library enhancements header.
   2:/home/hubert/daisy/gcc/arm-none-eabi/include/c++/10.2.1/bits/std_abs.h **** 
   3:/home/hubert/daisy/gcc/arm-none-eabi/include/c++/10.2.1/bits/std_abs.h **** // Copyright (C) 2016-2020 Free Software Foundation, Inc.
   4:/home/hubert/daisy/gcc/arm-none-eabi/include/c++/10.2.1/bits/std_abs.h **** //
   5:/home/hubert/daisy/gcc/arm-none-eabi/include/c++/10.2.1/bits/std_abs.h **** // This file is part of the GNU ISO C++ Library.  This library is free
   6:/home/hubert/daisy/gcc/arm-none-eabi/include/c++/10.2.1/bits/std_abs.h **** // software; you can redistribute it and/or modify it under the
   7:/home/hubert/daisy/gcc/arm-none-eabi/include/c++/10.2.1/bits/std_abs.h **** // terms of the GNU General Public License as published by the
   8:/home/hubert/daisy/gcc/arm-none-eabi/include/c++/10.2.1/bits/std_abs.h **** // Free Software Foundation; either version 3, or (at your option)
   9:/home/hubert/daisy/gcc/arm-none-eabi/include/c++/10.2.1/bits/std_abs.h **** // any later version.
  10:/home/hubert/daisy/gcc/arm-none-eabi/include/c++/10.2.1/bits/std_abs.h **** 
  11:/home/hubert/daisy/gcc/arm-none-eabi/include/c++/10.2.1/bits/std_abs.h **** // This library is distributed in the hope that it will be useful,
  12:/home/hubert/daisy/gcc/arm-none-eabi/include/c++/10.2.1/bits/std_abs.h **** // but WITHOUT ANY WARRANTY; without even the implied warranty of
  13:/home/hubert/daisy/gcc/arm-none-eabi/include/c++/10.2.1/bits/std_abs.h **** // MERCHANTABILITY or FITNESS FOR A PARTICULAR PURPOSE.  See the
  14:/home/hubert/daisy/gcc/arm-none-eabi/include/c++/10.2.1/bits/std_abs.h **** // GNU General Public License for more details.
  15:/home/hubert/daisy/gcc/arm-none-eabi/include/c++/10.2.1/bits/std_abs.h **** 
  16:/home/hubert/daisy/gcc/arm-none-eabi/include/c++/10.2.1/bits/std_abs.h **** // Under Section 7 of GPL version 3, you are granted additional
  17:/home/hubert/daisy/gcc/arm-none-eabi/include/c++/10.2.1/bits/std_abs.h **** // permissions described in the GCC Runtime Library Exception, version
  18:/home/hubert/daisy/gcc/arm-none-eabi/include/c++/10.2.1/bits/std_abs.h **** // 3.1, as published by the Free Software Foundation.
  19:/home/hubert/daisy/gcc/arm-none-eabi/include/c++/10.2.1/bits/std_abs.h **** 
  20:/home/hubert/daisy/gcc/arm-none-eabi/include/c++/10.2.1/bits/std_abs.h **** // You should have received a copy of the GNU General Public License and
  21:/home/hubert/daisy/gcc/arm-none-eabi/include/c++/10.2.1/bits/std_abs.h **** // a copy of the GCC Runtime Library Exception along with this program;
  22:/home/hubert/daisy/gcc/arm-none-eabi/include/c++/10.2.1/bits/std_abs.h **** // see the files COPYING3 and COPYING.RUNTIME respectively.  If not, see
  23:/home/hubert/daisy/gcc/arm-none-eabi/include/c++/10.2.1/bits/std_abs.h **** // <http://www.gnu.org/licenses/>.
  24:/home/hubert/daisy/gcc/arm-none-eabi/include/c++/10.2.1/bits/std_abs.h **** 
  25:/home/hubert/daisy/gcc/arm-none-eabi/include/c++/10.2.1/bits/std_abs.h **** /** @file include/bits/std_abs.h
  26:/home/hubert/daisy/gcc/arm-none-eabi/include/c++/10.2.1/bits/std_abs.h ****  *  This is an internal header file, included by other library headers.
  27:/home/hubert/daisy/gcc/arm-none-eabi/include/c++/10.2.1/bits/std_abs.h ****  *  Do not attempt to use it directly. @headername{cmath, cstdlib}
  28:/home/hubert/daisy/gcc/arm-none-eabi/include/c++/10.2.1/bits/std_abs.h ****  */
  29:/home/hubert/daisy/gcc/arm-none-eabi/include/c++/10.2.1/bits/std_abs.h **** 
  30:/home/hubert/daisy/gcc/arm-none-eabi/include/c++/10.2.1/bits/std_abs.h **** #ifndef _GLIBCXX_BITS_STD_ABS_H
  31:/home/hubert/daisy/gcc/arm-none-eabi/include/c++/10.2.1/bits/std_abs.h **** #define _GLIBCXX_BITS_STD_ABS_H
ARM GAS  /tmp/ccIWsbgU.s 			page 2


  32:/home/hubert/daisy/gcc/arm-none-eabi/include/c++/10.2.1/bits/std_abs.h **** 
  33:/home/hubert/daisy/gcc/arm-none-eabi/include/c++/10.2.1/bits/std_abs.h **** #pragma GCC system_header
  34:/home/hubert/daisy/gcc/arm-none-eabi/include/c++/10.2.1/bits/std_abs.h **** 
  35:/home/hubert/daisy/gcc/arm-none-eabi/include/c++/10.2.1/bits/std_abs.h **** #include <bits/c++config.h>
  36:/home/hubert/daisy/gcc/arm-none-eabi/include/c++/10.2.1/bits/std_abs.h **** 
  37:/home/hubert/daisy/gcc/arm-none-eabi/include/c++/10.2.1/bits/std_abs.h **** #define _GLIBCXX_INCLUDE_NEXT_C_HEADERS
  38:/home/hubert/daisy/gcc/arm-none-eabi/include/c++/10.2.1/bits/std_abs.h **** #include_next <stdlib.h>
  39:/home/hubert/daisy/gcc/arm-none-eabi/include/c++/10.2.1/bits/std_abs.h **** #ifdef __CORRECT_ISO_CPP_MATH_H_PROTO
  40:/home/hubert/daisy/gcc/arm-none-eabi/include/c++/10.2.1/bits/std_abs.h **** # include_next <math.h>
  41:/home/hubert/daisy/gcc/arm-none-eabi/include/c++/10.2.1/bits/std_abs.h **** #endif
  42:/home/hubert/daisy/gcc/arm-none-eabi/include/c++/10.2.1/bits/std_abs.h **** #undef _GLIBCXX_INCLUDE_NEXT_C_HEADERS
  43:/home/hubert/daisy/gcc/arm-none-eabi/include/c++/10.2.1/bits/std_abs.h **** 
  44:/home/hubert/daisy/gcc/arm-none-eabi/include/c++/10.2.1/bits/std_abs.h **** #undef abs
  45:/home/hubert/daisy/gcc/arm-none-eabi/include/c++/10.2.1/bits/std_abs.h **** 
  46:/home/hubert/daisy/gcc/arm-none-eabi/include/c++/10.2.1/bits/std_abs.h **** extern "C++"
  47:/home/hubert/daisy/gcc/arm-none-eabi/include/c++/10.2.1/bits/std_abs.h **** {
  48:/home/hubert/daisy/gcc/arm-none-eabi/include/c++/10.2.1/bits/std_abs.h **** namespace std _GLIBCXX_VISIBILITY(default)
  49:/home/hubert/daisy/gcc/arm-none-eabi/include/c++/10.2.1/bits/std_abs.h **** {
  50:/home/hubert/daisy/gcc/arm-none-eabi/include/c++/10.2.1/bits/std_abs.h **** _GLIBCXX_BEGIN_NAMESPACE_VERSION
  51:/home/hubert/daisy/gcc/arm-none-eabi/include/c++/10.2.1/bits/std_abs.h **** 
  52:/home/hubert/daisy/gcc/arm-none-eabi/include/c++/10.2.1/bits/std_abs.h ****   using ::abs;
  53:/home/hubert/daisy/gcc/arm-none-eabi/include/c++/10.2.1/bits/std_abs.h **** 
  54:/home/hubert/daisy/gcc/arm-none-eabi/include/c++/10.2.1/bits/std_abs.h **** #ifndef __CORRECT_ISO_CPP_STDLIB_H_PROTO
  55:/home/hubert/daisy/gcc/arm-none-eabi/include/c++/10.2.1/bits/std_abs.h ****   inline long
  56:/home/hubert/daisy/gcc/arm-none-eabi/include/c++/10.2.1/bits/std_abs.h ****   abs(long __i) { return __builtin_labs(__i); }
  57:/home/hubert/daisy/gcc/arm-none-eabi/include/c++/10.2.1/bits/std_abs.h **** #endif
  58:/home/hubert/daisy/gcc/arm-none-eabi/include/c++/10.2.1/bits/std_abs.h **** 
  59:/home/hubert/daisy/gcc/arm-none-eabi/include/c++/10.2.1/bits/std_abs.h **** #ifdef _GLIBCXX_USE_LONG_LONG
  60:/home/hubert/daisy/gcc/arm-none-eabi/include/c++/10.2.1/bits/std_abs.h ****   inline long long
  61:/home/hubert/daisy/gcc/arm-none-eabi/include/c++/10.2.1/bits/std_abs.h ****   abs(long long __x) { return __builtin_llabs (__x); }
  62:/home/hubert/daisy/gcc/arm-none-eabi/include/c++/10.2.1/bits/std_abs.h **** #endif
  63:/home/hubert/daisy/gcc/arm-none-eabi/include/c++/10.2.1/bits/std_abs.h **** 
  64:/home/hubert/daisy/gcc/arm-none-eabi/include/c++/10.2.1/bits/std_abs.h **** // _GLIBCXX_RESOLVE_LIB_DEFECTS
  65:/home/hubert/daisy/gcc/arm-none-eabi/include/c++/10.2.1/bits/std_abs.h **** // 2192. Validity and return type of std::abs(0u) is unclear
  66:/home/hubert/daisy/gcc/arm-none-eabi/include/c++/10.2.1/bits/std_abs.h **** // 2294. <cstdlib> should declare abs(double)
  67:/home/hubert/daisy/gcc/arm-none-eabi/include/c++/10.2.1/bits/std_abs.h **** // 2735. std::abs(short), std::abs(signed char) and others should return int
  68:/home/hubert/daisy/gcc/arm-none-eabi/include/c++/10.2.1/bits/std_abs.h **** 
  69:/home/hubert/daisy/gcc/arm-none-eabi/include/c++/10.2.1/bits/std_abs.h **** #ifndef __CORRECT_ISO_CPP_MATH_H_PROTO
  70:/home/hubert/daisy/gcc/arm-none-eabi/include/c++/10.2.1/bits/std_abs.h ****   inline _GLIBCXX_CONSTEXPR double
  71:/home/hubert/daisy/gcc/arm-none-eabi/include/c++/10.2.1/bits/std_abs.h ****   abs(double __x)
  72:/home/hubert/daisy/gcc/arm-none-eabi/include/c++/10.2.1/bits/std_abs.h ****   { return __builtin_fabs(__x); }
  73:/home/hubert/daisy/gcc/arm-none-eabi/include/c++/10.2.1/bits/std_abs.h **** 
  74:/home/hubert/daisy/gcc/arm-none-eabi/include/c++/10.2.1/bits/std_abs.h ****   inline _GLIBCXX_CONSTEXPR float
  75:/home/hubert/daisy/gcc/arm-none-eabi/include/c++/10.2.1/bits/std_abs.h ****   abs(float __x)
  76:/home/hubert/daisy/gcc/arm-none-eabi/include/c++/10.2.1/bits/std_abs.h ****   { return __builtin_fabsf(__x); }
  28              		.loc 1 76 3
  29              		.cfi_startproc
  30              		@ args = 0, pretend = 0, frame = 8
  31              		@ frame_needed = 1, uses_anonymous_args = 0
  32              		@ link register save eliminated.
  33 0000 80B4     		push	{r7}
  34              		.cfi_def_cfa_offset 4
  35              		.cfi_offset 7, -4
  36 0002 83B0     		sub	sp, sp, #12
  37              		.cfi_def_cfa_offset 16
  38 0004 00AF     		add	r7, sp, #0
  39              		.cfi_def_cfa_register 7
ARM GAS  /tmp/ccIWsbgU.s 			page 3


  40 0006 87ED010A 		vstr.32	s0, [r7, #4]
  41              		.loc 1 76 31
  42 000a D7ED017A 		vldr.32	s15, [r7, #4]
  43 000e F0EEE77A 		vabs.f32	s15, s15
  44              		.loc 1 76 34
  45 0012 B0EE670A 		vmov.f32	s0, s15
  46 0016 0C37     		adds	r7, r7, #12
  47              		.cfi_def_cfa_offset 4
  48 0018 BD46     		mov	sp, r7
  49              		.cfi_def_cfa_register 13
  50              		@ sp needed
  51 001a 5DF8047B 		ldr	r7, [sp], #4
  52              		.cfi_restore 7
  53              		.cfi_def_cfa_offset 0
  54 001e 7047     		bx	lr
  55              		.cfi_endproc
  56              	.LFE141:
  58              		.section	.text._ZSt3cosf,"axG",%progbits,_ZSt3cosf,comdat
  59              		.align	1
  60              		.weak	_ZSt3cosf
  61              		.syntax unified
  62              		.thumb
  63              		.thumb_func
  64              		.fpu fpv5-d16
  66              	_ZSt3cosf:
  67              	.LFB158:
  68              		.file 2 "/home/hubert/daisy/gcc/arm-none-eabi/include/c++/10.2.1/cmath"
   1:/home/hubert/daisy/gcc/arm-none-eabi/include/c++/10.2.1/cmath **** // -*- C++ -*- C forwarding header.
   2:/home/hubert/daisy/gcc/arm-none-eabi/include/c++/10.2.1/cmath **** 
   3:/home/hubert/daisy/gcc/arm-none-eabi/include/c++/10.2.1/cmath **** // Copyright (C) 1997-2020 Free Software Foundation, Inc.
   4:/home/hubert/daisy/gcc/arm-none-eabi/include/c++/10.2.1/cmath **** //
   5:/home/hubert/daisy/gcc/arm-none-eabi/include/c++/10.2.1/cmath **** // This file is part of the GNU ISO C++ Library.  This library is free
   6:/home/hubert/daisy/gcc/arm-none-eabi/include/c++/10.2.1/cmath **** // software; you can redistribute it and/or modify it under the
   7:/home/hubert/daisy/gcc/arm-none-eabi/include/c++/10.2.1/cmath **** // terms of the GNU General Public License as published by the
   8:/home/hubert/daisy/gcc/arm-none-eabi/include/c++/10.2.1/cmath **** // Free Software Foundation; either version 3, or (at your option)
   9:/home/hubert/daisy/gcc/arm-none-eabi/include/c++/10.2.1/cmath **** // any later version.
  10:/home/hubert/daisy/gcc/arm-none-eabi/include/c++/10.2.1/cmath **** 
  11:/home/hubert/daisy/gcc/arm-none-eabi/include/c++/10.2.1/cmath **** // This library is distributed in the hope that it will be useful,
  12:/home/hubert/daisy/gcc/arm-none-eabi/include/c++/10.2.1/cmath **** // but WITHOUT ANY WARRANTY; without even the implied warranty of
  13:/home/hubert/daisy/gcc/arm-none-eabi/include/c++/10.2.1/cmath **** // MERCHANTABILITY or FITNESS FOR A PARTICULAR PURPOSE.  See the
  14:/home/hubert/daisy/gcc/arm-none-eabi/include/c++/10.2.1/cmath **** // GNU General Public License for more details.
  15:/home/hubert/daisy/gcc/arm-none-eabi/include/c++/10.2.1/cmath **** 
  16:/home/hubert/daisy/gcc/arm-none-eabi/include/c++/10.2.1/cmath **** // Under Section 7 of GPL version 3, you are granted additional
  17:/home/hubert/daisy/gcc/arm-none-eabi/include/c++/10.2.1/cmath **** // permissions described in the GCC Runtime Library Exception, version
  18:/home/hubert/daisy/gcc/arm-none-eabi/include/c++/10.2.1/cmath **** // 3.1, as published by the Free Software Foundation.
  19:/home/hubert/daisy/gcc/arm-none-eabi/include/c++/10.2.1/cmath **** 
  20:/home/hubert/daisy/gcc/arm-none-eabi/include/c++/10.2.1/cmath **** // You should have received a copy of the GNU General Public License and
  21:/home/hubert/daisy/gcc/arm-none-eabi/include/c++/10.2.1/cmath **** // a copy of the GCC Runtime Library Exception along with this program;
  22:/home/hubert/daisy/gcc/arm-none-eabi/include/c++/10.2.1/cmath **** // see the files COPYING3 and COPYING.RUNTIME respectively.  If not, see
  23:/home/hubert/daisy/gcc/arm-none-eabi/include/c++/10.2.1/cmath **** // <http://www.gnu.org/licenses/>.
  24:/home/hubert/daisy/gcc/arm-none-eabi/include/c++/10.2.1/cmath **** 
  25:/home/hubert/daisy/gcc/arm-none-eabi/include/c++/10.2.1/cmath **** /** @file include/cmath
  26:/home/hubert/daisy/gcc/arm-none-eabi/include/c++/10.2.1/cmath ****  *  This is a Standard C++ Library file.  You should @c \#include this file
  27:/home/hubert/daisy/gcc/arm-none-eabi/include/c++/10.2.1/cmath ****  *  in your programs, rather than any of the @a *.h implementation files.
  28:/home/hubert/daisy/gcc/arm-none-eabi/include/c++/10.2.1/cmath ****  *
  29:/home/hubert/daisy/gcc/arm-none-eabi/include/c++/10.2.1/cmath ****  *  This is the C++ version of the Standard C Library header @c math.h,
  30:/home/hubert/daisy/gcc/arm-none-eabi/include/c++/10.2.1/cmath ****  *  and its contents are (mostly) the same as that header, but are all
ARM GAS  /tmp/ccIWsbgU.s 			page 4


  31:/home/hubert/daisy/gcc/arm-none-eabi/include/c++/10.2.1/cmath ****  *  contained in the namespace @c std (except for names which are defined
  32:/home/hubert/daisy/gcc/arm-none-eabi/include/c++/10.2.1/cmath ****  *  as macros in C).
  33:/home/hubert/daisy/gcc/arm-none-eabi/include/c++/10.2.1/cmath ****  */
  34:/home/hubert/daisy/gcc/arm-none-eabi/include/c++/10.2.1/cmath **** 
  35:/home/hubert/daisy/gcc/arm-none-eabi/include/c++/10.2.1/cmath **** //
  36:/home/hubert/daisy/gcc/arm-none-eabi/include/c++/10.2.1/cmath **** // ISO C++ 14882: 26.5  C library
  37:/home/hubert/daisy/gcc/arm-none-eabi/include/c++/10.2.1/cmath **** //
  38:/home/hubert/daisy/gcc/arm-none-eabi/include/c++/10.2.1/cmath **** 
  39:/home/hubert/daisy/gcc/arm-none-eabi/include/c++/10.2.1/cmath **** #pragma GCC system_header
  40:/home/hubert/daisy/gcc/arm-none-eabi/include/c++/10.2.1/cmath **** 
  41:/home/hubert/daisy/gcc/arm-none-eabi/include/c++/10.2.1/cmath **** #include <bits/c++config.h>
  42:/home/hubert/daisy/gcc/arm-none-eabi/include/c++/10.2.1/cmath **** #include <bits/cpp_type_traits.h>
  43:/home/hubert/daisy/gcc/arm-none-eabi/include/c++/10.2.1/cmath **** #include <ext/type_traits.h>
  44:/home/hubert/daisy/gcc/arm-none-eabi/include/c++/10.2.1/cmath **** #define _GLIBCXX_INCLUDE_NEXT_C_HEADERS
  45:/home/hubert/daisy/gcc/arm-none-eabi/include/c++/10.2.1/cmath **** #include_next <math.h>
  46:/home/hubert/daisy/gcc/arm-none-eabi/include/c++/10.2.1/cmath **** #undef _GLIBCXX_INCLUDE_NEXT_C_HEADERS
  47:/home/hubert/daisy/gcc/arm-none-eabi/include/c++/10.2.1/cmath **** #include <bits/std_abs.h>
  48:/home/hubert/daisy/gcc/arm-none-eabi/include/c++/10.2.1/cmath **** 
  49:/home/hubert/daisy/gcc/arm-none-eabi/include/c++/10.2.1/cmath **** #ifndef _GLIBCXX_CMATH
  50:/home/hubert/daisy/gcc/arm-none-eabi/include/c++/10.2.1/cmath **** #define _GLIBCXX_CMATH 1
  51:/home/hubert/daisy/gcc/arm-none-eabi/include/c++/10.2.1/cmath **** 
  52:/home/hubert/daisy/gcc/arm-none-eabi/include/c++/10.2.1/cmath **** // Get rid of those macros defined in <math.h> in lieu of real functions.
  53:/home/hubert/daisy/gcc/arm-none-eabi/include/c++/10.2.1/cmath **** #undef div
  54:/home/hubert/daisy/gcc/arm-none-eabi/include/c++/10.2.1/cmath **** #undef acos
  55:/home/hubert/daisy/gcc/arm-none-eabi/include/c++/10.2.1/cmath **** #undef asin
  56:/home/hubert/daisy/gcc/arm-none-eabi/include/c++/10.2.1/cmath **** #undef atan
  57:/home/hubert/daisy/gcc/arm-none-eabi/include/c++/10.2.1/cmath **** #undef atan2
  58:/home/hubert/daisy/gcc/arm-none-eabi/include/c++/10.2.1/cmath **** #undef ceil
  59:/home/hubert/daisy/gcc/arm-none-eabi/include/c++/10.2.1/cmath **** #undef cos
  60:/home/hubert/daisy/gcc/arm-none-eabi/include/c++/10.2.1/cmath **** #undef cosh
  61:/home/hubert/daisy/gcc/arm-none-eabi/include/c++/10.2.1/cmath **** #undef exp
  62:/home/hubert/daisy/gcc/arm-none-eabi/include/c++/10.2.1/cmath **** #undef fabs
  63:/home/hubert/daisy/gcc/arm-none-eabi/include/c++/10.2.1/cmath **** #undef floor
  64:/home/hubert/daisy/gcc/arm-none-eabi/include/c++/10.2.1/cmath **** #undef fmod
  65:/home/hubert/daisy/gcc/arm-none-eabi/include/c++/10.2.1/cmath **** #undef frexp
  66:/home/hubert/daisy/gcc/arm-none-eabi/include/c++/10.2.1/cmath **** #undef ldexp
  67:/home/hubert/daisy/gcc/arm-none-eabi/include/c++/10.2.1/cmath **** #undef log
  68:/home/hubert/daisy/gcc/arm-none-eabi/include/c++/10.2.1/cmath **** #undef log10
  69:/home/hubert/daisy/gcc/arm-none-eabi/include/c++/10.2.1/cmath **** #undef modf
  70:/home/hubert/daisy/gcc/arm-none-eabi/include/c++/10.2.1/cmath **** #undef pow
  71:/home/hubert/daisy/gcc/arm-none-eabi/include/c++/10.2.1/cmath **** #undef sin
  72:/home/hubert/daisy/gcc/arm-none-eabi/include/c++/10.2.1/cmath **** #undef sinh
  73:/home/hubert/daisy/gcc/arm-none-eabi/include/c++/10.2.1/cmath **** #undef sqrt
  74:/home/hubert/daisy/gcc/arm-none-eabi/include/c++/10.2.1/cmath **** #undef tan
  75:/home/hubert/daisy/gcc/arm-none-eabi/include/c++/10.2.1/cmath **** #undef tanh
  76:/home/hubert/daisy/gcc/arm-none-eabi/include/c++/10.2.1/cmath **** 
  77:/home/hubert/daisy/gcc/arm-none-eabi/include/c++/10.2.1/cmath **** extern "C++"
  78:/home/hubert/daisy/gcc/arm-none-eabi/include/c++/10.2.1/cmath **** {
  79:/home/hubert/daisy/gcc/arm-none-eabi/include/c++/10.2.1/cmath **** namespace std _GLIBCXX_VISIBILITY(default)
  80:/home/hubert/daisy/gcc/arm-none-eabi/include/c++/10.2.1/cmath **** {
  81:/home/hubert/daisy/gcc/arm-none-eabi/include/c++/10.2.1/cmath **** _GLIBCXX_BEGIN_NAMESPACE_VERSION
  82:/home/hubert/daisy/gcc/arm-none-eabi/include/c++/10.2.1/cmath **** 
  83:/home/hubert/daisy/gcc/arm-none-eabi/include/c++/10.2.1/cmath ****   using ::acos;
  84:/home/hubert/daisy/gcc/arm-none-eabi/include/c++/10.2.1/cmath **** 
  85:/home/hubert/daisy/gcc/arm-none-eabi/include/c++/10.2.1/cmath **** #ifndef __CORRECT_ISO_CPP_MATH_H_PROTO
  86:/home/hubert/daisy/gcc/arm-none-eabi/include/c++/10.2.1/cmath ****   inline _GLIBCXX_CONSTEXPR float
  87:/home/hubert/daisy/gcc/arm-none-eabi/include/c++/10.2.1/cmath ****   acos(float __x)
ARM GAS  /tmp/ccIWsbgU.s 			page 5


  88:/home/hubert/daisy/gcc/arm-none-eabi/include/c++/10.2.1/cmath ****   { return __builtin_acosf(__x); }
  89:/home/hubert/daisy/gcc/arm-none-eabi/include/c++/10.2.1/cmath **** 
  90:/home/hubert/daisy/gcc/arm-none-eabi/include/c++/10.2.1/cmath ****   inline _GLIBCXX_CONSTEXPR long double
  91:/home/hubert/daisy/gcc/arm-none-eabi/include/c++/10.2.1/cmath ****   acos(long double __x)
  92:/home/hubert/daisy/gcc/arm-none-eabi/include/c++/10.2.1/cmath ****   { return __builtin_acosl(__x); }
  93:/home/hubert/daisy/gcc/arm-none-eabi/include/c++/10.2.1/cmath **** #endif
  94:/home/hubert/daisy/gcc/arm-none-eabi/include/c++/10.2.1/cmath **** 
  95:/home/hubert/daisy/gcc/arm-none-eabi/include/c++/10.2.1/cmath ****   template<typename _Tp>
  96:/home/hubert/daisy/gcc/arm-none-eabi/include/c++/10.2.1/cmath ****     inline _GLIBCXX_CONSTEXPR
  97:/home/hubert/daisy/gcc/arm-none-eabi/include/c++/10.2.1/cmath ****     typename __gnu_cxx::__enable_if<__is_integer<_Tp>::__value, 
  98:/home/hubert/daisy/gcc/arm-none-eabi/include/c++/10.2.1/cmath ****                                     double>::__type
  99:/home/hubert/daisy/gcc/arm-none-eabi/include/c++/10.2.1/cmath ****     acos(_Tp __x)
 100:/home/hubert/daisy/gcc/arm-none-eabi/include/c++/10.2.1/cmath ****     { return __builtin_acos(__x); }
 101:/home/hubert/daisy/gcc/arm-none-eabi/include/c++/10.2.1/cmath **** 
 102:/home/hubert/daisy/gcc/arm-none-eabi/include/c++/10.2.1/cmath ****   using ::asin;
 103:/home/hubert/daisy/gcc/arm-none-eabi/include/c++/10.2.1/cmath **** 
 104:/home/hubert/daisy/gcc/arm-none-eabi/include/c++/10.2.1/cmath **** #ifndef __CORRECT_ISO_CPP_MATH_H_PROTO
 105:/home/hubert/daisy/gcc/arm-none-eabi/include/c++/10.2.1/cmath ****   inline _GLIBCXX_CONSTEXPR float
 106:/home/hubert/daisy/gcc/arm-none-eabi/include/c++/10.2.1/cmath ****   asin(float __x)
 107:/home/hubert/daisy/gcc/arm-none-eabi/include/c++/10.2.1/cmath ****   { return __builtin_asinf(__x); }
 108:/home/hubert/daisy/gcc/arm-none-eabi/include/c++/10.2.1/cmath **** 
 109:/home/hubert/daisy/gcc/arm-none-eabi/include/c++/10.2.1/cmath ****   inline _GLIBCXX_CONSTEXPR long double
 110:/home/hubert/daisy/gcc/arm-none-eabi/include/c++/10.2.1/cmath ****   asin(long double __x)
 111:/home/hubert/daisy/gcc/arm-none-eabi/include/c++/10.2.1/cmath ****   { return __builtin_asinl(__x); }
 112:/home/hubert/daisy/gcc/arm-none-eabi/include/c++/10.2.1/cmath **** #endif
 113:/home/hubert/daisy/gcc/arm-none-eabi/include/c++/10.2.1/cmath **** 
 114:/home/hubert/daisy/gcc/arm-none-eabi/include/c++/10.2.1/cmath ****   template<typename _Tp>
 115:/home/hubert/daisy/gcc/arm-none-eabi/include/c++/10.2.1/cmath ****     inline _GLIBCXX_CONSTEXPR
 116:/home/hubert/daisy/gcc/arm-none-eabi/include/c++/10.2.1/cmath ****     typename __gnu_cxx::__enable_if<__is_integer<_Tp>::__value,
 117:/home/hubert/daisy/gcc/arm-none-eabi/include/c++/10.2.1/cmath ****                                     double>::__type
 118:/home/hubert/daisy/gcc/arm-none-eabi/include/c++/10.2.1/cmath ****     asin(_Tp __x)
 119:/home/hubert/daisy/gcc/arm-none-eabi/include/c++/10.2.1/cmath ****     { return __builtin_asin(__x); }
 120:/home/hubert/daisy/gcc/arm-none-eabi/include/c++/10.2.1/cmath **** 
 121:/home/hubert/daisy/gcc/arm-none-eabi/include/c++/10.2.1/cmath ****   using ::atan;
 122:/home/hubert/daisy/gcc/arm-none-eabi/include/c++/10.2.1/cmath **** 
 123:/home/hubert/daisy/gcc/arm-none-eabi/include/c++/10.2.1/cmath **** #ifndef __CORRECT_ISO_CPP_MATH_H_PROTO
 124:/home/hubert/daisy/gcc/arm-none-eabi/include/c++/10.2.1/cmath ****   inline _GLIBCXX_CONSTEXPR float
 125:/home/hubert/daisy/gcc/arm-none-eabi/include/c++/10.2.1/cmath ****   atan(float __x)
 126:/home/hubert/daisy/gcc/arm-none-eabi/include/c++/10.2.1/cmath ****   { return __builtin_atanf(__x); }
 127:/home/hubert/daisy/gcc/arm-none-eabi/include/c++/10.2.1/cmath **** 
 128:/home/hubert/daisy/gcc/arm-none-eabi/include/c++/10.2.1/cmath ****   inline _GLIBCXX_CONSTEXPR long double
 129:/home/hubert/daisy/gcc/arm-none-eabi/include/c++/10.2.1/cmath ****   atan(long double __x)
 130:/home/hubert/daisy/gcc/arm-none-eabi/include/c++/10.2.1/cmath ****   { return __builtin_atanl(__x); }
 131:/home/hubert/daisy/gcc/arm-none-eabi/include/c++/10.2.1/cmath **** #endif
 132:/home/hubert/daisy/gcc/arm-none-eabi/include/c++/10.2.1/cmath **** 
 133:/home/hubert/daisy/gcc/arm-none-eabi/include/c++/10.2.1/cmath ****   template<typename _Tp>
 134:/home/hubert/daisy/gcc/arm-none-eabi/include/c++/10.2.1/cmath ****     inline _GLIBCXX_CONSTEXPR
 135:/home/hubert/daisy/gcc/arm-none-eabi/include/c++/10.2.1/cmath ****     typename __gnu_cxx::__enable_if<__is_integer<_Tp>::__value,
 136:/home/hubert/daisy/gcc/arm-none-eabi/include/c++/10.2.1/cmath ****                                     double>::__type
 137:/home/hubert/daisy/gcc/arm-none-eabi/include/c++/10.2.1/cmath ****     atan(_Tp __x)
 138:/home/hubert/daisy/gcc/arm-none-eabi/include/c++/10.2.1/cmath ****     { return __builtin_atan(__x); }
 139:/home/hubert/daisy/gcc/arm-none-eabi/include/c++/10.2.1/cmath **** 
 140:/home/hubert/daisy/gcc/arm-none-eabi/include/c++/10.2.1/cmath ****   using ::atan2;
 141:/home/hubert/daisy/gcc/arm-none-eabi/include/c++/10.2.1/cmath **** 
 142:/home/hubert/daisy/gcc/arm-none-eabi/include/c++/10.2.1/cmath **** #ifndef __CORRECT_ISO_CPP_MATH_H_PROTO
 143:/home/hubert/daisy/gcc/arm-none-eabi/include/c++/10.2.1/cmath ****   inline _GLIBCXX_CONSTEXPR float
 144:/home/hubert/daisy/gcc/arm-none-eabi/include/c++/10.2.1/cmath ****   atan2(float __y, float __x)
ARM GAS  /tmp/ccIWsbgU.s 			page 6


 145:/home/hubert/daisy/gcc/arm-none-eabi/include/c++/10.2.1/cmath ****   { return __builtin_atan2f(__y, __x); }
 146:/home/hubert/daisy/gcc/arm-none-eabi/include/c++/10.2.1/cmath **** 
 147:/home/hubert/daisy/gcc/arm-none-eabi/include/c++/10.2.1/cmath ****   inline _GLIBCXX_CONSTEXPR long double
 148:/home/hubert/daisy/gcc/arm-none-eabi/include/c++/10.2.1/cmath ****   atan2(long double __y, long double __x)
 149:/home/hubert/daisy/gcc/arm-none-eabi/include/c++/10.2.1/cmath ****   { return __builtin_atan2l(__y, __x); }
 150:/home/hubert/daisy/gcc/arm-none-eabi/include/c++/10.2.1/cmath **** #endif
 151:/home/hubert/daisy/gcc/arm-none-eabi/include/c++/10.2.1/cmath **** 
 152:/home/hubert/daisy/gcc/arm-none-eabi/include/c++/10.2.1/cmath ****   template<typename _Tp, typename _Up>
 153:/home/hubert/daisy/gcc/arm-none-eabi/include/c++/10.2.1/cmath ****     inline _GLIBCXX_CONSTEXPR
 154:/home/hubert/daisy/gcc/arm-none-eabi/include/c++/10.2.1/cmath ****     typename __gnu_cxx::__promote_2<_Tp, _Up>::__type
 155:/home/hubert/daisy/gcc/arm-none-eabi/include/c++/10.2.1/cmath ****     atan2(_Tp __y, _Up __x)
 156:/home/hubert/daisy/gcc/arm-none-eabi/include/c++/10.2.1/cmath ****     {
 157:/home/hubert/daisy/gcc/arm-none-eabi/include/c++/10.2.1/cmath ****       typedef typename __gnu_cxx::__promote_2<_Tp, _Up>::__type __type;
 158:/home/hubert/daisy/gcc/arm-none-eabi/include/c++/10.2.1/cmath ****       return atan2(__type(__y), __type(__x));
 159:/home/hubert/daisy/gcc/arm-none-eabi/include/c++/10.2.1/cmath ****     }
 160:/home/hubert/daisy/gcc/arm-none-eabi/include/c++/10.2.1/cmath **** 
 161:/home/hubert/daisy/gcc/arm-none-eabi/include/c++/10.2.1/cmath ****   using ::ceil;
 162:/home/hubert/daisy/gcc/arm-none-eabi/include/c++/10.2.1/cmath **** 
 163:/home/hubert/daisy/gcc/arm-none-eabi/include/c++/10.2.1/cmath **** #ifndef __CORRECT_ISO_CPP_MATH_H_PROTO
 164:/home/hubert/daisy/gcc/arm-none-eabi/include/c++/10.2.1/cmath ****   inline _GLIBCXX_CONSTEXPR float
 165:/home/hubert/daisy/gcc/arm-none-eabi/include/c++/10.2.1/cmath ****   ceil(float __x)
 166:/home/hubert/daisy/gcc/arm-none-eabi/include/c++/10.2.1/cmath ****   { return __builtin_ceilf(__x); }
 167:/home/hubert/daisy/gcc/arm-none-eabi/include/c++/10.2.1/cmath **** 
 168:/home/hubert/daisy/gcc/arm-none-eabi/include/c++/10.2.1/cmath ****   inline _GLIBCXX_CONSTEXPR long double
 169:/home/hubert/daisy/gcc/arm-none-eabi/include/c++/10.2.1/cmath ****   ceil(long double __x)
 170:/home/hubert/daisy/gcc/arm-none-eabi/include/c++/10.2.1/cmath ****   { return __builtin_ceill(__x); }
 171:/home/hubert/daisy/gcc/arm-none-eabi/include/c++/10.2.1/cmath **** #endif
 172:/home/hubert/daisy/gcc/arm-none-eabi/include/c++/10.2.1/cmath **** 
 173:/home/hubert/daisy/gcc/arm-none-eabi/include/c++/10.2.1/cmath ****   template<typename _Tp>
 174:/home/hubert/daisy/gcc/arm-none-eabi/include/c++/10.2.1/cmath ****     inline _GLIBCXX_CONSTEXPR
 175:/home/hubert/daisy/gcc/arm-none-eabi/include/c++/10.2.1/cmath ****     typename __gnu_cxx::__enable_if<__is_integer<_Tp>::__value, 
 176:/home/hubert/daisy/gcc/arm-none-eabi/include/c++/10.2.1/cmath ****                                     double>::__type
 177:/home/hubert/daisy/gcc/arm-none-eabi/include/c++/10.2.1/cmath ****     ceil(_Tp __x)
 178:/home/hubert/daisy/gcc/arm-none-eabi/include/c++/10.2.1/cmath ****     { return __builtin_ceil(__x); }
 179:/home/hubert/daisy/gcc/arm-none-eabi/include/c++/10.2.1/cmath **** 
 180:/home/hubert/daisy/gcc/arm-none-eabi/include/c++/10.2.1/cmath ****   using ::cos;
 181:/home/hubert/daisy/gcc/arm-none-eabi/include/c++/10.2.1/cmath **** 
 182:/home/hubert/daisy/gcc/arm-none-eabi/include/c++/10.2.1/cmath **** #ifndef __CORRECT_ISO_CPP_MATH_H_PROTO
 183:/home/hubert/daisy/gcc/arm-none-eabi/include/c++/10.2.1/cmath ****   inline _GLIBCXX_CONSTEXPR float
 184:/home/hubert/daisy/gcc/arm-none-eabi/include/c++/10.2.1/cmath ****   cos(float __x)
 185:/home/hubert/daisy/gcc/arm-none-eabi/include/c++/10.2.1/cmath ****   { return __builtin_cosf(__x); }
  69              		.loc 2 185 3
  70              		.cfi_startproc
  71              		@ args = 0, pretend = 0, frame = 8
  72              		@ frame_needed = 1, uses_anonymous_args = 0
  73 0000 80B5     		push	{r7, lr}
  74              		.cfi_def_cfa_offset 8
  75              		.cfi_offset 7, -8
  76              		.cfi_offset 14, -4
  77 0002 82B0     		sub	sp, sp, #8
  78              		.cfi_def_cfa_offset 16
  79 0004 00AF     		add	r7, sp, #0
  80              		.cfi_def_cfa_register 7
  81 0006 87ED010A 		vstr.32	s0, [r7, #4]
  82              		.loc 2 185 26
  83 000a 97ED010A 		vldr.32	s0, [r7, #4]
  84 000e FFF7FEFF 		bl	cosf
ARM GAS  /tmp/ccIWsbgU.s 			page 7


  85 0012 F0EE407A 		vmov.f32	s15, s0
  86              		.loc 2 185 33
  87 0016 B0EE670A 		vmov.f32	s0, s15
  88 001a 0837     		adds	r7, r7, #8
  89              		.cfi_def_cfa_offset 8
  90 001c BD46     		mov	sp, r7
  91              		.cfi_def_cfa_register 13
  92              		@ sp needed
  93 001e 80BD     		pop	{r7, pc}
  94              		.cfi_endproc
  95              	.LFE158:
  97              		.section	.text._ZSt3sinf,"axG",%progbits,_ZSt3sinf,comdat
  98              		.align	1
  99              		.weak	_ZSt3sinf
 100              		.syntax unified
 101              		.thumb
 102              		.thumb_func
 103              		.fpu fpv5-d16
 105              	_ZSt3sinf:
 106              	.LFB193:
 186:/home/hubert/daisy/gcc/arm-none-eabi/include/c++/10.2.1/cmath **** 
 187:/home/hubert/daisy/gcc/arm-none-eabi/include/c++/10.2.1/cmath ****   inline _GLIBCXX_CONSTEXPR long double
 188:/home/hubert/daisy/gcc/arm-none-eabi/include/c++/10.2.1/cmath ****   cos(long double __x)
 189:/home/hubert/daisy/gcc/arm-none-eabi/include/c++/10.2.1/cmath ****   { return __builtin_cosl(__x); }
 190:/home/hubert/daisy/gcc/arm-none-eabi/include/c++/10.2.1/cmath **** #endif
 191:/home/hubert/daisy/gcc/arm-none-eabi/include/c++/10.2.1/cmath **** 
 192:/home/hubert/daisy/gcc/arm-none-eabi/include/c++/10.2.1/cmath ****   template<typename _Tp>
 193:/home/hubert/daisy/gcc/arm-none-eabi/include/c++/10.2.1/cmath ****     inline _GLIBCXX_CONSTEXPR
 194:/home/hubert/daisy/gcc/arm-none-eabi/include/c++/10.2.1/cmath ****     typename __gnu_cxx::__enable_if<__is_integer<_Tp>::__value,
 195:/home/hubert/daisy/gcc/arm-none-eabi/include/c++/10.2.1/cmath ****                                     double>::__type
 196:/home/hubert/daisy/gcc/arm-none-eabi/include/c++/10.2.1/cmath ****     cos(_Tp __x)
 197:/home/hubert/daisy/gcc/arm-none-eabi/include/c++/10.2.1/cmath ****     { return __builtin_cos(__x); }
 198:/home/hubert/daisy/gcc/arm-none-eabi/include/c++/10.2.1/cmath **** 
 199:/home/hubert/daisy/gcc/arm-none-eabi/include/c++/10.2.1/cmath ****   using ::cosh;
 200:/home/hubert/daisy/gcc/arm-none-eabi/include/c++/10.2.1/cmath **** 
 201:/home/hubert/daisy/gcc/arm-none-eabi/include/c++/10.2.1/cmath **** #ifndef __CORRECT_ISO_CPP_MATH_H_PROTO
 202:/home/hubert/daisy/gcc/arm-none-eabi/include/c++/10.2.1/cmath ****   inline _GLIBCXX_CONSTEXPR float
 203:/home/hubert/daisy/gcc/arm-none-eabi/include/c++/10.2.1/cmath ****   cosh(float __x)
 204:/home/hubert/daisy/gcc/arm-none-eabi/include/c++/10.2.1/cmath ****   { return __builtin_coshf(__x); }
 205:/home/hubert/daisy/gcc/arm-none-eabi/include/c++/10.2.1/cmath **** 
 206:/home/hubert/daisy/gcc/arm-none-eabi/include/c++/10.2.1/cmath ****   inline _GLIBCXX_CONSTEXPR long double
 207:/home/hubert/daisy/gcc/arm-none-eabi/include/c++/10.2.1/cmath ****   cosh(long double __x)
 208:/home/hubert/daisy/gcc/arm-none-eabi/include/c++/10.2.1/cmath ****   { return __builtin_coshl(__x); }
 209:/home/hubert/daisy/gcc/arm-none-eabi/include/c++/10.2.1/cmath **** #endif
 210:/home/hubert/daisy/gcc/arm-none-eabi/include/c++/10.2.1/cmath **** 
 211:/home/hubert/daisy/gcc/arm-none-eabi/include/c++/10.2.1/cmath ****   template<typename _Tp>
 212:/home/hubert/daisy/gcc/arm-none-eabi/include/c++/10.2.1/cmath ****     inline _GLIBCXX_CONSTEXPR
 213:/home/hubert/daisy/gcc/arm-none-eabi/include/c++/10.2.1/cmath ****     typename __gnu_cxx::__enable_if<__is_integer<_Tp>::__value,
 214:/home/hubert/daisy/gcc/arm-none-eabi/include/c++/10.2.1/cmath ****                                     double>::__type
 215:/home/hubert/daisy/gcc/arm-none-eabi/include/c++/10.2.1/cmath ****     cosh(_Tp __x)
 216:/home/hubert/daisy/gcc/arm-none-eabi/include/c++/10.2.1/cmath ****     { return __builtin_cosh(__x); }
 217:/home/hubert/daisy/gcc/arm-none-eabi/include/c++/10.2.1/cmath **** 
 218:/home/hubert/daisy/gcc/arm-none-eabi/include/c++/10.2.1/cmath ****   using ::exp;
 219:/home/hubert/daisy/gcc/arm-none-eabi/include/c++/10.2.1/cmath **** 
 220:/home/hubert/daisy/gcc/arm-none-eabi/include/c++/10.2.1/cmath **** #ifndef __CORRECT_ISO_CPP_MATH_H_PROTO
 221:/home/hubert/daisy/gcc/arm-none-eabi/include/c++/10.2.1/cmath ****   inline _GLIBCXX_CONSTEXPR float
 222:/home/hubert/daisy/gcc/arm-none-eabi/include/c++/10.2.1/cmath ****   exp(float __x)
ARM GAS  /tmp/ccIWsbgU.s 			page 8


 223:/home/hubert/daisy/gcc/arm-none-eabi/include/c++/10.2.1/cmath ****   { return __builtin_expf(__x); }
 224:/home/hubert/daisy/gcc/arm-none-eabi/include/c++/10.2.1/cmath **** 
 225:/home/hubert/daisy/gcc/arm-none-eabi/include/c++/10.2.1/cmath ****   inline _GLIBCXX_CONSTEXPR long double
 226:/home/hubert/daisy/gcc/arm-none-eabi/include/c++/10.2.1/cmath ****   exp(long double __x)
 227:/home/hubert/daisy/gcc/arm-none-eabi/include/c++/10.2.1/cmath ****   { return __builtin_expl(__x); }
 228:/home/hubert/daisy/gcc/arm-none-eabi/include/c++/10.2.1/cmath **** #endif
 229:/home/hubert/daisy/gcc/arm-none-eabi/include/c++/10.2.1/cmath **** 
 230:/home/hubert/daisy/gcc/arm-none-eabi/include/c++/10.2.1/cmath ****   template<typename _Tp>
 231:/home/hubert/daisy/gcc/arm-none-eabi/include/c++/10.2.1/cmath ****     inline _GLIBCXX_CONSTEXPR
 232:/home/hubert/daisy/gcc/arm-none-eabi/include/c++/10.2.1/cmath ****     typename __gnu_cxx::__enable_if<__is_integer<_Tp>::__value,
 233:/home/hubert/daisy/gcc/arm-none-eabi/include/c++/10.2.1/cmath ****                                     double>::__type
 234:/home/hubert/daisy/gcc/arm-none-eabi/include/c++/10.2.1/cmath ****     exp(_Tp __x)
 235:/home/hubert/daisy/gcc/arm-none-eabi/include/c++/10.2.1/cmath ****     { return __builtin_exp(__x); }
 236:/home/hubert/daisy/gcc/arm-none-eabi/include/c++/10.2.1/cmath **** 
 237:/home/hubert/daisy/gcc/arm-none-eabi/include/c++/10.2.1/cmath ****   using ::fabs;
 238:/home/hubert/daisy/gcc/arm-none-eabi/include/c++/10.2.1/cmath **** 
 239:/home/hubert/daisy/gcc/arm-none-eabi/include/c++/10.2.1/cmath **** #ifndef __CORRECT_ISO_CPP_MATH_H_PROTO
 240:/home/hubert/daisy/gcc/arm-none-eabi/include/c++/10.2.1/cmath ****   inline _GLIBCXX_CONSTEXPR float
 241:/home/hubert/daisy/gcc/arm-none-eabi/include/c++/10.2.1/cmath ****   fabs(float __x)
 242:/home/hubert/daisy/gcc/arm-none-eabi/include/c++/10.2.1/cmath ****   { return __builtin_fabsf(__x); }
 243:/home/hubert/daisy/gcc/arm-none-eabi/include/c++/10.2.1/cmath **** 
 244:/home/hubert/daisy/gcc/arm-none-eabi/include/c++/10.2.1/cmath ****   inline _GLIBCXX_CONSTEXPR long double
 245:/home/hubert/daisy/gcc/arm-none-eabi/include/c++/10.2.1/cmath ****   fabs(long double __x)
 246:/home/hubert/daisy/gcc/arm-none-eabi/include/c++/10.2.1/cmath ****   { return __builtin_fabsl(__x); }
 247:/home/hubert/daisy/gcc/arm-none-eabi/include/c++/10.2.1/cmath **** #endif
 248:/home/hubert/daisy/gcc/arm-none-eabi/include/c++/10.2.1/cmath **** 
 249:/home/hubert/daisy/gcc/arm-none-eabi/include/c++/10.2.1/cmath ****   template<typename _Tp>
 250:/home/hubert/daisy/gcc/arm-none-eabi/include/c++/10.2.1/cmath ****     inline _GLIBCXX_CONSTEXPR
 251:/home/hubert/daisy/gcc/arm-none-eabi/include/c++/10.2.1/cmath ****     typename __gnu_cxx::__enable_if<__is_integer<_Tp>::__value,
 252:/home/hubert/daisy/gcc/arm-none-eabi/include/c++/10.2.1/cmath ****                                     double>::__type
 253:/home/hubert/daisy/gcc/arm-none-eabi/include/c++/10.2.1/cmath ****     fabs(_Tp __x)
 254:/home/hubert/daisy/gcc/arm-none-eabi/include/c++/10.2.1/cmath ****     { return __builtin_fabs(__x); }
 255:/home/hubert/daisy/gcc/arm-none-eabi/include/c++/10.2.1/cmath **** 
 256:/home/hubert/daisy/gcc/arm-none-eabi/include/c++/10.2.1/cmath ****   using ::floor;
 257:/home/hubert/daisy/gcc/arm-none-eabi/include/c++/10.2.1/cmath **** 
 258:/home/hubert/daisy/gcc/arm-none-eabi/include/c++/10.2.1/cmath **** #ifndef __CORRECT_ISO_CPP_MATH_H_PROTO
 259:/home/hubert/daisy/gcc/arm-none-eabi/include/c++/10.2.1/cmath ****   inline _GLIBCXX_CONSTEXPR float
 260:/home/hubert/daisy/gcc/arm-none-eabi/include/c++/10.2.1/cmath ****   floor(float __x)
 261:/home/hubert/daisy/gcc/arm-none-eabi/include/c++/10.2.1/cmath ****   { return __builtin_floorf(__x); }
 262:/home/hubert/daisy/gcc/arm-none-eabi/include/c++/10.2.1/cmath **** 
 263:/home/hubert/daisy/gcc/arm-none-eabi/include/c++/10.2.1/cmath ****   inline _GLIBCXX_CONSTEXPR long double
 264:/home/hubert/daisy/gcc/arm-none-eabi/include/c++/10.2.1/cmath ****   floor(long double __x)
 265:/home/hubert/daisy/gcc/arm-none-eabi/include/c++/10.2.1/cmath ****   { return __builtin_floorl(__x); }
 266:/home/hubert/daisy/gcc/arm-none-eabi/include/c++/10.2.1/cmath **** #endif
 267:/home/hubert/daisy/gcc/arm-none-eabi/include/c++/10.2.1/cmath **** 
 268:/home/hubert/daisy/gcc/arm-none-eabi/include/c++/10.2.1/cmath ****   template<typename _Tp>
 269:/home/hubert/daisy/gcc/arm-none-eabi/include/c++/10.2.1/cmath ****     inline _GLIBCXX_CONSTEXPR
 270:/home/hubert/daisy/gcc/arm-none-eabi/include/c++/10.2.1/cmath ****     typename __gnu_cxx::__enable_if<__is_integer<_Tp>::__value,
 271:/home/hubert/daisy/gcc/arm-none-eabi/include/c++/10.2.1/cmath ****                                     double>::__type
 272:/home/hubert/daisy/gcc/arm-none-eabi/include/c++/10.2.1/cmath ****     floor(_Tp __x)
 273:/home/hubert/daisy/gcc/arm-none-eabi/include/c++/10.2.1/cmath ****     { return __builtin_floor(__x); }
 274:/home/hubert/daisy/gcc/arm-none-eabi/include/c++/10.2.1/cmath **** 
 275:/home/hubert/daisy/gcc/arm-none-eabi/include/c++/10.2.1/cmath ****   using ::fmod;
 276:/home/hubert/daisy/gcc/arm-none-eabi/include/c++/10.2.1/cmath **** 
 277:/home/hubert/daisy/gcc/arm-none-eabi/include/c++/10.2.1/cmath **** #ifndef __CORRECT_ISO_CPP_MATH_H_PROTO
 278:/home/hubert/daisy/gcc/arm-none-eabi/include/c++/10.2.1/cmath ****   inline _GLIBCXX_CONSTEXPR float
 279:/home/hubert/daisy/gcc/arm-none-eabi/include/c++/10.2.1/cmath ****   fmod(float __x, float __y)
ARM GAS  /tmp/ccIWsbgU.s 			page 9


 280:/home/hubert/daisy/gcc/arm-none-eabi/include/c++/10.2.1/cmath ****   { return __builtin_fmodf(__x, __y); }
 281:/home/hubert/daisy/gcc/arm-none-eabi/include/c++/10.2.1/cmath **** 
 282:/home/hubert/daisy/gcc/arm-none-eabi/include/c++/10.2.1/cmath ****   inline _GLIBCXX_CONSTEXPR long double
 283:/home/hubert/daisy/gcc/arm-none-eabi/include/c++/10.2.1/cmath ****   fmod(long double __x, long double __y)
 284:/home/hubert/daisy/gcc/arm-none-eabi/include/c++/10.2.1/cmath ****   { return __builtin_fmodl(__x, __y); }
 285:/home/hubert/daisy/gcc/arm-none-eabi/include/c++/10.2.1/cmath **** #endif
 286:/home/hubert/daisy/gcc/arm-none-eabi/include/c++/10.2.1/cmath **** 
 287:/home/hubert/daisy/gcc/arm-none-eabi/include/c++/10.2.1/cmath ****   template<typename _Tp, typename _Up>
 288:/home/hubert/daisy/gcc/arm-none-eabi/include/c++/10.2.1/cmath ****     inline _GLIBCXX_CONSTEXPR
 289:/home/hubert/daisy/gcc/arm-none-eabi/include/c++/10.2.1/cmath ****     typename __gnu_cxx::__promote_2<_Tp, _Up>::__type
 290:/home/hubert/daisy/gcc/arm-none-eabi/include/c++/10.2.1/cmath ****     fmod(_Tp __x, _Up __y)
 291:/home/hubert/daisy/gcc/arm-none-eabi/include/c++/10.2.1/cmath ****     {
 292:/home/hubert/daisy/gcc/arm-none-eabi/include/c++/10.2.1/cmath ****       typedef typename __gnu_cxx::__promote_2<_Tp, _Up>::__type __type;
 293:/home/hubert/daisy/gcc/arm-none-eabi/include/c++/10.2.1/cmath ****       return fmod(__type(__x), __type(__y));
 294:/home/hubert/daisy/gcc/arm-none-eabi/include/c++/10.2.1/cmath ****     }
 295:/home/hubert/daisy/gcc/arm-none-eabi/include/c++/10.2.1/cmath **** 
 296:/home/hubert/daisy/gcc/arm-none-eabi/include/c++/10.2.1/cmath ****   using ::frexp;
 297:/home/hubert/daisy/gcc/arm-none-eabi/include/c++/10.2.1/cmath **** 
 298:/home/hubert/daisy/gcc/arm-none-eabi/include/c++/10.2.1/cmath **** #ifndef __CORRECT_ISO_CPP_MATH_H_PROTO
 299:/home/hubert/daisy/gcc/arm-none-eabi/include/c++/10.2.1/cmath ****   inline float
 300:/home/hubert/daisy/gcc/arm-none-eabi/include/c++/10.2.1/cmath ****   frexp(float __x, int* __exp)
 301:/home/hubert/daisy/gcc/arm-none-eabi/include/c++/10.2.1/cmath ****   { return __builtin_frexpf(__x, __exp); }
 302:/home/hubert/daisy/gcc/arm-none-eabi/include/c++/10.2.1/cmath **** 
 303:/home/hubert/daisy/gcc/arm-none-eabi/include/c++/10.2.1/cmath ****   inline long double
 304:/home/hubert/daisy/gcc/arm-none-eabi/include/c++/10.2.1/cmath ****   frexp(long double __x, int* __exp)
 305:/home/hubert/daisy/gcc/arm-none-eabi/include/c++/10.2.1/cmath ****   { return __builtin_frexpl(__x, __exp); }
 306:/home/hubert/daisy/gcc/arm-none-eabi/include/c++/10.2.1/cmath **** #endif
 307:/home/hubert/daisy/gcc/arm-none-eabi/include/c++/10.2.1/cmath **** 
 308:/home/hubert/daisy/gcc/arm-none-eabi/include/c++/10.2.1/cmath ****   template<typename _Tp>
 309:/home/hubert/daisy/gcc/arm-none-eabi/include/c++/10.2.1/cmath ****     inline _GLIBCXX_CONSTEXPR
 310:/home/hubert/daisy/gcc/arm-none-eabi/include/c++/10.2.1/cmath ****     typename __gnu_cxx::__enable_if<__is_integer<_Tp>::__value, 
 311:/home/hubert/daisy/gcc/arm-none-eabi/include/c++/10.2.1/cmath ****                                     double>::__type
 312:/home/hubert/daisy/gcc/arm-none-eabi/include/c++/10.2.1/cmath ****     frexp(_Tp __x, int* __exp)
 313:/home/hubert/daisy/gcc/arm-none-eabi/include/c++/10.2.1/cmath ****     { return __builtin_frexp(__x, __exp); }
 314:/home/hubert/daisy/gcc/arm-none-eabi/include/c++/10.2.1/cmath **** 
 315:/home/hubert/daisy/gcc/arm-none-eabi/include/c++/10.2.1/cmath ****   using ::ldexp;
 316:/home/hubert/daisy/gcc/arm-none-eabi/include/c++/10.2.1/cmath **** 
 317:/home/hubert/daisy/gcc/arm-none-eabi/include/c++/10.2.1/cmath **** #ifndef __CORRECT_ISO_CPP_MATH_H_PROTO
 318:/home/hubert/daisy/gcc/arm-none-eabi/include/c++/10.2.1/cmath ****   inline _GLIBCXX_CONSTEXPR float
 319:/home/hubert/daisy/gcc/arm-none-eabi/include/c++/10.2.1/cmath ****   ldexp(float __x, int __exp)
 320:/home/hubert/daisy/gcc/arm-none-eabi/include/c++/10.2.1/cmath ****   { return __builtin_ldexpf(__x, __exp); }
 321:/home/hubert/daisy/gcc/arm-none-eabi/include/c++/10.2.1/cmath **** 
 322:/home/hubert/daisy/gcc/arm-none-eabi/include/c++/10.2.1/cmath ****   inline _GLIBCXX_CONSTEXPR long double
 323:/home/hubert/daisy/gcc/arm-none-eabi/include/c++/10.2.1/cmath ****   ldexp(long double __x, int __exp)
 324:/home/hubert/daisy/gcc/arm-none-eabi/include/c++/10.2.1/cmath ****   { return __builtin_ldexpl(__x, __exp); }
 325:/home/hubert/daisy/gcc/arm-none-eabi/include/c++/10.2.1/cmath **** #endif
 326:/home/hubert/daisy/gcc/arm-none-eabi/include/c++/10.2.1/cmath **** 
 327:/home/hubert/daisy/gcc/arm-none-eabi/include/c++/10.2.1/cmath ****   template<typename _Tp>
 328:/home/hubert/daisy/gcc/arm-none-eabi/include/c++/10.2.1/cmath ****     inline _GLIBCXX_CONSTEXPR
 329:/home/hubert/daisy/gcc/arm-none-eabi/include/c++/10.2.1/cmath ****     typename __gnu_cxx::__enable_if<__is_integer<_Tp>::__value, 
 330:/home/hubert/daisy/gcc/arm-none-eabi/include/c++/10.2.1/cmath ****                                     double>::__type
 331:/home/hubert/daisy/gcc/arm-none-eabi/include/c++/10.2.1/cmath ****     ldexp(_Tp __x, int __exp)
 332:/home/hubert/daisy/gcc/arm-none-eabi/include/c++/10.2.1/cmath ****     { return __builtin_ldexp(__x, __exp); }
 333:/home/hubert/daisy/gcc/arm-none-eabi/include/c++/10.2.1/cmath **** 
 334:/home/hubert/daisy/gcc/arm-none-eabi/include/c++/10.2.1/cmath ****   using ::log;
 335:/home/hubert/daisy/gcc/arm-none-eabi/include/c++/10.2.1/cmath **** 
 336:/home/hubert/daisy/gcc/arm-none-eabi/include/c++/10.2.1/cmath **** #ifndef __CORRECT_ISO_CPP_MATH_H_PROTO
ARM GAS  /tmp/ccIWsbgU.s 			page 10


 337:/home/hubert/daisy/gcc/arm-none-eabi/include/c++/10.2.1/cmath ****   inline _GLIBCXX_CONSTEXPR float
 338:/home/hubert/daisy/gcc/arm-none-eabi/include/c++/10.2.1/cmath ****   log(float __x)
 339:/home/hubert/daisy/gcc/arm-none-eabi/include/c++/10.2.1/cmath ****   { return __builtin_logf(__x); }
 340:/home/hubert/daisy/gcc/arm-none-eabi/include/c++/10.2.1/cmath **** 
 341:/home/hubert/daisy/gcc/arm-none-eabi/include/c++/10.2.1/cmath ****   inline _GLIBCXX_CONSTEXPR long double
 342:/home/hubert/daisy/gcc/arm-none-eabi/include/c++/10.2.1/cmath ****   log(long double __x)
 343:/home/hubert/daisy/gcc/arm-none-eabi/include/c++/10.2.1/cmath ****   { return __builtin_logl(__x); }
 344:/home/hubert/daisy/gcc/arm-none-eabi/include/c++/10.2.1/cmath **** #endif
 345:/home/hubert/daisy/gcc/arm-none-eabi/include/c++/10.2.1/cmath **** 
 346:/home/hubert/daisy/gcc/arm-none-eabi/include/c++/10.2.1/cmath ****   template<typename _Tp>
 347:/home/hubert/daisy/gcc/arm-none-eabi/include/c++/10.2.1/cmath ****     inline _GLIBCXX_CONSTEXPR
 348:/home/hubert/daisy/gcc/arm-none-eabi/include/c++/10.2.1/cmath ****     typename __gnu_cxx::__enable_if<__is_integer<_Tp>::__value, 
 349:/home/hubert/daisy/gcc/arm-none-eabi/include/c++/10.2.1/cmath ****                                     double>::__type
 350:/home/hubert/daisy/gcc/arm-none-eabi/include/c++/10.2.1/cmath ****     log(_Tp __x)
 351:/home/hubert/daisy/gcc/arm-none-eabi/include/c++/10.2.1/cmath ****     { return __builtin_log(__x); }
 352:/home/hubert/daisy/gcc/arm-none-eabi/include/c++/10.2.1/cmath **** 
 353:/home/hubert/daisy/gcc/arm-none-eabi/include/c++/10.2.1/cmath ****   using ::log10;
 354:/home/hubert/daisy/gcc/arm-none-eabi/include/c++/10.2.1/cmath **** 
 355:/home/hubert/daisy/gcc/arm-none-eabi/include/c++/10.2.1/cmath **** #ifndef __CORRECT_ISO_CPP_MATH_H_PROTO
 356:/home/hubert/daisy/gcc/arm-none-eabi/include/c++/10.2.1/cmath ****   inline _GLIBCXX_CONSTEXPR float
 357:/home/hubert/daisy/gcc/arm-none-eabi/include/c++/10.2.1/cmath ****   log10(float __x)
 358:/home/hubert/daisy/gcc/arm-none-eabi/include/c++/10.2.1/cmath ****   { return __builtin_log10f(__x); }
 359:/home/hubert/daisy/gcc/arm-none-eabi/include/c++/10.2.1/cmath **** 
 360:/home/hubert/daisy/gcc/arm-none-eabi/include/c++/10.2.1/cmath ****   inline _GLIBCXX_CONSTEXPR long double
 361:/home/hubert/daisy/gcc/arm-none-eabi/include/c++/10.2.1/cmath ****   log10(long double __x)
 362:/home/hubert/daisy/gcc/arm-none-eabi/include/c++/10.2.1/cmath ****   { return __builtin_log10l(__x); }
 363:/home/hubert/daisy/gcc/arm-none-eabi/include/c++/10.2.1/cmath **** #endif
 364:/home/hubert/daisy/gcc/arm-none-eabi/include/c++/10.2.1/cmath **** 
 365:/home/hubert/daisy/gcc/arm-none-eabi/include/c++/10.2.1/cmath ****   template<typename _Tp>
 366:/home/hubert/daisy/gcc/arm-none-eabi/include/c++/10.2.1/cmath ****     inline _GLIBCXX_CONSTEXPR
 367:/home/hubert/daisy/gcc/arm-none-eabi/include/c++/10.2.1/cmath ****     typename __gnu_cxx::__enable_if<__is_integer<_Tp>::__value,
 368:/home/hubert/daisy/gcc/arm-none-eabi/include/c++/10.2.1/cmath ****                                     double>::__type
 369:/home/hubert/daisy/gcc/arm-none-eabi/include/c++/10.2.1/cmath ****     log10(_Tp __x)
 370:/home/hubert/daisy/gcc/arm-none-eabi/include/c++/10.2.1/cmath ****     { return __builtin_log10(__x); }
 371:/home/hubert/daisy/gcc/arm-none-eabi/include/c++/10.2.1/cmath **** 
 372:/home/hubert/daisy/gcc/arm-none-eabi/include/c++/10.2.1/cmath ****   using ::modf;
 373:/home/hubert/daisy/gcc/arm-none-eabi/include/c++/10.2.1/cmath **** 
 374:/home/hubert/daisy/gcc/arm-none-eabi/include/c++/10.2.1/cmath **** #ifndef __CORRECT_ISO_CPP_MATH_H_PROTO
 375:/home/hubert/daisy/gcc/arm-none-eabi/include/c++/10.2.1/cmath ****   inline float
 376:/home/hubert/daisy/gcc/arm-none-eabi/include/c++/10.2.1/cmath ****   modf(float __x, float* __iptr)
 377:/home/hubert/daisy/gcc/arm-none-eabi/include/c++/10.2.1/cmath ****   { return __builtin_modff(__x, __iptr); }
 378:/home/hubert/daisy/gcc/arm-none-eabi/include/c++/10.2.1/cmath **** 
 379:/home/hubert/daisy/gcc/arm-none-eabi/include/c++/10.2.1/cmath ****   inline long double
 380:/home/hubert/daisy/gcc/arm-none-eabi/include/c++/10.2.1/cmath ****   modf(long double __x, long double* __iptr)
 381:/home/hubert/daisy/gcc/arm-none-eabi/include/c++/10.2.1/cmath ****   { return __builtin_modfl(__x, __iptr); }
 382:/home/hubert/daisy/gcc/arm-none-eabi/include/c++/10.2.1/cmath **** #endif
 383:/home/hubert/daisy/gcc/arm-none-eabi/include/c++/10.2.1/cmath **** 
 384:/home/hubert/daisy/gcc/arm-none-eabi/include/c++/10.2.1/cmath ****   using ::pow;
 385:/home/hubert/daisy/gcc/arm-none-eabi/include/c++/10.2.1/cmath **** 
 386:/home/hubert/daisy/gcc/arm-none-eabi/include/c++/10.2.1/cmath **** #ifndef __CORRECT_ISO_CPP_MATH_H_PROTO
 387:/home/hubert/daisy/gcc/arm-none-eabi/include/c++/10.2.1/cmath ****   inline _GLIBCXX_CONSTEXPR float
 388:/home/hubert/daisy/gcc/arm-none-eabi/include/c++/10.2.1/cmath ****   pow(float __x, float __y)
 389:/home/hubert/daisy/gcc/arm-none-eabi/include/c++/10.2.1/cmath ****   { return __builtin_powf(__x, __y); }
 390:/home/hubert/daisy/gcc/arm-none-eabi/include/c++/10.2.1/cmath **** 
 391:/home/hubert/daisy/gcc/arm-none-eabi/include/c++/10.2.1/cmath ****   inline _GLIBCXX_CONSTEXPR long double
 392:/home/hubert/daisy/gcc/arm-none-eabi/include/c++/10.2.1/cmath ****   pow(long double __x, long double __y)
 393:/home/hubert/daisy/gcc/arm-none-eabi/include/c++/10.2.1/cmath ****   { return __builtin_powl(__x, __y); }
ARM GAS  /tmp/ccIWsbgU.s 			page 11


 394:/home/hubert/daisy/gcc/arm-none-eabi/include/c++/10.2.1/cmath **** 
 395:/home/hubert/daisy/gcc/arm-none-eabi/include/c++/10.2.1/cmath **** #if __cplusplus < 201103L
 396:/home/hubert/daisy/gcc/arm-none-eabi/include/c++/10.2.1/cmath ****   // _GLIBCXX_RESOLVE_LIB_DEFECTS
 397:/home/hubert/daisy/gcc/arm-none-eabi/include/c++/10.2.1/cmath ****   // DR 550. What should the return type of pow(float,int) be?
 398:/home/hubert/daisy/gcc/arm-none-eabi/include/c++/10.2.1/cmath ****   inline double
 399:/home/hubert/daisy/gcc/arm-none-eabi/include/c++/10.2.1/cmath ****   pow(double __x, int __i)
 400:/home/hubert/daisy/gcc/arm-none-eabi/include/c++/10.2.1/cmath ****   { return __builtin_powi(__x, __i); }
 401:/home/hubert/daisy/gcc/arm-none-eabi/include/c++/10.2.1/cmath **** 
 402:/home/hubert/daisy/gcc/arm-none-eabi/include/c++/10.2.1/cmath ****   inline float
 403:/home/hubert/daisy/gcc/arm-none-eabi/include/c++/10.2.1/cmath ****   pow(float __x, int __n)
 404:/home/hubert/daisy/gcc/arm-none-eabi/include/c++/10.2.1/cmath ****   { return __builtin_powif(__x, __n); }
 405:/home/hubert/daisy/gcc/arm-none-eabi/include/c++/10.2.1/cmath **** 
 406:/home/hubert/daisy/gcc/arm-none-eabi/include/c++/10.2.1/cmath ****   inline long double
 407:/home/hubert/daisy/gcc/arm-none-eabi/include/c++/10.2.1/cmath ****   pow(long double __x, int __n)
 408:/home/hubert/daisy/gcc/arm-none-eabi/include/c++/10.2.1/cmath ****   { return __builtin_powil(__x, __n); }
 409:/home/hubert/daisy/gcc/arm-none-eabi/include/c++/10.2.1/cmath **** #endif
 410:/home/hubert/daisy/gcc/arm-none-eabi/include/c++/10.2.1/cmath **** #endif
 411:/home/hubert/daisy/gcc/arm-none-eabi/include/c++/10.2.1/cmath **** 
 412:/home/hubert/daisy/gcc/arm-none-eabi/include/c++/10.2.1/cmath ****   template<typename _Tp, typename _Up>
 413:/home/hubert/daisy/gcc/arm-none-eabi/include/c++/10.2.1/cmath ****     inline _GLIBCXX_CONSTEXPR
 414:/home/hubert/daisy/gcc/arm-none-eabi/include/c++/10.2.1/cmath ****     typename __gnu_cxx::__promote_2<_Tp, _Up>::__type
 415:/home/hubert/daisy/gcc/arm-none-eabi/include/c++/10.2.1/cmath ****     pow(_Tp __x, _Up __y)
 416:/home/hubert/daisy/gcc/arm-none-eabi/include/c++/10.2.1/cmath ****     {
 417:/home/hubert/daisy/gcc/arm-none-eabi/include/c++/10.2.1/cmath ****       typedef typename __gnu_cxx::__promote_2<_Tp, _Up>::__type __type;
 418:/home/hubert/daisy/gcc/arm-none-eabi/include/c++/10.2.1/cmath ****       return pow(__type(__x), __type(__y));
 419:/home/hubert/daisy/gcc/arm-none-eabi/include/c++/10.2.1/cmath ****     }
 420:/home/hubert/daisy/gcc/arm-none-eabi/include/c++/10.2.1/cmath **** 
 421:/home/hubert/daisy/gcc/arm-none-eabi/include/c++/10.2.1/cmath ****   using ::sin;
 422:/home/hubert/daisy/gcc/arm-none-eabi/include/c++/10.2.1/cmath **** 
 423:/home/hubert/daisy/gcc/arm-none-eabi/include/c++/10.2.1/cmath **** #ifndef __CORRECT_ISO_CPP_MATH_H_PROTO
 424:/home/hubert/daisy/gcc/arm-none-eabi/include/c++/10.2.1/cmath ****   inline _GLIBCXX_CONSTEXPR float
 425:/home/hubert/daisy/gcc/arm-none-eabi/include/c++/10.2.1/cmath ****   sin(float __x)
 426:/home/hubert/daisy/gcc/arm-none-eabi/include/c++/10.2.1/cmath ****   { return __builtin_sinf(__x); }
 107              		.loc 2 426 3
 108              		.cfi_startproc
 109              		@ args = 0, pretend = 0, frame = 8
 110              		@ frame_needed = 1, uses_anonymous_args = 0
 111 0000 80B5     		push	{r7, lr}
 112              		.cfi_def_cfa_offset 8
 113              		.cfi_offset 7, -8
 114              		.cfi_offset 14, -4
 115 0002 82B0     		sub	sp, sp, #8
 116              		.cfi_def_cfa_offset 16
 117 0004 00AF     		add	r7, sp, #0
 118              		.cfi_def_cfa_register 7
 119 0006 87ED010A 		vstr.32	s0, [r7, #4]
 120              		.loc 2 426 26
 121 000a 97ED010A 		vldr.32	s0, [r7, #4]
 122 000e FFF7FEFF 		bl	sinf
 123 0012 F0EE407A 		vmov.f32	s15, s0
 124              		.loc 2 426 33
 125 0016 B0EE670A 		vmov.f32	s0, s15
 126 001a 0837     		adds	r7, r7, #8
 127              		.cfi_def_cfa_offset 8
 128 001c BD46     		mov	sp, r7
 129              		.cfi_def_cfa_register 13
 130              		@ sp needed
ARM GAS  /tmp/ccIWsbgU.s 			page 12


 131 001e 80BD     		pop	{r7, pc}
 132              		.cfi_endproc
 133              	.LFE193:
 135              		.section	.text._ZSt5roundf,"axG",%progbits,_ZSt5roundf,comdat
 136              		.align	1
 137              		.weak	_ZSt5roundf
 138              		.syntax unified
 139              		.thumb
 140              		.thumb_func
 141              		.fpu fpv5-d16
 143              	_ZSt5roundf:
 144              	.LFB343:
 427:/home/hubert/daisy/gcc/arm-none-eabi/include/c++/10.2.1/cmath **** 
 428:/home/hubert/daisy/gcc/arm-none-eabi/include/c++/10.2.1/cmath ****   inline _GLIBCXX_CONSTEXPR long double
 429:/home/hubert/daisy/gcc/arm-none-eabi/include/c++/10.2.1/cmath ****   sin(long double __x)
 430:/home/hubert/daisy/gcc/arm-none-eabi/include/c++/10.2.1/cmath ****   { return __builtin_sinl(__x); }
 431:/home/hubert/daisy/gcc/arm-none-eabi/include/c++/10.2.1/cmath **** #endif
 432:/home/hubert/daisy/gcc/arm-none-eabi/include/c++/10.2.1/cmath **** 
 433:/home/hubert/daisy/gcc/arm-none-eabi/include/c++/10.2.1/cmath ****   template<typename _Tp>
 434:/home/hubert/daisy/gcc/arm-none-eabi/include/c++/10.2.1/cmath ****     inline _GLIBCXX_CONSTEXPR
 435:/home/hubert/daisy/gcc/arm-none-eabi/include/c++/10.2.1/cmath ****     typename __gnu_cxx::__enable_if<__is_integer<_Tp>::__value, 
 436:/home/hubert/daisy/gcc/arm-none-eabi/include/c++/10.2.1/cmath ****                                     double>::__type
 437:/home/hubert/daisy/gcc/arm-none-eabi/include/c++/10.2.1/cmath ****     sin(_Tp __x)
 438:/home/hubert/daisy/gcc/arm-none-eabi/include/c++/10.2.1/cmath ****     { return __builtin_sin(__x); }
 439:/home/hubert/daisy/gcc/arm-none-eabi/include/c++/10.2.1/cmath **** 
 440:/home/hubert/daisy/gcc/arm-none-eabi/include/c++/10.2.1/cmath ****   using ::sinh;
 441:/home/hubert/daisy/gcc/arm-none-eabi/include/c++/10.2.1/cmath **** 
 442:/home/hubert/daisy/gcc/arm-none-eabi/include/c++/10.2.1/cmath **** #ifndef __CORRECT_ISO_CPP_MATH_H_PROTO
 443:/home/hubert/daisy/gcc/arm-none-eabi/include/c++/10.2.1/cmath ****   inline _GLIBCXX_CONSTEXPR float
 444:/home/hubert/daisy/gcc/arm-none-eabi/include/c++/10.2.1/cmath ****   sinh(float __x)
 445:/home/hubert/daisy/gcc/arm-none-eabi/include/c++/10.2.1/cmath ****   { return __builtin_sinhf(__x); }
 446:/home/hubert/daisy/gcc/arm-none-eabi/include/c++/10.2.1/cmath **** 
 447:/home/hubert/daisy/gcc/arm-none-eabi/include/c++/10.2.1/cmath ****   inline _GLIBCXX_CONSTEXPR long double
 448:/home/hubert/daisy/gcc/arm-none-eabi/include/c++/10.2.1/cmath ****   sinh(long double __x)
 449:/home/hubert/daisy/gcc/arm-none-eabi/include/c++/10.2.1/cmath ****   { return __builtin_sinhl(__x); }
 450:/home/hubert/daisy/gcc/arm-none-eabi/include/c++/10.2.1/cmath **** #endif
 451:/home/hubert/daisy/gcc/arm-none-eabi/include/c++/10.2.1/cmath **** 
 452:/home/hubert/daisy/gcc/arm-none-eabi/include/c++/10.2.1/cmath ****   template<typename _Tp>
 453:/home/hubert/daisy/gcc/arm-none-eabi/include/c++/10.2.1/cmath ****     inline _GLIBCXX_CONSTEXPR
 454:/home/hubert/daisy/gcc/arm-none-eabi/include/c++/10.2.1/cmath ****     typename __gnu_cxx::__enable_if<__is_integer<_Tp>::__value, 
 455:/home/hubert/daisy/gcc/arm-none-eabi/include/c++/10.2.1/cmath ****                                     double>::__type
 456:/home/hubert/daisy/gcc/arm-none-eabi/include/c++/10.2.1/cmath ****     sinh(_Tp __x)
 457:/home/hubert/daisy/gcc/arm-none-eabi/include/c++/10.2.1/cmath ****     { return __builtin_sinh(__x); }
 458:/home/hubert/daisy/gcc/arm-none-eabi/include/c++/10.2.1/cmath **** 
 459:/home/hubert/daisy/gcc/arm-none-eabi/include/c++/10.2.1/cmath ****   using ::sqrt;
 460:/home/hubert/daisy/gcc/arm-none-eabi/include/c++/10.2.1/cmath **** 
 461:/home/hubert/daisy/gcc/arm-none-eabi/include/c++/10.2.1/cmath **** #ifndef __CORRECT_ISO_CPP_MATH_H_PROTO
 462:/home/hubert/daisy/gcc/arm-none-eabi/include/c++/10.2.1/cmath ****   inline _GLIBCXX_CONSTEXPR float
 463:/home/hubert/daisy/gcc/arm-none-eabi/include/c++/10.2.1/cmath ****   sqrt(float __x)
 464:/home/hubert/daisy/gcc/arm-none-eabi/include/c++/10.2.1/cmath ****   { return __builtin_sqrtf(__x); }
 465:/home/hubert/daisy/gcc/arm-none-eabi/include/c++/10.2.1/cmath **** 
 466:/home/hubert/daisy/gcc/arm-none-eabi/include/c++/10.2.1/cmath ****   inline _GLIBCXX_CONSTEXPR long double
 467:/home/hubert/daisy/gcc/arm-none-eabi/include/c++/10.2.1/cmath ****   sqrt(long double __x)
 468:/home/hubert/daisy/gcc/arm-none-eabi/include/c++/10.2.1/cmath ****   { return __builtin_sqrtl(__x); }
 469:/home/hubert/daisy/gcc/arm-none-eabi/include/c++/10.2.1/cmath **** #endif
 470:/home/hubert/daisy/gcc/arm-none-eabi/include/c++/10.2.1/cmath **** 
 471:/home/hubert/daisy/gcc/arm-none-eabi/include/c++/10.2.1/cmath ****   template<typename _Tp>
ARM GAS  /tmp/ccIWsbgU.s 			page 13


 472:/home/hubert/daisy/gcc/arm-none-eabi/include/c++/10.2.1/cmath ****     inline _GLIBCXX_CONSTEXPR
 473:/home/hubert/daisy/gcc/arm-none-eabi/include/c++/10.2.1/cmath ****     typename __gnu_cxx::__enable_if<__is_integer<_Tp>::__value, 
 474:/home/hubert/daisy/gcc/arm-none-eabi/include/c++/10.2.1/cmath ****                                     double>::__type
 475:/home/hubert/daisy/gcc/arm-none-eabi/include/c++/10.2.1/cmath ****     sqrt(_Tp __x)
 476:/home/hubert/daisy/gcc/arm-none-eabi/include/c++/10.2.1/cmath ****     { return __builtin_sqrt(__x); }
 477:/home/hubert/daisy/gcc/arm-none-eabi/include/c++/10.2.1/cmath **** 
 478:/home/hubert/daisy/gcc/arm-none-eabi/include/c++/10.2.1/cmath ****   using ::tan;
 479:/home/hubert/daisy/gcc/arm-none-eabi/include/c++/10.2.1/cmath **** 
 480:/home/hubert/daisy/gcc/arm-none-eabi/include/c++/10.2.1/cmath **** #ifndef __CORRECT_ISO_CPP_MATH_H_PROTO
 481:/home/hubert/daisy/gcc/arm-none-eabi/include/c++/10.2.1/cmath ****   inline _GLIBCXX_CONSTEXPR float
 482:/home/hubert/daisy/gcc/arm-none-eabi/include/c++/10.2.1/cmath ****   tan(float __x)
 483:/home/hubert/daisy/gcc/arm-none-eabi/include/c++/10.2.1/cmath ****   { return __builtin_tanf(__x); }
 484:/home/hubert/daisy/gcc/arm-none-eabi/include/c++/10.2.1/cmath **** 
 485:/home/hubert/daisy/gcc/arm-none-eabi/include/c++/10.2.1/cmath ****   inline _GLIBCXX_CONSTEXPR long double
 486:/home/hubert/daisy/gcc/arm-none-eabi/include/c++/10.2.1/cmath ****   tan(long double __x)
 487:/home/hubert/daisy/gcc/arm-none-eabi/include/c++/10.2.1/cmath ****   { return __builtin_tanl(__x); }
 488:/home/hubert/daisy/gcc/arm-none-eabi/include/c++/10.2.1/cmath **** #endif
 489:/home/hubert/daisy/gcc/arm-none-eabi/include/c++/10.2.1/cmath **** 
 490:/home/hubert/daisy/gcc/arm-none-eabi/include/c++/10.2.1/cmath ****   template<typename _Tp>
 491:/home/hubert/daisy/gcc/arm-none-eabi/include/c++/10.2.1/cmath ****     inline _GLIBCXX_CONSTEXPR
 492:/home/hubert/daisy/gcc/arm-none-eabi/include/c++/10.2.1/cmath ****     typename __gnu_cxx::__enable_if<__is_integer<_Tp>::__value, 
 493:/home/hubert/daisy/gcc/arm-none-eabi/include/c++/10.2.1/cmath ****                                     double>::__type
 494:/home/hubert/daisy/gcc/arm-none-eabi/include/c++/10.2.1/cmath ****     tan(_Tp __x)
 495:/home/hubert/daisy/gcc/arm-none-eabi/include/c++/10.2.1/cmath ****     { return __builtin_tan(__x); }
 496:/home/hubert/daisy/gcc/arm-none-eabi/include/c++/10.2.1/cmath **** 
 497:/home/hubert/daisy/gcc/arm-none-eabi/include/c++/10.2.1/cmath ****   using ::tanh;
 498:/home/hubert/daisy/gcc/arm-none-eabi/include/c++/10.2.1/cmath **** 
 499:/home/hubert/daisy/gcc/arm-none-eabi/include/c++/10.2.1/cmath **** #ifndef __CORRECT_ISO_CPP_MATH_H_PROTO
 500:/home/hubert/daisy/gcc/arm-none-eabi/include/c++/10.2.1/cmath ****   inline _GLIBCXX_CONSTEXPR float
 501:/home/hubert/daisy/gcc/arm-none-eabi/include/c++/10.2.1/cmath ****   tanh(float __x)
 502:/home/hubert/daisy/gcc/arm-none-eabi/include/c++/10.2.1/cmath ****   { return __builtin_tanhf(__x); }
 503:/home/hubert/daisy/gcc/arm-none-eabi/include/c++/10.2.1/cmath **** 
 504:/home/hubert/daisy/gcc/arm-none-eabi/include/c++/10.2.1/cmath ****   inline _GLIBCXX_CONSTEXPR long double
 505:/home/hubert/daisy/gcc/arm-none-eabi/include/c++/10.2.1/cmath ****   tanh(long double __x)
 506:/home/hubert/daisy/gcc/arm-none-eabi/include/c++/10.2.1/cmath ****   { return __builtin_tanhl(__x); }
 507:/home/hubert/daisy/gcc/arm-none-eabi/include/c++/10.2.1/cmath **** #endif
 508:/home/hubert/daisy/gcc/arm-none-eabi/include/c++/10.2.1/cmath **** 
 509:/home/hubert/daisy/gcc/arm-none-eabi/include/c++/10.2.1/cmath ****   template<typename _Tp>
 510:/home/hubert/daisy/gcc/arm-none-eabi/include/c++/10.2.1/cmath ****     inline _GLIBCXX_CONSTEXPR
 511:/home/hubert/daisy/gcc/arm-none-eabi/include/c++/10.2.1/cmath ****     typename __gnu_cxx::__enable_if<__is_integer<_Tp>::__value, 
 512:/home/hubert/daisy/gcc/arm-none-eabi/include/c++/10.2.1/cmath ****                                     double>::__type
 513:/home/hubert/daisy/gcc/arm-none-eabi/include/c++/10.2.1/cmath ****     tanh(_Tp __x)
 514:/home/hubert/daisy/gcc/arm-none-eabi/include/c++/10.2.1/cmath ****     { return __builtin_tanh(__x); }
 515:/home/hubert/daisy/gcc/arm-none-eabi/include/c++/10.2.1/cmath **** 
 516:/home/hubert/daisy/gcc/arm-none-eabi/include/c++/10.2.1/cmath **** #if _GLIBCXX_USE_C99_MATH
 517:/home/hubert/daisy/gcc/arm-none-eabi/include/c++/10.2.1/cmath **** #if !_GLIBCXX_USE_C99_FP_MACROS_DYNAMIC
 518:/home/hubert/daisy/gcc/arm-none-eabi/include/c++/10.2.1/cmath **** 
 519:/home/hubert/daisy/gcc/arm-none-eabi/include/c++/10.2.1/cmath **** // These are possible macros imported from C99-land.
 520:/home/hubert/daisy/gcc/arm-none-eabi/include/c++/10.2.1/cmath **** #undef fpclassify
 521:/home/hubert/daisy/gcc/arm-none-eabi/include/c++/10.2.1/cmath **** #undef isfinite
 522:/home/hubert/daisy/gcc/arm-none-eabi/include/c++/10.2.1/cmath **** #undef isinf
 523:/home/hubert/daisy/gcc/arm-none-eabi/include/c++/10.2.1/cmath **** #undef isnan
 524:/home/hubert/daisy/gcc/arm-none-eabi/include/c++/10.2.1/cmath **** #undef isnormal
 525:/home/hubert/daisy/gcc/arm-none-eabi/include/c++/10.2.1/cmath **** #undef signbit
 526:/home/hubert/daisy/gcc/arm-none-eabi/include/c++/10.2.1/cmath **** #undef isgreater
 527:/home/hubert/daisy/gcc/arm-none-eabi/include/c++/10.2.1/cmath **** #undef isgreaterequal
 528:/home/hubert/daisy/gcc/arm-none-eabi/include/c++/10.2.1/cmath **** #undef isless
ARM GAS  /tmp/ccIWsbgU.s 			page 14


 529:/home/hubert/daisy/gcc/arm-none-eabi/include/c++/10.2.1/cmath **** #undef islessequal
 530:/home/hubert/daisy/gcc/arm-none-eabi/include/c++/10.2.1/cmath **** #undef islessgreater
 531:/home/hubert/daisy/gcc/arm-none-eabi/include/c++/10.2.1/cmath **** #undef isunordered
 532:/home/hubert/daisy/gcc/arm-none-eabi/include/c++/10.2.1/cmath **** 
 533:/home/hubert/daisy/gcc/arm-none-eabi/include/c++/10.2.1/cmath **** #if __cplusplus >= 201103L
 534:/home/hubert/daisy/gcc/arm-none-eabi/include/c++/10.2.1/cmath **** 
 535:/home/hubert/daisy/gcc/arm-none-eabi/include/c++/10.2.1/cmath **** #ifndef __CORRECT_ISO_CPP11_MATH_H_PROTO_FP
 536:/home/hubert/daisy/gcc/arm-none-eabi/include/c++/10.2.1/cmath ****   constexpr int
 537:/home/hubert/daisy/gcc/arm-none-eabi/include/c++/10.2.1/cmath ****   fpclassify(float __x)
 538:/home/hubert/daisy/gcc/arm-none-eabi/include/c++/10.2.1/cmath ****   { return __builtin_fpclassify(FP_NAN, FP_INFINITE, FP_NORMAL,
 539:/home/hubert/daisy/gcc/arm-none-eabi/include/c++/10.2.1/cmath **** 				FP_SUBNORMAL, FP_ZERO, __x); }
 540:/home/hubert/daisy/gcc/arm-none-eabi/include/c++/10.2.1/cmath **** 
 541:/home/hubert/daisy/gcc/arm-none-eabi/include/c++/10.2.1/cmath ****   constexpr int
 542:/home/hubert/daisy/gcc/arm-none-eabi/include/c++/10.2.1/cmath ****   fpclassify(double __x)
 543:/home/hubert/daisy/gcc/arm-none-eabi/include/c++/10.2.1/cmath ****   { return __builtin_fpclassify(FP_NAN, FP_INFINITE, FP_NORMAL,
 544:/home/hubert/daisy/gcc/arm-none-eabi/include/c++/10.2.1/cmath **** 				FP_SUBNORMAL, FP_ZERO, __x); }
 545:/home/hubert/daisy/gcc/arm-none-eabi/include/c++/10.2.1/cmath **** 
 546:/home/hubert/daisy/gcc/arm-none-eabi/include/c++/10.2.1/cmath ****   constexpr int
 547:/home/hubert/daisy/gcc/arm-none-eabi/include/c++/10.2.1/cmath ****   fpclassify(long double __x)
 548:/home/hubert/daisy/gcc/arm-none-eabi/include/c++/10.2.1/cmath ****   { return __builtin_fpclassify(FP_NAN, FP_INFINITE, FP_NORMAL,
 549:/home/hubert/daisy/gcc/arm-none-eabi/include/c++/10.2.1/cmath **** 				FP_SUBNORMAL, FP_ZERO, __x); }
 550:/home/hubert/daisy/gcc/arm-none-eabi/include/c++/10.2.1/cmath **** #endif
 551:/home/hubert/daisy/gcc/arm-none-eabi/include/c++/10.2.1/cmath **** 
 552:/home/hubert/daisy/gcc/arm-none-eabi/include/c++/10.2.1/cmath **** #ifndef __CORRECT_ISO_CPP11_MATH_H_PROTO_INT
 553:/home/hubert/daisy/gcc/arm-none-eabi/include/c++/10.2.1/cmath ****   template<typename _Tp>
 554:/home/hubert/daisy/gcc/arm-none-eabi/include/c++/10.2.1/cmath ****     constexpr typename __gnu_cxx::__enable_if<__is_integer<_Tp>::__value,
 555:/home/hubert/daisy/gcc/arm-none-eabi/include/c++/10.2.1/cmath ****                                               int>::__type
 556:/home/hubert/daisy/gcc/arm-none-eabi/include/c++/10.2.1/cmath ****     fpclassify(_Tp __x)
 557:/home/hubert/daisy/gcc/arm-none-eabi/include/c++/10.2.1/cmath ****     { return __x != 0 ? FP_NORMAL : FP_ZERO; }
 558:/home/hubert/daisy/gcc/arm-none-eabi/include/c++/10.2.1/cmath **** #endif
 559:/home/hubert/daisy/gcc/arm-none-eabi/include/c++/10.2.1/cmath **** 
 560:/home/hubert/daisy/gcc/arm-none-eabi/include/c++/10.2.1/cmath **** #ifndef __CORRECT_ISO_CPP11_MATH_H_PROTO_FP
 561:/home/hubert/daisy/gcc/arm-none-eabi/include/c++/10.2.1/cmath ****   constexpr bool
 562:/home/hubert/daisy/gcc/arm-none-eabi/include/c++/10.2.1/cmath ****   isfinite(float __x)
 563:/home/hubert/daisy/gcc/arm-none-eabi/include/c++/10.2.1/cmath ****   { return __builtin_isfinite(__x); }
 564:/home/hubert/daisy/gcc/arm-none-eabi/include/c++/10.2.1/cmath **** 
 565:/home/hubert/daisy/gcc/arm-none-eabi/include/c++/10.2.1/cmath ****   constexpr bool
 566:/home/hubert/daisy/gcc/arm-none-eabi/include/c++/10.2.1/cmath ****   isfinite(double __x)
 567:/home/hubert/daisy/gcc/arm-none-eabi/include/c++/10.2.1/cmath ****   { return __builtin_isfinite(__x); }
 568:/home/hubert/daisy/gcc/arm-none-eabi/include/c++/10.2.1/cmath **** 
 569:/home/hubert/daisy/gcc/arm-none-eabi/include/c++/10.2.1/cmath ****   constexpr bool
 570:/home/hubert/daisy/gcc/arm-none-eabi/include/c++/10.2.1/cmath ****   isfinite(long double __x)
 571:/home/hubert/daisy/gcc/arm-none-eabi/include/c++/10.2.1/cmath ****   { return __builtin_isfinite(__x); }
 572:/home/hubert/daisy/gcc/arm-none-eabi/include/c++/10.2.1/cmath **** #endif
 573:/home/hubert/daisy/gcc/arm-none-eabi/include/c++/10.2.1/cmath **** 
 574:/home/hubert/daisy/gcc/arm-none-eabi/include/c++/10.2.1/cmath **** #ifndef __CORRECT_ISO_CPP11_MATH_H_PROTO_INT
 575:/home/hubert/daisy/gcc/arm-none-eabi/include/c++/10.2.1/cmath ****   template<typename _Tp>
 576:/home/hubert/daisy/gcc/arm-none-eabi/include/c++/10.2.1/cmath ****     constexpr typename __gnu_cxx::__enable_if<__is_integer<_Tp>::__value,
 577:/home/hubert/daisy/gcc/arm-none-eabi/include/c++/10.2.1/cmath ****                                               bool>::__type
 578:/home/hubert/daisy/gcc/arm-none-eabi/include/c++/10.2.1/cmath ****     isfinite(_Tp __x)
 579:/home/hubert/daisy/gcc/arm-none-eabi/include/c++/10.2.1/cmath ****     { return true; }
 580:/home/hubert/daisy/gcc/arm-none-eabi/include/c++/10.2.1/cmath **** #endif
 581:/home/hubert/daisy/gcc/arm-none-eabi/include/c++/10.2.1/cmath **** 
 582:/home/hubert/daisy/gcc/arm-none-eabi/include/c++/10.2.1/cmath **** #ifndef __CORRECT_ISO_CPP11_MATH_H_PROTO_FP
 583:/home/hubert/daisy/gcc/arm-none-eabi/include/c++/10.2.1/cmath ****   constexpr bool
 584:/home/hubert/daisy/gcc/arm-none-eabi/include/c++/10.2.1/cmath ****   isinf(float __x)
 585:/home/hubert/daisy/gcc/arm-none-eabi/include/c++/10.2.1/cmath ****   { return __builtin_isinf(__x); }
ARM GAS  /tmp/ccIWsbgU.s 			page 15


 586:/home/hubert/daisy/gcc/arm-none-eabi/include/c++/10.2.1/cmath **** 
 587:/home/hubert/daisy/gcc/arm-none-eabi/include/c++/10.2.1/cmath **** #if _GLIBCXX_HAVE_OBSOLETE_ISINF \
 588:/home/hubert/daisy/gcc/arm-none-eabi/include/c++/10.2.1/cmath ****   && !_GLIBCXX_NO_OBSOLETE_ISINF_ISNAN_DYNAMIC
 589:/home/hubert/daisy/gcc/arm-none-eabi/include/c++/10.2.1/cmath ****   using ::isinf;
 590:/home/hubert/daisy/gcc/arm-none-eabi/include/c++/10.2.1/cmath **** #else
 591:/home/hubert/daisy/gcc/arm-none-eabi/include/c++/10.2.1/cmath ****   constexpr bool
 592:/home/hubert/daisy/gcc/arm-none-eabi/include/c++/10.2.1/cmath ****   isinf(double __x)
 593:/home/hubert/daisy/gcc/arm-none-eabi/include/c++/10.2.1/cmath ****   { return __builtin_isinf(__x); }
 594:/home/hubert/daisy/gcc/arm-none-eabi/include/c++/10.2.1/cmath **** #endif
 595:/home/hubert/daisy/gcc/arm-none-eabi/include/c++/10.2.1/cmath **** 
 596:/home/hubert/daisy/gcc/arm-none-eabi/include/c++/10.2.1/cmath ****   constexpr bool
 597:/home/hubert/daisy/gcc/arm-none-eabi/include/c++/10.2.1/cmath ****   isinf(long double __x)
 598:/home/hubert/daisy/gcc/arm-none-eabi/include/c++/10.2.1/cmath ****   { return __builtin_isinf(__x); }
 599:/home/hubert/daisy/gcc/arm-none-eabi/include/c++/10.2.1/cmath **** #endif
 600:/home/hubert/daisy/gcc/arm-none-eabi/include/c++/10.2.1/cmath **** 
 601:/home/hubert/daisy/gcc/arm-none-eabi/include/c++/10.2.1/cmath **** #ifndef __CORRECT_ISO_CPP11_MATH_H_PROTO_INT
 602:/home/hubert/daisy/gcc/arm-none-eabi/include/c++/10.2.1/cmath ****   template<typename _Tp>
 603:/home/hubert/daisy/gcc/arm-none-eabi/include/c++/10.2.1/cmath ****     constexpr typename __gnu_cxx::__enable_if<__is_integer<_Tp>::__value,
 604:/home/hubert/daisy/gcc/arm-none-eabi/include/c++/10.2.1/cmath ****                                               bool>::__type
 605:/home/hubert/daisy/gcc/arm-none-eabi/include/c++/10.2.1/cmath ****     isinf(_Tp __x)
 606:/home/hubert/daisy/gcc/arm-none-eabi/include/c++/10.2.1/cmath ****     { return false; }
 607:/home/hubert/daisy/gcc/arm-none-eabi/include/c++/10.2.1/cmath **** #endif
 608:/home/hubert/daisy/gcc/arm-none-eabi/include/c++/10.2.1/cmath **** 
 609:/home/hubert/daisy/gcc/arm-none-eabi/include/c++/10.2.1/cmath **** #ifndef __CORRECT_ISO_CPP11_MATH_H_PROTO_FP
 610:/home/hubert/daisy/gcc/arm-none-eabi/include/c++/10.2.1/cmath ****   constexpr bool
 611:/home/hubert/daisy/gcc/arm-none-eabi/include/c++/10.2.1/cmath ****   isnan(float __x)
 612:/home/hubert/daisy/gcc/arm-none-eabi/include/c++/10.2.1/cmath ****   { return __builtin_isnan(__x); }
 613:/home/hubert/daisy/gcc/arm-none-eabi/include/c++/10.2.1/cmath **** 
 614:/home/hubert/daisy/gcc/arm-none-eabi/include/c++/10.2.1/cmath **** #if _GLIBCXX_HAVE_OBSOLETE_ISNAN \
 615:/home/hubert/daisy/gcc/arm-none-eabi/include/c++/10.2.1/cmath ****   && !_GLIBCXX_NO_OBSOLETE_ISINF_ISNAN_DYNAMIC
 616:/home/hubert/daisy/gcc/arm-none-eabi/include/c++/10.2.1/cmath ****   using ::isnan;
 617:/home/hubert/daisy/gcc/arm-none-eabi/include/c++/10.2.1/cmath **** #else
 618:/home/hubert/daisy/gcc/arm-none-eabi/include/c++/10.2.1/cmath ****   constexpr bool
 619:/home/hubert/daisy/gcc/arm-none-eabi/include/c++/10.2.1/cmath ****   isnan(double __x)
 620:/home/hubert/daisy/gcc/arm-none-eabi/include/c++/10.2.1/cmath ****   { return __builtin_isnan(__x); }
 621:/home/hubert/daisy/gcc/arm-none-eabi/include/c++/10.2.1/cmath **** #endif
 622:/home/hubert/daisy/gcc/arm-none-eabi/include/c++/10.2.1/cmath **** 
 623:/home/hubert/daisy/gcc/arm-none-eabi/include/c++/10.2.1/cmath ****   constexpr bool
 624:/home/hubert/daisy/gcc/arm-none-eabi/include/c++/10.2.1/cmath ****   isnan(long double __x)
 625:/home/hubert/daisy/gcc/arm-none-eabi/include/c++/10.2.1/cmath ****   { return __builtin_isnan(__x); }
 626:/home/hubert/daisy/gcc/arm-none-eabi/include/c++/10.2.1/cmath **** #endif
 627:/home/hubert/daisy/gcc/arm-none-eabi/include/c++/10.2.1/cmath **** 
 628:/home/hubert/daisy/gcc/arm-none-eabi/include/c++/10.2.1/cmath **** #ifndef __CORRECT_ISO_CPP11_MATH_H_PROTO_INT
 629:/home/hubert/daisy/gcc/arm-none-eabi/include/c++/10.2.1/cmath ****   template<typename _Tp>
 630:/home/hubert/daisy/gcc/arm-none-eabi/include/c++/10.2.1/cmath ****     constexpr typename __gnu_cxx::__enable_if<__is_integer<_Tp>::__value,
 631:/home/hubert/daisy/gcc/arm-none-eabi/include/c++/10.2.1/cmath ****                                               bool>::__type
 632:/home/hubert/daisy/gcc/arm-none-eabi/include/c++/10.2.1/cmath ****     isnan(_Tp __x)
 633:/home/hubert/daisy/gcc/arm-none-eabi/include/c++/10.2.1/cmath ****     { return false; }
 634:/home/hubert/daisy/gcc/arm-none-eabi/include/c++/10.2.1/cmath **** #endif
 635:/home/hubert/daisy/gcc/arm-none-eabi/include/c++/10.2.1/cmath **** 
 636:/home/hubert/daisy/gcc/arm-none-eabi/include/c++/10.2.1/cmath **** #ifndef __CORRECT_ISO_CPP11_MATH_H_PROTO_FP
 637:/home/hubert/daisy/gcc/arm-none-eabi/include/c++/10.2.1/cmath ****   constexpr bool
 638:/home/hubert/daisy/gcc/arm-none-eabi/include/c++/10.2.1/cmath ****   isnormal(float __x)
 639:/home/hubert/daisy/gcc/arm-none-eabi/include/c++/10.2.1/cmath ****   { return __builtin_isnormal(__x); }
 640:/home/hubert/daisy/gcc/arm-none-eabi/include/c++/10.2.1/cmath **** 
 641:/home/hubert/daisy/gcc/arm-none-eabi/include/c++/10.2.1/cmath ****   constexpr bool
 642:/home/hubert/daisy/gcc/arm-none-eabi/include/c++/10.2.1/cmath ****   isnormal(double __x)
ARM GAS  /tmp/ccIWsbgU.s 			page 16


 643:/home/hubert/daisy/gcc/arm-none-eabi/include/c++/10.2.1/cmath ****   { return __builtin_isnormal(__x); }
 644:/home/hubert/daisy/gcc/arm-none-eabi/include/c++/10.2.1/cmath **** 
 645:/home/hubert/daisy/gcc/arm-none-eabi/include/c++/10.2.1/cmath ****   constexpr bool
 646:/home/hubert/daisy/gcc/arm-none-eabi/include/c++/10.2.1/cmath ****   isnormal(long double __x)
 647:/home/hubert/daisy/gcc/arm-none-eabi/include/c++/10.2.1/cmath ****   { return __builtin_isnormal(__x); }
 648:/home/hubert/daisy/gcc/arm-none-eabi/include/c++/10.2.1/cmath **** #endif
 649:/home/hubert/daisy/gcc/arm-none-eabi/include/c++/10.2.1/cmath **** 
 650:/home/hubert/daisy/gcc/arm-none-eabi/include/c++/10.2.1/cmath **** #ifndef __CORRECT_ISO_CPP11_MATH_H_PROTO_INT
 651:/home/hubert/daisy/gcc/arm-none-eabi/include/c++/10.2.1/cmath ****   template<typename _Tp>
 652:/home/hubert/daisy/gcc/arm-none-eabi/include/c++/10.2.1/cmath ****     constexpr typename __gnu_cxx::__enable_if<__is_integer<_Tp>::__value,
 653:/home/hubert/daisy/gcc/arm-none-eabi/include/c++/10.2.1/cmath ****                                               bool>::__type
 654:/home/hubert/daisy/gcc/arm-none-eabi/include/c++/10.2.1/cmath ****     isnormal(_Tp __x)
 655:/home/hubert/daisy/gcc/arm-none-eabi/include/c++/10.2.1/cmath ****     { return __x != 0 ? true : false; }
 656:/home/hubert/daisy/gcc/arm-none-eabi/include/c++/10.2.1/cmath **** #endif
 657:/home/hubert/daisy/gcc/arm-none-eabi/include/c++/10.2.1/cmath **** 
 658:/home/hubert/daisy/gcc/arm-none-eabi/include/c++/10.2.1/cmath **** #ifndef __CORRECT_ISO_CPP11_MATH_H_PROTO_FP
 659:/home/hubert/daisy/gcc/arm-none-eabi/include/c++/10.2.1/cmath ****   // Note: middle-end/36757 is fixed, __builtin_signbit is type-generic.
 660:/home/hubert/daisy/gcc/arm-none-eabi/include/c++/10.2.1/cmath ****   constexpr bool
 661:/home/hubert/daisy/gcc/arm-none-eabi/include/c++/10.2.1/cmath ****   signbit(float __x)
 662:/home/hubert/daisy/gcc/arm-none-eabi/include/c++/10.2.1/cmath ****   { return __builtin_signbit(__x); }
 663:/home/hubert/daisy/gcc/arm-none-eabi/include/c++/10.2.1/cmath **** 
 664:/home/hubert/daisy/gcc/arm-none-eabi/include/c++/10.2.1/cmath ****   constexpr bool
 665:/home/hubert/daisy/gcc/arm-none-eabi/include/c++/10.2.1/cmath ****   signbit(double __x)
 666:/home/hubert/daisy/gcc/arm-none-eabi/include/c++/10.2.1/cmath ****   { return __builtin_signbit(__x); }
 667:/home/hubert/daisy/gcc/arm-none-eabi/include/c++/10.2.1/cmath **** 
 668:/home/hubert/daisy/gcc/arm-none-eabi/include/c++/10.2.1/cmath ****   constexpr bool
 669:/home/hubert/daisy/gcc/arm-none-eabi/include/c++/10.2.1/cmath ****   signbit(long double __x)
 670:/home/hubert/daisy/gcc/arm-none-eabi/include/c++/10.2.1/cmath ****   { return __builtin_signbit(__x); }
 671:/home/hubert/daisy/gcc/arm-none-eabi/include/c++/10.2.1/cmath **** #endif
 672:/home/hubert/daisy/gcc/arm-none-eabi/include/c++/10.2.1/cmath **** 
 673:/home/hubert/daisy/gcc/arm-none-eabi/include/c++/10.2.1/cmath **** #ifndef __CORRECT_ISO_CPP11_MATH_H_PROTO_INT
 674:/home/hubert/daisy/gcc/arm-none-eabi/include/c++/10.2.1/cmath ****   template<typename _Tp>
 675:/home/hubert/daisy/gcc/arm-none-eabi/include/c++/10.2.1/cmath ****     constexpr typename __gnu_cxx::__enable_if<__is_integer<_Tp>::__value,
 676:/home/hubert/daisy/gcc/arm-none-eabi/include/c++/10.2.1/cmath ****                                               bool>::__type
 677:/home/hubert/daisy/gcc/arm-none-eabi/include/c++/10.2.1/cmath ****     signbit(_Tp __x)
 678:/home/hubert/daisy/gcc/arm-none-eabi/include/c++/10.2.1/cmath ****     { return __x < 0 ? true : false; }
 679:/home/hubert/daisy/gcc/arm-none-eabi/include/c++/10.2.1/cmath **** #endif
 680:/home/hubert/daisy/gcc/arm-none-eabi/include/c++/10.2.1/cmath **** 
 681:/home/hubert/daisy/gcc/arm-none-eabi/include/c++/10.2.1/cmath **** #ifndef __CORRECT_ISO_CPP11_MATH_H_PROTO_FP
 682:/home/hubert/daisy/gcc/arm-none-eabi/include/c++/10.2.1/cmath ****   constexpr bool
 683:/home/hubert/daisy/gcc/arm-none-eabi/include/c++/10.2.1/cmath ****   isgreater(float __x, float __y)
 684:/home/hubert/daisy/gcc/arm-none-eabi/include/c++/10.2.1/cmath ****   { return __builtin_isgreater(__x, __y); }
 685:/home/hubert/daisy/gcc/arm-none-eabi/include/c++/10.2.1/cmath **** 
 686:/home/hubert/daisy/gcc/arm-none-eabi/include/c++/10.2.1/cmath ****   constexpr bool
 687:/home/hubert/daisy/gcc/arm-none-eabi/include/c++/10.2.1/cmath ****   isgreater(double __x, double __y)
 688:/home/hubert/daisy/gcc/arm-none-eabi/include/c++/10.2.1/cmath ****   { return __builtin_isgreater(__x, __y); }
 689:/home/hubert/daisy/gcc/arm-none-eabi/include/c++/10.2.1/cmath **** 
 690:/home/hubert/daisy/gcc/arm-none-eabi/include/c++/10.2.1/cmath ****   constexpr bool
 691:/home/hubert/daisy/gcc/arm-none-eabi/include/c++/10.2.1/cmath ****   isgreater(long double __x, long double __y)
 692:/home/hubert/daisy/gcc/arm-none-eabi/include/c++/10.2.1/cmath ****   { return __builtin_isgreater(__x, __y); }
 693:/home/hubert/daisy/gcc/arm-none-eabi/include/c++/10.2.1/cmath **** #endif
 694:/home/hubert/daisy/gcc/arm-none-eabi/include/c++/10.2.1/cmath **** 
 695:/home/hubert/daisy/gcc/arm-none-eabi/include/c++/10.2.1/cmath **** #ifndef __CORRECT_ISO_CPP11_MATH_H_PROTO_INT
 696:/home/hubert/daisy/gcc/arm-none-eabi/include/c++/10.2.1/cmath ****   template<typename _Tp, typename _Up>
 697:/home/hubert/daisy/gcc/arm-none-eabi/include/c++/10.2.1/cmath ****     constexpr typename
 698:/home/hubert/daisy/gcc/arm-none-eabi/include/c++/10.2.1/cmath ****     __gnu_cxx::__enable_if<(__is_arithmetic<_Tp>::__value
 699:/home/hubert/daisy/gcc/arm-none-eabi/include/c++/10.2.1/cmath **** 			    && __is_arithmetic<_Up>::__value), bool>::__type
ARM GAS  /tmp/ccIWsbgU.s 			page 17


 700:/home/hubert/daisy/gcc/arm-none-eabi/include/c++/10.2.1/cmath ****     isgreater(_Tp __x, _Up __y)
 701:/home/hubert/daisy/gcc/arm-none-eabi/include/c++/10.2.1/cmath ****     {
 702:/home/hubert/daisy/gcc/arm-none-eabi/include/c++/10.2.1/cmath ****       typedef typename __gnu_cxx::__promote_2<_Tp, _Up>::__type __type;
 703:/home/hubert/daisy/gcc/arm-none-eabi/include/c++/10.2.1/cmath ****       return __builtin_isgreater(__type(__x), __type(__y));
 704:/home/hubert/daisy/gcc/arm-none-eabi/include/c++/10.2.1/cmath ****     }
 705:/home/hubert/daisy/gcc/arm-none-eabi/include/c++/10.2.1/cmath **** #endif
 706:/home/hubert/daisy/gcc/arm-none-eabi/include/c++/10.2.1/cmath **** 
 707:/home/hubert/daisy/gcc/arm-none-eabi/include/c++/10.2.1/cmath **** #ifndef __CORRECT_ISO_CPP11_MATH_H_PROTO_FP
 708:/home/hubert/daisy/gcc/arm-none-eabi/include/c++/10.2.1/cmath ****   constexpr bool
 709:/home/hubert/daisy/gcc/arm-none-eabi/include/c++/10.2.1/cmath ****   isgreaterequal(float __x, float __y)
 710:/home/hubert/daisy/gcc/arm-none-eabi/include/c++/10.2.1/cmath ****   { return __builtin_isgreaterequal(__x, __y); }
 711:/home/hubert/daisy/gcc/arm-none-eabi/include/c++/10.2.1/cmath **** 
 712:/home/hubert/daisy/gcc/arm-none-eabi/include/c++/10.2.1/cmath ****   constexpr bool
 713:/home/hubert/daisy/gcc/arm-none-eabi/include/c++/10.2.1/cmath ****   isgreaterequal(double __x, double __y)
 714:/home/hubert/daisy/gcc/arm-none-eabi/include/c++/10.2.1/cmath ****   { return __builtin_isgreaterequal(__x, __y); }
 715:/home/hubert/daisy/gcc/arm-none-eabi/include/c++/10.2.1/cmath **** 
 716:/home/hubert/daisy/gcc/arm-none-eabi/include/c++/10.2.1/cmath ****   constexpr bool
 717:/home/hubert/daisy/gcc/arm-none-eabi/include/c++/10.2.1/cmath ****   isgreaterequal(long double __x, long double __y)
 718:/home/hubert/daisy/gcc/arm-none-eabi/include/c++/10.2.1/cmath ****   { return __builtin_isgreaterequal(__x, __y); }
 719:/home/hubert/daisy/gcc/arm-none-eabi/include/c++/10.2.1/cmath **** #endif
 720:/home/hubert/daisy/gcc/arm-none-eabi/include/c++/10.2.1/cmath **** 
 721:/home/hubert/daisy/gcc/arm-none-eabi/include/c++/10.2.1/cmath **** #ifndef __CORRECT_ISO_CPP11_MATH_H_PROTO_INT
 722:/home/hubert/daisy/gcc/arm-none-eabi/include/c++/10.2.1/cmath ****   template<typename _Tp, typename _Up>
 723:/home/hubert/daisy/gcc/arm-none-eabi/include/c++/10.2.1/cmath ****     constexpr typename
 724:/home/hubert/daisy/gcc/arm-none-eabi/include/c++/10.2.1/cmath ****     __gnu_cxx::__enable_if<(__is_arithmetic<_Tp>::__value
 725:/home/hubert/daisy/gcc/arm-none-eabi/include/c++/10.2.1/cmath **** 			    && __is_arithmetic<_Up>::__value), bool>::__type
 726:/home/hubert/daisy/gcc/arm-none-eabi/include/c++/10.2.1/cmath ****     isgreaterequal(_Tp __x, _Up __y)
 727:/home/hubert/daisy/gcc/arm-none-eabi/include/c++/10.2.1/cmath ****     {
 728:/home/hubert/daisy/gcc/arm-none-eabi/include/c++/10.2.1/cmath ****       typedef typename __gnu_cxx::__promote_2<_Tp, _Up>::__type __type;
 729:/home/hubert/daisy/gcc/arm-none-eabi/include/c++/10.2.1/cmath ****       return __builtin_isgreaterequal(__type(__x), __type(__y));
 730:/home/hubert/daisy/gcc/arm-none-eabi/include/c++/10.2.1/cmath ****     }
 731:/home/hubert/daisy/gcc/arm-none-eabi/include/c++/10.2.1/cmath **** #endif
 732:/home/hubert/daisy/gcc/arm-none-eabi/include/c++/10.2.1/cmath **** 
 733:/home/hubert/daisy/gcc/arm-none-eabi/include/c++/10.2.1/cmath **** #ifndef __CORRECT_ISO_CPP11_MATH_H_PROTO_FP
 734:/home/hubert/daisy/gcc/arm-none-eabi/include/c++/10.2.1/cmath ****   constexpr bool
 735:/home/hubert/daisy/gcc/arm-none-eabi/include/c++/10.2.1/cmath ****   isless(float __x, float __y)
 736:/home/hubert/daisy/gcc/arm-none-eabi/include/c++/10.2.1/cmath ****   { return __builtin_isless(__x, __y); }
 737:/home/hubert/daisy/gcc/arm-none-eabi/include/c++/10.2.1/cmath **** 
 738:/home/hubert/daisy/gcc/arm-none-eabi/include/c++/10.2.1/cmath ****   constexpr bool
 739:/home/hubert/daisy/gcc/arm-none-eabi/include/c++/10.2.1/cmath ****   isless(double __x, double __y)
 740:/home/hubert/daisy/gcc/arm-none-eabi/include/c++/10.2.1/cmath ****   { return __builtin_isless(__x, __y); }
 741:/home/hubert/daisy/gcc/arm-none-eabi/include/c++/10.2.1/cmath **** 
 742:/home/hubert/daisy/gcc/arm-none-eabi/include/c++/10.2.1/cmath ****   constexpr bool
 743:/home/hubert/daisy/gcc/arm-none-eabi/include/c++/10.2.1/cmath ****   isless(long double __x, long double __y)
 744:/home/hubert/daisy/gcc/arm-none-eabi/include/c++/10.2.1/cmath ****   { return __builtin_isless(__x, __y); }
 745:/home/hubert/daisy/gcc/arm-none-eabi/include/c++/10.2.1/cmath **** #endif
 746:/home/hubert/daisy/gcc/arm-none-eabi/include/c++/10.2.1/cmath **** 
 747:/home/hubert/daisy/gcc/arm-none-eabi/include/c++/10.2.1/cmath **** #ifndef __CORRECT_ISO_CPP11_MATH_H_PROTO_INT
 748:/home/hubert/daisy/gcc/arm-none-eabi/include/c++/10.2.1/cmath ****   template<typename _Tp, typename _Up>
 749:/home/hubert/daisy/gcc/arm-none-eabi/include/c++/10.2.1/cmath ****     constexpr typename
 750:/home/hubert/daisy/gcc/arm-none-eabi/include/c++/10.2.1/cmath ****     __gnu_cxx::__enable_if<(__is_arithmetic<_Tp>::__value
 751:/home/hubert/daisy/gcc/arm-none-eabi/include/c++/10.2.1/cmath **** 			    && __is_arithmetic<_Up>::__value), bool>::__type
 752:/home/hubert/daisy/gcc/arm-none-eabi/include/c++/10.2.1/cmath ****     isless(_Tp __x, _Up __y)
 753:/home/hubert/daisy/gcc/arm-none-eabi/include/c++/10.2.1/cmath ****     {
 754:/home/hubert/daisy/gcc/arm-none-eabi/include/c++/10.2.1/cmath ****       typedef typename __gnu_cxx::__promote_2<_Tp, _Up>::__type __type;
 755:/home/hubert/daisy/gcc/arm-none-eabi/include/c++/10.2.1/cmath ****       return __builtin_isless(__type(__x), __type(__y));
 756:/home/hubert/daisy/gcc/arm-none-eabi/include/c++/10.2.1/cmath ****     }
ARM GAS  /tmp/ccIWsbgU.s 			page 18


 757:/home/hubert/daisy/gcc/arm-none-eabi/include/c++/10.2.1/cmath **** #endif
 758:/home/hubert/daisy/gcc/arm-none-eabi/include/c++/10.2.1/cmath **** 
 759:/home/hubert/daisy/gcc/arm-none-eabi/include/c++/10.2.1/cmath **** #ifndef __CORRECT_ISO_CPP11_MATH_H_PROTO_FP
 760:/home/hubert/daisy/gcc/arm-none-eabi/include/c++/10.2.1/cmath ****   constexpr bool
 761:/home/hubert/daisy/gcc/arm-none-eabi/include/c++/10.2.1/cmath ****   islessequal(float __x, float __y)
 762:/home/hubert/daisy/gcc/arm-none-eabi/include/c++/10.2.1/cmath ****   { return __builtin_islessequal(__x, __y); }
 763:/home/hubert/daisy/gcc/arm-none-eabi/include/c++/10.2.1/cmath **** 
 764:/home/hubert/daisy/gcc/arm-none-eabi/include/c++/10.2.1/cmath ****   constexpr bool
 765:/home/hubert/daisy/gcc/arm-none-eabi/include/c++/10.2.1/cmath ****   islessequal(double __x, double __y)
 766:/home/hubert/daisy/gcc/arm-none-eabi/include/c++/10.2.1/cmath ****   { return __builtin_islessequal(__x, __y); }
 767:/home/hubert/daisy/gcc/arm-none-eabi/include/c++/10.2.1/cmath **** 
 768:/home/hubert/daisy/gcc/arm-none-eabi/include/c++/10.2.1/cmath ****   constexpr bool
 769:/home/hubert/daisy/gcc/arm-none-eabi/include/c++/10.2.1/cmath ****   islessequal(long double __x, long double __y)
 770:/home/hubert/daisy/gcc/arm-none-eabi/include/c++/10.2.1/cmath ****   { return __builtin_islessequal(__x, __y); }
 771:/home/hubert/daisy/gcc/arm-none-eabi/include/c++/10.2.1/cmath **** #endif
 772:/home/hubert/daisy/gcc/arm-none-eabi/include/c++/10.2.1/cmath **** 
 773:/home/hubert/daisy/gcc/arm-none-eabi/include/c++/10.2.1/cmath **** #ifndef __CORRECT_ISO_CPP11_MATH_H_PROTO_INT
 774:/home/hubert/daisy/gcc/arm-none-eabi/include/c++/10.2.1/cmath ****   template<typename _Tp, typename _Up>
 775:/home/hubert/daisy/gcc/arm-none-eabi/include/c++/10.2.1/cmath ****     constexpr typename
 776:/home/hubert/daisy/gcc/arm-none-eabi/include/c++/10.2.1/cmath ****     __gnu_cxx::__enable_if<(__is_arithmetic<_Tp>::__value
 777:/home/hubert/daisy/gcc/arm-none-eabi/include/c++/10.2.1/cmath **** 			    && __is_arithmetic<_Up>::__value), bool>::__type
 778:/home/hubert/daisy/gcc/arm-none-eabi/include/c++/10.2.1/cmath ****     islessequal(_Tp __x, _Up __y)
 779:/home/hubert/daisy/gcc/arm-none-eabi/include/c++/10.2.1/cmath ****     {
 780:/home/hubert/daisy/gcc/arm-none-eabi/include/c++/10.2.1/cmath ****       typedef typename __gnu_cxx::__promote_2<_Tp, _Up>::__type __type;
 781:/home/hubert/daisy/gcc/arm-none-eabi/include/c++/10.2.1/cmath ****       return __builtin_islessequal(__type(__x), __type(__y));
 782:/home/hubert/daisy/gcc/arm-none-eabi/include/c++/10.2.1/cmath ****     }
 783:/home/hubert/daisy/gcc/arm-none-eabi/include/c++/10.2.1/cmath **** #endif
 784:/home/hubert/daisy/gcc/arm-none-eabi/include/c++/10.2.1/cmath **** 
 785:/home/hubert/daisy/gcc/arm-none-eabi/include/c++/10.2.1/cmath **** #ifndef __CORRECT_ISO_CPP11_MATH_H_PROTO_FP
 786:/home/hubert/daisy/gcc/arm-none-eabi/include/c++/10.2.1/cmath ****   constexpr bool
 787:/home/hubert/daisy/gcc/arm-none-eabi/include/c++/10.2.1/cmath ****   islessgreater(float __x, float __y)
 788:/home/hubert/daisy/gcc/arm-none-eabi/include/c++/10.2.1/cmath ****   { return __builtin_islessgreater(__x, __y); }
 789:/home/hubert/daisy/gcc/arm-none-eabi/include/c++/10.2.1/cmath **** 
 790:/home/hubert/daisy/gcc/arm-none-eabi/include/c++/10.2.1/cmath ****   constexpr bool
 791:/home/hubert/daisy/gcc/arm-none-eabi/include/c++/10.2.1/cmath ****   islessgreater(double __x, double __y)
 792:/home/hubert/daisy/gcc/arm-none-eabi/include/c++/10.2.1/cmath ****   { return __builtin_islessgreater(__x, __y); }
 793:/home/hubert/daisy/gcc/arm-none-eabi/include/c++/10.2.1/cmath **** 
 794:/home/hubert/daisy/gcc/arm-none-eabi/include/c++/10.2.1/cmath ****   constexpr bool
 795:/home/hubert/daisy/gcc/arm-none-eabi/include/c++/10.2.1/cmath ****   islessgreater(long double __x, long double __y)
 796:/home/hubert/daisy/gcc/arm-none-eabi/include/c++/10.2.1/cmath ****   { return __builtin_islessgreater(__x, __y); }
 797:/home/hubert/daisy/gcc/arm-none-eabi/include/c++/10.2.1/cmath **** #endif
 798:/home/hubert/daisy/gcc/arm-none-eabi/include/c++/10.2.1/cmath **** 
 799:/home/hubert/daisy/gcc/arm-none-eabi/include/c++/10.2.1/cmath **** #ifndef __CORRECT_ISO_CPP11_MATH_H_PROTO_INT
 800:/home/hubert/daisy/gcc/arm-none-eabi/include/c++/10.2.1/cmath ****   template<typename _Tp, typename _Up>
 801:/home/hubert/daisy/gcc/arm-none-eabi/include/c++/10.2.1/cmath ****     constexpr typename
 802:/home/hubert/daisy/gcc/arm-none-eabi/include/c++/10.2.1/cmath ****     __gnu_cxx::__enable_if<(__is_arithmetic<_Tp>::__value
 803:/home/hubert/daisy/gcc/arm-none-eabi/include/c++/10.2.1/cmath **** 			    && __is_arithmetic<_Up>::__value), bool>::__type
 804:/home/hubert/daisy/gcc/arm-none-eabi/include/c++/10.2.1/cmath ****     islessgreater(_Tp __x, _Up __y)
 805:/home/hubert/daisy/gcc/arm-none-eabi/include/c++/10.2.1/cmath ****     {
 806:/home/hubert/daisy/gcc/arm-none-eabi/include/c++/10.2.1/cmath ****       typedef typename __gnu_cxx::__promote_2<_Tp, _Up>::__type __type;
 807:/home/hubert/daisy/gcc/arm-none-eabi/include/c++/10.2.1/cmath ****       return __builtin_islessgreater(__type(__x), __type(__y));
 808:/home/hubert/daisy/gcc/arm-none-eabi/include/c++/10.2.1/cmath ****     }
 809:/home/hubert/daisy/gcc/arm-none-eabi/include/c++/10.2.1/cmath **** #endif
 810:/home/hubert/daisy/gcc/arm-none-eabi/include/c++/10.2.1/cmath **** 
 811:/home/hubert/daisy/gcc/arm-none-eabi/include/c++/10.2.1/cmath **** #ifndef __CORRECT_ISO_CPP11_MATH_H_PROTO_FP
 812:/home/hubert/daisy/gcc/arm-none-eabi/include/c++/10.2.1/cmath ****   constexpr bool
 813:/home/hubert/daisy/gcc/arm-none-eabi/include/c++/10.2.1/cmath ****   isunordered(float __x, float __y)
ARM GAS  /tmp/ccIWsbgU.s 			page 19


 814:/home/hubert/daisy/gcc/arm-none-eabi/include/c++/10.2.1/cmath ****   { return __builtin_isunordered(__x, __y); }
 815:/home/hubert/daisy/gcc/arm-none-eabi/include/c++/10.2.1/cmath **** 
 816:/home/hubert/daisy/gcc/arm-none-eabi/include/c++/10.2.1/cmath ****   constexpr bool
 817:/home/hubert/daisy/gcc/arm-none-eabi/include/c++/10.2.1/cmath ****   isunordered(double __x, double __y)
 818:/home/hubert/daisy/gcc/arm-none-eabi/include/c++/10.2.1/cmath ****   { return __builtin_isunordered(__x, __y); }
 819:/home/hubert/daisy/gcc/arm-none-eabi/include/c++/10.2.1/cmath **** 
 820:/home/hubert/daisy/gcc/arm-none-eabi/include/c++/10.2.1/cmath ****   constexpr bool
 821:/home/hubert/daisy/gcc/arm-none-eabi/include/c++/10.2.1/cmath ****   isunordered(long double __x, long double __y)
 822:/home/hubert/daisy/gcc/arm-none-eabi/include/c++/10.2.1/cmath ****   { return __builtin_isunordered(__x, __y); }
 823:/home/hubert/daisy/gcc/arm-none-eabi/include/c++/10.2.1/cmath **** #endif
 824:/home/hubert/daisy/gcc/arm-none-eabi/include/c++/10.2.1/cmath **** 
 825:/home/hubert/daisy/gcc/arm-none-eabi/include/c++/10.2.1/cmath **** #ifndef __CORRECT_ISO_CPP11_MATH_H_PROTO_INT
 826:/home/hubert/daisy/gcc/arm-none-eabi/include/c++/10.2.1/cmath ****   template<typename _Tp, typename _Up>
 827:/home/hubert/daisy/gcc/arm-none-eabi/include/c++/10.2.1/cmath ****     constexpr typename
 828:/home/hubert/daisy/gcc/arm-none-eabi/include/c++/10.2.1/cmath ****     __gnu_cxx::__enable_if<(__is_arithmetic<_Tp>::__value
 829:/home/hubert/daisy/gcc/arm-none-eabi/include/c++/10.2.1/cmath **** 			    && __is_arithmetic<_Up>::__value), bool>::__type
 830:/home/hubert/daisy/gcc/arm-none-eabi/include/c++/10.2.1/cmath ****     isunordered(_Tp __x, _Up __y)
 831:/home/hubert/daisy/gcc/arm-none-eabi/include/c++/10.2.1/cmath ****     {
 832:/home/hubert/daisy/gcc/arm-none-eabi/include/c++/10.2.1/cmath ****       typedef typename __gnu_cxx::__promote_2<_Tp, _Up>::__type __type;
 833:/home/hubert/daisy/gcc/arm-none-eabi/include/c++/10.2.1/cmath ****       return __builtin_isunordered(__type(__x), __type(__y));
 834:/home/hubert/daisy/gcc/arm-none-eabi/include/c++/10.2.1/cmath ****     }
 835:/home/hubert/daisy/gcc/arm-none-eabi/include/c++/10.2.1/cmath **** #endif
 836:/home/hubert/daisy/gcc/arm-none-eabi/include/c++/10.2.1/cmath **** 
 837:/home/hubert/daisy/gcc/arm-none-eabi/include/c++/10.2.1/cmath **** #else
 838:/home/hubert/daisy/gcc/arm-none-eabi/include/c++/10.2.1/cmath **** 
 839:/home/hubert/daisy/gcc/arm-none-eabi/include/c++/10.2.1/cmath ****   template<typename _Tp>
 840:/home/hubert/daisy/gcc/arm-none-eabi/include/c++/10.2.1/cmath ****     inline typename __gnu_cxx::__enable_if<__is_arithmetic<_Tp>::__value,
 841:/home/hubert/daisy/gcc/arm-none-eabi/include/c++/10.2.1/cmath **** 					   int>::__type
 842:/home/hubert/daisy/gcc/arm-none-eabi/include/c++/10.2.1/cmath ****     fpclassify(_Tp __f)
 843:/home/hubert/daisy/gcc/arm-none-eabi/include/c++/10.2.1/cmath ****     {
 844:/home/hubert/daisy/gcc/arm-none-eabi/include/c++/10.2.1/cmath ****       typedef typename __gnu_cxx::__promote<_Tp>::__type __type;
 845:/home/hubert/daisy/gcc/arm-none-eabi/include/c++/10.2.1/cmath ****       return __builtin_fpclassify(FP_NAN, FP_INFINITE, FP_NORMAL,
 846:/home/hubert/daisy/gcc/arm-none-eabi/include/c++/10.2.1/cmath **** 				  FP_SUBNORMAL, FP_ZERO, __type(__f));
 847:/home/hubert/daisy/gcc/arm-none-eabi/include/c++/10.2.1/cmath ****     }
 848:/home/hubert/daisy/gcc/arm-none-eabi/include/c++/10.2.1/cmath **** 
 849:/home/hubert/daisy/gcc/arm-none-eabi/include/c++/10.2.1/cmath ****   template<typename _Tp>
 850:/home/hubert/daisy/gcc/arm-none-eabi/include/c++/10.2.1/cmath ****     inline typename __gnu_cxx::__enable_if<__is_arithmetic<_Tp>::__value,
 851:/home/hubert/daisy/gcc/arm-none-eabi/include/c++/10.2.1/cmath **** 					   int>::__type
 852:/home/hubert/daisy/gcc/arm-none-eabi/include/c++/10.2.1/cmath ****     isfinite(_Tp __f)
 853:/home/hubert/daisy/gcc/arm-none-eabi/include/c++/10.2.1/cmath ****     {
 854:/home/hubert/daisy/gcc/arm-none-eabi/include/c++/10.2.1/cmath ****       typedef typename __gnu_cxx::__promote<_Tp>::__type __type;
 855:/home/hubert/daisy/gcc/arm-none-eabi/include/c++/10.2.1/cmath ****       return __builtin_isfinite(__type(__f));
 856:/home/hubert/daisy/gcc/arm-none-eabi/include/c++/10.2.1/cmath ****     }
 857:/home/hubert/daisy/gcc/arm-none-eabi/include/c++/10.2.1/cmath **** 
 858:/home/hubert/daisy/gcc/arm-none-eabi/include/c++/10.2.1/cmath ****   template<typename _Tp>
 859:/home/hubert/daisy/gcc/arm-none-eabi/include/c++/10.2.1/cmath ****     inline typename __gnu_cxx::__enable_if<__is_arithmetic<_Tp>::__value,
 860:/home/hubert/daisy/gcc/arm-none-eabi/include/c++/10.2.1/cmath **** 					   int>::__type
 861:/home/hubert/daisy/gcc/arm-none-eabi/include/c++/10.2.1/cmath ****     isinf(_Tp __f)
 862:/home/hubert/daisy/gcc/arm-none-eabi/include/c++/10.2.1/cmath ****     {
 863:/home/hubert/daisy/gcc/arm-none-eabi/include/c++/10.2.1/cmath ****       typedef typename __gnu_cxx::__promote<_Tp>::__type __type;
 864:/home/hubert/daisy/gcc/arm-none-eabi/include/c++/10.2.1/cmath ****       return __builtin_isinf(__type(__f));
 865:/home/hubert/daisy/gcc/arm-none-eabi/include/c++/10.2.1/cmath ****     }
 866:/home/hubert/daisy/gcc/arm-none-eabi/include/c++/10.2.1/cmath **** 
 867:/home/hubert/daisy/gcc/arm-none-eabi/include/c++/10.2.1/cmath ****   template<typename _Tp>
 868:/home/hubert/daisy/gcc/arm-none-eabi/include/c++/10.2.1/cmath ****     inline typename __gnu_cxx::__enable_if<__is_arithmetic<_Tp>::__value,
 869:/home/hubert/daisy/gcc/arm-none-eabi/include/c++/10.2.1/cmath **** 					   int>::__type
 870:/home/hubert/daisy/gcc/arm-none-eabi/include/c++/10.2.1/cmath ****     isnan(_Tp __f)
ARM GAS  /tmp/ccIWsbgU.s 			page 20


 871:/home/hubert/daisy/gcc/arm-none-eabi/include/c++/10.2.1/cmath ****     {
 872:/home/hubert/daisy/gcc/arm-none-eabi/include/c++/10.2.1/cmath ****       typedef typename __gnu_cxx::__promote<_Tp>::__type __type;
 873:/home/hubert/daisy/gcc/arm-none-eabi/include/c++/10.2.1/cmath ****       return __builtin_isnan(__type(__f));
 874:/home/hubert/daisy/gcc/arm-none-eabi/include/c++/10.2.1/cmath ****     }
 875:/home/hubert/daisy/gcc/arm-none-eabi/include/c++/10.2.1/cmath **** 
 876:/home/hubert/daisy/gcc/arm-none-eabi/include/c++/10.2.1/cmath ****   template<typename _Tp>
 877:/home/hubert/daisy/gcc/arm-none-eabi/include/c++/10.2.1/cmath ****     inline typename __gnu_cxx::__enable_if<__is_arithmetic<_Tp>::__value,
 878:/home/hubert/daisy/gcc/arm-none-eabi/include/c++/10.2.1/cmath **** 					   int>::__type
 879:/home/hubert/daisy/gcc/arm-none-eabi/include/c++/10.2.1/cmath ****     isnormal(_Tp __f)
 880:/home/hubert/daisy/gcc/arm-none-eabi/include/c++/10.2.1/cmath ****     {
 881:/home/hubert/daisy/gcc/arm-none-eabi/include/c++/10.2.1/cmath ****       typedef typename __gnu_cxx::__promote<_Tp>::__type __type;
 882:/home/hubert/daisy/gcc/arm-none-eabi/include/c++/10.2.1/cmath ****       return __builtin_isnormal(__type(__f));
 883:/home/hubert/daisy/gcc/arm-none-eabi/include/c++/10.2.1/cmath ****     }
 884:/home/hubert/daisy/gcc/arm-none-eabi/include/c++/10.2.1/cmath **** 
 885:/home/hubert/daisy/gcc/arm-none-eabi/include/c++/10.2.1/cmath ****   template<typename _Tp>
 886:/home/hubert/daisy/gcc/arm-none-eabi/include/c++/10.2.1/cmath ****     inline typename __gnu_cxx::__enable_if<__is_arithmetic<_Tp>::__value,
 887:/home/hubert/daisy/gcc/arm-none-eabi/include/c++/10.2.1/cmath **** 					   int>::__type
 888:/home/hubert/daisy/gcc/arm-none-eabi/include/c++/10.2.1/cmath ****     signbit(_Tp __f)
 889:/home/hubert/daisy/gcc/arm-none-eabi/include/c++/10.2.1/cmath ****     {
 890:/home/hubert/daisy/gcc/arm-none-eabi/include/c++/10.2.1/cmath ****       typedef typename __gnu_cxx::__promote<_Tp>::__type __type;
 891:/home/hubert/daisy/gcc/arm-none-eabi/include/c++/10.2.1/cmath ****       return __builtin_signbit(__type(__f));
 892:/home/hubert/daisy/gcc/arm-none-eabi/include/c++/10.2.1/cmath ****     }
 893:/home/hubert/daisy/gcc/arm-none-eabi/include/c++/10.2.1/cmath **** 
 894:/home/hubert/daisy/gcc/arm-none-eabi/include/c++/10.2.1/cmath ****   template<typename _Tp>
 895:/home/hubert/daisy/gcc/arm-none-eabi/include/c++/10.2.1/cmath ****     inline typename __gnu_cxx::__enable_if<__is_arithmetic<_Tp>::__value,
 896:/home/hubert/daisy/gcc/arm-none-eabi/include/c++/10.2.1/cmath **** 					   int>::__type
 897:/home/hubert/daisy/gcc/arm-none-eabi/include/c++/10.2.1/cmath ****     isgreater(_Tp __f1, _Tp __f2)
 898:/home/hubert/daisy/gcc/arm-none-eabi/include/c++/10.2.1/cmath ****     {
 899:/home/hubert/daisy/gcc/arm-none-eabi/include/c++/10.2.1/cmath ****       typedef typename __gnu_cxx::__promote<_Tp>::__type __type;
 900:/home/hubert/daisy/gcc/arm-none-eabi/include/c++/10.2.1/cmath ****       return __builtin_isgreater(__type(__f1), __type(__f2));
 901:/home/hubert/daisy/gcc/arm-none-eabi/include/c++/10.2.1/cmath ****     }
 902:/home/hubert/daisy/gcc/arm-none-eabi/include/c++/10.2.1/cmath **** 
 903:/home/hubert/daisy/gcc/arm-none-eabi/include/c++/10.2.1/cmath ****   template<typename _Tp>
 904:/home/hubert/daisy/gcc/arm-none-eabi/include/c++/10.2.1/cmath ****     inline typename __gnu_cxx::__enable_if<__is_arithmetic<_Tp>::__value,
 905:/home/hubert/daisy/gcc/arm-none-eabi/include/c++/10.2.1/cmath **** 					   int>::__type
 906:/home/hubert/daisy/gcc/arm-none-eabi/include/c++/10.2.1/cmath ****     isgreaterequal(_Tp __f1, _Tp __f2)
 907:/home/hubert/daisy/gcc/arm-none-eabi/include/c++/10.2.1/cmath ****     {
 908:/home/hubert/daisy/gcc/arm-none-eabi/include/c++/10.2.1/cmath ****       typedef typename __gnu_cxx::__promote<_Tp>::__type __type;
 909:/home/hubert/daisy/gcc/arm-none-eabi/include/c++/10.2.1/cmath ****       return __builtin_isgreaterequal(__type(__f1), __type(__f2));
 910:/home/hubert/daisy/gcc/arm-none-eabi/include/c++/10.2.1/cmath ****     }
 911:/home/hubert/daisy/gcc/arm-none-eabi/include/c++/10.2.1/cmath **** 
 912:/home/hubert/daisy/gcc/arm-none-eabi/include/c++/10.2.1/cmath ****   template<typename _Tp>
 913:/home/hubert/daisy/gcc/arm-none-eabi/include/c++/10.2.1/cmath ****     inline typename __gnu_cxx::__enable_if<__is_arithmetic<_Tp>::__value,
 914:/home/hubert/daisy/gcc/arm-none-eabi/include/c++/10.2.1/cmath **** 					   int>::__type
 915:/home/hubert/daisy/gcc/arm-none-eabi/include/c++/10.2.1/cmath ****     isless(_Tp __f1, _Tp __f2)
 916:/home/hubert/daisy/gcc/arm-none-eabi/include/c++/10.2.1/cmath ****     {
 917:/home/hubert/daisy/gcc/arm-none-eabi/include/c++/10.2.1/cmath ****       typedef typename __gnu_cxx::__promote<_Tp>::__type __type;
 918:/home/hubert/daisy/gcc/arm-none-eabi/include/c++/10.2.1/cmath ****       return __builtin_isless(__type(__f1), __type(__f2));
 919:/home/hubert/daisy/gcc/arm-none-eabi/include/c++/10.2.1/cmath ****     }
 920:/home/hubert/daisy/gcc/arm-none-eabi/include/c++/10.2.1/cmath **** 
 921:/home/hubert/daisy/gcc/arm-none-eabi/include/c++/10.2.1/cmath ****   template<typename _Tp>
 922:/home/hubert/daisy/gcc/arm-none-eabi/include/c++/10.2.1/cmath ****     inline typename __gnu_cxx::__enable_if<__is_arithmetic<_Tp>::__value,
 923:/home/hubert/daisy/gcc/arm-none-eabi/include/c++/10.2.1/cmath **** 					   int>::__type
 924:/home/hubert/daisy/gcc/arm-none-eabi/include/c++/10.2.1/cmath ****     islessequal(_Tp __f1, _Tp __f2)
 925:/home/hubert/daisy/gcc/arm-none-eabi/include/c++/10.2.1/cmath ****     {
 926:/home/hubert/daisy/gcc/arm-none-eabi/include/c++/10.2.1/cmath ****       typedef typename __gnu_cxx::__promote<_Tp>::__type __type;
 927:/home/hubert/daisy/gcc/arm-none-eabi/include/c++/10.2.1/cmath ****       return __builtin_islessequal(__type(__f1), __type(__f2));
ARM GAS  /tmp/ccIWsbgU.s 			page 21


 928:/home/hubert/daisy/gcc/arm-none-eabi/include/c++/10.2.1/cmath ****     }
 929:/home/hubert/daisy/gcc/arm-none-eabi/include/c++/10.2.1/cmath **** 
 930:/home/hubert/daisy/gcc/arm-none-eabi/include/c++/10.2.1/cmath ****   template<typename _Tp>
 931:/home/hubert/daisy/gcc/arm-none-eabi/include/c++/10.2.1/cmath ****     inline typename __gnu_cxx::__enable_if<__is_arithmetic<_Tp>::__value,
 932:/home/hubert/daisy/gcc/arm-none-eabi/include/c++/10.2.1/cmath **** 					   int>::__type
 933:/home/hubert/daisy/gcc/arm-none-eabi/include/c++/10.2.1/cmath ****     islessgreater(_Tp __f1, _Tp __f2)
 934:/home/hubert/daisy/gcc/arm-none-eabi/include/c++/10.2.1/cmath ****     {
 935:/home/hubert/daisy/gcc/arm-none-eabi/include/c++/10.2.1/cmath ****       typedef typename __gnu_cxx::__promote<_Tp>::__type __type;
 936:/home/hubert/daisy/gcc/arm-none-eabi/include/c++/10.2.1/cmath ****       return __builtin_islessgreater(__type(__f1), __type(__f2));
 937:/home/hubert/daisy/gcc/arm-none-eabi/include/c++/10.2.1/cmath ****     }
 938:/home/hubert/daisy/gcc/arm-none-eabi/include/c++/10.2.1/cmath **** 
 939:/home/hubert/daisy/gcc/arm-none-eabi/include/c++/10.2.1/cmath ****   template<typename _Tp>
 940:/home/hubert/daisy/gcc/arm-none-eabi/include/c++/10.2.1/cmath ****     inline typename __gnu_cxx::__enable_if<__is_arithmetic<_Tp>::__value,
 941:/home/hubert/daisy/gcc/arm-none-eabi/include/c++/10.2.1/cmath **** 					   int>::__type
 942:/home/hubert/daisy/gcc/arm-none-eabi/include/c++/10.2.1/cmath ****     isunordered(_Tp __f1, _Tp __f2)
 943:/home/hubert/daisy/gcc/arm-none-eabi/include/c++/10.2.1/cmath ****     {
 944:/home/hubert/daisy/gcc/arm-none-eabi/include/c++/10.2.1/cmath ****       typedef typename __gnu_cxx::__promote<_Tp>::__type __type;
 945:/home/hubert/daisy/gcc/arm-none-eabi/include/c++/10.2.1/cmath ****       return __builtin_isunordered(__type(__f1), __type(__f2));
 946:/home/hubert/daisy/gcc/arm-none-eabi/include/c++/10.2.1/cmath ****     }
 947:/home/hubert/daisy/gcc/arm-none-eabi/include/c++/10.2.1/cmath **** 
 948:/home/hubert/daisy/gcc/arm-none-eabi/include/c++/10.2.1/cmath **** #endif // C++11
 949:/home/hubert/daisy/gcc/arm-none-eabi/include/c++/10.2.1/cmath **** #endif /* _GLIBCXX_USE_C99_FP_MACROS_DYNAMIC */
 950:/home/hubert/daisy/gcc/arm-none-eabi/include/c++/10.2.1/cmath **** #endif /* _GLIBCXX_USE_C99_MATH */
 951:/home/hubert/daisy/gcc/arm-none-eabi/include/c++/10.2.1/cmath **** 
 952:/home/hubert/daisy/gcc/arm-none-eabi/include/c++/10.2.1/cmath **** #if __cplusplus >= 201103L
 953:/home/hubert/daisy/gcc/arm-none-eabi/include/c++/10.2.1/cmath **** 
 954:/home/hubert/daisy/gcc/arm-none-eabi/include/c++/10.2.1/cmath **** #ifdef _GLIBCXX_USE_C99_MATH_TR1
 955:/home/hubert/daisy/gcc/arm-none-eabi/include/c++/10.2.1/cmath **** 
 956:/home/hubert/daisy/gcc/arm-none-eabi/include/c++/10.2.1/cmath **** #undef acosh
 957:/home/hubert/daisy/gcc/arm-none-eabi/include/c++/10.2.1/cmath **** #undef acoshf
 958:/home/hubert/daisy/gcc/arm-none-eabi/include/c++/10.2.1/cmath **** #undef acoshl
 959:/home/hubert/daisy/gcc/arm-none-eabi/include/c++/10.2.1/cmath **** #undef asinh
 960:/home/hubert/daisy/gcc/arm-none-eabi/include/c++/10.2.1/cmath **** #undef asinhf
 961:/home/hubert/daisy/gcc/arm-none-eabi/include/c++/10.2.1/cmath **** #undef asinhl
 962:/home/hubert/daisy/gcc/arm-none-eabi/include/c++/10.2.1/cmath **** #undef atanh
 963:/home/hubert/daisy/gcc/arm-none-eabi/include/c++/10.2.1/cmath **** #undef atanhf
 964:/home/hubert/daisy/gcc/arm-none-eabi/include/c++/10.2.1/cmath **** #undef atanhl
 965:/home/hubert/daisy/gcc/arm-none-eabi/include/c++/10.2.1/cmath **** #undef cbrt
 966:/home/hubert/daisy/gcc/arm-none-eabi/include/c++/10.2.1/cmath **** #undef cbrtf
 967:/home/hubert/daisy/gcc/arm-none-eabi/include/c++/10.2.1/cmath **** #undef cbrtl
 968:/home/hubert/daisy/gcc/arm-none-eabi/include/c++/10.2.1/cmath **** #undef copysign
 969:/home/hubert/daisy/gcc/arm-none-eabi/include/c++/10.2.1/cmath **** #undef copysignf
 970:/home/hubert/daisy/gcc/arm-none-eabi/include/c++/10.2.1/cmath **** #undef copysignl
 971:/home/hubert/daisy/gcc/arm-none-eabi/include/c++/10.2.1/cmath **** #undef erf
 972:/home/hubert/daisy/gcc/arm-none-eabi/include/c++/10.2.1/cmath **** #undef erff
 973:/home/hubert/daisy/gcc/arm-none-eabi/include/c++/10.2.1/cmath **** #undef erfl
 974:/home/hubert/daisy/gcc/arm-none-eabi/include/c++/10.2.1/cmath **** #undef erfc
 975:/home/hubert/daisy/gcc/arm-none-eabi/include/c++/10.2.1/cmath **** #undef erfcf
 976:/home/hubert/daisy/gcc/arm-none-eabi/include/c++/10.2.1/cmath **** #undef erfcl
 977:/home/hubert/daisy/gcc/arm-none-eabi/include/c++/10.2.1/cmath **** #undef exp2
 978:/home/hubert/daisy/gcc/arm-none-eabi/include/c++/10.2.1/cmath **** #undef exp2f
 979:/home/hubert/daisy/gcc/arm-none-eabi/include/c++/10.2.1/cmath **** #undef exp2l
 980:/home/hubert/daisy/gcc/arm-none-eabi/include/c++/10.2.1/cmath **** #undef expm1
 981:/home/hubert/daisy/gcc/arm-none-eabi/include/c++/10.2.1/cmath **** #undef expm1f
 982:/home/hubert/daisy/gcc/arm-none-eabi/include/c++/10.2.1/cmath **** #undef expm1l
 983:/home/hubert/daisy/gcc/arm-none-eabi/include/c++/10.2.1/cmath **** #undef fdim
 984:/home/hubert/daisy/gcc/arm-none-eabi/include/c++/10.2.1/cmath **** #undef fdimf
ARM GAS  /tmp/ccIWsbgU.s 			page 22


 985:/home/hubert/daisy/gcc/arm-none-eabi/include/c++/10.2.1/cmath **** #undef fdiml
 986:/home/hubert/daisy/gcc/arm-none-eabi/include/c++/10.2.1/cmath **** #undef fma
 987:/home/hubert/daisy/gcc/arm-none-eabi/include/c++/10.2.1/cmath **** #undef fmaf
 988:/home/hubert/daisy/gcc/arm-none-eabi/include/c++/10.2.1/cmath **** #undef fmal
 989:/home/hubert/daisy/gcc/arm-none-eabi/include/c++/10.2.1/cmath **** #undef fmax
 990:/home/hubert/daisy/gcc/arm-none-eabi/include/c++/10.2.1/cmath **** #undef fmaxf
 991:/home/hubert/daisy/gcc/arm-none-eabi/include/c++/10.2.1/cmath **** #undef fmaxl
 992:/home/hubert/daisy/gcc/arm-none-eabi/include/c++/10.2.1/cmath **** #undef fmin
 993:/home/hubert/daisy/gcc/arm-none-eabi/include/c++/10.2.1/cmath **** #undef fminf
 994:/home/hubert/daisy/gcc/arm-none-eabi/include/c++/10.2.1/cmath **** #undef fminl
 995:/home/hubert/daisy/gcc/arm-none-eabi/include/c++/10.2.1/cmath **** #undef hypot
 996:/home/hubert/daisy/gcc/arm-none-eabi/include/c++/10.2.1/cmath **** #undef hypotf
 997:/home/hubert/daisy/gcc/arm-none-eabi/include/c++/10.2.1/cmath **** #undef hypotl
 998:/home/hubert/daisy/gcc/arm-none-eabi/include/c++/10.2.1/cmath **** #undef ilogb
 999:/home/hubert/daisy/gcc/arm-none-eabi/include/c++/10.2.1/cmath **** #undef ilogbf
1000:/home/hubert/daisy/gcc/arm-none-eabi/include/c++/10.2.1/cmath **** #undef ilogbl
1001:/home/hubert/daisy/gcc/arm-none-eabi/include/c++/10.2.1/cmath **** #undef lgamma
1002:/home/hubert/daisy/gcc/arm-none-eabi/include/c++/10.2.1/cmath **** #undef lgammaf
1003:/home/hubert/daisy/gcc/arm-none-eabi/include/c++/10.2.1/cmath **** #undef lgammal
1004:/home/hubert/daisy/gcc/arm-none-eabi/include/c++/10.2.1/cmath **** #ifndef _GLIBCXX_NO_C99_ROUNDING_FUNCS
1005:/home/hubert/daisy/gcc/arm-none-eabi/include/c++/10.2.1/cmath **** #undef llrint
1006:/home/hubert/daisy/gcc/arm-none-eabi/include/c++/10.2.1/cmath **** #undef llrintf
1007:/home/hubert/daisy/gcc/arm-none-eabi/include/c++/10.2.1/cmath **** #undef llrintl
1008:/home/hubert/daisy/gcc/arm-none-eabi/include/c++/10.2.1/cmath **** #undef llround
1009:/home/hubert/daisy/gcc/arm-none-eabi/include/c++/10.2.1/cmath **** #undef llroundf
1010:/home/hubert/daisy/gcc/arm-none-eabi/include/c++/10.2.1/cmath **** #undef llroundl
1011:/home/hubert/daisy/gcc/arm-none-eabi/include/c++/10.2.1/cmath **** #endif
1012:/home/hubert/daisy/gcc/arm-none-eabi/include/c++/10.2.1/cmath **** #undef log1p
1013:/home/hubert/daisy/gcc/arm-none-eabi/include/c++/10.2.1/cmath **** #undef log1pf
1014:/home/hubert/daisy/gcc/arm-none-eabi/include/c++/10.2.1/cmath **** #undef log1pl
1015:/home/hubert/daisy/gcc/arm-none-eabi/include/c++/10.2.1/cmath **** #undef log2
1016:/home/hubert/daisy/gcc/arm-none-eabi/include/c++/10.2.1/cmath **** #undef log2f
1017:/home/hubert/daisy/gcc/arm-none-eabi/include/c++/10.2.1/cmath **** #undef log2l
1018:/home/hubert/daisy/gcc/arm-none-eabi/include/c++/10.2.1/cmath **** #undef logb
1019:/home/hubert/daisy/gcc/arm-none-eabi/include/c++/10.2.1/cmath **** #undef logbf
1020:/home/hubert/daisy/gcc/arm-none-eabi/include/c++/10.2.1/cmath **** #undef logbl
1021:/home/hubert/daisy/gcc/arm-none-eabi/include/c++/10.2.1/cmath **** #undef lrint
1022:/home/hubert/daisy/gcc/arm-none-eabi/include/c++/10.2.1/cmath **** #undef lrintf
1023:/home/hubert/daisy/gcc/arm-none-eabi/include/c++/10.2.1/cmath **** #undef lrintl
1024:/home/hubert/daisy/gcc/arm-none-eabi/include/c++/10.2.1/cmath **** #undef lround
1025:/home/hubert/daisy/gcc/arm-none-eabi/include/c++/10.2.1/cmath **** #undef lroundf
1026:/home/hubert/daisy/gcc/arm-none-eabi/include/c++/10.2.1/cmath **** #undef lroundl
1027:/home/hubert/daisy/gcc/arm-none-eabi/include/c++/10.2.1/cmath **** #undef nan
1028:/home/hubert/daisy/gcc/arm-none-eabi/include/c++/10.2.1/cmath **** #undef nanf
1029:/home/hubert/daisy/gcc/arm-none-eabi/include/c++/10.2.1/cmath **** #undef nanl
1030:/home/hubert/daisy/gcc/arm-none-eabi/include/c++/10.2.1/cmath **** #undef nearbyint
1031:/home/hubert/daisy/gcc/arm-none-eabi/include/c++/10.2.1/cmath **** #undef nearbyintf
1032:/home/hubert/daisy/gcc/arm-none-eabi/include/c++/10.2.1/cmath **** #undef nearbyintl
1033:/home/hubert/daisy/gcc/arm-none-eabi/include/c++/10.2.1/cmath **** #undef nextafter
1034:/home/hubert/daisy/gcc/arm-none-eabi/include/c++/10.2.1/cmath **** #undef nextafterf
1035:/home/hubert/daisy/gcc/arm-none-eabi/include/c++/10.2.1/cmath **** #undef nextafterl
1036:/home/hubert/daisy/gcc/arm-none-eabi/include/c++/10.2.1/cmath **** #undef nexttoward
1037:/home/hubert/daisy/gcc/arm-none-eabi/include/c++/10.2.1/cmath **** #undef nexttowardf
1038:/home/hubert/daisy/gcc/arm-none-eabi/include/c++/10.2.1/cmath **** #undef nexttowardl
1039:/home/hubert/daisy/gcc/arm-none-eabi/include/c++/10.2.1/cmath **** #undef remainder
1040:/home/hubert/daisy/gcc/arm-none-eabi/include/c++/10.2.1/cmath **** #undef remainderf
1041:/home/hubert/daisy/gcc/arm-none-eabi/include/c++/10.2.1/cmath **** #undef remainderl
ARM GAS  /tmp/ccIWsbgU.s 			page 23


1042:/home/hubert/daisy/gcc/arm-none-eabi/include/c++/10.2.1/cmath **** #undef remquo
1043:/home/hubert/daisy/gcc/arm-none-eabi/include/c++/10.2.1/cmath **** #undef remquof
1044:/home/hubert/daisy/gcc/arm-none-eabi/include/c++/10.2.1/cmath **** #undef remquol
1045:/home/hubert/daisy/gcc/arm-none-eabi/include/c++/10.2.1/cmath **** #undef rint
1046:/home/hubert/daisy/gcc/arm-none-eabi/include/c++/10.2.1/cmath **** #undef rintf
1047:/home/hubert/daisy/gcc/arm-none-eabi/include/c++/10.2.1/cmath **** #undef rintl
1048:/home/hubert/daisy/gcc/arm-none-eabi/include/c++/10.2.1/cmath **** #undef round
1049:/home/hubert/daisy/gcc/arm-none-eabi/include/c++/10.2.1/cmath **** #undef roundf
1050:/home/hubert/daisy/gcc/arm-none-eabi/include/c++/10.2.1/cmath **** #undef roundl
1051:/home/hubert/daisy/gcc/arm-none-eabi/include/c++/10.2.1/cmath **** #undef scalbln
1052:/home/hubert/daisy/gcc/arm-none-eabi/include/c++/10.2.1/cmath **** #undef scalblnf
1053:/home/hubert/daisy/gcc/arm-none-eabi/include/c++/10.2.1/cmath **** #undef scalblnl
1054:/home/hubert/daisy/gcc/arm-none-eabi/include/c++/10.2.1/cmath **** #undef scalbn
1055:/home/hubert/daisy/gcc/arm-none-eabi/include/c++/10.2.1/cmath **** #undef scalbnf
1056:/home/hubert/daisy/gcc/arm-none-eabi/include/c++/10.2.1/cmath **** #undef scalbnl
1057:/home/hubert/daisy/gcc/arm-none-eabi/include/c++/10.2.1/cmath **** #undef tgamma
1058:/home/hubert/daisy/gcc/arm-none-eabi/include/c++/10.2.1/cmath **** #undef tgammaf
1059:/home/hubert/daisy/gcc/arm-none-eabi/include/c++/10.2.1/cmath **** #undef tgammal
1060:/home/hubert/daisy/gcc/arm-none-eabi/include/c++/10.2.1/cmath **** #undef trunc
1061:/home/hubert/daisy/gcc/arm-none-eabi/include/c++/10.2.1/cmath **** #undef truncf
1062:/home/hubert/daisy/gcc/arm-none-eabi/include/c++/10.2.1/cmath **** #undef truncl
1063:/home/hubert/daisy/gcc/arm-none-eabi/include/c++/10.2.1/cmath **** 
1064:/home/hubert/daisy/gcc/arm-none-eabi/include/c++/10.2.1/cmath ****   // types
1065:/home/hubert/daisy/gcc/arm-none-eabi/include/c++/10.2.1/cmath ****   using ::double_t;
1066:/home/hubert/daisy/gcc/arm-none-eabi/include/c++/10.2.1/cmath ****   using ::float_t;
1067:/home/hubert/daisy/gcc/arm-none-eabi/include/c++/10.2.1/cmath **** 
1068:/home/hubert/daisy/gcc/arm-none-eabi/include/c++/10.2.1/cmath ****   // functions
1069:/home/hubert/daisy/gcc/arm-none-eabi/include/c++/10.2.1/cmath ****   using ::acosh;
1070:/home/hubert/daisy/gcc/arm-none-eabi/include/c++/10.2.1/cmath ****   using ::acoshf;
1071:/home/hubert/daisy/gcc/arm-none-eabi/include/c++/10.2.1/cmath ****   using ::acoshl;
1072:/home/hubert/daisy/gcc/arm-none-eabi/include/c++/10.2.1/cmath **** 
1073:/home/hubert/daisy/gcc/arm-none-eabi/include/c++/10.2.1/cmath ****   using ::asinh;
1074:/home/hubert/daisy/gcc/arm-none-eabi/include/c++/10.2.1/cmath ****   using ::asinhf;
1075:/home/hubert/daisy/gcc/arm-none-eabi/include/c++/10.2.1/cmath ****   using ::asinhl;
1076:/home/hubert/daisy/gcc/arm-none-eabi/include/c++/10.2.1/cmath **** 
1077:/home/hubert/daisy/gcc/arm-none-eabi/include/c++/10.2.1/cmath ****   using ::atanh;
1078:/home/hubert/daisy/gcc/arm-none-eabi/include/c++/10.2.1/cmath ****   using ::atanhf;
1079:/home/hubert/daisy/gcc/arm-none-eabi/include/c++/10.2.1/cmath ****   using ::atanhl;
1080:/home/hubert/daisy/gcc/arm-none-eabi/include/c++/10.2.1/cmath **** 
1081:/home/hubert/daisy/gcc/arm-none-eabi/include/c++/10.2.1/cmath ****   using ::cbrt;
1082:/home/hubert/daisy/gcc/arm-none-eabi/include/c++/10.2.1/cmath ****   using ::cbrtf;
1083:/home/hubert/daisy/gcc/arm-none-eabi/include/c++/10.2.1/cmath ****   using ::cbrtl;
1084:/home/hubert/daisy/gcc/arm-none-eabi/include/c++/10.2.1/cmath **** 
1085:/home/hubert/daisy/gcc/arm-none-eabi/include/c++/10.2.1/cmath ****   using ::copysign;
1086:/home/hubert/daisy/gcc/arm-none-eabi/include/c++/10.2.1/cmath ****   using ::copysignf;
1087:/home/hubert/daisy/gcc/arm-none-eabi/include/c++/10.2.1/cmath ****   using ::copysignl;
1088:/home/hubert/daisy/gcc/arm-none-eabi/include/c++/10.2.1/cmath **** 
1089:/home/hubert/daisy/gcc/arm-none-eabi/include/c++/10.2.1/cmath ****   using ::erf;
1090:/home/hubert/daisy/gcc/arm-none-eabi/include/c++/10.2.1/cmath ****   using ::erff;
1091:/home/hubert/daisy/gcc/arm-none-eabi/include/c++/10.2.1/cmath ****   using ::erfl;
1092:/home/hubert/daisy/gcc/arm-none-eabi/include/c++/10.2.1/cmath **** 
1093:/home/hubert/daisy/gcc/arm-none-eabi/include/c++/10.2.1/cmath ****   using ::erfc;
1094:/home/hubert/daisy/gcc/arm-none-eabi/include/c++/10.2.1/cmath ****   using ::erfcf;
1095:/home/hubert/daisy/gcc/arm-none-eabi/include/c++/10.2.1/cmath ****   using ::erfcl;
1096:/home/hubert/daisy/gcc/arm-none-eabi/include/c++/10.2.1/cmath **** 
1097:/home/hubert/daisy/gcc/arm-none-eabi/include/c++/10.2.1/cmath ****   using ::exp2;
1098:/home/hubert/daisy/gcc/arm-none-eabi/include/c++/10.2.1/cmath ****   using ::exp2f;
ARM GAS  /tmp/ccIWsbgU.s 			page 24


1099:/home/hubert/daisy/gcc/arm-none-eabi/include/c++/10.2.1/cmath ****   using ::exp2l;
1100:/home/hubert/daisy/gcc/arm-none-eabi/include/c++/10.2.1/cmath **** 
1101:/home/hubert/daisy/gcc/arm-none-eabi/include/c++/10.2.1/cmath ****   using ::expm1;
1102:/home/hubert/daisy/gcc/arm-none-eabi/include/c++/10.2.1/cmath ****   using ::expm1f;
1103:/home/hubert/daisy/gcc/arm-none-eabi/include/c++/10.2.1/cmath ****   using ::expm1l;
1104:/home/hubert/daisy/gcc/arm-none-eabi/include/c++/10.2.1/cmath **** 
1105:/home/hubert/daisy/gcc/arm-none-eabi/include/c++/10.2.1/cmath ****   using ::fdim;
1106:/home/hubert/daisy/gcc/arm-none-eabi/include/c++/10.2.1/cmath ****   using ::fdimf;
1107:/home/hubert/daisy/gcc/arm-none-eabi/include/c++/10.2.1/cmath ****   using ::fdiml;
1108:/home/hubert/daisy/gcc/arm-none-eabi/include/c++/10.2.1/cmath **** 
1109:/home/hubert/daisy/gcc/arm-none-eabi/include/c++/10.2.1/cmath ****   using ::fma;
1110:/home/hubert/daisy/gcc/arm-none-eabi/include/c++/10.2.1/cmath ****   using ::fmaf;
1111:/home/hubert/daisy/gcc/arm-none-eabi/include/c++/10.2.1/cmath ****   using ::fmal;
1112:/home/hubert/daisy/gcc/arm-none-eabi/include/c++/10.2.1/cmath **** 
1113:/home/hubert/daisy/gcc/arm-none-eabi/include/c++/10.2.1/cmath ****   using ::fmax;
1114:/home/hubert/daisy/gcc/arm-none-eabi/include/c++/10.2.1/cmath ****   using ::fmaxf;
1115:/home/hubert/daisy/gcc/arm-none-eabi/include/c++/10.2.1/cmath ****   using ::fmaxl;
1116:/home/hubert/daisy/gcc/arm-none-eabi/include/c++/10.2.1/cmath **** 
1117:/home/hubert/daisy/gcc/arm-none-eabi/include/c++/10.2.1/cmath ****   using ::fmin;
1118:/home/hubert/daisy/gcc/arm-none-eabi/include/c++/10.2.1/cmath ****   using ::fminf;
1119:/home/hubert/daisy/gcc/arm-none-eabi/include/c++/10.2.1/cmath ****   using ::fminl;
1120:/home/hubert/daisy/gcc/arm-none-eabi/include/c++/10.2.1/cmath **** 
1121:/home/hubert/daisy/gcc/arm-none-eabi/include/c++/10.2.1/cmath ****   using ::hypot;
1122:/home/hubert/daisy/gcc/arm-none-eabi/include/c++/10.2.1/cmath ****   using ::hypotf;
1123:/home/hubert/daisy/gcc/arm-none-eabi/include/c++/10.2.1/cmath ****   using ::hypotl;
1124:/home/hubert/daisy/gcc/arm-none-eabi/include/c++/10.2.1/cmath **** 
1125:/home/hubert/daisy/gcc/arm-none-eabi/include/c++/10.2.1/cmath ****   using ::ilogb;
1126:/home/hubert/daisy/gcc/arm-none-eabi/include/c++/10.2.1/cmath ****   using ::ilogbf;
1127:/home/hubert/daisy/gcc/arm-none-eabi/include/c++/10.2.1/cmath ****   using ::ilogbl;
1128:/home/hubert/daisy/gcc/arm-none-eabi/include/c++/10.2.1/cmath **** 
1129:/home/hubert/daisy/gcc/arm-none-eabi/include/c++/10.2.1/cmath ****   using ::lgamma;
1130:/home/hubert/daisy/gcc/arm-none-eabi/include/c++/10.2.1/cmath ****   using ::lgammaf;
1131:/home/hubert/daisy/gcc/arm-none-eabi/include/c++/10.2.1/cmath ****   using ::lgammal;
1132:/home/hubert/daisy/gcc/arm-none-eabi/include/c++/10.2.1/cmath **** 
1133:/home/hubert/daisy/gcc/arm-none-eabi/include/c++/10.2.1/cmath **** #ifndef _GLIBCXX_NO_C99_ROUNDING_FUNCS
1134:/home/hubert/daisy/gcc/arm-none-eabi/include/c++/10.2.1/cmath ****   using ::llrint;
1135:/home/hubert/daisy/gcc/arm-none-eabi/include/c++/10.2.1/cmath ****   using ::llrintf;
1136:/home/hubert/daisy/gcc/arm-none-eabi/include/c++/10.2.1/cmath ****   using ::llrintl;
1137:/home/hubert/daisy/gcc/arm-none-eabi/include/c++/10.2.1/cmath **** 
1138:/home/hubert/daisy/gcc/arm-none-eabi/include/c++/10.2.1/cmath ****   using ::llround;
1139:/home/hubert/daisy/gcc/arm-none-eabi/include/c++/10.2.1/cmath ****   using ::llroundf;
1140:/home/hubert/daisy/gcc/arm-none-eabi/include/c++/10.2.1/cmath ****   using ::llroundl;
1141:/home/hubert/daisy/gcc/arm-none-eabi/include/c++/10.2.1/cmath **** #endif
1142:/home/hubert/daisy/gcc/arm-none-eabi/include/c++/10.2.1/cmath **** 
1143:/home/hubert/daisy/gcc/arm-none-eabi/include/c++/10.2.1/cmath ****   using ::log1p;
1144:/home/hubert/daisy/gcc/arm-none-eabi/include/c++/10.2.1/cmath ****   using ::log1pf;
1145:/home/hubert/daisy/gcc/arm-none-eabi/include/c++/10.2.1/cmath ****   using ::log1pl;
1146:/home/hubert/daisy/gcc/arm-none-eabi/include/c++/10.2.1/cmath **** 
1147:/home/hubert/daisy/gcc/arm-none-eabi/include/c++/10.2.1/cmath ****   using ::log2;
1148:/home/hubert/daisy/gcc/arm-none-eabi/include/c++/10.2.1/cmath ****   using ::log2f;
1149:/home/hubert/daisy/gcc/arm-none-eabi/include/c++/10.2.1/cmath ****   using ::log2l;
1150:/home/hubert/daisy/gcc/arm-none-eabi/include/c++/10.2.1/cmath **** 
1151:/home/hubert/daisy/gcc/arm-none-eabi/include/c++/10.2.1/cmath ****   using ::logb;
1152:/home/hubert/daisy/gcc/arm-none-eabi/include/c++/10.2.1/cmath ****   using ::logbf;
1153:/home/hubert/daisy/gcc/arm-none-eabi/include/c++/10.2.1/cmath ****   using ::logbl;
1154:/home/hubert/daisy/gcc/arm-none-eabi/include/c++/10.2.1/cmath **** 
1155:/home/hubert/daisy/gcc/arm-none-eabi/include/c++/10.2.1/cmath ****   using ::lrint;
ARM GAS  /tmp/ccIWsbgU.s 			page 25


1156:/home/hubert/daisy/gcc/arm-none-eabi/include/c++/10.2.1/cmath ****   using ::lrintf;
1157:/home/hubert/daisy/gcc/arm-none-eabi/include/c++/10.2.1/cmath ****   using ::lrintl;
1158:/home/hubert/daisy/gcc/arm-none-eabi/include/c++/10.2.1/cmath **** 
1159:/home/hubert/daisy/gcc/arm-none-eabi/include/c++/10.2.1/cmath ****   using ::lround;
1160:/home/hubert/daisy/gcc/arm-none-eabi/include/c++/10.2.1/cmath ****   using ::lroundf;
1161:/home/hubert/daisy/gcc/arm-none-eabi/include/c++/10.2.1/cmath ****   using ::lroundl;
1162:/home/hubert/daisy/gcc/arm-none-eabi/include/c++/10.2.1/cmath **** 
1163:/home/hubert/daisy/gcc/arm-none-eabi/include/c++/10.2.1/cmath ****   using ::nan;
1164:/home/hubert/daisy/gcc/arm-none-eabi/include/c++/10.2.1/cmath ****   using ::nanf;
1165:/home/hubert/daisy/gcc/arm-none-eabi/include/c++/10.2.1/cmath ****   using ::nanl;
1166:/home/hubert/daisy/gcc/arm-none-eabi/include/c++/10.2.1/cmath **** 
1167:/home/hubert/daisy/gcc/arm-none-eabi/include/c++/10.2.1/cmath ****   using ::nearbyint;
1168:/home/hubert/daisy/gcc/arm-none-eabi/include/c++/10.2.1/cmath ****   using ::nearbyintf;
1169:/home/hubert/daisy/gcc/arm-none-eabi/include/c++/10.2.1/cmath ****   using ::nearbyintl;
1170:/home/hubert/daisy/gcc/arm-none-eabi/include/c++/10.2.1/cmath **** 
1171:/home/hubert/daisy/gcc/arm-none-eabi/include/c++/10.2.1/cmath ****   using ::nextafter;
1172:/home/hubert/daisy/gcc/arm-none-eabi/include/c++/10.2.1/cmath ****   using ::nextafterf;
1173:/home/hubert/daisy/gcc/arm-none-eabi/include/c++/10.2.1/cmath ****   using ::nextafterl;
1174:/home/hubert/daisy/gcc/arm-none-eabi/include/c++/10.2.1/cmath **** 
1175:/home/hubert/daisy/gcc/arm-none-eabi/include/c++/10.2.1/cmath ****   using ::nexttoward;
1176:/home/hubert/daisy/gcc/arm-none-eabi/include/c++/10.2.1/cmath ****   using ::nexttowardf;
1177:/home/hubert/daisy/gcc/arm-none-eabi/include/c++/10.2.1/cmath ****   using ::nexttowardl;
1178:/home/hubert/daisy/gcc/arm-none-eabi/include/c++/10.2.1/cmath **** 
1179:/home/hubert/daisy/gcc/arm-none-eabi/include/c++/10.2.1/cmath ****   using ::remainder;
1180:/home/hubert/daisy/gcc/arm-none-eabi/include/c++/10.2.1/cmath ****   using ::remainderf;
1181:/home/hubert/daisy/gcc/arm-none-eabi/include/c++/10.2.1/cmath ****   using ::remainderl;
1182:/home/hubert/daisy/gcc/arm-none-eabi/include/c++/10.2.1/cmath **** 
1183:/home/hubert/daisy/gcc/arm-none-eabi/include/c++/10.2.1/cmath ****   using ::remquo;
1184:/home/hubert/daisy/gcc/arm-none-eabi/include/c++/10.2.1/cmath ****   using ::remquof;
1185:/home/hubert/daisy/gcc/arm-none-eabi/include/c++/10.2.1/cmath ****   using ::remquol;
1186:/home/hubert/daisy/gcc/arm-none-eabi/include/c++/10.2.1/cmath **** 
1187:/home/hubert/daisy/gcc/arm-none-eabi/include/c++/10.2.1/cmath ****   using ::rint;
1188:/home/hubert/daisy/gcc/arm-none-eabi/include/c++/10.2.1/cmath ****   using ::rintf;
1189:/home/hubert/daisy/gcc/arm-none-eabi/include/c++/10.2.1/cmath ****   using ::rintl;
1190:/home/hubert/daisy/gcc/arm-none-eabi/include/c++/10.2.1/cmath **** 
1191:/home/hubert/daisy/gcc/arm-none-eabi/include/c++/10.2.1/cmath ****   using ::round;
1192:/home/hubert/daisy/gcc/arm-none-eabi/include/c++/10.2.1/cmath ****   using ::roundf;
1193:/home/hubert/daisy/gcc/arm-none-eabi/include/c++/10.2.1/cmath ****   using ::roundl;
1194:/home/hubert/daisy/gcc/arm-none-eabi/include/c++/10.2.1/cmath **** 
1195:/home/hubert/daisy/gcc/arm-none-eabi/include/c++/10.2.1/cmath ****   using ::scalbln;
1196:/home/hubert/daisy/gcc/arm-none-eabi/include/c++/10.2.1/cmath ****   using ::scalblnf;
1197:/home/hubert/daisy/gcc/arm-none-eabi/include/c++/10.2.1/cmath ****   using ::scalblnl;
1198:/home/hubert/daisy/gcc/arm-none-eabi/include/c++/10.2.1/cmath **** 
1199:/home/hubert/daisy/gcc/arm-none-eabi/include/c++/10.2.1/cmath ****   using ::scalbn;
1200:/home/hubert/daisy/gcc/arm-none-eabi/include/c++/10.2.1/cmath ****   using ::scalbnf;
1201:/home/hubert/daisy/gcc/arm-none-eabi/include/c++/10.2.1/cmath ****   using ::scalbnl;
1202:/home/hubert/daisy/gcc/arm-none-eabi/include/c++/10.2.1/cmath **** 
1203:/home/hubert/daisy/gcc/arm-none-eabi/include/c++/10.2.1/cmath ****   using ::tgamma;
1204:/home/hubert/daisy/gcc/arm-none-eabi/include/c++/10.2.1/cmath ****   using ::tgammaf;
1205:/home/hubert/daisy/gcc/arm-none-eabi/include/c++/10.2.1/cmath ****   using ::tgammal;
1206:/home/hubert/daisy/gcc/arm-none-eabi/include/c++/10.2.1/cmath **** 
1207:/home/hubert/daisy/gcc/arm-none-eabi/include/c++/10.2.1/cmath ****   using ::trunc;
1208:/home/hubert/daisy/gcc/arm-none-eabi/include/c++/10.2.1/cmath ****   using ::truncf;
1209:/home/hubert/daisy/gcc/arm-none-eabi/include/c++/10.2.1/cmath ****   using ::truncl;
1210:/home/hubert/daisy/gcc/arm-none-eabi/include/c++/10.2.1/cmath **** 
1211:/home/hubert/daisy/gcc/arm-none-eabi/include/c++/10.2.1/cmath ****   /// Additional overloads.
1212:/home/hubert/daisy/gcc/arm-none-eabi/include/c++/10.2.1/cmath **** #ifndef __CORRECT_ISO_CPP11_MATH_H_PROTO_FP
ARM GAS  /tmp/ccIWsbgU.s 			page 26


1213:/home/hubert/daisy/gcc/arm-none-eabi/include/c++/10.2.1/cmath ****   constexpr float
1214:/home/hubert/daisy/gcc/arm-none-eabi/include/c++/10.2.1/cmath ****   acosh(float __x)
1215:/home/hubert/daisy/gcc/arm-none-eabi/include/c++/10.2.1/cmath ****   { return __builtin_acoshf(__x); }
1216:/home/hubert/daisy/gcc/arm-none-eabi/include/c++/10.2.1/cmath **** 
1217:/home/hubert/daisy/gcc/arm-none-eabi/include/c++/10.2.1/cmath ****   constexpr long double
1218:/home/hubert/daisy/gcc/arm-none-eabi/include/c++/10.2.1/cmath ****   acosh(long double __x)
1219:/home/hubert/daisy/gcc/arm-none-eabi/include/c++/10.2.1/cmath ****   { return __builtin_acoshl(__x); }
1220:/home/hubert/daisy/gcc/arm-none-eabi/include/c++/10.2.1/cmath **** #endif
1221:/home/hubert/daisy/gcc/arm-none-eabi/include/c++/10.2.1/cmath **** 
1222:/home/hubert/daisy/gcc/arm-none-eabi/include/c++/10.2.1/cmath **** #ifndef __CORRECT_ISO_CPP11_MATH_H_PROTO_INT
1223:/home/hubert/daisy/gcc/arm-none-eabi/include/c++/10.2.1/cmath ****   template<typename _Tp>
1224:/home/hubert/daisy/gcc/arm-none-eabi/include/c++/10.2.1/cmath ****     constexpr typename __gnu_cxx::__enable_if<__is_integer<_Tp>::__value, 
1225:/home/hubert/daisy/gcc/arm-none-eabi/include/c++/10.2.1/cmath ****                                               double>::__type
1226:/home/hubert/daisy/gcc/arm-none-eabi/include/c++/10.2.1/cmath ****     acosh(_Tp __x)
1227:/home/hubert/daisy/gcc/arm-none-eabi/include/c++/10.2.1/cmath ****     { return __builtin_acosh(__x); }
1228:/home/hubert/daisy/gcc/arm-none-eabi/include/c++/10.2.1/cmath **** #endif
1229:/home/hubert/daisy/gcc/arm-none-eabi/include/c++/10.2.1/cmath **** 
1230:/home/hubert/daisy/gcc/arm-none-eabi/include/c++/10.2.1/cmath **** #ifndef __CORRECT_ISO_CPP11_MATH_H_PROTO_FP
1231:/home/hubert/daisy/gcc/arm-none-eabi/include/c++/10.2.1/cmath ****   constexpr float
1232:/home/hubert/daisy/gcc/arm-none-eabi/include/c++/10.2.1/cmath ****   asinh(float __x)
1233:/home/hubert/daisy/gcc/arm-none-eabi/include/c++/10.2.1/cmath ****   { return __builtin_asinhf(__x); }
1234:/home/hubert/daisy/gcc/arm-none-eabi/include/c++/10.2.1/cmath **** 
1235:/home/hubert/daisy/gcc/arm-none-eabi/include/c++/10.2.1/cmath ****   constexpr long double
1236:/home/hubert/daisy/gcc/arm-none-eabi/include/c++/10.2.1/cmath ****   asinh(long double __x)
1237:/home/hubert/daisy/gcc/arm-none-eabi/include/c++/10.2.1/cmath ****   { return __builtin_asinhl(__x); }
1238:/home/hubert/daisy/gcc/arm-none-eabi/include/c++/10.2.1/cmath **** #endif
1239:/home/hubert/daisy/gcc/arm-none-eabi/include/c++/10.2.1/cmath **** 
1240:/home/hubert/daisy/gcc/arm-none-eabi/include/c++/10.2.1/cmath **** #ifndef __CORRECT_ISO_CPP11_MATH_H_PROTO_INT
1241:/home/hubert/daisy/gcc/arm-none-eabi/include/c++/10.2.1/cmath ****   template<typename _Tp>
1242:/home/hubert/daisy/gcc/arm-none-eabi/include/c++/10.2.1/cmath ****     constexpr typename __gnu_cxx::__enable_if<__is_integer<_Tp>::__value, 
1243:/home/hubert/daisy/gcc/arm-none-eabi/include/c++/10.2.1/cmath ****                                               double>::__type
1244:/home/hubert/daisy/gcc/arm-none-eabi/include/c++/10.2.1/cmath ****     asinh(_Tp __x)
1245:/home/hubert/daisy/gcc/arm-none-eabi/include/c++/10.2.1/cmath ****     { return __builtin_asinh(__x); }
1246:/home/hubert/daisy/gcc/arm-none-eabi/include/c++/10.2.1/cmath **** #endif
1247:/home/hubert/daisy/gcc/arm-none-eabi/include/c++/10.2.1/cmath **** 
1248:/home/hubert/daisy/gcc/arm-none-eabi/include/c++/10.2.1/cmath **** #ifndef __CORRECT_ISO_CPP11_MATH_H_PROTO_FP
1249:/home/hubert/daisy/gcc/arm-none-eabi/include/c++/10.2.1/cmath ****   constexpr float
1250:/home/hubert/daisy/gcc/arm-none-eabi/include/c++/10.2.1/cmath ****   atanh(float __x)
1251:/home/hubert/daisy/gcc/arm-none-eabi/include/c++/10.2.1/cmath ****   { return __builtin_atanhf(__x); }
1252:/home/hubert/daisy/gcc/arm-none-eabi/include/c++/10.2.1/cmath **** 
1253:/home/hubert/daisy/gcc/arm-none-eabi/include/c++/10.2.1/cmath ****   constexpr long double
1254:/home/hubert/daisy/gcc/arm-none-eabi/include/c++/10.2.1/cmath ****   atanh(long double __x)
1255:/home/hubert/daisy/gcc/arm-none-eabi/include/c++/10.2.1/cmath ****   { return __builtin_atanhl(__x); }
1256:/home/hubert/daisy/gcc/arm-none-eabi/include/c++/10.2.1/cmath **** #endif
1257:/home/hubert/daisy/gcc/arm-none-eabi/include/c++/10.2.1/cmath **** 
1258:/home/hubert/daisy/gcc/arm-none-eabi/include/c++/10.2.1/cmath **** #ifndef __CORRECT_ISO_CPP11_MATH_H_PROTO_INT
1259:/home/hubert/daisy/gcc/arm-none-eabi/include/c++/10.2.1/cmath ****   template<typename _Tp>
1260:/home/hubert/daisy/gcc/arm-none-eabi/include/c++/10.2.1/cmath ****     constexpr typename __gnu_cxx::__enable_if<__is_integer<_Tp>::__value, 
1261:/home/hubert/daisy/gcc/arm-none-eabi/include/c++/10.2.1/cmath ****                                               double>::__type
1262:/home/hubert/daisy/gcc/arm-none-eabi/include/c++/10.2.1/cmath ****     atanh(_Tp __x)
1263:/home/hubert/daisy/gcc/arm-none-eabi/include/c++/10.2.1/cmath ****     { return __builtin_atanh(__x); }
1264:/home/hubert/daisy/gcc/arm-none-eabi/include/c++/10.2.1/cmath **** #endif
1265:/home/hubert/daisy/gcc/arm-none-eabi/include/c++/10.2.1/cmath **** 
1266:/home/hubert/daisy/gcc/arm-none-eabi/include/c++/10.2.1/cmath **** #ifndef __CORRECT_ISO_CPP11_MATH_H_PROTO_FP
1267:/home/hubert/daisy/gcc/arm-none-eabi/include/c++/10.2.1/cmath ****   constexpr float
1268:/home/hubert/daisy/gcc/arm-none-eabi/include/c++/10.2.1/cmath ****   cbrt(float __x)
1269:/home/hubert/daisy/gcc/arm-none-eabi/include/c++/10.2.1/cmath ****   { return __builtin_cbrtf(__x); }
ARM GAS  /tmp/ccIWsbgU.s 			page 27


1270:/home/hubert/daisy/gcc/arm-none-eabi/include/c++/10.2.1/cmath **** 
1271:/home/hubert/daisy/gcc/arm-none-eabi/include/c++/10.2.1/cmath ****   constexpr long double
1272:/home/hubert/daisy/gcc/arm-none-eabi/include/c++/10.2.1/cmath ****   cbrt(long double __x)
1273:/home/hubert/daisy/gcc/arm-none-eabi/include/c++/10.2.1/cmath ****   { return __builtin_cbrtl(__x); }
1274:/home/hubert/daisy/gcc/arm-none-eabi/include/c++/10.2.1/cmath **** #endif
1275:/home/hubert/daisy/gcc/arm-none-eabi/include/c++/10.2.1/cmath **** 
1276:/home/hubert/daisy/gcc/arm-none-eabi/include/c++/10.2.1/cmath **** #ifndef __CORRECT_ISO_CPP11_MATH_H_PROTO_INT
1277:/home/hubert/daisy/gcc/arm-none-eabi/include/c++/10.2.1/cmath ****   template<typename _Tp>
1278:/home/hubert/daisy/gcc/arm-none-eabi/include/c++/10.2.1/cmath ****     constexpr typename __gnu_cxx::__enable_if<__is_integer<_Tp>::__value, 
1279:/home/hubert/daisy/gcc/arm-none-eabi/include/c++/10.2.1/cmath ****                                               double>::__type
1280:/home/hubert/daisy/gcc/arm-none-eabi/include/c++/10.2.1/cmath ****     cbrt(_Tp __x)
1281:/home/hubert/daisy/gcc/arm-none-eabi/include/c++/10.2.1/cmath ****     { return __builtin_cbrt(__x); }
1282:/home/hubert/daisy/gcc/arm-none-eabi/include/c++/10.2.1/cmath **** #endif
1283:/home/hubert/daisy/gcc/arm-none-eabi/include/c++/10.2.1/cmath **** 
1284:/home/hubert/daisy/gcc/arm-none-eabi/include/c++/10.2.1/cmath **** #ifndef __CORRECT_ISO_CPP11_MATH_H_PROTO_FP
1285:/home/hubert/daisy/gcc/arm-none-eabi/include/c++/10.2.1/cmath ****   constexpr float
1286:/home/hubert/daisy/gcc/arm-none-eabi/include/c++/10.2.1/cmath ****   copysign(float __x, float __y)
1287:/home/hubert/daisy/gcc/arm-none-eabi/include/c++/10.2.1/cmath ****   { return __builtin_copysignf(__x, __y); }
1288:/home/hubert/daisy/gcc/arm-none-eabi/include/c++/10.2.1/cmath **** 
1289:/home/hubert/daisy/gcc/arm-none-eabi/include/c++/10.2.1/cmath ****   constexpr long double
1290:/home/hubert/daisy/gcc/arm-none-eabi/include/c++/10.2.1/cmath ****   copysign(long double __x, long double __y)
1291:/home/hubert/daisy/gcc/arm-none-eabi/include/c++/10.2.1/cmath ****   { return __builtin_copysignl(__x, __y); }
1292:/home/hubert/daisy/gcc/arm-none-eabi/include/c++/10.2.1/cmath **** #endif
1293:/home/hubert/daisy/gcc/arm-none-eabi/include/c++/10.2.1/cmath **** 
1294:/home/hubert/daisy/gcc/arm-none-eabi/include/c++/10.2.1/cmath **** #ifndef __CORRECT_ISO_CPP11_MATH_H_PROTO_INT
1295:/home/hubert/daisy/gcc/arm-none-eabi/include/c++/10.2.1/cmath ****   template<typename _Tp, typename _Up>
1296:/home/hubert/daisy/gcc/arm-none-eabi/include/c++/10.2.1/cmath ****     constexpr typename __gnu_cxx::__promote_2<_Tp, _Up>::__type
1297:/home/hubert/daisy/gcc/arm-none-eabi/include/c++/10.2.1/cmath ****     copysign(_Tp __x, _Up __y)
1298:/home/hubert/daisy/gcc/arm-none-eabi/include/c++/10.2.1/cmath ****     {
1299:/home/hubert/daisy/gcc/arm-none-eabi/include/c++/10.2.1/cmath ****       typedef typename __gnu_cxx::__promote_2<_Tp, _Up>::__type __type;
1300:/home/hubert/daisy/gcc/arm-none-eabi/include/c++/10.2.1/cmath ****       return copysign(__type(__x), __type(__y));
1301:/home/hubert/daisy/gcc/arm-none-eabi/include/c++/10.2.1/cmath ****     }
1302:/home/hubert/daisy/gcc/arm-none-eabi/include/c++/10.2.1/cmath **** #endif
1303:/home/hubert/daisy/gcc/arm-none-eabi/include/c++/10.2.1/cmath **** 
1304:/home/hubert/daisy/gcc/arm-none-eabi/include/c++/10.2.1/cmath **** #ifndef __CORRECT_ISO_CPP11_MATH_H_PROTO_FP
1305:/home/hubert/daisy/gcc/arm-none-eabi/include/c++/10.2.1/cmath ****   constexpr float
1306:/home/hubert/daisy/gcc/arm-none-eabi/include/c++/10.2.1/cmath ****   erf(float __x)
1307:/home/hubert/daisy/gcc/arm-none-eabi/include/c++/10.2.1/cmath ****   { return __builtin_erff(__x); }
1308:/home/hubert/daisy/gcc/arm-none-eabi/include/c++/10.2.1/cmath **** 
1309:/home/hubert/daisy/gcc/arm-none-eabi/include/c++/10.2.1/cmath ****   constexpr long double
1310:/home/hubert/daisy/gcc/arm-none-eabi/include/c++/10.2.1/cmath ****   erf(long double __x)
1311:/home/hubert/daisy/gcc/arm-none-eabi/include/c++/10.2.1/cmath ****   { return __builtin_erfl(__x); }
1312:/home/hubert/daisy/gcc/arm-none-eabi/include/c++/10.2.1/cmath **** #endif
1313:/home/hubert/daisy/gcc/arm-none-eabi/include/c++/10.2.1/cmath **** 
1314:/home/hubert/daisy/gcc/arm-none-eabi/include/c++/10.2.1/cmath **** #ifndef __CORRECT_ISO_CPP11_MATH_H_PROTO_INT
1315:/home/hubert/daisy/gcc/arm-none-eabi/include/c++/10.2.1/cmath ****   template<typename _Tp>
1316:/home/hubert/daisy/gcc/arm-none-eabi/include/c++/10.2.1/cmath ****     constexpr typename __gnu_cxx::__enable_if<__is_integer<_Tp>::__value, 
1317:/home/hubert/daisy/gcc/arm-none-eabi/include/c++/10.2.1/cmath ****                                               double>::__type
1318:/home/hubert/daisy/gcc/arm-none-eabi/include/c++/10.2.1/cmath ****     erf(_Tp __x)
1319:/home/hubert/daisy/gcc/arm-none-eabi/include/c++/10.2.1/cmath ****     { return __builtin_erf(__x); }
1320:/home/hubert/daisy/gcc/arm-none-eabi/include/c++/10.2.1/cmath **** #endif
1321:/home/hubert/daisy/gcc/arm-none-eabi/include/c++/10.2.1/cmath **** 
1322:/home/hubert/daisy/gcc/arm-none-eabi/include/c++/10.2.1/cmath **** #ifndef __CORRECT_ISO_CPP11_MATH_H_PROTO_FP
1323:/home/hubert/daisy/gcc/arm-none-eabi/include/c++/10.2.1/cmath ****   constexpr float
1324:/home/hubert/daisy/gcc/arm-none-eabi/include/c++/10.2.1/cmath ****   erfc(float __x)
1325:/home/hubert/daisy/gcc/arm-none-eabi/include/c++/10.2.1/cmath ****   { return __builtin_erfcf(__x); }
1326:/home/hubert/daisy/gcc/arm-none-eabi/include/c++/10.2.1/cmath **** 
ARM GAS  /tmp/ccIWsbgU.s 			page 28


1327:/home/hubert/daisy/gcc/arm-none-eabi/include/c++/10.2.1/cmath ****   constexpr long double
1328:/home/hubert/daisy/gcc/arm-none-eabi/include/c++/10.2.1/cmath ****   erfc(long double __x)
1329:/home/hubert/daisy/gcc/arm-none-eabi/include/c++/10.2.1/cmath ****   { return __builtin_erfcl(__x); }
1330:/home/hubert/daisy/gcc/arm-none-eabi/include/c++/10.2.1/cmath **** #endif
1331:/home/hubert/daisy/gcc/arm-none-eabi/include/c++/10.2.1/cmath **** 
1332:/home/hubert/daisy/gcc/arm-none-eabi/include/c++/10.2.1/cmath **** #ifndef __CORRECT_ISO_CPP11_MATH_H_PROTO_INT
1333:/home/hubert/daisy/gcc/arm-none-eabi/include/c++/10.2.1/cmath ****   template<typename _Tp>
1334:/home/hubert/daisy/gcc/arm-none-eabi/include/c++/10.2.1/cmath ****     constexpr typename __gnu_cxx::__enable_if<__is_integer<_Tp>::__value, 
1335:/home/hubert/daisy/gcc/arm-none-eabi/include/c++/10.2.1/cmath ****                                               double>::__type
1336:/home/hubert/daisy/gcc/arm-none-eabi/include/c++/10.2.1/cmath ****     erfc(_Tp __x)
1337:/home/hubert/daisy/gcc/arm-none-eabi/include/c++/10.2.1/cmath ****     { return __builtin_erfc(__x); }
1338:/home/hubert/daisy/gcc/arm-none-eabi/include/c++/10.2.1/cmath **** #endif
1339:/home/hubert/daisy/gcc/arm-none-eabi/include/c++/10.2.1/cmath **** 
1340:/home/hubert/daisy/gcc/arm-none-eabi/include/c++/10.2.1/cmath **** #ifndef __CORRECT_ISO_CPP11_MATH_H_PROTO_FP
1341:/home/hubert/daisy/gcc/arm-none-eabi/include/c++/10.2.1/cmath ****   constexpr float
1342:/home/hubert/daisy/gcc/arm-none-eabi/include/c++/10.2.1/cmath ****   exp2(float __x)
1343:/home/hubert/daisy/gcc/arm-none-eabi/include/c++/10.2.1/cmath ****   { return __builtin_exp2f(__x); }
1344:/home/hubert/daisy/gcc/arm-none-eabi/include/c++/10.2.1/cmath **** 
1345:/home/hubert/daisy/gcc/arm-none-eabi/include/c++/10.2.1/cmath ****   constexpr long double
1346:/home/hubert/daisy/gcc/arm-none-eabi/include/c++/10.2.1/cmath ****   exp2(long double __x)
1347:/home/hubert/daisy/gcc/arm-none-eabi/include/c++/10.2.1/cmath ****   { return __builtin_exp2l(__x); }
1348:/home/hubert/daisy/gcc/arm-none-eabi/include/c++/10.2.1/cmath **** #endif
1349:/home/hubert/daisy/gcc/arm-none-eabi/include/c++/10.2.1/cmath **** 
1350:/home/hubert/daisy/gcc/arm-none-eabi/include/c++/10.2.1/cmath **** #ifndef __CORRECT_ISO_CPP11_MATH_H_PROTO_INT
1351:/home/hubert/daisy/gcc/arm-none-eabi/include/c++/10.2.1/cmath ****   template<typename _Tp>
1352:/home/hubert/daisy/gcc/arm-none-eabi/include/c++/10.2.1/cmath ****     constexpr typename __gnu_cxx::__enable_if<__is_integer<_Tp>::__value, 
1353:/home/hubert/daisy/gcc/arm-none-eabi/include/c++/10.2.1/cmath ****                                               double>::__type
1354:/home/hubert/daisy/gcc/arm-none-eabi/include/c++/10.2.1/cmath ****     exp2(_Tp __x)
1355:/home/hubert/daisy/gcc/arm-none-eabi/include/c++/10.2.1/cmath ****     { return __builtin_exp2(__x); }
1356:/home/hubert/daisy/gcc/arm-none-eabi/include/c++/10.2.1/cmath **** #endif
1357:/home/hubert/daisy/gcc/arm-none-eabi/include/c++/10.2.1/cmath **** 
1358:/home/hubert/daisy/gcc/arm-none-eabi/include/c++/10.2.1/cmath **** #ifndef __CORRECT_ISO_CPP11_MATH_H_PROTO_FP
1359:/home/hubert/daisy/gcc/arm-none-eabi/include/c++/10.2.1/cmath ****   constexpr float
1360:/home/hubert/daisy/gcc/arm-none-eabi/include/c++/10.2.1/cmath ****   expm1(float __x)
1361:/home/hubert/daisy/gcc/arm-none-eabi/include/c++/10.2.1/cmath ****   { return __builtin_expm1f(__x); }
1362:/home/hubert/daisy/gcc/arm-none-eabi/include/c++/10.2.1/cmath **** 
1363:/home/hubert/daisy/gcc/arm-none-eabi/include/c++/10.2.1/cmath ****   constexpr long double
1364:/home/hubert/daisy/gcc/arm-none-eabi/include/c++/10.2.1/cmath ****   expm1(long double __x)
1365:/home/hubert/daisy/gcc/arm-none-eabi/include/c++/10.2.1/cmath ****   { return __builtin_expm1l(__x); }
1366:/home/hubert/daisy/gcc/arm-none-eabi/include/c++/10.2.1/cmath **** #endif
1367:/home/hubert/daisy/gcc/arm-none-eabi/include/c++/10.2.1/cmath **** 
1368:/home/hubert/daisy/gcc/arm-none-eabi/include/c++/10.2.1/cmath **** #ifndef __CORRECT_ISO_CPP11_MATH_H_PROTO_INT
1369:/home/hubert/daisy/gcc/arm-none-eabi/include/c++/10.2.1/cmath ****   template<typename _Tp>
1370:/home/hubert/daisy/gcc/arm-none-eabi/include/c++/10.2.1/cmath ****     constexpr typename __gnu_cxx::__enable_if<__is_integer<_Tp>::__value, 
1371:/home/hubert/daisy/gcc/arm-none-eabi/include/c++/10.2.1/cmath ****                                               double>::__type
1372:/home/hubert/daisy/gcc/arm-none-eabi/include/c++/10.2.1/cmath ****     expm1(_Tp __x)
1373:/home/hubert/daisy/gcc/arm-none-eabi/include/c++/10.2.1/cmath ****     { return __builtin_expm1(__x); }
1374:/home/hubert/daisy/gcc/arm-none-eabi/include/c++/10.2.1/cmath **** #endif
1375:/home/hubert/daisy/gcc/arm-none-eabi/include/c++/10.2.1/cmath **** 
1376:/home/hubert/daisy/gcc/arm-none-eabi/include/c++/10.2.1/cmath **** #ifndef __CORRECT_ISO_CPP11_MATH_H_PROTO_FP
1377:/home/hubert/daisy/gcc/arm-none-eabi/include/c++/10.2.1/cmath ****   constexpr float
1378:/home/hubert/daisy/gcc/arm-none-eabi/include/c++/10.2.1/cmath ****   fdim(float __x, float __y)
1379:/home/hubert/daisy/gcc/arm-none-eabi/include/c++/10.2.1/cmath ****   { return __builtin_fdimf(__x, __y); }
1380:/home/hubert/daisy/gcc/arm-none-eabi/include/c++/10.2.1/cmath **** 
1381:/home/hubert/daisy/gcc/arm-none-eabi/include/c++/10.2.1/cmath ****   constexpr long double
1382:/home/hubert/daisy/gcc/arm-none-eabi/include/c++/10.2.1/cmath ****   fdim(long double __x, long double __y)
1383:/home/hubert/daisy/gcc/arm-none-eabi/include/c++/10.2.1/cmath ****   { return __builtin_fdiml(__x, __y); }
ARM GAS  /tmp/ccIWsbgU.s 			page 29


1384:/home/hubert/daisy/gcc/arm-none-eabi/include/c++/10.2.1/cmath **** #endif
1385:/home/hubert/daisy/gcc/arm-none-eabi/include/c++/10.2.1/cmath **** 
1386:/home/hubert/daisy/gcc/arm-none-eabi/include/c++/10.2.1/cmath **** #ifndef __CORRECT_ISO_CPP11_MATH_H_PROTO_INT
1387:/home/hubert/daisy/gcc/arm-none-eabi/include/c++/10.2.1/cmath ****   template<typename _Tp, typename _Up>
1388:/home/hubert/daisy/gcc/arm-none-eabi/include/c++/10.2.1/cmath ****     constexpr typename __gnu_cxx::__promote_2<_Tp, _Up>::__type
1389:/home/hubert/daisy/gcc/arm-none-eabi/include/c++/10.2.1/cmath ****     fdim(_Tp __x, _Up __y)
1390:/home/hubert/daisy/gcc/arm-none-eabi/include/c++/10.2.1/cmath ****     {
1391:/home/hubert/daisy/gcc/arm-none-eabi/include/c++/10.2.1/cmath ****       typedef typename __gnu_cxx::__promote_2<_Tp, _Up>::__type __type;
1392:/home/hubert/daisy/gcc/arm-none-eabi/include/c++/10.2.1/cmath ****       return fdim(__type(__x), __type(__y));
1393:/home/hubert/daisy/gcc/arm-none-eabi/include/c++/10.2.1/cmath ****     }
1394:/home/hubert/daisy/gcc/arm-none-eabi/include/c++/10.2.1/cmath **** #endif
1395:/home/hubert/daisy/gcc/arm-none-eabi/include/c++/10.2.1/cmath **** 
1396:/home/hubert/daisy/gcc/arm-none-eabi/include/c++/10.2.1/cmath **** #ifndef __CORRECT_ISO_CPP11_MATH_H_PROTO_FP
1397:/home/hubert/daisy/gcc/arm-none-eabi/include/c++/10.2.1/cmath ****   constexpr float
1398:/home/hubert/daisy/gcc/arm-none-eabi/include/c++/10.2.1/cmath ****   fma(float __x, float __y, float __z)
1399:/home/hubert/daisy/gcc/arm-none-eabi/include/c++/10.2.1/cmath ****   { return __builtin_fmaf(__x, __y, __z); }
1400:/home/hubert/daisy/gcc/arm-none-eabi/include/c++/10.2.1/cmath **** 
1401:/home/hubert/daisy/gcc/arm-none-eabi/include/c++/10.2.1/cmath ****   constexpr long double
1402:/home/hubert/daisy/gcc/arm-none-eabi/include/c++/10.2.1/cmath ****   fma(long double __x, long double __y, long double __z)
1403:/home/hubert/daisy/gcc/arm-none-eabi/include/c++/10.2.1/cmath ****   { return __builtin_fmal(__x, __y, __z); }
1404:/home/hubert/daisy/gcc/arm-none-eabi/include/c++/10.2.1/cmath **** #endif
1405:/home/hubert/daisy/gcc/arm-none-eabi/include/c++/10.2.1/cmath **** 
1406:/home/hubert/daisy/gcc/arm-none-eabi/include/c++/10.2.1/cmath **** #ifndef __CORRECT_ISO_CPP11_MATH_H_PROTO_INT
1407:/home/hubert/daisy/gcc/arm-none-eabi/include/c++/10.2.1/cmath ****   template<typename _Tp, typename _Up, typename _Vp>
1408:/home/hubert/daisy/gcc/arm-none-eabi/include/c++/10.2.1/cmath ****     constexpr typename __gnu_cxx::__promote_3<_Tp, _Up, _Vp>::__type
1409:/home/hubert/daisy/gcc/arm-none-eabi/include/c++/10.2.1/cmath ****     fma(_Tp __x, _Up __y, _Vp __z)
1410:/home/hubert/daisy/gcc/arm-none-eabi/include/c++/10.2.1/cmath ****     {
1411:/home/hubert/daisy/gcc/arm-none-eabi/include/c++/10.2.1/cmath ****       typedef typename __gnu_cxx::__promote_3<_Tp, _Up, _Vp>::__type __type;
1412:/home/hubert/daisy/gcc/arm-none-eabi/include/c++/10.2.1/cmath ****       return fma(__type(__x), __type(__y), __type(__z));
1413:/home/hubert/daisy/gcc/arm-none-eabi/include/c++/10.2.1/cmath ****     }
1414:/home/hubert/daisy/gcc/arm-none-eabi/include/c++/10.2.1/cmath **** #endif
1415:/home/hubert/daisy/gcc/arm-none-eabi/include/c++/10.2.1/cmath **** 
1416:/home/hubert/daisy/gcc/arm-none-eabi/include/c++/10.2.1/cmath **** #ifndef __CORRECT_ISO_CPP11_MATH_H_PROTO_FP
1417:/home/hubert/daisy/gcc/arm-none-eabi/include/c++/10.2.1/cmath ****   constexpr float
1418:/home/hubert/daisy/gcc/arm-none-eabi/include/c++/10.2.1/cmath ****   fmax(float __x, float __y)
1419:/home/hubert/daisy/gcc/arm-none-eabi/include/c++/10.2.1/cmath ****   { return __builtin_fmaxf(__x, __y); }
1420:/home/hubert/daisy/gcc/arm-none-eabi/include/c++/10.2.1/cmath **** 
1421:/home/hubert/daisy/gcc/arm-none-eabi/include/c++/10.2.1/cmath ****   constexpr long double
1422:/home/hubert/daisy/gcc/arm-none-eabi/include/c++/10.2.1/cmath ****   fmax(long double __x, long double __y)
1423:/home/hubert/daisy/gcc/arm-none-eabi/include/c++/10.2.1/cmath ****   { return __builtin_fmaxl(__x, __y); }
1424:/home/hubert/daisy/gcc/arm-none-eabi/include/c++/10.2.1/cmath **** #endif
1425:/home/hubert/daisy/gcc/arm-none-eabi/include/c++/10.2.1/cmath **** 
1426:/home/hubert/daisy/gcc/arm-none-eabi/include/c++/10.2.1/cmath **** #ifndef __CORRECT_ISO_CPP11_MATH_H_PROTO_INT
1427:/home/hubert/daisy/gcc/arm-none-eabi/include/c++/10.2.1/cmath ****   template<typename _Tp, typename _Up>
1428:/home/hubert/daisy/gcc/arm-none-eabi/include/c++/10.2.1/cmath ****     constexpr typename __gnu_cxx::__promote_2<_Tp, _Up>::__type
1429:/home/hubert/daisy/gcc/arm-none-eabi/include/c++/10.2.1/cmath ****     fmax(_Tp __x, _Up __y)
1430:/home/hubert/daisy/gcc/arm-none-eabi/include/c++/10.2.1/cmath ****     {
1431:/home/hubert/daisy/gcc/arm-none-eabi/include/c++/10.2.1/cmath ****       typedef typename __gnu_cxx::__promote_2<_Tp, _Up>::__type __type;
1432:/home/hubert/daisy/gcc/arm-none-eabi/include/c++/10.2.1/cmath ****       return fmax(__type(__x), __type(__y));
1433:/home/hubert/daisy/gcc/arm-none-eabi/include/c++/10.2.1/cmath ****     }
1434:/home/hubert/daisy/gcc/arm-none-eabi/include/c++/10.2.1/cmath **** #endif
1435:/home/hubert/daisy/gcc/arm-none-eabi/include/c++/10.2.1/cmath **** 
1436:/home/hubert/daisy/gcc/arm-none-eabi/include/c++/10.2.1/cmath **** #ifndef __CORRECT_ISO_CPP11_MATH_H_PROTO_FP
1437:/home/hubert/daisy/gcc/arm-none-eabi/include/c++/10.2.1/cmath ****   constexpr float
1438:/home/hubert/daisy/gcc/arm-none-eabi/include/c++/10.2.1/cmath ****   fmin(float __x, float __y)
1439:/home/hubert/daisy/gcc/arm-none-eabi/include/c++/10.2.1/cmath ****   { return __builtin_fminf(__x, __y); }
1440:/home/hubert/daisy/gcc/arm-none-eabi/include/c++/10.2.1/cmath **** 
ARM GAS  /tmp/ccIWsbgU.s 			page 30


1441:/home/hubert/daisy/gcc/arm-none-eabi/include/c++/10.2.1/cmath ****   constexpr long double
1442:/home/hubert/daisy/gcc/arm-none-eabi/include/c++/10.2.1/cmath ****   fmin(long double __x, long double __y)
1443:/home/hubert/daisy/gcc/arm-none-eabi/include/c++/10.2.1/cmath ****   { return __builtin_fminl(__x, __y); }
1444:/home/hubert/daisy/gcc/arm-none-eabi/include/c++/10.2.1/cmath **** #endif
1445:/home/hubert/daisy/gcc/arm-none-eabi/include/c++/10.2.1/cmath **** 
1446:/home/hubert/daisy/gcc/arm-none-eabi/include/c++/10.2.1/cmath **** #ifndef __CORRECT_ISO_CPP11_MATH_H_PROTO_INT
1447:/home/hubert/daisy/gcc/arm-none-eabi/include/c++/10.2.1/cmath ****   template<typename _Tp, typename _Up>
1448:/home/hubert/daisy/gcc/arm-none-eabi/include/c++/10.2.1/cmath ****     constexpr typename __gnu_cxx::__promote_2<_Tp, _Up>::__type
1449:/home/hubert/daisy/gcc/arm-none-eabi/include/c++/10.2.1/cmath ****     fmin(_Tp __x, _Up __y)
1450:/home/hubert/daisy/gcc/arm-none-eabi/include/c++/10.2.1/cmath ****     {
1451:/home/hubert/daisy/gcc/arm-none-eabi/include/c++/10.2.1/cmath ****       typedef typename __gnu_cxx::__promote_2<_Tp, _Up>::__type __type;
1452:/home/hubert/daisy/gcc/arm-none-eabi/include/c++/10.2.1/cmath ****       return fmin(__type(__x), __type(__y));
1453:/home/hubert/daisy/gcc/arm-none-eabi/include/c++/10.2.1/cmath ****     }
1454:/home/hubert/daisy/gcc/arm-none-eabi/include/c++/10.2.1/cmath **** #endif
1455:/home/hubert/daisy/gcc/arm-none-eabi/include/c++/10.2.1/cmath **** 
1456:/home/hubert/daisy/gcc/arm-none-eabi/include/c++/10.2.1/cmath **** #ifndef __CORRECT_ISO_CPP11_MATH_H_PROTO_FP
1457:/home/hubert/daisy/gcc/arm-none-eabi/include/c++/10.2.1/cmath ****   constexpr float
1458:/home/hubert/daisy/gcc/arm-none-eabi/include/c++/10.2.1/cmath ****   hypot(float __x, float __y)
1459:/home/hubert/daisy/gcc/arm-none-eabi/include/c++/10.2.1/cmath ****   { return __builtin_hypotf(__x, __y); }
1460:/home/hubert/daisy/gcc/arm-none-eabi/include/c++/10.2.1/cmath **** 
1461:/home/hubert/daisy/gcc/arm-none-eabi/include/c++/10.2.1/cmath ****   constexpr long double
1462:/home/hubert/daisy/gcc/arm-none-eabi/include/c++/10.2.1/cmath ****   hypot(long double __x, long double __y)
1463:/home/hubert/daisy/gcc/arm-none-eabi/include/c++/10.2.1/cmath ****   { return __builtin_hypotl(__x, __y); }
1464:/home/hubert/daisy/gcc/arm-none-eabi/include/c++/10.2.1/cmath **** #endif
1465:/home/hubert/daisy/gcc/arm-none-eabi/include/c++/10.2.1/cmath **** 
1466:/home/hubert/daisy/gcc/arm-none-eabi/include/c++/10.2.1/cmath **** #ifndef __CORRECT_ISO_CPP11_MATH_H_PROTO_INT
1467:/home/hubert/daisy/gcc/arm-none-eabi/include/c++/10.2.1/cmath ****   template<typename _Tp, typename _Up>
1468:/home/hubert/daisy/gcc/arm-none-eabi/include/c++/10.2.1/cmath ****     constexpr typename __gnu_cxx::__promote_2<_Tp, _Up>::__type
1469:/home/hubert/daisy/gcc/arm-none-eabi/include/c++/10.2.1/cmath ****     hypot(_Tp __x, _Up __y)
1470:/home/hubert/daisy/gcc/arm-none-eabi/include/c++/10.2.1/cmath ****     {
1471:/home/hubert/daisy/gcc/arm-none-eabi/include/c++/10.2.1/cmath ****       typedef typename __gnu_cxx::__promote_2<_Tp, _Up>::__type __type;
1472:/home/hubert/daisy/gcc/arm-none-eabi/include/c++/10.2.1/cmath ****       return hypot(__type(__x), __type(__y));
1473:/home/hubert/daisy/gcc/arm-none-eabi/include/c++/10.2.1/cmath ****     }
1474:/home/hubert/daisy/gcc/arm-none-eabi/include/c++/10.2.1/cmath **** #endif
1475:/home/hubert/daisy/gcc/arm-none-eabi/include/c++/10.2.1/cmath **** 
1476:/home/hubert/daisy/gcc/arm-none-eabi/include/c++/10.2.1/cmath **** #ifndef __CORRECT_ISO_CPP11_MATH_H_PROTO_FP
1477:/home/hubert/daisy/gcc/arm-none-eabi/include/c++/10.2.1/cmath ****   constexpr int
1478:/home/hubert/daisy/gcc/arm-none-eabi/include/c++/10.2.1/cmath ****   ilogb(float __x)
1479:/home/hubert/daisy/gcc/arm-none-eabi/include/c++/10.2.1/cmath ****   { return __builtin_ilogbf(__x); }
1480:/home/hubert/daisy/gcc/arm-none-eabi/include/c++/10.2.1/cmath **** 
1481:/home/hubert/daisy/gcc/arm-none-eabi/include/c++/10.2.1/cmath ****   constexpr int
1482:/home/hubert/daisy/gcc/arm-none-eabi/include/c++/10.2.1/cmath ****   ilogb(long double __x)
1483:/home/hubert/daisy/gcc/arm-none-eabi/include/c++/10.2.1/cmath ****   { return __builtin_ilogbl(__x); }
1484:/home/hubert/daisy/gcc/arm-none-eabi/include/c++/10.2.1/cmath **** #endif
1485:/home/hubert/daisy/gcc/arm-none-eabi/include/c++/10.2.1/cmath **** 
1486:/home/hubert/daisy/gcc/arm-none-eabi/include/c++/10.2.1/cmath **** #ifndef __CORRECT_ISO_CPP11_MATH_H_PROTO_INT
1487:/home/hubert/daisy/gcc/arm-none-eabi/include/c++/10.2.1/cmath ****   template<typename _Tp>
1488:/home/hubert/daisy/gcc/arm-none-eabi/include/c++/10.2.1/cmath ****     constexpr
1489:/home/hubert/daisy/gcc/arm-none-eabi/include/c++/10.2.1/cmath ****     typename __gnu_cxx::__enable_if<__is_integer<_Tp>::__value, 
1490:/home/hubert/daisy/gcc/arm-none-eabi/include/c++/10.2.1/cmath ****                                     int>::__type
1491:/home/hubert/daisy/gcc/arm-none-eabi/include/c++/10.2.1/cmath ****     ilogb(_Tp __x)
1492:/home/hubert/daisy/gcc/arm-none-eabi/include/c++/10.2.1/cmath ****     { return __builtin_ilogb(__x); }
1493:/home/hubert/daisy/gcc/arm-none-eabi/include/c++/10.2.1/cmath **** #endif
1494:/home/hubert/daisy/gcc/arm-none-eabi/include/c++/10.2.1/cmath **** 
1495:/home/hubert/daisy/gcc/arm-none-eabi/include/c++/10.2.1/cmath **** #ifndef __CORRECT_ISO_CPP11_MATH_H_PROTO_FP
1496:/home/hubert/daisy/gcc/arm-none-eabi/include/c++/10.2.1/cmath ****   constexpr float
1497:/home/hubert/daisy/gcc/arm-none-eabi/include/c++/10.2.1/cmath ****   lgamma(float __x)
ARM GAS  /tmp/ccIWsbgU.s 			page 31


1498:/home/hubert/daisy/gcc/arm-none-eabi/include/c++/10.2.1/cmath ****   { return __builtin_lgammaf(__x); }
1499:/home/hubert/daisy/gcc/arm-none-eabi/include/c++/10.2.1/cmath **** 
1500:/home/hubert/daisy/gcc/arm-none-eabi/include/c++/10.2.1/cmath ****   constexpr long double
1501:/home/hubert/daisy/gcc/arm-none-eabi/include/c++/10.2.1/cmath ****   lgamma(long double __x)
1502:/home/hubert/daisy/gcc/arm-none-eabi/include/c++/10.2.1/cmath ****   { return __builtin_lgammal(__x); }
1503:/home/hubert/daisy/gcc/arm-none-eabi/include/c++/10.2.1/cmath **** #endif
1504:/home/hubert/daisy/gcc/arm-none-eabi/include/c++/10.2.1/cmath **** 
1505:/home/hubert/daisy/gcc/arm-none-eabi/include/c++/10.2.1/cmath **** #ifndef __CORRECT_ISO_CPP11_MATH_H_PROTO_INT
1506:/home/hubert/daisy/gcc/arm-none-eabi/include/c++/10.2.1/cmath ****   template<typename _Tp>
1507:/home/hubert/daisy/gcc/arm-none-eabi/include/c++/10.2.1/cmath ****     constexpr typename __gnu_cxx::__enable_if<__is_integer<_Tp>::__value, 
1508:/home/hubert/daisy/gcc/arm-none-eabi/include/c++/10.2.1/cmath ****                                               double>::__type
1509:/home/hubert/daisy/gcc/arm-none-eabi/include/c++/10.2.1/cmath ****     lgamma(_Tp __x)
1510:/home/hubert/daisy/gcc/arm-none-eabi/include/c++/10.2.1/cmath ****     { return __builtin_lgamma(__x); }
1511:/home/hubert/daisy/gcc/arm-none-eabi/include/c++/10.2.1/cmath **** #endif
1512:/home/hubert/daisy/gcc/arm-none-eabi/include/c++/10.2.1/cmath **** 
1513:/home/hubert/daisy/gcc/arm-none-eabi/include/c++/10.2.1/cmath **** #ifndef __CORRECT_ISO_CPP11_MATH_H_PROTO_FP
1514:/home/hubert/daisy/gcc/arm-none-eabi/include/c++/10.2.1/cmath ****   constexpr long long
1515:/home/hubert/daisy/gcc/arm-none-eabi/include/c++/10.2.1/cmath ****   llrint(float __x)
1516:/home/hubert/daisy/gcc/arm-none-eabi/include/c++/10.2.1/cmath ****   { return __builtin_llrintf(__x); }
1517:/home/hubert/daisy/gcc/arm-none-eabi/include/c++/10.2.1/cmath **** 
1518:/home/hubert/daisy/gcc/arm-none-eabi/include/c++/10.2.1/cmath ****   constexpr long long
1519:/home/hubert/daisy/gcc/arm-none-eabi/include/c++/10.2.1/cmath ****   llrint(long double __x)
1520:/home/hubert/daisy/gcc/arm-none-eabi/include/c++/10.2.1/cmath ****   { return __builtin_llrintl(__x); }
1521:/home/hubert/daisy/gcc/arm-none-eabi/include/c++/10.2.1/cmath **** #endif
1522:/home/hubert/daisy/gcc/arm-none-eabi/include/c++/10.2.1/cmath **** 
1523:/home/hubert/daisy/gcc/arm-none-eabi/include/c++/10.2.1/cmath **** #ifndef __CORRECT_ISO_CPP11_MATH_H_PROTO_INT
1524:/home/hubert/daisy/gcc/arm-none-eabi/include/c++/10.2.1/cmath ****   template<typename _Tp>
1525:/home/hubert/daisy/gcc/arm-none-eabi/include/c++/10.2.1/cmath ****     constexpr typename __gnu_cxx::__enable_if<__is_integer<_Tp>::__value, 
1526:/home/hubert/daisy/gcc/arm-none-eabi/include/c++/10.2.1/cmath ****                                               long long>::__type
1527:/home/hubert/daisy/gcc/arm-none-eabi/include/c++/10.2.1/cmath ****     llrint(_Tp __x)
1528:/home/hubert/daisy/gcc/arm-none-eabi/include/c++/10.2.1/cmath ****     { return __builtin_llrint(__x); }
1529:/home/hubert/daisy/gcc/arm-none-eabi/include/c++/10.2.1/cmath **** #endif
1530:/home/hubert/daisy/gcc/arm-none-eabi/include/c++/10.2.1/cmath **** 
1531:/home/hubert/daisy/gcc/arm-none-eabi/include/c++/10.2.1/cmath **** #ifndef __CORRECT_ISO_CPP11_MATH_H_PROTO_FP
1532:/home/hubert/daisy/gcc/arm-none-eabi/include/c++/10.2.1/cmath ****   constexpr long long
1533:/home/hubert/daisy/gcc/arm-none-eabi/include/c++/10.2.1/cmath ****   llround(float __x)
1534:/home/hubert/daisy/gcc/arm-none-eabi/include/c++/10.2.1/cmath ****   { return __builtin_llroundf(__x); }
1535:/home/hubert/daisy/gcc/arm-none-eabi/include/c++/10.2.1/cmath **** 
1536:/home/hubert/daisy/gcc/arm-none-eabi/include/c++/10.2.1/cmath ****   constexpr long long
1537:/home/hubert/daisy/gcc/arm-none-eabi/include/c++/10.2.1/cmath ****   llround(long double __x)
1538:/home/hubert/daisy/gcc/arm-none-eabi/include/c++/10.2.1/cmath ****   { return __builtin_llroundl(__x); }
1539:/home/hubert/daisy/gcc/arm-none-eabi/include/c++/10.2.1/cmath **** #endif
1540:/home/hubert/daisy/gcc/arm-none-eabi/include/c++/10.2.1/cmath **** 
1541:/home/hubert/daisy/gcc/arm-none-eabi/include/c++/10.2.1/cmath **** #ifndef __CORRECT_ISO_CPP11_MATH_H_PROTO_INT
1542:/home/hubert/daisy/gcc/arm-none-eabi/include/c++/10.2.1/cmath ****   template<typename _Tp>
1543:/home/hubert/daisy/gcc/arm-none-eabi/include/c++/10.2.1/cmath ****     constexpr typename __gnu_cxx::__enable_if<__is_integer<_Tp>::__value, 
1544:/home/hubert/daisy/gcc/arm-none-eabi/include/c++/10.2.1/cmath ****                                               long long>::__type
1545:/home/hubert/daisy/gcc/arm-none-eabi/include/c++/10.2.1/cmath ****     llround(_Tp __x)
1546:/home/hubert/daisy/gcc/arm-none-eabi/include/c++/10.2.1/cmath ****     { return __builtin_llround(__x); }
1547:/home/hubert/daisy/gcc/arm-none-eabi/include/c++/10.2.1/cmath **** #endif
1548:/home/hubert/daisy/gcc/arm-none-eabi/include/c++/10.2.1/cmath **** 
1549:/home/hubert/daisy/gcc/arm-none-eabi/include/c++/10.2.1/cmath **** #ifndef __CORRECT_ISO_CPP11_MATH_H_PROTO_FP
1550:/home/hubert/daisy/gcc/arm-none-eabi/include/c++/10.2.1/cmath ****   constexpr float
1551:/home/hubert/daisy/gcc/arm-none-eabi/include/c++/10.2.1/cmath ****   log1p(float __x)
1552:/home/hubert/daisy/gcc/arm-none-eabi/include/c++/10.2.1/cmath ****   { return __builtin_log1pf(__x); }
1553:/home/hubert/daisy/gcc/arm-none-eabi/include/c++/10.2.1/cmath **** 
1554:/home/hubert/daisy/gcc/arm-none-eabi/include/c++/10.2.1/cmath ****   constexpr long double
ARM GAS  /tmp/ccIWsbgU.s 			page 32


1555:/home/hubert/daisy/gcc/arm-none-eabi/include/c++/10.2.1/cmath ****   log1p(long double __x)
1556:/home/hubert/daisy/gcc/arm-none-eabi/include/c++/10.2.1/cmath ****   { return __builtin_log1pl(__x); }
1557:/home/hubert/daisy/gcc/arm-none-eabi/include/c++/10.2.1/cmath **** #endif
1558:/home/hubert/daisy/gcc/arm-none-eabi/include/c++/10.2.1/cmath **** 
1559:/home/hubert/daisy/gcc/arm-none-eabi/include/c++/10.2.1/cmath **** #ifndef __CORRECT_ISO_CPP11_MATH_H_PROTO_INT
1560:/home/hubert/daisy/gcc/arm-none-eabi/include/c++/10.2.1/cmath ****   template<typename _Tp>
1561:/home/hubert/daisy/gcc/arm-none-eabi/include/c++/10.2.1/cmath ****     constexpr typename __gnu_cxx::__enable_if<__is_integer<_Tp>::__value, 
1562:/home/hubert/daisy/gcc/arm-none-eabi/include/c++/10.2.1/cmath ****                                               double>::__type
1563:/home/hubert/daisy/gcc/arm-none-eabi/include/c++/10.2.1/cmath ****     log1p(_Tp __x)
1564:/home/hubert/daisy/gcc/arm-none-eabi/include/c++/10.2.1/cmath ****     { return __builtin_log1p(__x); }
1565:/home/hubert/daisy/gcc/arm-none-eabi/include/c++/10.2.1/cmath **** #endif
1566:/home/hubert/daisy/gcc/arm-none-eabi/include/c++/10.2.1/cmath **** 
1567:/home/hubert/daisy/gcc/arm-none-eabi/include/c++/10.2.1/cmath **** #ifndef __CORRECT_ISO_CPP11_MATH_H_PROTO_FP
1568:/home/hubert/daisy/gcc/arm-none-eabi/include/c++/10.2.1/cmath ****   // DR 568.
1569:/home/hubert/daisy/gcc/arm-none-eabi/include/c++/10.2.1/cmath ****   constexpr float
1570:/home/hubert/daisy/gcc/arm-none-eabi/include/c++/10.2.1/cmath ****   log2(float __x)
1571:/home/hubert/daisy/gcc/arm-none-eabi/include/c++/10.2.1/cmath ****   { return __builtin_log2f(__x); }
1572:/home/hubert/daisy/gcc/arm-none-eabi/include/c++/10.2.1/cmath **** 
1573:/home/hubert/daisy/gcc/arm-none-eabi/include/c++/10.2.1/cmath ****   constexpr long double
1574:/home/hubert/daisy/gcc/arm-none-eabi/include/c++/10.2.1/cmath ****   log2(long double __x)
1575:/home/hubert/daisy/gcc/arm-none-eabi/include/c++/10.2.1/cmath ****   { return __builtin_log2l(__x); }
1576:/home/hubert/daisy/gcc/arm-none-eabi/include/c++/10.2.1/cmath **** #endif
1577:/home/hubert/daisy/gcc/arm-none-eabi/include/c++/10.2.1/cmath **** 
1578:/home/hubert/daisy/gcc/arm-none-eabi/include/c++/10.2.1/cmath **** #ifndef __CORRECT_ISO_CPP11_MATH_H_PROTO_INT
1579:/home/hubert/daisy/gcc/arm-none-eabi/include/c++/10.2.1/cmath ****   template<typename _Tp>
1580:/home/hubert/daisy/gcc/arm-none-eabi/include/c++/10.2.1/cmath ****     constexpr typename __gnu_cxx::__enable_if<__is_integer<_Tp>::__value, 
1581:/home/hubert/daisy/gcc/arm-none-eabi/include/c++/10.2.1/cmath ****                                               double>::__type
1582:/home/hubert/daisy/gcc/arm-none-eabi/include/c++/10.2.1/cmath ****     log2(_Tp __x)
1583:/home/hubert/daisy/gcc/arm-none-eabi/include/c++/10.2.1/cmath ****     { return __builtin_log2(__x); }
1584:/home/hubert/daisy/gcc/arm-none-eabi/include/c++/10.2.1/cmath **** #endif
1585:/home/hubert/daisy/gcc/arm-none-eabi/include/c++/10.2.1/cmath **** 
1586:/home/hubert/daisy/gcc/arm-none-eabi/include/c++/10.2.1/cmath **** #ifndef __CORRECT_ISO_CPP11_MATH_H_PROTO_FP
1587:/home/hubert/daisy/gcc/arm-none-eabi/include/c++/10.2.1/cmath ****   constexpr float
1588:/home/hubert/daisy/gcc/arm-none-eabi/include/c++/10.2.1/cmath ****   logb(float __x)
1589:/home/hubert/daisy/gcc/arm-none-eabi/include/c++/10.2.1/cmath ****   { return __builtin_logbf(__x); }
1590:/home/hubert/daisy/gcc/arm-none-eabi/include/c++/10.2.1/cmath **** 
1591:/home/hubert/daisy/gcc/arm-none-eabi/include/c++/10.2.1/cmath ****   constexpr long double
1592:/home/hubert/daisy/gcc/arm-none-eabi/include/c++/10.2.1/cmath ****   logb(long double __x)
1593:/home/hubert/daisy/gcc/arm-none-eabi/include/c++/10.2.1/cmath ****   { return __builtin_logbl(__x); }
1594:/home/hubert/daisy/gcc/arm-none-eabi/include/c++/10.2.1/cmath **** #endif
1595:/home/hubert/daisy/gcc/arm-none-eabi/include/c++/10.2.1/cmath **** 
1596:/home/hubert/daisy/gcc/arm-none-eabi/include/c++/10.2.1/cmath **** #ifndef __CORRECT_ISO_CPP11_MATH_H_PROTO_INT
1597:/home/hubert/daisy/gcc/arm-none-eabi/include/c++/10.2.1/cmath ****   template<typename _Tp>
1598:/home/hubert/daisy/gcc/arm-none-eabi/include/c++/10.2.1/cmath ****     constexpr typename __gnu_cxx::__enable_if<__is_integer<_Tp>::__value, 
1599:/home/hubert/daisy/gcc/arm-none-eabi/include/c++/10.2.1/cmath ****                                               double>::__type
1600:/home/hubert/daisy/gcc/arm-none-eabi/include/c++/10.2.1/cmath ****     logb(_Tp __x)
1601:/home/hubert/daisy/gcc/arm-none-eabi/include/c++/10.2.1/cmath ****     { return __builtin_logb(__x); }
1602:/home/hubert/daisy/gcc/arm-none-eabi/include/c++/10.2.1/cmath **** #endif
1603:/home/hubert/daisy/gcc/arm-none-eabi/include/c++/10.2.1/cmath **** 
1604:/home/hubert/daisy/gcc/arm-none-eabi/include/c++/10.2.1/cmath **** #ifndef __CORRECT_ISO_CPP11_MATH_H_PROTO_FP
1605:/home/hubert/daisy/gcc/arm-none-eabi/include/c++/10.2.1/cmath ****   constexpr long
1606:/home/hubert/daisy/gcc/arm-none-eabi/include/c++/10.2.1/cmath ****   lrint(float __x)
1607:/home/hubert/daisy/gcc/arm-none-eabi/include/c++/10.2.1/cmath ****   { return __builtin_lrintf(__x); }
1608:/home/hubert/daisy/gcc/arm-none-eabi/include/c++/10.2.1/cmath **** 
1609:/home/hubert/daisy/gcc/arm-none-eabi/include/c++/10.2.1/cmath ****   constexpr long
1610:/home/hubert/daisy/gcc/arm-none-eabi/include/c++/10.2.1/cmath ****   lrint(long double __x)
1611:/home/hubert/daisy/gcc/arm-none-eabi/include/c++/10.2.1/cmath ****   { return __builtin_lrintl(__x); }
ARM GAS  /tmp/ccIWsbgU.s 			page 33


1612:/home/hubert/daisy/gcc/arm-none-eabi/include/c++/10.2.1/cmath **** #endif
1613:/home/hubert/daisy/gcc/arm-none-eabi/include/c++/10.2.1/cmath **** 
1614:/home/hubert/daisy/gcc/arm-none-eabi/include/c++/10.2.1/cmath **** #ifndef __CORRECT_ISO_CPP11_MATH_H_PROTO_INT
1615:/home/hubert/daisy/gcc/arm-none-eabi/include/c++/10.2.1/cmath ****   template<typename _Tp>
1616:/home/hubert/daisy/gcc/arm-none-eabi/include/c++/10.2.1/cmath ****     constexpr typename __gnu_cxx::__enable_if<__is_integer<_Tp>::__value, 
1617:/home/hubert/daisy/gcc/arm-none-eabi/include/c++/10.2.1/cmath ****                                               long>::__type
1618:/home/hubert/daisy/gcc/arm-none-eabi/include/c++/10.2.1/cmath ****     lrint(_Tp __x)
1619:/home/hubert/daisy/gcc/arm-none-eabi/include/c++/10.2.1/cmath ****     { return __builtin_lrint(__x); }
1620:/home/hubert/daisy/gcc/arm-none-eabi/include/c++/10.2.1/cmath **** #endif
1621:/home/hubert/daisy/gcc/arm-none-eabi/include/c++/10.2.1/cmath **** 
1622:/home/hubert/daisy/gcc/arm-none-eabi/include/c++/10.2.1/cmath **** #ifndef __CORRECT_ISO_CPP11_MATH_H_PROTO_FP
1623:/home/hubert/daisy/gcc/arm-none-eabi/include/c++/10.2.1/cmath ****   constexpr long
1624:/home/hubert/daisy/gcc/arm-none-eabi/include/c++/10.2.1/cmath ****   lround(float __x)
1625:/home/hubert/daisy/gcc/arm-none-eabi/include/c++/10.2.1/cmath ****   { return __builtin_lroundf(__x); }
1626:/home/hubert/daisy/gcc/arm-none-eabi/include/c++/10.2.1/cmath **** 
1627:/home/hubert/daisy/gcc/arm-none-eabi/include/c++/10.2.1/cmath ****   constexpr long
1628:/home/hubert/daisy/gcc/arm-none-eabi/include/c++/10.2.1/cmath ****   lround(long double __x)
1629:/home/hubert/daisy/gcc/arm-none-eabi/include/c++/10.2.1/cmath ****   { return __builtin_lroundl(__x); }
1630:/home/hubert/daisy/gcc/arm-none-eabi/include/c++/10.2.1/cmath **** #endif
1631:/home/hubert/daisy/gcc/arm-none-eabi/include/c++/10.2.1/cmath **** 
1632:/home/hubert/daisy/gcc/arm-none-eabi/include/c++/10.2.1/cmath **** #ifndef __CORRECT_ISO_CPP11_MATH_H_PROTO_INT
1633:/home/hubert/daisy/gcc/arm-none-eabi/include/c++/10.2.1/cmath ****   template<typename _Tp>
1634:/home/hubert/daisy/gcc/arm-none-eabi/include/c++/10.2.1/cmath ****     constexpr typename __gnu_cxx::__enable_if<__is_integer<_Tp>::__value, 
1635:/home/hubert/daisy/gcc/arm-none-eabi/include/c++/10.2.1/cmath ****                                               long>::__type
1636:/home/hubert/daisy/gcc/arm-none-eabi/include/c++/10.2.1/cmath ****     lround(_Tp __x)
1637:/home/hubert/daisy/gcc/arm-none-eabi/include/c++/10.2.1/cmath ****     { return __builtin_lround(__x); }
1638:/home/hubert/daisy/gcc/arm-none-eabi/include/c++/10.2.1/cmath **** #endif
1639:/home/hubert/daisy/gcc/arm-none-eabi/include/c++/10.2.1/cmath **** 
1640:/home/hubert/daisy/gcc/arm-none-eabi/include/c++/10.2.1/cmath **** #ifndef __CORRECT_ISO_CPP11_MATH_H_PROTO_FP
1641:/home/hubert/daisy/gcc/arm-none-eabi/include/c++/10.2.1/cmath ****   constexpr float
1642:/home/hubert/daisy/gcc/arm-none-eabi/include/c++/10.2.1/cmath ****   nearbyint(float __x)
1643:/home/hubert/daisy/gcc/arm-none-eabi/include/c++/10.2.1/cmath ****   { return __builtin_nearbyintf(__x); }
1644:/home/hubert/daisy/gcc/arm-none-eabi/include/c++/10.2.1/cmath **** 
1645:/home/hubert/daisy/gcc/arm-none-eabi/include/c++/10.2.1/cmath ****   constexpr long double
1646:/home/hubert/daisy/gcc/arm-none-eabi/include/c++/10.2.1/cmath ****   nearbyint(long double __x)
1647:/home/hubert/daisy/gcc/arm-none-eabi/include/c++/10.2.1/cmath ****   { return __builtin_nearbyintl(__x); }
1648:/home/hubert/daisy/gcc/arm-none-eabi/include/c++/10.2.1/cmath **** #endif
1649:/home/hubert/daisy/gcc/arm-none-eabi/include/c++/10.2.1/cmath **** 
1650:/home/hubert/daisy/gcc/arm-none-eabi/include/c++/10.2.1/cmath **** #ifndef __CORRECT_ISO_CPP11_MATH_H_PROTO_INT
1651:/home/hubert/daisy/gcc/arm-none-eabi/include/c++/10.2.1/cmath ****   template<typename _Tp>
1652:/home/hubert/daisy/gcc/arm-none-eabi/include/c++/10.2.1/cmath ****     constexpr typename __gnu_cxx::__enable_if<__is_integer<_Tp>::__value, 
1653:/home/hubert/daisy/gcc/arm-none-eabi/include/c++/10.2.1/cmath ****                                               double>::__type
1654:/home/hubert/daisy/gcc/arm-none-eabi/include/c++/10.2.1/cmath ****     nearbyint(_Tp __x)
1655:/home/hubert/daisy/gcc/arm-none-eabi/include/c++/10.2.1/cmath ****     { return __builtin_nearbyint(__x); }
1656:/home/hubert/daisy/gcc/arm-none-eabi/include/c++/10.2.1/cmath **** #endif
1657:/home/hubert/daisy/gcc/arm-none-eabi/include/c++/10.2.1/cmath **** 
1658:/home/hubert/daisy/gcc/arm-none-eabi/include/c++/10.2.1/cmath **** #ifndef __CORRECT_ISO_CPP11_MATH_H_PROTO_FP
1659:/home/hubert/daisy/gcc/arm-none-eabi/include/c++/10.2.1/cmath ****   constexpr float
1660:/home/hubert/daisy/gcc/arm-none-eabi/include/c++/10.2.1/cmath ****   nextafter(float __x, float __y)
1661:/home/hubert/daisy/gcc/arm-none-eabi/include/c++/10.2.1/cmath ****   { return __builtin_nextafterf(__x, __y); }
1662:/home/hubert/daisy/gcc/arm-none-eabi/include/c++/10.2.1/cmath **** 
1663:/home/hubert/daisy/gcc/arm-none-eabi/include/c++/10.2.1/cmath ****   constexpr long double
1664:/home/hubert/daisy/gcc/arm-none-eabi/include/c++/10.2.1/cmath ****   nextafter(long double __x, long double __y)
1665:/home/hubert/daisy/gcc/arm-none-eabi/include/c++/10.2.1/cmath ****   { return __builtin_nextafterl(__x, __y); }
1666:/home/hubert/daisy/gcc/arm-none-eabi/include/c++/10.2.1/cmath **** #endif
1667:/home/hubert/daisy/gcc/arm-none-eabi/include/c++/10.2.1/cmath **** 
1668:/home/hubert/daisy/gcc/arm-none-eabi/include/c++/10.2.1/cmath **** #ifndef __CORRECT_ISO_CPP11_MATH_H_PROTO_INT
ARM GAS  /tmp/ccIWsbgU.s 			page 34


1669:/home/hubert/daisy/gcc/arm-none-eabi/include/c++/10.2.1/cmath ****   template<typename _Tp, typename _Up>
1670:/home/hubert/daisy/gcc/arm-none-eabi/include/c++/10.2.1/cmath ****     constexpr typename __gnu_cxx::__promote_2<_Tp, _Up>::__type
1671:/home/hubert/daisy/gcc/arm-none-eabi/include/c++/10.2.1/cmath ****     nextafter(_Tp __x, _Up __y)
1672:/home/hubert/daisy/gcc/arm-none-eabi/include/c++/10.2.1/cmath ****     {
1673:/home/hubert/daisy/gcc/arm-none-eabi/include/c++/10.2.1/cmath ****       typedef typename __gnu_cxx::__promote_2<_Tp, _Up>::__type __type;
1674:/home/hubert/daisy/gcc/arm-none-eabi/include/c++/10.2.1/cmath ****       return nextafter(__type(__x), __type(__y));
1675:/home/hubert/daisy/gcc/arm-none-eabi/include/c++/10.2.1/cmath ****     }
1676:/home/hubert/daisy/gcc/arm-none-eabi/include/c++/10.2.1/cmath **** #endif
1677:/home/hubert/daisy/gcc/arm-none-eabi/include/c++/10.2.1/cmath **** 
1678:/home/hubert/daisy/gcc/arm-none-eabi/include/c++/10.2.1/cmath **** #ifndef __CORRECT_ISO_CPP11_MATH_H_PROTO_FP
1679:/home/hubert/daisy/gcc/arm-none-eabi/include/c++/10.2.1/cmath ****   constexpr float
1680:/home/hubert/daisy/gcc/arm-none-eabi/include/c++/10.2.1/cmath ****   nexttoward(float __x, long double __y)
1681:/home/hubert/daisy/gcc/arm-none-eabi/include/c++/10.2.1/cmath ****   { return __builtin_nexttowardf(__x, __y); }
1682:/home/hubert/daisy/gcc/arm-none-eabi/include/c++/10.2.1/cmath **** 
1683:/home/hubert/daisy/gcc/arm-none-eabi/include/c++/10.2.1/cmath ****   constexpr long double
1684:/home/hubert/daisy/gcc/arm-none-eabi/include/c++/10.2.1/cmath ****   nexttoward(long double __x, long double __y)
1685:/home/hubert/daisy/gcc/arm-none-eabi/include/c++/10.2.1/cmath ****   { return __builtin_nexttowardl(__x, __y); }
1686:/home/hubert/daisy/gcc/arm-none-eabi/include/c++/10.2.1/cmath **** #endif
1687:/home/hubert/daisy/gcc/arm-none-eabi/include/c++/10.2.1/cmath **** 
1688:/home/hubert/daisy/gcc/arm-none-eabi/include/c++/10.2.1/cmath **** #ifndef __CORRECT_ISO_CPP11_MATH_H_PROTO_INT
1689:/home/hubert/daisy/gcc/arm-none-eabi/include/c++/10.2.1/cmath ****   template<typename _Tp>
1690:/home/hubert/daisy/gcc/arm-none-eabi/include/c++/10.2.1/cmath ****     constexpr typename __gnu_cxx::__enable_if<__is_integer<_Tp>::__value, 
1691:/home/hubert/daisy/gcc/arm-none-eabi/include/c++/10.2.1/cmath ****                                               double>::__type
1692:/home/hubert/daisy/gcc/arm-none-eabi/include/c++/10.2.1/cmath ****     nexttoward(_Tp __x, long double __y)
1693:/home/hubert/daisy/gcc/arm-none-eabi/include/c++/10.2.1/cmath ****     { return __builtin_nexttoward(__x, __y); }
1694:/home/hubert/daisy/gcc/arm-none-eabi/include/c++/10.2.1/cmath **** #endif
1695:/home/hubert/daisy/gcc/arm-none-eabi/include/c++/10.2.1/cmath **** 
1696:/home/hubert/daisy/gcc/arm-none-eabi/include/c++/10.2.1/cmath **** #ifndef __CORRECT_ISO_CPP11_MATH_H_PROTO_FP
1697:/home/hubert/daisy/gcc/arm-none-eabi/include/c++/10.2.1/cmath ****   constexpr float
1698:/home/hubert/daisy/gcc/arm-none-eabi/include/c++/10.2.1/cmath ****   remainder(float __x, float __y)
1699:/home/hubert/daisy/gcc/arm-none-eabi/include/c++/10.2.1/cmath ****   { return __builtin_remainderf(__x, __y); }
1700:/home/hubert/daisy/gcc/arm-none-eabi/include/c++/10.2.1/cmath **** 
1701:/home/hubert/daisy/gcc/arm-none-eabi/include/c++/10.2.1/cmath ****   constexpr long double
1702:/home/hubert/daisy/gcc/arm-none-eabi/include/c++/10.2.1/cmath ****   remainder(long double __x, long double __y)
1703:/home/hubert/daisy/gcc/arm-none-eabi/include/c++/10.2.1/cmath ****   { return __builtin_remainderl(__x, __y); }
1704:/home/hubert/daisy/gcc/arm-none-eabi/include/c++/10.2.1/cmath **** #endif
1705:/home/hubert/daisy/gcc/arm-none-eabi/include/c++/10.2.1/cmath **** 
1706:/home/hubert/daisy/gcc/arm-none-eabi/include/c++/10.2.1/cmath **** #ifndef __CORRECT_ISO_CPP11_MATH_H_PROTO_INT
1707:/home/hubert/daisy/gcc/arm-none-eabi/include/c++/10.2.1/cmath ****   template<typename _Tp, typename _Up>
1708:/home/hubert/daisy/gcc/arm-none-eabi/include/c++/10.2.1/cmath ****     constexpr typename __gnu_cxx::__promote_2<_Tp, _Up>::__type
1709:/home/hubert/daisy/gcc/arm-none-eabi/include/c++/10.2.1/cmath ****     remainder(_Tp __x, _Up __y)
1710:/home/hubert/daisy/gcc/arm-none-eabi/include/c++/10.2.1/cmath ****     {
1711:/home/hubert/daisy/gcc/arm-none-eabi/include/c++/10.2.1/cmath ****       typedef typename __gnu_cxx::__promote_2<_Tp, _Up>::__type __type;
1712:/home/hubert/daisy/gcc/arm-none-eabi/include/c++/10.2.1/cmath ****       return remainder(__type(__x), __type(__y));
1713:/home/hubert/daisy/gcc/arm-none-eabi/include/c++/10.2.1/cmath ****     }
1714:/home/hubert/daisy/gcc/arm-none-eabi/include/c++/10.2.1/cmath **** #endif
1715:/home/hubert/daisy/gcc/arm-none-eabi/include/c++/10.2.1/cmath **** 
1716:/home/hubert/daisy/gcc/arm-none-eabi/include/c++/10.2.1/cmath **** #ifndef __CORRECT_ISO_CPP11_MATH_H_PROTO_FP
1717:/home/hubert/daisy/gcc/arm-none-eabi/include/c++/10.2.1/cmath ****   inline float
1718:/home/hubert/daisy/gcc/arm-none-eabi/include/c++/10.2.1/cmath ****   remquo(float __x, float __y, int* __pquo)
1719:/home/hubert/daisy/gcc/arm-none-eabi/include/c++/10.2.1/cmath ****   { return __builtin_remquof(__x, __y, __pquo); }
1720:/home/hubert/daisy/gcc/arm-none-eabi/include/c++/10.2.1/cmath **** 
1721:/home/hubert/daisy/gcc/arm-none-eabi/include/c++/10.2.1/cmath ****   inline long double
1722:/home/hubert/daisy/gcc/arm-none-eabi/include/c++/10.2.1/cmath ****   remquo(long double __x, long double __y, int* __pquo)
1723:/home/hubert/daisy/gcc/arm-none-eabi/include/c++/10.2.1/cmath ****   { return __builtin_remquol(__x, __y, __pquo); }
1724:/home/hubert/daisy/gcc/arm-none-eabi/include/c++/10.2.1/cmath **** #endif
1725:/home/hubert/daisy/gcc/arm-none-eabi/include/c++/10.2.1/cmath **** 
ARM GAS  /tmp/ccIWsbgU.s 			page 35


1726:/home/hubert/daisy/gcc/arm-none-eabi/include/c++/10.2.1/cmath **** #ifndef __CORRECT_ISO_CPP11_MATH_H_PROTO_INT
1727:/home/hubert/daisy/gcc/arm-none-eabi/include/c++/10.2.1/cmath ****   template<typename _Tp, typename _Up>
1728:/home/hubert/daisy/gcc/arm-none-eabi/include/c++/10.2.1/cmath ****     inline typename __gnu_cxx::__promote_2<_Tp, _Up>::__type
1729:/home/hubert/daisy/gcc/arm-none-eabi/include/c++/10.2.1/cmath ****     remquo(_Tp __x, _Up __y, int* __pquo)
1730:/home/hubert/daisy/gcc/arm-none-eabi/include/c++/10.2.1/cmath ****     {
1731:/home/hubert/daisy/gcc/arm-none-eabi/include/c++/10.2.1/cmath ****       typedef typename __gnu_cxx::__promote_2<_Tp, _Up>::__type __type;
1732:/home/hubert/daisy/gcc/arm-none-eabi/include/c++/10.2.1/cmath ****       return remquo(__type(__x), __type(__y), __pquo);
1733:/home/hubert/daisy/gcc/arm-none-eabi/include/c++/10.2.1/cmath ****     }
1734:/home/hubert/daisy/gcc/arm-none-eabi/include/c++/10.2.1/cmath **** #endif
1735:/home/hubert/daisy/gcc/arm-none-eabi/include/c++/10.2.1/cmath **** 
1736:/home/hubert/daisy/gcc/arm-none-eabi/include/c++/10.2.1/cmath **** #ifndef __CORRECT_ISO_CPP11_MATH_H_PROTO_FP
1737:/home/hubert/daisy/gcc/arm-none-eabi/include/c++/10.2.1/cmath ****   constexpr float
1738:/home/hubert/daisy/gcc/arm-none-eabi/include/c++/10.2.1/cmath ****   rint(float __x)
1739:/home/hubert/daisy/gcc/arm-none-eabi/include/c++/10.2.1/cmath ****   { return __builtin_rintf(__x); }
1740:/home/hubert/daisy/gcc/arm-none-eabi/include/c++/10.2.1/cmath **** 
1741:/home/hubert/daisy/gcc/arm-none-eabi/include/c++/10.2.1/cmath ****   constexpr long double
1742:/home/hubert/daisy/gcc/arm-none-eabi/include/c++/10.2.1/cmath ****   rint(long double __x)
1743:/home/hubert/daisy/gcc/arm-none-eabi/include/c++/10.2.1/cmath ****   { return __builtin_rintl(__x); }
1744:/home/hubert/daisy/gcc/arm-none-eabi/include/c++/10.2.1/cmath **** #endif
1745:/home/hubert/daisy/gcc/arm-none-eabi/include/c++/10.2.1/cmath **** 
1746:/home/hubert/daisy/gcc/arm-none-eabi/include/c++/10.2.1/cmath **** #ifndef __CORRECT_ISO_CPP11_MATH_H_PROTO_INT
1747:/home/hubert/daisy/gcc/arm-none-eabi/include/c++/10.2.1/cmath ****   template<typename _Tp>
1748:/home/hubert/daisy/gcc/arm-none-eabi/include/c++/10.2.1/cmath ****     constexpr typename __gnu_cxx::__enable_if<__is_integer<_Tp>::__value, 
1749:/home/hubert/daisy/gcc/arm-none-eabi/include/c++/10.2.1/cmath ****                                               double>::__type
1750:/home/hubert/daisy/gcc/arm-none-eabi/include/c++/10.2.1/cmath ****     rint(_Tp __x)
1751:/home/hubert/daisy/gcc/arm-none-eabi/include/c++/10.2.1/cmath ****     { return __builtin_rint(__x); }
1752:/home/hubert/daisy/gcc/arm-none-eabi/include/c++/10.2.1/cmath **** #endif
1753:/home/hubert/daisy/gcc/arm-none-eabi/include/c++/10.2.1/cmath **** 
1754:/home/hubert/daisy/gcc/arm-none-eabi/include/c++/10.2.1/cmath **** #ifndef __CORRECT_ISO_CPP11_MATH_H_PROTO_FP
1755:/home/hubert/daisy/gcc/arm-none-eabi/include/c++/10.2.1/cmath ****   constexpr float
1756:/home/hubert/daisy/gcc/arm-none-eabi/include/c++/10.2.1/cmath ****   round(float __x)
1757:/home/hubert/daisy/gcc/arm-none-eabi/include/c++/10.2.1/cmath ****   { return __builtin_roundf(__x); }
 145              		.loc 2 1757 3
 146              		.cfi_startproc
 147              		@ args = 0, pretend = 0, frame = 8
 148              		@ frame_needed = 1, uses_anonymous_args = 0
 149              		@ link register save eliminated.
 150 0000 80B4     		push	{r7}
 151              		.cfi_def_cfa_offset 4
 152              		.cfi_offset 7, -4
 153 0002 83B0     		sub	sp, sp, #12
 154              		.cfi_def_cfa_offset 16
 155 0004 00AF     		add	r7, sp, #0
 156              		.cfi_def_cfa_register 7
 157 0006 87ED010A 		vstr.32	s0, [r7, #4]
 158              		.loc 2 1757 28
 159 000a D7ED017A 		vldr.32	s15, [r7, #4]
 160 000e F8FE677A 		vrinta.f32	s15, s15
 161              		.loc 2 1757 35
 162 0012 B0EE670A 		vmov.f32	s0, s15
 163 0016 0C37     		adds	r7, r7, #12
 164              		.cfi_def_cfa_offset 4
 165 0018 BD46     		mov	sp, r7
 166              		.cfi_def_cfa_register 13
 167              		@ sp needed
 168 001a 5DF8047B 		ldr	r7, [sp], #4
 169              		.cfi_restore 7
ARM GAS  /tmp/ccIWsbgU.s 			page 36


 170              		.cfi_def_cfa_offset 0
 171 001e 7047     		bx	lr
 172              		.cfi_endproc
 173              	.LFE343:
 175              		.section	.rodata._ZStL19piecewise_construct,"a"
 176              		.align	2
 179              	_ZStL19piecewise_construct:
 180 0000 00       		.space	1
 181              		.section	.text._ZNSt11char_traitsIcE6lengthEPKc,"axG",%progbits,_ZNSt11char_traitsIcE6lengthEPKc,c
 182              		.align	1
 183              		.weak	_ZNSt11char_traitsIcE6lengthEPKc
 184              		.syntax unified
 185              		.thumb
 186              		.thumb_func
 187              		.fpu fpv5-d16
 189              	_ZNSt11char_traitsIcE6lengthEPKc:
 190              	.LFB955:
 191              		.file 3 "/home/hubert/daisy/gcc/arm-none-eabi/include/c++/10.2.1/bits/char_traits.h"
   1:/home/hubert/daisy/gcc/arm-none-eabi/include/c++/10.2.1/bits/char_traits.h **** // Character Traits for use by standard string and iostream -*- C++ -*-
   2:/home/hubert/daisy/gcc/arm-none-eabi/include/c++/10.2.1/bits/char_traits.h **** 
   3:/home/hubert/daisy/gcc/arm-none-eabi/include/c++/10.2.1/bits/char_traits.h **** // Copyright (C) 1997-2020 Free Software Foundation, Inc.
   4:/home/hubert/daisy/gcc/arm-none-eabi/include/c++/10.2.1/bits/char_traits.h **** //
   5:/home/hubert/daisy/gcc/arm-none-eabi/include/c++/10.2.1/bits/char_traits.h **** // This file is part of the GNU ISO C++ Library.  This library is free
   6:/home/hubert/daisy/gcc/arm-none-eabi/include/c++/10.2.1/bits/char_traits.h **** // software; you can redistribute it and/or modify it under the
   7:/home/hubert/daisy/gcc/arm-none-eabi/include/c++/10.2.1/bits/char_traits.h **** // terms of the GNU General Public License as published by the
   8:/home/hubert/daisy/gcc/arm-none-eabi/include/c++/10.2.1/bits/char_traits.h **** // Free Software Foundation; either version 3, or (at your option)
   9:/home/hubert/daisy/gcc/arm-none-eabi/include/c++/10.2.1/bits/char_traits.h **** // any later version.
  10:/home/hubert/daisy/gcc/arm-none-eabi/include/c++/10.2.1/bits/char_traits.h **** 
  11:/home/hubert/daisy/gcc/arm-none-eabi/include/c++/10.2.1/bits/char_traits.h **** // This library is distributed in the hope that it will be useful,
  12:/home/hubert/daisy/gcc/arm-none-eabi/include/c++/10.2.1/bits/char_traits.h **** // but WITHOUT ANY WARRANTY; without even the implied warranty of
  13:/home/hubert/daisy/gcc/arm-none-eabi/include/c++/10.2.1/bits/char_traits.h **** // MERCHANTABILITY or FITNESS FOR A PARTICULAR PURPOSE.  See the
  14:/home/hubert/daisy/gcc/arm-none-eabi/include/c++/10.2.1/bits/char_traits.h **** // GNU General Public License for more details.
  15:/home/hubert/daisy/gcc/arm-none-eabi/include/c++/10.2.1/bits/char_traits.h **** 
  16:/home/hubert/daisy/gcc/arm-none-eabi/include/c++/10.2.1/bits/char_traits.h **** // Under Section 7 of GPL version 3, you are granted additional
  17:/home/hubert/daisy/gcc/arm-none-eabi/include/c++/10.2.1/bits/char_traits.h **** // permissions described in the GCC Runtime Library Exception, version
  18:/home/hubert/daisy/gcc/arm-none-eabi/include/c++/10.2.1/bits/char_traits.h **** // 3.1, as published by the Free Software Foundation.
  19:/home/hubert/daisy/gcc/arm-none-eabi/include/c++/10.2.1/bits/char_traits.h **** 
  20:/home/hubert/daisy/gcc/arm-none-eabi/include/c++/10.2.1/bits/char_traits.h **** // You should have received a copy of the GNU General Public License and
  21:/home/hubert/daisy/gcc/arm-none-eabi/include/c++/10.2.1/bits/char_traits.h **** // a copy of the GCC Runtime Library Exception along with this program;
  22:/home/hubert/daisy/gcc/arm-none-eabi/include/c++/10.2.1/bits/char_traits.h **** // see the files COPYING3 and COPYING.RUNTIME respectively.  If not, see
  23:/home/hubert/daisy/gcc/arm-none-eabi/include/c++/10.2.1/bits/char_traits.h **** // <http://www.gnu.org/licenses/>.
  24:/home/hubert/daisy/gcc/arm-none-eabi/include/c++/10.2.1/bits/char_traits.h **** 
  25:/home/hubert/daisy/gcc/arm-none-eabi/include/c++/10.2.1/bits/char_traits.h **** /** @file bits/char_traits.h
  26:/home/hubert/daisy/gcc/arm-none-eabi/include/c++/10.2.1/bits/char_traits.h ****  *  This is an internal header file, included by other library headers.
  27:/home/hubert/daisy/gcc/arm-none-eabi/include/c++/10.2.1/bits/char_traits.h ****  *  Do not attempt to use it directly. @headername{string}
  28:/home/hubert/daisy/gcc/arm-none-eabi/include/c++/10.2.1/bits/char_traits.h ****  */
  29:/home/hubert/daisy/gcc/arm-none-eabi/include/c++/10.2.1/bits/char_traits.h **** 
  30:/home/hubert/daisy/gcc/arm-none-eabi/include/c++/10.2.1/bits/char_traits.h **** //
  31:/home/hubert/daisy/gcc/arm-none-eabi/include/c++/10.2.1/bits/char_traits.h **** // ISO C++ 14882: 21  Strings library
  32:/home/hubert/daisy/gcc/arm-none-eabi/include/c++/10.2.1/bits/char_traits.h **** //
  33:/home/hubert/daisy/gcc/arm-none-eabi/include/c++/10.2.1/bits/char_traits.h **** 
  34:/home/hubert/daisy/gcc/arm-none-eabi/include/c++/10.2.1/bits/char_traits.h **** #ifndef _CHAR_TRAITS_H
  35:/home/hubert/daisy/gcc/arm-none-eabi/include/c++/10.2.1/bits/char_traits.h **** #define _CHAR_TRAITS_H 1
  36:/home/hubert/daisy/gcc/arm-none-eabi/include/c++/10.2.1/bits/char_traits.h **** 
  37:/home/hubert/daisy/gcc/arm-none-eabi/include/c++/10.2.1/bits/char_traits.h **** #pragma GCC system_header
  38:/home/hubert/daisy/gcc/arm-none-eabi/include/c++/10.2.1/bits/char_traits.h **** 
  39:/home/hubert/daisy/gcc/arm-none-eabi/include/c++/10.2.1/bits/char_traits.h **** #include <bits/stl_algobase.h>  // std::copy, std::fill_n
ARM GAS  /tmp/ccIWsbgU.s 			page 37


  40:/home/hubert/daisy/gcc/arm-none-eabi/include/c++/10.2.1/bits/char_traits.h **** #include <bits/postypes.h>      // For streampos
  41:/home/hubert/daisy/gcc/arm-none-eabi/include/c++/10.2.1/bits/char_traits.h **** #include <cwchar>               // For WEOF, wmemmove, wmemset, etc.
  42:/home/hubert/daisy/gcc/arm-none-eabi/include/c++/10.2.1/bits/char_traits.h **** #if __cplusplus > 201703L
  43:/home/hubert/daisy/gcc/arm-none-eabi/include/c++/10.2.1/bits/char_traits.h **** # include <compare>
  44:/home/hubert/daisy/gcc/arm-none-eabi/include/c++/10.2.1/bits/char_traits.h **** #endif
  45:/home/hubert/daisy/gcc/arm-none-eabi/include/c++/10.2.1/bits/char_traits.h **** 
  46:/home/hubert/daisy/gcc/arm-none-eabi/include/c++/10.2.1/bits/char_traits.h **** #ifndef _GLIBCXX_ALWAYS_INLINE
  47:/home/hubert/daisy/gcc/arm-none-eabi/include/c++/10.2.1/bits/char_traits.h **** # define _GLIBCXX_ALWAYS_INLINE inline __attribute__((__always_inline__))
  48:/home/hubert/daisy/gcc/arm-none-eabi/include/c++/10.2.1/bits/char_traits.h **** #endif
  49:/home/hubert/daisy/gcc/arm-none-eabi/include/c++/10.2.1/bits/char_traits.h **** 
  50:/home/hubert/daisy/gcc/arm-none-eabi/include/c++/10.2.1/bits/char_traits.h **** namespace __gnu_cxx _GLIBCXX_VISIBILITY(default)
  51:/home/hubert/daisy/gcc/arm-none-eabi/include/c++/10.2.1/bits/char_traits.h **** {
  52:/home/hubert/daisy/gcc/arm-none-eabi/include/c++/10.2.1/bits/char_traits.h **** _GLIBCXX_BEGIN_NAMESPACE_VERSION
  53:/home/hubert/daisy/gcc/arm-none-eabi/include/c++/10.2.1/bits/char_traits.h **** 
  54:/home/hubert/daisy/gcc/arm-none-eabi/include/c++/10.2.1/bits/char_traits.h ****   /**
  55:/home/hubert/daisy/gcc/arm-none-eabi/include/c++/10.2.1/bits/char_traits.h ****    *  @brief  Mapping from character type to associated types.
  56:/home/hubert/daisy/gcc/arm-none-eabi/include/c++/10.2.1/bits/char_traits.h ****    *
  57:/home/hubert/daisy/gcc/arm-none-eabi/include/c++/10.2.1/bits/char_traits.h ****    *  @note This is an implementation class for the generic version
  58:/home/hubert/daisy/gcc/arm-none-eabi/include/c++/10.2.1/bits/char_traits.h ****    *  of char_traits.  It defines int_type, off_type, pos_type, and
  59:/home/hubert/daisy/gcc/arm-none-eabi/include/c++/10.2.1/bits/char_traits.h ****    *  state_type.  By default these are unsigned long, streamoff,
  60:/home/hubert/daisy/gcc/arm-none-eabi/include/c++/10.2.1/bits/char_traits.h ****    *  streampos, and mbstate_t.  Users who need a different set of
  61:/home/hubert/daisy/gcc/arm-none-eabi/include/c++/10.2.1/bits/char_traits.h ****    *  types, but who don't need to change the definitions of any function
  62:/home/hubert/daisy/gcc/arm-none-eabi/include/c++/10.2.1/bits/char_traits.h ****    *  defined in char_traits, can specialize __gnu_cxx::_Char_types
  63:/home/hubert/daisy/gcc/arm-none-eabi/include/c++/10.2.1/bits/char_traits.h ****    *  while leaving __gnu_cxx::char_traits alone. */
  64:/home/hubert/daisy/gcc/arm-none-eabi/include/c++/10.2.1/bits/char_traits.h ****   template<typename _CharT>
  65:/home/hubert/daisy/gcc/arm-none-eabi/include/c++/10.2.1/bits/char_traits.h ****     struct _Char_types
  66:/home/hubert/daisy/gcc/arm-none-eabi/include/c++/10.2.1/bits/char_traits.h ****     {
  67:/home/hubert/daisy/gcc/arm-none-eabi/include/c++/10.2.1/bits/char_traits.h ****       typedef unsigned long   int_type;
  68:/home/hubert/daisy/gcc/arm-none-eabi/include/c++/10.2.1/bits/char_traits.h ****       typedef std::streampos  pos_type;
  69:/home/hubert/daisy/gcc/arm-none-eabi/include/c++/10.2.1/bits/char_traits.h ****       typedef std::streamoff  off_type;
  70:/home/hubert/daisy/gcc/arm-none-eabi/include/c++/10.2.1/bits/char_traits.h ****       typedef std::mbstate_t  state_type;
  71:/home/hubert/daisy/gcc/arm-none-eabi/include/c++/10.2.1/bits/char_traits.h ****     };
  72:/home/hubert/daisy/gcc/arm-none-eabi/include/c++/10.2.1/bits/char_traits.h **** 
  73:/home/hubert/daisy/gcc/arm-none-eabi/include/c++/10.2.1/bits/char_traits.h **** 
  74:/home/hubert/daisy/gcc/arm-none-eabi/include/c++/10.2.1/bits/char_traits.h ****   /**
  75:/home/hubert/daisy/gcc/arm-none-eabi/include/c++/10.2.1/bits/char_traits.h ****    *  @brief  Base class used to implement std::char_traits.
  76:/home/hubert/daisy/gcc/arm-none-eabi/include/c++/10.2.1/bits/char_traits.h ****    *
  77:/home/hubert/daisy/gcc/arm-none-eabi/include/c++/10.2.1/bits/char_traits.h ****    *  @note For any given actual character type, this definition is
  78:/home/hubert/daisy/gcc/arm-none-eabi/include/c++/10.2.1/bits/char_traits.h ****    *  probably wrong.  (Most of the member functions are likely to be
  79:/home/hubert/daisy/gcc/arm-none-eabi/include/c++/10.2.1/bits/char_traits.h ****    *  right, but the int_type and state_type typedefs, and the eof()
  80:/home/hubert/daisy/gcc/arm-none-eabi/include/c++/10.2.1/bits/char_traits.h ****    *  member function, are likely to be wrong.)  The reason this class
  81:/home/hubert/daisy/gcc/arm-none-eabi/include/c++/10.2.1/bits/char_traits.h ****    *  exists is so users can specialize it.  Classes in namespace std
  82:/home/hubert/daisy/gcc/arm-none-eabi/include/c++/10.2.1/bits/char_traits.h ****    *  may not be specialized for fundamental types, but classes in
  83:/home/hubert/daisy/gcc/arm-none-eabi/include/c++/10.2.1/bits/char_traits.h ****    *  namespace __gnu_cxx may be.
  84:/home/hubert/daisy/gcc/arm-none-eabi/include/c++/10.2.1/bits/char_traits.h ****    *
  85:/home/hubert/daisy/gcc/arm-none-eabi/include/c++/10.2.1/bits/char_traits.h ****    *  See https://gcc.gnu.org/onlinedocs/libstdc++/manual/strings.html#strings.string.character_typ
  86:/home/hubert/daisy/gcc/arm-none-eabi/include/c++/10.2.1/bits/char_traits.h ****    *  for advice on how to make use of this class for @a unusual character
  87:/home/hubert/daisy/gcc/arm-none-eabi/include/c++/10.2.1/bits/char_traits.h ****    *  types. Also, check out include/ext/pod_char_traits.h.  
  88:/home/hubert/daisy/gcc/arm-none-eabi/include/c++/10.2.1/bits/char_traits.h ****    */
  89:/home/hubert/daisy/gcc/arm-none-eabi/include/c++/10.2.1/bits/char_traits.h ****   template<typename _CharT>
  90:/home/hubert/daisy/gcc/arm-none-eabi/include/c++/10.2.1/bits/char_traits.h ****     struct char_traits
  91:/home/hubert/daisy/gcc/arm-none-eabi/include/c++/10.2.1/bits/char_traits.h ****     {
  92:/home/hubert/daisy/gcc/arm-none-eabi/include/c++/10.2.1/bits/char_traits.h ****       typedef _CharT                                    char_type;
  93:/home/hubert/daisy/gcc/arm-none-eabi/include/c++/10.2.1/bits/char_traits.h ****       typedef typename _Char_types<_CharT>::int_type    int_type;
  94:/home/hubert/daisy/gcc/arm-none-eabi/include/c++/10.2.1/bits/char_traits.h ****       typedef typename _Char_types<_CharT>::pos_type    pos_type;
  95:/home/hubert/daisy/gcc/arm-none-eabi/include/c++/10.2.1/bits/char_traits.h ****       typedef typename _Char_types<_CharT>::off_type    off_type;
  96:/home/hubert/daisy/gcc/arm-none-eabi/include/c++/10.2.1/bits/char_traits.h ****       typedef typename _Char_types<_CharT>::state_type  state_type;
ARM GAS  /tmp/ccIWsbgU.s 			page 38


  97:/home/hubert/daisy/gcc/arm-none-eabi/include/c++/10.2.1/bits/char_traits.h **** #if __cpp_lib_three_way_comparison
  98:/home/hubert/daisy/gcc/arm-none-eabi/include/c++/10.2.1/bits/char_traits.h ****       using comparison_category = std::strong_ordering;
  99:/home/hubert/daisy/gcc/arm-none-eabi/include/c++/10.2.1/bits/char_traits.h **** #endif
 100:/home/hubert/daisy/gcc/arm-none-eabi/include/c++/10.2.1/bits/char_traits.h **** 
 101:/home/hubert/daisy/gcc/arm-none-eabi/include/c++/10.2.1/bits/char_traits.h ****       static _GLIBCXX14_CONSTEXPR void
 102:/home/hubert/daisy/gcc/arm-none-eabi/include/c++/10.2.1/bits/char_traits.h ****       assign(char_type& __c1, const char_type& __c2)
 103:/home/hubert/daisy/gcc/arm-none-eabi/include/c++/10.2.1/bits/char_traits.h ****       { __c1 = __c2; }
 104:/home/hubert/daisy/gcc/arm-none-eabi/include/c++/10.2.1/bits/char_traits.h **** 
 105:/home/hubert/daisy/gcc/arm-none-eabi/include/c++/10.2.1/bits/char_traits.h ****       static _GLIBCXX_CONSTEXPR bool
 106:/home/hubert/daisy/gcc/arm-none-eabi/include/c++/10.2.1/bits/char_traits.h ****       eq(const char_type& __c1, const char_type& __c2)
 107:/home/hubert/daisy/gcc/arm-none-eabi/include/c++/10.2.1/bits/char_traits.h ****       { return __c1 == __c2; }
 108:/home/hubert/daisy/gcc/arm-none-eabi/include/c++/10.2.1/bits/char_traits.h **** 
 109:/home/hubert/daisy/gcc/arm-none-eabi/include/c++/10.2.1/bits/char_traits.h ****       static _GLIBCXX_CONSTEXPR bool
 110:/home/hubert/daisy/gcc/arm-none-eabi/include/c++/10.2.1/bits/char_traits.h ****       lt(const char_type& __c1, const char_type& __c2)
 111:/home/hubert/daisy/gcc/arm-none-eabi/include/c++/10.2.1/bits/char_traits.h ****       { return __c1 < __c2; }
 112:/home/hubert/daisy/gcc/arm-none-eabi/include/c++/10.2.1/bits/char_traits.h **** 
 113:/home/hubert/daisy/gcc/arm-none-eabi/include/c++/10.2.1/bits/char_traits.h ****       static _GLIBCXX14_CONSTEXPR int
 114:/home/hubert/daisy/gcc/arm-none-eabi/include/c++/10.2.1/bits/char_traits.h ****       compare(const char_type* __s1, const char_type* __s2, std::size_t __n);
 115:/home/hubert/daisy/gcc/arm-none-eabi/include/c++/10.2.1/bits/char_traits.h **** 
 116:/home/hubert/daisy/gcc/arm-none-eabi/include/c++/10.2.1/bits/char_traits.h ****       static _GLIBCXX14_CONSTEXPR std::size_t
 117:/home/hubert/daisy/gcc/arm-none-eabi/include/c++/10.2.1/bits/char_traits.h ****       length(const char_type* __s);
 118:/home/hubert/daisy/gcc/arm-none-eabi/include/c++/10.2.1/bits/char_traits.h **** 
 119:/home/hubert/daisy/gcc/arm-none-eabi/include/c++/10.2.1/bits/char_traits.h ****       static _GLIBCXX14_CONSTEXPR const char_type*
 120:/home/hubert/daisy/gcc/arm-none-eabi/include/c++/10.2.1/bits/char_traits.h ****       find(const char_type* __s, std::size_t __n, const char_type& __a);
 121:/home/hubert/daisy/gcc/arm-none-eabi/include/c++/10.2.1/bits/char_traits.h **** 
 122:/home/hubert/daisy/gcc/arm-none-eabi/include/c++/10.2.1/bits/char_traits.h ****       static _GLIBCXX20_CONSTEXPR char_type*
 123:/home/hubert/daisy/gcc/arm-none-eabi/include/c++/10.2.1/bits/char_traits.h ****       move(char_type* __s1, const char_type* __s2, std::size_t __n);
 124:/home/hubert/daisy/gcc/arm-none-eabi/include/c++/10.2.1/bits/char_traits.h **** 
 125:/home/hubert/daisy/gcc/arm-none-eabi/include/c++/10.2.1/bits/char_traits.h ****       static _GLIBCXX20_CONSTEXPR char_type*
 126:/home/hubert/daisy/gcc/arm-none-eabi/include/c++/10.2.1/bits/char_traits.h ****       copy(char_type* __s1, const char_type* __s2, std::size_t __n);
 127:/home/hubert/daisy/gcc/arm-none-eabi/include/c++/10.2.1/bits/char_traits.h **** 
 128:/home/hubert/daisy/gcc/arm-none-eabi/include/c++/10.2.1/bits/char_traits.h ****       static _GLIBCXX20_CONSTEXPR char_type*
 129:/home/hubert/daisy/gcc/arm-none-eabi/include/c++/10.2.1/bits/char_traits.h ****       assign(char_type* __s, std::size_t __n, char_type __a);
 130:/home/hubert/daisy/gcc/arm-none-eabi/include/c++/10.2.1/bits/char_traits.h **** 
 131:/home/hubert/daisy/gcc/arm-none-eabi/include/c++/10.2.1/bits/char_traits.h ****       static _GLIBCXX_CONSTEXPR char_type
 132:/home/hubert/daisy/gcc/arm-none-eabi/include/c++/10.2.1/bits/char_traits.h ****       to_char_type(const int_type& __c)
 133:/home/hubert/daisy/gcc/arm-none-eabi/include/c++/10.2.1/bits/char_traits.h ****       { return static_cast<char_type>(__c); }
 134:/home/hubert/daisy/gcc/arm-none-eabi/include/c++/10.2.1/bits/char_traits.h **** 
 135:/home/hubert/daisy/gcc/arm-none-eabi/include/c++/10.2.1/bits/char_traits.h ****       static _GLIBCXX_CONSTEXPR int_type
 136:/home/hubert/daisy/gcc/arm-none-eabi/include/c++/10.2.1/bits/char_traits.h ****       to_int_type(const char_type& __c)
 137:/home/hubert/daisy/gcc/arm-none-eabi/include/c++/10.2.1/bits/char_traits.h ****       { return static_cast<int_type>(__c); }
 138:/home/hubert/daisy/gcc/arm-none-eabi/include/c++/10.2.1/bits/char_traits.h **** 
 139:/home/hubert/daisy/gcc/arm-none-eabi/include/c++/10.2.1/bits/char_traits.h ****       static _GLIBCXX_CONSTEXPR bool
 140:/home/hubert/daisy/gcc/arm-none-eabi/include/c++/10.2.1/bits/char_traits.h ****       eq_int_type(const int_type& __c1, const int_type& __c2)
 141:/home/hubert/daisy/gcc/arm-none-eabi/include/c++/10.2.1/bits/char_traits.h ****       { return __c1 == __c2; }
 142:/home/hubert/daisy/gcc/arm-none-eabi/include/c++/10.2.1/bits/char_traits.h **** 
 143:/home/hubert/daisy/gcc/arm-none-eabi/include/c++/10.2.1/bits/char_traits.h ****       static _GLIBCXX_CONSTEXPR int_type
 144:/home/hubert/daisy/gcc/arm-none-eabi/include/c++/10.2.1/bits/char_traits.h ****       eof()
 145:/home/hubert/daisy/gcc/arm-none-eabi/include/c++/10.2.1/bits/char_traits.h ****       { return static_cast<int_type>(_GLIBCXX_STDIO_EOF); }
 146:/home/hubert/daisy/gcc/arm-none-eabi/include/c++/10.2.1/bits/char_traits.h **** 
 147:/home/hubert/daisy/gcc/arm-none-eabi/include/c++/10.2.1/bits/char_traits.h ****       static _GLIBCXX_CONSTEXPR int_type
 148:/home/hubert/daisy/gcc/arm-none-eabi/include/c++/10.2.1/bits/char_traits.h ****       not_eof(const int_type& __c)
 149:/home/hubert/daisy/gcc/arm-none-eabi/include/c++/10.2.1/bits/char_traits.h ****       { return !eq_int_type(__c, eof()) ? __c : to_int_type(char_type()); }
 150:/home/hubert/daisy/gcc/arm-none-eabi/include/c++/10.2.1/bits/char_traits.h ****     };
 151:/home/hubert/daisy/gcc/arm-none-eabi/include/c++/10.2.1/bits/char_traits.h **** 
 152:/home/hubert/daisy/gcc/arm-none-eabi/include/c++/10.2.1/bits/char_traits.h ****   template<typename _CharT>
 153:/home/hubert/daisy/gcc/arm-none-eabi/include/c++/10.2.1/bits/char_traits.h ****     _GLIBCXX14_CONSTEXPR int
ARM GAS  /tmp/ccIWsbgU.s 			page 39


 154:/home/hubert/daisy/gcc/arm-none-eabi/include/c++/10.2.1/bits/char_traits.h ****     char_traits<_CharT>::
 155:/home/hubert/daisy/gcc/arm-none-eabi/include/c++/10.2.1/bits/char_traits.h ****     compare(const char_type* __s1, const char_type* __s2, std::size_t __n)
 156:/home/hubert/daisy/gcc/arm-none-eabi/include/c++/10.2.1/bits/char_traits.h ****     {
 157:/home/hubert/daisy/gcc/arm-none-eabi/include/c++/10.2.1/bits/char_traits.h ****       for (std::size_t __i = 0; __i < __n; ++__i)
 158:/home/hubert/daisy/gcc/arm-none-eabi/include/c++/10.2.1/bits/char_traits.h **** 	if (lt(__s1[__i], __s2[__i]))
 159:/home/hubert/daisy/gcc/arm-none-eabi/include/c++/10.2.1/bits/char_traits.h **** 	  return -1;
 160:/home/hubert/daisy/gcc/arm-none-eabi/include/c++/10.2.1/bits/char_traits.h **** 	else if (lt(__s2[__i], __s1[__i]))
 161:/home/hubert/daisy/gcc/arm-none-eabi/include/c++/10.2.1/bits/char_traits.h **** 	  return 1;
 162:/home/hubert/daisy/gcc/arm-none-eabi/include/c++/10.2.1/bits/char_traits.h ****       return 0;
 163:/home/hubert/daisy/gcc/arm-none-eabi/include/c++/10.2.1/bits/char_traits.h ****     }
 164:/home/hubert/daisy/gcc/arm-none-eabi/include/c++/10.2.1/bits/char_traits.h **** 
 165:/home/hubert/daisy/gcc/arm-none-eabi/include/c++/10.2.1/bits/char_traits.h ****   template<typename _CharT>
 166:/home/hubert/daisy/gcc/arm-none-eabi/include/c++/10.2.1/bits/char_traits.h ****     _GLIBCXX14_CONSTEXPR std::size_t
 167:/home/hubert/daisy/gcc/arm-none-eabi/include/c++/10.2.1/bits/char_traits.h ****     char_traits<_CharT>::
 168:/home/hubert/daisy/gcc/arm-none-eabi/include/c++/10.2.1/bits/char_traits.h ****     length(const char_type* __p)
 169:/home/hubert/daisy/gcc/arm-none-eabi/include/c++/10.2.1/bits/char_traits.h ****     {
 170:/home/hubert/daisy/gcc/arm-none-eabi/include/c++/10.2.1/bits/char_traits.h ****       std::size_t __i = 0;
 171:/home/hubert/daisy/gcc/arm-none-eabi/include/c++/10.2.1/bits/char_traits.h ****       while (!eq(__p[__i], char_type()))
 172:/home/hubert/daisy/gcc/arm-none-eabi/include/c++/10.2.1/bits/char_traits.h ****         ++__i;
 173:/home/hubert/daisy/gcc/arm-none-eabi/include/c++/10.2.1/bits/char_traits.h ****       return __i;
 174:/home/hubert/daisy/gcc/arm-none-eabi/include/c++/10.2.1/bits/char_traits.h ****     }
 175:/home/hubert/daisy/gcc/arm-none-eabi/include/c++/10.2.1/bits/char_traits.h **** 
 176:/home/hubert/daisy/gcc/arm-none-eabi/include/c++/10.2.1/bits/char_traits.h ****   template<typename _CharT>
 177:/home/hubert/daisy/gcc/arm-none-eabi/include/c++/10.2.1/bits/char_traits.h ****     _GLIBCXX14_CONSTEXPR const typename char_traits<_CharT>::char_type*
 178:/home/hubert/daisy/gcc/arm-none-eabi/include/c++/10.2.1/bits/char_traits.h ****     char_traits<_CharT>::
 179:/home/hubert/daisy/gcc/arm-none-eabi/include/c++/10.2.1/bits/char_traits.h ****     find(const char_type* __s, std::size_t __n, const char_type& __a)
 180:/home/hubert/daisy/gcc/arm-none-eabi/include/c++/10.2.1/bits/char_traits.h ****     {
 181:/home/hubert/daisy/gcc/arm-none-eabi/include/c++/10.2.1/bits/char_traits.h ****       for (std::size_t __i = 0; __i < __n; ++__i)
 182:/home/hubert/daisy/gcc/arm-none-eabi/include/c++/10.2.1/bits/char_traits.h ****         if (eq(__s[__i], __a))
 183:/home/hubert/daisy/gcc/arm-none-eabi/include/c++/10.2.1/bits/char_traits.h ****           return __s + __i;
 184:/home/hubert/daisy/gcc/arm-none-eabi/include/c++/10.2.1/bits/char_traits.h ****       return 0;
 185:/home/hubert/daisy/gcc/arm-none-eabi/include/c++/10.2.1/bits/char_traits.h ****     }
 186:/home/hubert/daisy/gcc/arm-none-eabi/include/c++/10.2.1/bits/char_traits.h **** 
 187:/home/hubert/daisy/gcc/arm-none-eabi/include/c++/10.2.1/bits/char_traits.h ****   template<typename _CharT>
 188:/home/hubert/daisy/gcc/arm-none-eabi/include/c++/10.2.1/bits/char_traits.h ****     _GLIBCXX20_CONSTEXPR
 189:/home/hubert/daisy/gcc/arm-none-eabi/include/c++/10.2.1/bits/char_traits.h ****     typename char_traits<_CharT>::char_type*
 190:/home/hubert/daisy/gcc/arm-none-eabi/include/c++/10.2.1/bits/char_traits.h ****     char_traits<_CharT>::
 191:/home/hubert/daisy/gcc/arm-none-eabi/include/c++/10.2.1/bits/char_traits.h ****     move(char_type* __s1, const char_type* __s2, std::size_t __n)
 192:/home/hubert/daisy/gcc/arm-none-eabi/include/c++/10.2.1/bits/char_traits.h ****     {
 193:/home/hubert/daisy/gcc/arm-none-eabi/include/c++/10.2.1/bits/char_traits.h ****       if (__n == 0)
 194:/home/hubert/daisy/gcc/arm-none-eabi/include/c++/10.2.1/bits/char_traits.h **** 	return __s1;
 195:/home/hubert/daisy/gcc/arm-none-eabi/include/c++/10.2.1/bits/char_traits.h **** #ifdef __cpp_lib_is_constant_evaluated
 196:/home/hubert/daisy/gcc/arm-none-eabi/include/c++/10.2.1/bits/char_traits.h ****       if (std::is_constant_evaluated())
 197:/home/hubert/daisy/gcc/arm-none-eabi/include/c++/10.2.1/bits/char_traits.h **** 	{
 198:/home/hubert/daisy/gcc/arm-none-eabi/include/c++/10.2.1/bits/char_traits.h **** 	  if (__s1 > __s2 && __s1 < __s2 + __n)
 199:/home/hubert/daisy/gcc/arm-none-eabi/include/c++/10.2.1/bits/char_traits.h **** 	    std::copy_backward(__s2, __s2 + __n, __s1);
 200:/home/hubert/daisy/gcc/arm-none-eabi/include/c++/10.2.1/bits/char_traits.h **** 	  else
 201:/home/hubert/daisy/gcc/arm-none-eabi/include/c++/10.2.1/bits/char_traits.h **** 	    std::copy(__s2, __s2 + __n, __s1);
 202:/home/hubert/daisy/gcc/arm-none-eabi/include/c++/10.2.1/bits/char_traits.h **** 	  return __s1;
 203:/home/hubert/daisy/gcc/arm-none-eabi/include/c++/10.2.1/bits/char_traits.h **** 	}
 204:/home/hubert/daisy/gcc/arm-none-eabi/include/c++/10.2.1/bits/char_traits.h **** #endif
 205:/home/hubert/daisy/gcc/arm-none-eabi/include/c++/10.2.1/bits/char_traits.h ****       return static_cast<_CharT*>(__builtin_memmove(__s1, __s2,
 206:/home/hubert/daisy/gcc/arm-none-eabi/include/c++/10.2.1/bits/char_traits.h **** 						    __n * sizeof(char_type)));
 207:/home/hubert/daisy/gcc/arm-none-eabi/include/c++/10.2.1/bits/char_traits.h ****     }
 208:/home/hubert/daisy/gcc/arm-none-eabi/include/c++/10.2.1/bits/char_traits.h **** 
 209:/home/hubert/daisy/gcc/arm-none-eabi/include/c++/10.2.1/bits/char_traits.h ****   template<typename _CharT>
 210:/home/hubert/daisy/gcc/arm-none-eabi/include/c++/10.2.1/bits/char_traits.h ****     _GLIBCXX20_CONSTEXPR
ARM GAS  /tmp/ccIWsbgU.s 			page 40


 211:/home/hubert/daisy/gcc/arm-none-eabi/include/c++/10.2.1/bits/char_traits.h ****     typename char_traits<_CharT>::char_type*
 212:/home/hubert/daisy/gcc/arm-none-eabi/include/c++/10.2.1/bits/char_traits.h ****     char_traits<_CharT>::
 213:/home/hubert/daisy/gcc/arm-none-eabi/include/c++/10.2.1/bits/char_traits.h ****     copy(char_type* __s1, const char_type* __s2, std::size_t __n)
 214:/home/hubert/daisy/gcc/arm-none-eabi/include/c++/10.2.1/bits/char_traits.h ****     {
 215:/home/hubert/daisy/gcc/arm-none-eabi/include/c++/10.2.1/bits/char_traits.h ****       // NB: Inline std::copy so no recursive dependencies.
 216:/home/hubert/daisy/gcc/arm-none-eabi/include/c++/10.2.1/bits/char_traits.h ****       std::copy(__s2, __s2 + __n, __s1);
 217:/home/hubert/daisy/gcc/arm-none-eabi/include/c++/10.2.1/bits/char_traits.h ****       return __s1;
 218:/home/hubert/daisy/gcc/arm-none-eabi/include/c++/10.2.1/bits/char_traits.h ****     }
 219:/home/hubert/daisy/gcc/arm-none-eabi/include/c++/10.2.1/bits/char_traits.h **** 
 220:/home/hubert/daisy/gcc/arm-none-eabi/include/c++/10.2.1/bits/char_traits.h ****   template<typename _CharT>
 221:/home/hubert/daisy/gcc/arm-none-eabi/include/c++/10.2.1/bits/char_traits.h ****     _GLIBCXX20_CONSTEXPR
 222:/home/hubert/daisy/gcc/arm-none-eabi/include/c++/10.2.1/bits/char_traits.h ****     typename char_traits<_CharT>::char_type*
 223:/home/hubert/daisy/gcc/arm-none-eabi/include/c++/10.2.1/bits/char_traits.h ****     char_traits<_CharT>::
 224:/home/hubert/daisy/gcc/arm-none-eabi/include/c++/10.2.1/bits/char_traits.h ****     assign(char_type* __s, std::size_t __n, char_type __a)
 225:/home/hubert/daisy/gcc/arm-none-eabi/include/c++/10.2.1/bits/char_traits.h ****     {
 226:/home/hubert/daisy/gcc/arm-none-eabi/include/c++/10.2.1/bits/char_traits.h ****       // NB: Inline std::fill_n so no recursive dependencies.
 227:/home/hubert/daisy/gcc/arm-none-eabi/include/c++/10.2.1/bits/char_traits.h ****       std::fill_n(__s, __n, __a);
 228:/home/hubert/daisy/gcc/arm-none-eabi/include/c++/10.2.1/bits/char_traits.h ****       return __s;
 229:/home/hubert/daisy/gcc/arm-none-eabi/include/c++/10.2.1/bits/char_traits.h ****     }
 230:/home/hubert/daisy/gcc/arm-none-eabi/include/c++/10.2.1/bits/char_traits.h **** 
 231:/home/hubert/daisy/gcc/arm-none-eabi/include/c++/10.2.1/bits/char_traits.h **** _GLIBCXX_END_NAMESPACE_VERSION
 232:/home/hubert/daisy/gcc/arm-none-eabi/include/c++/10.2.1/bits/char_traits.h **** } // namespace
 233:/home/hubert/daisy/gcc/arm-none-eabi/include/c++/10.2.1/bits/char_traits.h **** 
 234:/home/hubert/daisy/gcc/arm-none-eabi/include/c++/10.2.1/bits/char_traits.h **** namespace std _GLIBCXX_VISIBILITY(default)
 235:/home/hubert/daisy/gcc/arm-none-eabi/include/c++/10.2.1/bits/char_traits.h **** {
 236:/home/hubert/daisy/gcc/arm-none-eabi/include/c++/10.2.1/bits/char_traits.h **** _GLIBCXX_BEGIN_NAMESPACE_VERSION
 237:/home/hubert/daisy/gcc/arm-none-eabi/include/c++/10.2.1/bits/char_traits.h **** 
 238:/home/hubert/daisy/gcc/arm-none-eabi/include/c++/10.2.1/bits/char_traits.h **** #if __cplusplus >= 201703L
 239:/home/hubert/daisy/gcc/arm-none-eabi/include/c++/10.2.1/bits/char_traits.h **** #define __cpp_lib_constexpr_char_traits 201611
 240:/home/hubert/daisy/gcc/arm-none-eabi/include/c++/10.2.1/bits/char_traits.h **** 
 241:/home/hubert/daisy/gcc/arm-none-eabi/include/c++/10.2.1/bits/char_traits.h ****   /**
 242:/home/hubert/daisy/gcc/arm-none-eabi/include/c++/10.2.1/bits/char_traits.h ****    *  @brief Determine whether the characters of a NULL-terminated
 243:/home/hubert/daisy/gcc/arm-none-eabi/include/c++/10.2.1/bits/char_traits.h ****    *  string are known at compile time.
 244:/home/hubert/daisy/gcc/arm-none-eabi/include/c++/10.2.1/bits/char_traits.h ****    *  @param  __s  The string.
 245:/home/hubert/daisy/gcc/arm-none-eabi/include/c++/10.2.1/bits/char_traits.h ****    *
 246:/home/hubert/daisy/gcc/arm-none-eabi/include/c++/10.2.1/bits/char_traits.h ****    *  Assumes that _CharT is a built-in character type.
 247:/home/hubert/daisy/gcc/arm-none-eabi/include/c++/10.2.1/bits/char_traits.h ****    */
 248:/home/hubert/daisy/gcc/arm-none-eabi/include/c++/10.2.1/bits/char_traits.h ****   template<typename _CharT>
 249:/home/hubert/daisy/gcc/arm-none-eabi/include/c++/10.2.1/bits/char_traits.h ****     static _GLIBCXX_ALWAYS_INLINE constexpr bool
 250:/home/hubert/daisy/gcc/arm-none-eabi/include/c++/10.2.1/bits/char_traits.h ****     __constant_string_p(const _CharT* __s)
 251:/home/hubert/daisy/gcc/arm-none-eabi/include/c++/10.2.1/bits/char_traits.h ****     {
 252:/home/hubert/daisy/gcc/arm-none-eabi/include/c++/10.2.1/bits/char_traits.h **** #ifdef _GLIBCXX_HAVE_BUILTIN_IS_CONSTANT_EVALUATED
 253:/home/hubert/daisy/gcc/arm-none-eabi/include/c++/10.2.1/bits/char_traits.h ****       (void) __s;
 254:/home/hubert/daisy/gcc/arm-none-eabi/include/c++/10.2.1/bits/char_traits.h ****       // In constexpr contexts all strings should be constant.
 255:/home/hubert/daisy/gcc/arm-none-eabi/include/c++/10.2.1/bits/char_traits.h ****       return __builtin_is_constant_evaluated();
 256:/home/hubert/daisy/gcc/arm-none-eabi/include/c++/10.2.1/bits/char_traits.h **** #else
 257:/home/hubert/daisy/gcc/arm-none-eabi/include/c++/10.2.1/bits/char_traits.h ****       while (__builtin_constant_p(*__s) && *__s)
 258:/home/hubert/daisy/gcc/arm-none-eabi/include/c++/10.2.1/bits/char_traits.h **** 	__s++;
 259:/home/hubert/daisy/gcc/arm-none-eabi/include/c++/10.2.1/bits/char_traits.h ****       return __builtin_constant_p(*__s);
 260:/home/hubert/daisy/gcc/arm-none-eabi/include/c++/10.2.1/bits/char_traits.h **** #endif
 261:/home/hubert/daisy/gcc/arm-none-eabi/include/c++/10.2.1/bits/char_traits.h ****     }
 262:/home/hubert/daisy/gcc/arm-none-eabi/include/c++/10.2.1/bits/char_traits.h **** 
 263:/home/hubert/daisy/gcc/arm-none-eabi/include/c++/10.2.1/bits/char_traits.h ****   /**
 264:/home/hubert/daisy/gcc/arm-none-eabi/include/c++/10.2.1/bits/char_traits.h ****    *  @brief Determine whether the characters of a character array are
 265:/home/hubert/daisy/gcc/arm-none-eabi/include/c++/10.2.1/bits/char_traits.h ****    *  known at compile time.
 266:/home/hubert/daisy/gcc/arm-none-eabi/include/c++/10.2.1/bits/char_traits.h ****    *  @param  __a  The character array.
 267:/home/hubert/daisy/gcc/arm-none-eabi/include/c++/10.2.1/bits/char_traits.h ****    *  @param  __n  Number of characters.
ARM GAS  /tmp/ccIWsbgU.s 			page 41


 268:/home/hubert/daisy/gcc/arm-none-eabi/include/c++/10.2.1/bits/char_traits.h ****    *
 269:/home/hubert/daisy/gcc/arm-none-eabi/include/c++/10.2.1/bits/char_traits.h ****    *  Assumes that _CharT is a built-in character type.
 270:/home/hubert/daisy/gcc/arm-none-eabi/include/c++/10.2.1/bits/char_traits.h ****    */
 271:/home/hubert/daisy/gcc/arm-none-eabi/include/c++/10.2.1/bits/char_traits.h ****   template<typename _CharT>
 272:/home/hubert/daisy/gcc/arm-none-eabi/include/c++/10.2.1/bits/char_traits.h ****     static _GLIBCXX_ALWAYS_INLINE constexpr bool
 273:/home/hubert/daisy/gcc/arm-none-eabi/include/c++/10.2.1/bits/char_traits.h ****     __constant_char_array_p(const _CharT* __a, size_t __n)
 274:/home/hubert/daisy/gcc/arm-none-eabi/include/c++/10.2.1/bits/char_traits.h ****     {
 275:/home/hubert/daisy/gcc/arm-none-eabi/include/c++/10.2.1/bits/char_traits.h **** #ifdef _GLIBCXX_HAVE_BUILTIN_IS_CONSTANT_EVALUATED
 276:/home/hubert/daisy/gcc/arm-none-eabi/include/c++/10.2.1/bits/char_traits.h ****       (void) __a;
 277:/home/hubert/daisy/gcc/arm-none-eabi/include/c++/10.2.1/bits/char_traits.h ****       (void) __n;
 278:/home/hubert/daisy/gcc/arm-none-eabi/include/c++/10.2.1/bits/char_traits.h ****       // In constexpr contexts all character arrays should be constant.
 279:/home/hubert/daisy/gcc/arm-none-eabi/include/c++/10.2.1/bits/char_traits.h ****       return __builtin_is_constant_evaluated();
 280:/home/hubert/daisy/gcc/arm-none-eabi/include/c++/10.2.1/bits/char_traits.h **** #else
 281:/home/hubert/daisy/gcc/arm-none-eabi/include/c++/10.2.1/bits/char_traits.h ****       size_t __i = 0;
 282:/home/hubert/daisy/gcc/arm-none-eabi/include/c++/10.2.1/bits/char_traits.h ****       while (__i < __n && __builtin_constant_p(__a[__i]))
 283:/home/hubert/daisy/gcc/arm-none-eabi/include/c++/10.2.1/bits/char_traits.h **** 	__i++;
 284:/home/hubert/daisy/gcc/arm-none-eabi/include/c++/10.2.1/bits/char_traits.h ****       return __i == __n;
 285:/home/hubert/daisy/gcc/arm-none-eabi/include/c++/10.2.1/bits/char_traits.h **** #endif
 286:/home/hubert/daisy/gcc/arm-none-eabi/include/c++/10.2.1/bits/char_traits.h ****     }
 287:/home/hubert/daisy/gcc/arm-none-eabi/include/c++/10.2.1/bits/char_traits.h **** #endif
 288:/home/hubert/daisy/gcc/arm-none-eabi/include/c++/10.2.1/bits/char_traits.h **** 
 289:/home/hubert/daisy/gcc/arm-none-eabi/include/c++/10.2.1/bits/char_traits.h ****   // 21.1
 290:/home/hubert/daisy/gcc/arm-none-eabi/include/c++/10.2.1/bits/char_traits.h ****   /**
 291:/home/hubert/daisy/gcc/arm-none-eabi/include/c++/10.2.1/bits/char_traits.h ****    *  @brief  Basis for explicit traits specializations.
 292:/home/hubert/daisy/gcc/arm-none-eabi/include/c++/10.2.1/bits/char_traits.h ****    *
 293:/home/hubert/daisy/gcc/arm-none-eabi/include/c++/10.2.1/bits/char_traits.h ****    *  @note  For any given actual character type, this definition is
 294:/home/hubert/daisy/gcc/arm-none-eabi/include/c++/10.2.1/bits/char_traits.h ****    *  probably wrong.  Since this is just a thin wrapper around
 295:/home/hubert/daisy/gcc/arm-none-eabi/include/c++/10.2.1/bits/char_traits.h ****    *  __gnu_cxx::char_traits, it is possible to achieve a more
 296:/home/hubert/daisy/gcc/arm-none-eabi/include/c++/10.2.1/bits/char_traits.h ****    *  appropriate definition by specializing __gnu_cxx::char_traits.
 297:/home/hubert/daisy/gcc/arm-none-eabi/include/c++/10.2.1/bits/char_traits.h ****    *
 298:/home/hubert/daisy/gcc/arm-none-eabi/include/c++/10.2.1/bits/char_traits.h ****    *  See https://gcc.gnu.org/onlinedocs/libstdc++/manual/strings.html#strings.string.character_typ
 299:/home/hubert/daisy/gcc/arm-none-eabi/include/c++/10.2.1/bits/char_traits.h ****    *  for advice on how to make use of this class for @a unusual character
 300:/home/hubert/daisy/gcc/arm-none-eabi/include/c++/10.2.1/bits/char_traits.h ****    *  types. Also, check out include/ext/pod_char_traits.h.
 301:/home/hubert/daisy/gcc/arm-none-eabi/include/c++/10.2.1/bits/char_traits.h ****   */
 302:/home/hubert/daisy/gcc/arm-none-eabi/include/c++/10.2.1/bits/char_traits.h ****   template<class _CharT>
 303:/home/hubert/daisy/gcc/arm-none-eabi/include/c++/10.2.1/bits/char_traits.h ****     struct char_traits : public __gnu_cxx::char_traits<_CharT>
 304:/home/hubert/daisy/gcc/arm-none-eabi/include/c++/10.2.1/bits/char_traits.h ****     { };
 305:/home/hubert/daisy/gcc/arm-none-eabi/include/c++/10.2.1/bits/char_traits.h **** 
 306:/home/hubert/daisy/gcc/arm-none-eabi/include/c++/10.2.1/bits/char_traits.h **** 
 307:/home/hubert/daisy/gcc/arm-none-eabi/include/c++/10.2.1/bits/char_traits.h ****   /// 21.1.3.1  char_traits specializations
 308:/home/hubert/daisy/gcc/arm-none-eabi/include/c++/10.2.1/bits/char_traits.h ****   template<>
 309:/home/hubert/daisy/gcc/arm-none-eabi/include/c++/10.2.1/bits/char_traits.h ****     struct char_traits<char>
 310:/home/hubert/daisy/gcc/arm-none-eabi/include/c++/10.2.1/bits/char_traits.h ****     {
 311:/home/hubert/daisy/gcc/arm-none-eabi/include/c++/10.2.1/bits/char_traits.h ****       typedef char              char_type;
 312:/home/hubert/daisy/gcc/arm-none-eabi/include/c++/10.2.1/bits/char_traits.h ****       typedef int               int_type;
 313:/home/hubert/daisy/gcc/arm-none-eabi/include/c++/10.2.1/bits/char_traits.h ****       typedef streampos         pos_type;
 314:/home/hubert/daisy/gcc/arm-none-eabi/include/c++/10.2.1/bits/char_traits.h ****       typedef streamoff         off_type;
 315:/home/hubert/daisy/gcc/arm-none-eabi/include/c++/10.2.1/bits/char_traits.h ****       typedef mbstate_t         state_type;
 316:/home/hubert/daisy/gcc/arm-none-eabi/include/c++/10.2.1/bits/char_traits.h **** #if __cpp_lib_three_way_comparison
 317:/home/hubert/daisy/gcc/arm-none-eabi/include/c++/10.2.1/bits/char_traits.h ****       using comparison_category = strong_ordering;
 318:/home/hubert/daisy/gcc/arm-none-eabi/include/c++/10.2.1/bits/char_traits.h **** #endif
 319:/home/hubert/daisy/gcc/arm-none-eabi/include/c++/10.2.1/bits/char_traits.h **** 
 320:/home/hubert/daisy/gcc/arm-none-eabi/include/c++/10.2.1/bits/char_traits.h ****       static _GLIBCXX17_CONSTEXPR void
 321:/home/hubert/daisy/gcc/arm-none-eabi/include/c++/10.2.1/bits/char_traits.h ****       assign(char_type& __c1, const char_type& __c2) _GLIBCXX_NOEXCEPT
 322:/home/hubert/daisy/gcc/arm-none-eabi/include/c++/10.2.1/bits/char_traits.h ****       { __c1 = __c2; }
 323:/home/hubert/daisy/gcc/arm-none-eabi/include/c++/10.2.1/bits/char_traits.h **** 
 324:/home/hubert/daisy/gcc/arm-none-eabi/include/c++/10.2.1/bits/char_traits.h ****       static _GLIBCXX_CONSTEXPR bool
ARM GAS  /tmp/ccIWsbgU.s 			page 42


 325:/home/hubert/daisy/gcc/arm-none-eabi/include/c++/10.2.1/bits/char_traits.h ****       eq(const char_type& __c1, const char_type& __c2) _GLIBCXX_NOEXCEPT
 326:/home/hubert/daisy/gcc/arm-none-eabi/include/c++/10.2.1/bits/char_traits.h ****       { return __c1 == __c2; }
 327:/home/hubert/daisy/gcc/arm-none-eabi/include/c++/10.2.1/bits/char_traits.h **** 
 328:/home/hubert/daisy/gcc/arm-none-eabi/include/c++/10.2.1/bits/char_traits.h ****       static _GLIBCXX_CONSTEXPR bool
 329:/home/hubert/daisy/gcc/arm-none-eabi/include/c++/10.2.1/bits/char_traits.h ****       lt(const char_type& __c1, const char_type& __c2) _GLIBCXX_NOEXCEPT
 330:/home/hubert/daisy/gcc/arm-none-eabi/include/c++/10.2.1/bits/char_traits.h ****       {
 331:/home/hubert/daisy/gcc/arm-none-eabi/include/c++/10.2.1/bits/char_traits.h **** 	// LWG 467.
 332:/home/hubert/daisy/gcc/arm-none-eabi/include/c++/10.2.1/bits/char_traits.h **** 	return (static_cast<unsigned char>(__c1)
 333:/home/hubert/daisy/gcc/arm-none-eabi/include/c++/10.2.1/bits/char_traits.h **** 		< static_cast<unsigned char>(__c2));
 334:/home/hubert/daisy/gcc/arm-none-eabi/include/c++/10.2.1/bits/char_traits.h ****       }
 335:/home/hubert/daisy/gcc/arm-none-eabi/include/c++/10.2.1/bits/char_traits.h **** 
 336:/home/hubert/daisy/gcc/arm-none-eabi/include/c++/10.2.1/bits/char_traits.h ****       static _GLIBCXX17_CONSTEXPR int
 337:/home/hubert/daisy/gcc/arm-none-eabi/include/c++/10.2.1/bits/char_traits.h ****       compare(const char_type* __s1, const char_type* __s2, size_t __n)
 338:/home/hubert/daisy/gcc/arm-none-eabi/include/c++/10.2.1/bits/char_traits.h ****       {
 339:/home/hubert/daisy/gcc/arm-none-eabi/include/c++/10.2.1/bits/char_traits.h **** 	if (__n == 0)
 340:/home/hubert/daisy/gcc/arm-none-eabi/include/c++/10.2.1/bits/char_traits.h **** 	  return 0;
 341:/home/hubert/daisy/gcc/arm-none-eabi/include/c++/10.2.1/bits/char_traits.h **** #if __cplusplus >= 201703L
 342:/home/hubert/daisy/gcc/arm-none-eabi/include/c++/10.2.1/bits/char_traits.h **** 	if (__builtin_constant_p(__n)
 343:/home/hubert/daisy/gcc/arm-none-eabi/include/c++/10.2.1/bits/char_traits.h **** 	    && __constant_char_array_p(__s1, __n)
 344:/home/hubert/daisy/gcc/arm-none-eabi/include/c++/10.2.1/bits/char_traits.h **** 	    && __constant_char_array_p(__s2, __n))
 345:/home/hubert/daisy/gcc/arm-none-eabi/include/c++/10.2.1/bits/char_traits.h **** 	  return __gnu_cxx::char_traits<char_type>::compare(__s1, __s2, __n);
 346:/home/hubert/daisy/gcc/arm-none-eabi/include/c++/10.2.1/bits/char_traits.h **** #endif
 347:/home/hubert/daisy/gcc/arm-none-eabi/include/c++/10.2.1/bits/char_traits.h **** 	return __builtin_memcmp(__s1, __s2, __n);
 348:/home/hubert/daisy/gcc/arm-none-eabi/include/c++/10.2.1/bits/char_traits.h ****       }
 349:/home/hubert/daisy/gcc/arm-none-eabi/include/c++/10.2.1/bits/char_traits.h **** 
 350:/home/hubert/daisy/gcc/arm-none-eabi/include/c++/10.2.1/bits/char_traits.h ****       static _GLIBCXX17_CONSTEXPR size_t
 351:/home/hubert/daisy/gcc/arm-none-eabi/include/c++/10.2.1/bits/char_traits.h ****       length(const char_type* __s)
 192              		.loc 3 351 7
 193              		.cfi_startproc
 194              		@ args = 0, pretend = 0, frame = 8
 195              		@ frame_needed = 1, uses_anonymous_args = 0
 196 0000 80B5     		push	{r7, lr}
 197              		.cfi_def_cfa_offset 8
 198              		.cfi_offset 7, -8
 199              		.cfi_offset 14, -4
 200 0002 82B0     		sub	sp, sp, #8
 201              		.cfi_def_cfa_offset 16
 202 0004 00AF     		add	r7, sp, #0
 203              		.cfi_def_cfa_register 7
 204 0006 7860     		str	r0, [r7, #4]
 352:/home/hubert/daisy/gcc/arm-none-eabi/include/c++/10.2.1/bits/char_traits.h ****       {
 353:/home/hubert/daisy/gcc/arm-none-eabi/include/c++/10.2.1/bits/char_traits.h **** #if __cplusplus >= 201703L
 354:/home/hubert/daisy/gcc/arm-none-eabi/include/c++/10.2.1/bits/char_traits.h **** 	if (__constant_string_p(__s))
 355:/home/hubert/daisy/gcc/arm-none-eabi/include/c++/10.2.1/bits/char_traits.h **** 	  return __gnu_cxx::char_traits<char_type>::length(__s);
 356:/home/hubert/daisy/gcc/arm-none-eabi/include/c++/10.2.1/bits/char_traits.h **** #endif
 357:/home/hubert/daisy/gcc/arm-none-eabi/include/c++/10.2.1/bits/char_traits.h **** 	return __builtin_strlen(__s);
 205              		.loc 3 357 25
 206 0008 7868     		ldr	r0, [r7, #4]
 207 000a FFF7FEFF 		bl	strlen
 208 000e 0346     		mov	r3, r0
 358:/home/hubert/daisy/gcc/arm-none-eabi/include/c++/10.2.1/bits/char_traits.h ****       }
 209              		.loc 3 358 7
 210 0010 1846     		mov	r0, r3
 211 0012 0837     		adds	r7, r7, #8
 212              		.cfi_def_cfa_offset 8
 213 0014 BD46     		mov	sp, r7
 214              		.cfi_def_cfa_register 13
ARM GAS  /tmp/ccIWsbgU.s 			page 43


 215              		@ sp needed
 216 0016 80BD     		pop	{r7, pc}
 217              		.cfi_endproc
 218              	.LFE955:
 220              		.section	.text._ZL20__gthread_key_deletei,"ax",%progbits
 221              		.align	1
 222              		.syntax unified
 223              		.thumb
 224              		.thumb_func
 225              		.fpu fpv5-d16
 227              	_ZL20__gthread_key_deletei:
 228              	.LFB1232:
 229              		.file 4 "/home/hubert/daisy/gcc/arm-none-eabi/include/c++/10.2.1/arm-none-eabi/thumb/v7e-m+dp/hard
   1:/home/hubert/daisy/gcc/arm-none-eabi/include/c++/10.2.1/arm-none-eabi/thumb/v7e-m+dp/hard/bits/gthr-default.h **** /* Threads compatibility routines for libgcc2 and libobjc.  */
   2:/home/hubert/daisy/gcc/arm-none-eabi/include/c++/10.2.1/arm-none-eabi/thumb/v7e-m+dp/hard/bits/gthr-default.h **** /* Compile this one with gcc.  */
   3:/home/hubert/daisy/gcc/arm-none-eabi/include/c++/10.2.1/arm-none-eabi/thumb/v7e-m+dp/hard/bits/gthr-default.h **** /* Copyright (C) 1997-2020 Free Software Foundation, Inc.
   4:/home/hubert/daisy/gcc/arm-none-eabi/include/c++/10.2.1/arm-none-eabi/thumb/v7e-m+dp/hard/bits/gthr-default.h **** 
   5:/home/hubert/daisy/gcc/arm-none-eabi/include/c++/10.2.1/arm-none-eabi/thumb/v7e-m+dp/hard/bits/gthr-default.h **** This file is part of GCC.
   6:/home/hubert/daisy/gcc/arm-none-eabi/include/c++/10.2.1/arm-none-eabi/thumb/v7e-m+dp/hard/bits/gthr-default.h **** 
   7:/home/hubert/daisy/gcc/arm-none-eabi/include/c++/10.2.1/arm-none-eabi/thumb/v7e-m+dp/hard/bits/gthr-default.h **** GCC is free software; you can redistribute it and/or modify it under
   8:/home/hubert/daisy/gcc/arm-none-eabi/include/c++/10.2.1/arm-none-eabi/thumb/v7e-m+dp/hard/bits/gthr-default.h **** the terms of the GNU General Public License as published by the Free
   9:/home/hubert/daisy/gcc/arm-none-eabi/include/c++/10.2.1/arm-none-eabi/thumb/v7e-m+dp/hard/bits/gthr-default.h **** Software Foundation; either version 3, or (at your option) any later
  10:/home/hubert/daisy/gcc/arm-none-eabi/include/c++/10.2.1/arm-none-eabi/thumb/v7e-m+dp/hard/bits/gthr-default.h **** version.
  11:/home/hubert/daisy/gcc/arm-none-eabi/include/c++/10.2.1/arm-none-eabi/thumb/v7e-m+dp/hard/bits/gthr-default.h **** 
  12:/home/hubert/daisy/gcc/arm-none-eabi/include/c++/10.2.1/arm-none-eabi/thumb/v7e-m+dp/hard/bits/gthr-default.h **** GCC is distributed in the hope that it will be useful, but WITHOUT ANY
  13:/home/hubert/daisy/gcc/arm-none-eabi/include/c++/10.2.1/arm-none-eabi/thumb/v7e-m+dp/hard/bits/gthr-default.h **** WARRANTY; without even the implied warranty of MERCHANTABILITY or
  14:/home/hubert/daisy/gcc/arm-none-eabi/include/c++/10.2.1/arm-none-eabi/thumb/v7e-m+dp/hard/bits/gthr-default.h **** FITNESS FOR A PARTICULAR PURPOSE.  See the GNU General Public License
  15:/home/hubert/daisy/gcc/arm-none-eabi/include/c++/10.2.1/arm-none-eabi/thumb/v7e-m+dp/hard/bits/gthr-default.h **** for more details.
  16:/home/hubert/daisy/gcc/arm-none-eabi/include/c++/10.2.1/arm-none-eabi/thumb/v7e-m+dp/hard/bits/gthr-default.h **** 
  17:/home/hubert/daisy/gcc/arm-none-eabi/include/c++/10.2.1/arm-none-eabi/thumb/v7e-m+dp/hard/bits/gthr-default.h **** Under Section 7 of GPL version 3, you are granted additional
  18:/home/hubert/daisy/gcc/arm-none-eabi/include/c++/10.2.1/arm-none-eabi/thumb/v7e-m+dp/hard/bits/gthr-default.h **** permissions described in the GCC Runtime Library Exception, version
  19:/home/hubert/daisy/gcc/arm-none-eabi/include/c++/10.2.1/arm-none-eabi/thumb/v7e-m+dp/hard/bits/gthr-default.h **** 3.1, as published by the Free Software Foundation.
  20:/home/hubert/daisy/gcc/arm-none-eabi/include/c++/10.2.1/arm-none-eabi/thumb/v7e-m+dp/hard/bits/gthr-default.h **** 
  21:/home/hubert/daisy/gcc/arm-none-eabi/include/c++/10.2.1/arm-none-eabi/thumb/v7e-m+dp/hard/bits/gthr-default.h **** You should have received a copy of the GNU General Public License and
  22:/home/hubert/daisy/gcc/arm-none-eabi/include/c++/10.2.1/arm-none-eabi/thumb/v7e-m+dp/hard/bits/gthr-default.h **** a copy of the GCC Runtime Library Exception along with this program;
  23:/home/hubert/daisy/gcc/arm-none-eabi/include/c++/10.2.1/arm-none-eabi/thumb/v7e-m+dp/hard/bits/gthr-default.h **** see the files COPYING3 and COPYING.RUNTIME respectively.  If not, see
  24:/home/hubert/daisy/gcc/arm-none-eabi/include/c++/10.2.1/arm-none-eabi/thumb/v7e-m+dp/hard/bits/gthr-default.h **** <http://www.gnu.org/licenses/>.  */
  25:/home/hubert/daisy/gcc/arm-none-eabi/include/c++/10.2.1/arm-none-eabi/thumb/v7e-m+dp/hard/bits/gthr-default.h **** 
  26:/home/hubert/daisy/gcc/arm-none-eabi/include/c++/10.2.1/arm-none-eabi/thumb/v7e-m+dp/hard/bits/gthr-default.h **** #ifndef _GLIBCXX_GCC_GTHR_SINGLE_H
  27:/home/hubert/daisy/gcc/arm-none-eabi/include/c++/10.2.1/arm-none-eabi/thumb/v7e-m+dp/hard/bits/gthr-default.h **** #define _GLIBCXX_GCC_GTHR_SINGLE_H
  28:/home/hubert/daisy/gcc/arm-none-eabi/include/c++/10.2.1/arm-none-eabi/thumb/v7e-m+dp/hard/bits/gthr-default.h **** 
  29:/home/hubert/daisy/gcc/arm-none-eabi/include/c++/10.2.1/arm-none-eabi/thumb/v7e-m+dp/hard/bits/gthr-default.h **** /* Just provide compatibility for mutex handling.  */
  30:/home/hubert/daisy/gcc/arm-none-eabi/include/c++/10.2.1/arm-none-eabi/thumb/v7e-m+dp/hard/bits/gthr-default.h **** 
  31:/home/hubert/daisy/gcc/arm-none-eabi/include/c++/10.2.1/arm-none-eabi/thumb/v7e-m+dp/hard/bits/gthr-default.h **** typedef int __gthread_key_t;
  32:/home/hubert/daisy/gcc/arm-none-eabi/include/c++/10.2.1/arm-none-eabi/thumb/v7e-m+dp/hard/bits/gthr-default.h **** typedef int __gthread_once_t;
  33:/home/hubert/daisy/gcc/arm-none-eabi/include/c++/10.2.1/arm-none-eabi/thumb/v7e-m+dp/hard/bits/gthr-default.h **** typedef int __gthread_mutex_t;
  34:/home/hubert/daisy/gcc/arm-none-eabi/include/c++/10.2.1/arm-none-eabi/thumb/v7e-m+dp/hard/bits/gthr-default.h **** typedef int __gthread_recursive_mutex_t;
  35:/home/hubert/daisy/gcc/arm-none-eabi/include/c++/10.2.1/arm-none-eabi/thumb/v7e-m+dp/hard/bits/gthr-default.h **** 
  36:/home/hubert/daisy/gcc/arm-none-eabi/include/c++/10.2.1/arm-none-eabi/thumb/v7e-m+dp/hard/bits/gthr-default.h **** #define __GTHREAD_ONCE_INIT 0
  37:/home/hubert/daisy/gcc/arm-none-eabi/include/c++/10.2.1/arm-none-eabi/thumb/v7e-m+dp/hard/bits/gthr-default.h **** #define __GTHREAD_MUTEX_INIT 0
  38:/home/hubert/daisy/gcc/arm-none-eabi/include/c++/10.2.1/arm-none-eabi/thumb/v7e-m+dp/hard/bits/gthr-default.h **** #define __GTHREAD_MUTEX_INIT_FUNCTION(mx) do {} while (0)
  39:/home/hubert/daisy/gcc/arm-none-eabi/include/c++/10.2.1/arm-none-eabi/thumb/v7e-m+dp/hard/bits/gthr-default.h **** #define __GTHREAD_RECURSIVE_MUTEX_INIT 0
  40:/home/hubert/daisy/gcc/arm-none-eabi/include/c++/10.2.1/arm-none-eabi/thumb/v7e-m+dp/hard/bits/gthr-default.h **** 
  41:/home/hubert/daisy/gcc/arm-none-eabi/include/c++/10.2.1/arm-none-eabi/thumb/v7e-m+dp/hard/bits/gthr-default.h **** #define _GLIBCXX_UNUSED __attribute__((__unused__))
  42:/home/hubert/daisy/gcc/arm-none-eabi/include/c++/10.2.1/arm-none-eabi/thumb/v7e-m+dp/hard/bits/gthr-default.h **** 
  43:/home/hubert/daisy/gcc/arm-none-eabi/include/c++/10.2.1/arm-none-eabi/thumb/v7e-m+dp/hard/bits/gthr-default.h **** #ifdef _LIBOBJC
  44:/home/hubert/daisy/gcc/arm-none-eabi/include/c++/10.2.1/arm-none-eabi/thumb/v7e-m+dp/hard/bits/gthr-default.h **** 
ARM GAS  /tmp/ccIWsbgU.s 			page 44


  45:/home/hubert/daisy/gcc/arm-none-eabi/include/c++/10.2.1/arm-none-eabi/thumb/v7e-m+dp/hard/bits/gthr-default.h **** /* Thread local storage for a single thread */
  46:/home/hubert/daisy/gcc/arm-none-eabi/include/c++/10.2.1/arm-none-eabi/thumb/v7e-m+dp/hard/bits/gthr-default.h **** static void *thread_local_storage = NULL;
  47:/home/hubert/daisy/gcc/arm-none-eabi/include/c++/10.2.1/arm-none-eabi/thumb/v7e-m+dp/hard/bits/gthr-default.h **** 
  48:/home/hubert/daisy/gcc/arm-none-eabi/include/c++/10.2.1/arm-none-eabi/thumb/v7e-m+dp/hard/bits/gthr-default.h **** /* Backend initialization functions */
  49:/home/hubert/daisy/gcc/arm-none-eabi/include/c++/10.2.1/arm-none-eabi/thumb/v7e-m+dp/hard/bits/gthr-default.h **** 
  50:/home/hubert/daisy/gcc/arm-none-eabi/include/c++/10.2.1/arm-none-eabi/thumb/v7e-m+dp/hard/bits/gthr-default.h **** /* Initialize the threads subsystem.  */
  51:/home/hubert/daisy/gcc/arm-none-eabi/include/c++/10.2.1/arm-none-eabi/thumb/v7e-m+dp/hard/bits/gthr-default.h **** static inline int
  52:/home/hubert/daisy/gcc/arm-none-eabi/include/c++/10.2.1/arm-none-eabi/thumb/v7e-m+dp/hard/bits/gthr-default.h **** __gthread_objc_init_thread_system (void)
  53:/home/hubert/daisy/gcc/arm-none-eabi/include/c++/10.2.1/arm-none-eabi/thumb/v7e-m+dp/hard/bits/gthr-default.h **** {
  54:/home/hubert/daisy/gcc/arm-none-eabi/include/c++/10.2.1/arm-none-eabi/thumb/v7e-m+dp/hard/bits/gthr-default.h ****   /* No thread support available */
  55:/home/hubert/daisy/gcc/arm-none-eabi/include/c++/10.2.1/arm-none-eabi/thumb/v7e-m+dp/hard/bits/gthr-default.h ****   return -1;
  56:/home/hubert/daisy/gcc/arm-none-eabi/include/c++/10.2.1/arm-none-eabi/thumb/v7e-m+dp/hard/bits/gthr-default.h **** }
  57:/home/hubert/daisy/gcc/arm-none-eabi/include/c++/10.2.1/arm-none-eabi/thumb/v7e-m+dp/hard/bits/gthr-default.h **** 
  58:/home/hubert/daisy/gcc/arm-none-eabi/include/c++/10.2.1/arm-none-eabi/thumb/v7e-m+dp/hard/bits/gthr-default.h **** /* Close the threads subsystem.  */
  59:/home/hubert/daisy/gcc/arm-none-eabi/include/c++/10.2.1/arm-none-eabi/thumb/v7e-m+dp/hard/bits/gthr-default.h **** static inline int
  60:/home/hubert/daisy/gcc/arm-none-eabi/include/c++/10.2.1/arm-none-eabi/thumb/v7e-m+dp/hard/bits/gthr-default.h **** __gthread_objc_close_thread_system (void)
  61:/home/hubert/daisy/gcc/arm-none-eabi/include/c++/10.2.1/arm-none-eabi/thumb/v7e-m+dp/hard/bits/gthr-default.h **** {
  62:/home/hubert/daisy/gcc/arm-none-eabi/include/c++/10.2.1/arm-none-eabi/thumb/v7e-m+dp/hard/bits/gthr-default.h ****   /* No thread support available */
  63:/home/hubert/daisy/gcc/arm-none-eabi/include/c++/10.2.1/arm-none-eabi/thumb/v7e-m+dp/hard/bits/gthr-default.h ****   return -1;
  64:/home/hubert/daisy/gcc/arm-none-eabi/include/c++/10.2.1/arm-none-eabi/thumb/v7e-m+dp/hard/bits/gthr-default.h **** }
  65:/home/hubert/daisy/gcc/arm-none-eabi/include/c++/10.2.1/arm-none-eabi/thumb/v7e-m+dp/hard/bits/gthr-default.h **** 
  66:/home/hubert/daisy/gcc/arm-none-eabi/include/c++/10.2.1/arm-none-eabi/thumb/v7e-m+dp/hard/bits/gthr-default.h **** /* Backend thread functions */
  67:/home/hubert/daisy/gcc/arm-none-eabi/include/c++/10.2.1/arm-none-eabi/thumb/v7e-m+dp/hard/bits/gthr-default.h **** 
  68:/home/hubert/daisy/gcc/arm-none-eabi/include/c++/10.2.1/arm-none-eabi/thumb/v7e-m+dp/hard/bits/gthr-default.h **** /* Create a new thread of execution.  */
  69:/home/hubert/daisy/gcc/arm-none-eabi/include/c++/10.2.1/arm-none-eabi/thumb/v7e-m+dp/hard/bits/gthr-default.h **** static inline objc_thread_t
  70:/home/hubert/daisy/gcc/arm-none-eabi/include/c++/10.2.1/arm-none-eabi/thumb/v7e-m+dp/hard/bits/gthr-default.h **** __gthread_objc_thread_detach (void (* func)(void *), void * arg _GLIBCXX_UNUSED)
  71:/home/hubert/daisy/gcc/arm-none-eabi/include/c++/10.2.1/arm-none-eabi/thumb/v7e-m+dp/hard/bits/gthr-default.h **** {
  72:/home/hubert/daisy/gcc/arm-none-eabi/include/c++/10.2.1/arm-none-eabi/thumb/v7e-m+dp/hard/bits/gthr-default.h ****   /* No thread support available */
  73:/home/hubert/daisy/gcc/arm-none-eabi/include/c++/10.2.1/arm-none-eabi/thumb/v7e-m+dp/hard/bits/gthr-default.h ****   return NULL;
  74:/home/hubert/daisy/gcc/arm-none-eabi/include/c++/10.2.1/arm-none-eabi/thumb/v7e-m+dp/hard/bits/gthr-default.h **** }
  75:/home/hubert/daisy/gcc/arm-none-eabi/include/c++/10.2.1/arm-none-eabi/thumb/v7e-m+dp/hard/bits/gthr-default.h **** 
  76:/home/hubert/daisy/gcc/arm-none-eabi/include/c++/10.2.1/arm-none-eabi/thumb/v7e-m+dp/hard/bits/gthr-default.h **** /* Set the current thread's priority.  */
  77:/home/hubert/daisy/gcc/arm-none-eabi/include/c++/10.2.1/arm-none-eabi/thumb/v7e-m+dp/hard/bits/gthr-default.h **** static inline int
  78:/home/hubert/daisy/gcc/arm-none-eabi/include/c++/10.2.1/arm-none-eabi/thumb/v7e-m+dp/hard/bits/gthr-default.h **** __gthread_objc_thread_set_priority (int priority _GLIBCXX_UNUSED)
  79:/home/hubert/daisy/gcc/arm-none-eabi/include/c++/10.2.1/arm-none-eabi/thumb/v7e-m+dp/hard/bits/gthr-default.h **** {
  80:/home/hubert/daisy/gcc/arm-none-eabi/include/c++/10.2.1/arm-none-eabi/thumb/v7e-m+dp/hard/bits/gthr-default.h ****   /* No thread support available */
  81:/home/hubert/daisy/gcc/arm-none-eabi/include/c++/10.2.1/arm-none-eabi/thumb/v7e-m+dp/hard/bits/gthr-default.h ****   return -1;
  82:/home/hubert/daisy/gcc/arm-none-eabi/include/c++/10.2.1/arm-none-eabi/thumb/v7e-m+dp/hard/bits/gthr-default.h **** }
  83:/home/hubert/daisy/gcc/arm-none-eabi/include/c++/10.2.1/arm-none-eabi/thumb/v7e-m+dp/hard/bits/gthr-default.h **** 
  84:/home/hubert/daisy/gcc/arm-none-eabi/include/c++/10.2.1/arm-none-eabi/thumb/v7e-m+dp/hard/bits/gthr-default.h **** /* Return the current thread's priority.  */
  85:/home/hubert/daisy/gcc/arm-none-eabi/include/c++/10.2.1/arm-none-eabi/thumb/v7e-m+dp/hard/bits/gthr-default.h **** static inline int
  86:/home/hubert/daisy/gcc/arm-none-eabi/include/c++/10.2.1/arm-none-eabi/thumb/v7e-m+dp/hard/bits/gthr-default.h **** __gthread_objc_thread_get_priority (void)
  87:/home/hubert/daisy/gcc/arm-none-eabi/include/c++/10.2.1/arm-none-eabi/thumb/v7e-m+dp/hard/bits/gthr-default.h **** {
  88:/home/hubert/daisy/gcc/arm-none-eabi/include/c++/10.2.1/arm-none-eabi/thumb/v7e-m+dp/hard/bits/gthr-default.h ****   return OBJC_THREAD_INTERACTIVE_PRIORITY;
  89:/home/hubert/daisy/gcc/arm-none-eabi/include/c++/10.2.1/arm-none-eabi/thumb/v7e-m+dp/hard/bits/gthr-default.h **** }
  90:/home/hubert/daisy/gcc/arm-none-eabi/include/c++/10.2.1/arm-none-eabi/thumb/v7e-m+dp/hard/bits/gthr-default.h **** 
  91:/home/hubert/daisy/gcc/arm-none-eabi/include/c++/10.2.1/arm-none-eabi/thumb/v7e-m+dp/hard/bits/gthr-default.h **** /* Yield our process time to another thread.  */
  92:/home/hubert/daisy/gcc/arm-none-eabi/include/c++/10.2.1/arm-none-eabi/thumb/v7e-m+dp/hard/bits/gthr-default.h **** static inline void
  93:/home/hubert/daisy/gcc/arm-none-eabi/include/c++/10.2.1/arm-none-eabi/thumb/v7e-m+dp/hard/bits/gthr-default.h **** __gthread_objc_thread_yield (void)
  94:/home/hubert/daisy/gcc/arm-none-eabi/include/c++/10.2.1/arm-none-eabi/thumb/v7e-m+dp/hard/bits/gthr-default.h **** {
  95:/home/hubert/daisy/gcc/arm-none-eabi/include/c++/10.2.1/arm-none-eabi/thumb/v7e-m+dp/hard/bits/gthr-default.h ****   return;
  96:/home/hubert/daisy/gcc/arm-none-eabi/include/c++/10.2.1/arm-none-eabi/thumb/v7e-m+dp/hard/bits/gthr-default.h **** }
  97:/home/hubert/daisy/gcc/arm-none-eabi/include/c++/10.2.1/arm-none-eabi/thumb/v7e-m+dp/hard/bits/gthr-default.h **** 
  98:/home/hubert/daisy/gcc/arm-none-eabi/include/c++/10.2.1/arm-none-eabi/thumb/v7e-m+dp/hard/bits/gthr-default.h **** /* Terminate the current thread.  */
  99:/home/hubert/daisy/gcc/arm-none-eabi/include/c++/10.2.1/arm-none-eabi/thumb/v7e-m+dp/hard/bits/gthr-default.h **** static inline int
 100:/home/hubert/daisy/gcc/arm-none-eabi/include/c++/10.2.1/arm-none-eabi/thumb/v7e-m+dp/hard/bits/gthr-default.h **** __gthread_objc_thread_exit (void)
 101:/home/hubert/daisy/gcc/arm-none-eabi/include/c++/10.2.1/arm-none-eabi/thumb/v7e-m+dp/hard/bits/gthr-default.h **** {
ARM GAS  /tmp/ccIWsbgU.s 			page 45


 102:/home/hubert/daisy/gcc/arm-none-eabi/include/c++/10.2.1/arm-none-eabi/thumb/v7e-m+dp/hard/bits/gthr-default.h ****   /* No thread support available */
 103:/home/hubert/daisy/gcc/arm-none-eabi/include/c++/10.2.1/arm-none-eabi/thumb/v7e-m+dp/hard/bits/gthr-default.h ****   /* Should we really exit the program */
 104:/home/hubert/daisy/gcc/arm-none-eabi/include/c++/10.2.1/arm-none-eabi/thumb/v7e-m+dp/hard/bits/gthr-default.h ****   /* exit (&__objc_thread_exit_status); */
 105:/home/hubert/daisy/gcc/arm-none-eabi/include/c++/10.2.1/arm-none-eabi/thumb/v7e-m+dp/hard/bits/gthr-default.h ****   return -1;
 106:/home/hubert/daisy/gcc/arm-none-eabi/include/c++/10.2.1/arm-none-eabi/thumb/v7e-m+dp/hard/bits/gthr-default.h **** }
 107:/home/hubert/daisy/gcc/arm-none-eabi/include/c++/10.2.1/arm-none-eabi/thumb/v7e-m+dp/hard/bits/gthr-default.h **** 
 108:/home/hubert/daisy/gcc/arm-none-eabi/include/c++/10.2.1/arm-none-eabi/thumb/v7e-m+dp/hard/bits/gthr-default.h **** /* Returns an integer value which uniquely describes a thread.  */
 109:/home/hubert/daisy/gcc/arm-none-eabi/include/c++/10.2.1/arm-none-eabi/thumb/v7e-m+dp/hard/bits/gthr-default.h **** static inline objc_thread_t
 110:/home/hubert/daisy/gcc/arm-none-eabi/include/c++/10.2.1/arm-none-eabi/thumb/v7e-m+dp/hard/bits/gthr-default.h **** __gthread_objc_thread_id (void)
 111:/home/hubert/daisy/gcc/arm-none-eabi/include/c++/10.2.1/arm-none-eabi/thumb/v7e-m+dp/hard/bits/gthr-default.h **** {
 112:/home/hubert/daisy/gcc/arm-none-eabi/include/c++/10.2.1/arm-none-eabi/thumb/v7e-m+dp/hard/bits/gthr-default.h ****   /* No thread support, use 1.  */
 113:/home/hubert/daisy/gcc/arm-none-eabi/include/c++/10.2.1/arm-none-eabi/thumb/v7e-m+dp/hard/bits/gthr-default.h ****   return (objc_thread_t) 1;
 114:/home/hubert/daisy/gcc/arm-none-eabi/include/c++/10.2.1/arm-none-eabi/thumb/v7e-m+dp/hard/bits/gthr-default.h **** }
 115:/home/hubert/daisy/gcc/arm-none-eabi/include/c++/10.2.1/arm-none-eabi/thumb/v7e-m+dp/hard/bits/gthr-default.h **** 
 116:/home/hubert/daisy/gcc/arm-none-eabi/include/c++/10.2.1/arm-none-eabi/thumb/v7e-m+dp/hard/bits/gthr-default.h **** /* Sets the thread's local storage pointer.  */
 117:/home/hubert/daisy/gcc/arm-none-eabi/include/c++/10.2.1/arm-none-eabi/thumb/v7e-m+dp/hard/bits/gthr-default.h **** static inline int
 118:/home/hubert/daisy/gcc/arm-none-eabi/include/c++/10.2.1/arm-none-eabi/thumb/v7e-m+dp/hard/bits/gthr-default.h **** __gthread_objc_thread_set_data (void *value)
 119:/home/hubert/daisy/gcc/arm-none-eabi/include/c++/10.2.1/arm-none-eabi/thumb/v7e-m+dp/hard/bits/gthr-default.h **** {
 120:/home/hubert/daisy/gcc/arm-none-eabi/include/c++/10.2.1/arm-none-eabi/thumb/v7e-m+dp/hard/bits/gthr-default.h ****   thread_local_storage = value;
 121:/home/hubert/daisy/gcc/arm-none-eabi/include/c++/10.2.1/arm-none-eabi/thumb/v7e-m+dp/hard/bits/gthr-default.h ****   return 0;
 122:/home/hubert/daisy/gcc/arm-none-eabi/include/c++/10.2.1/arm-none-eabi/thumb/v7e-m+dp/hard/bits/gthr-default.h **** }
 123:/home/hubert/daisy/gcc/arm-none-eabi/include/c++/10.2.1/arm-none-eabi/thumb/v7e-m+dp/hard/bits/gthr-default.h **** 
 124:/home/hubert/daisy/gcc/arm-none-eabi/include/c++/10.2.1/arm-none-eabi/thumb/v7e-m+dp/hard/bits/gthr-default.h **** /* Returns the thread's local storage pointer.  */
 125:/home/hubert/daisy/gcc/arm-none-eabi/include/c++/10.2.1/arm-none-eabi/thumb/v7e-m+dp/hard/bits/gthr-default.h **** static inline void *
