ARM GAS  /tmp/ccSY3rLK.s 			page 1


   1              		.cpu cortex-m7
   2              		.eabi_attribute 28, 1
   3              		.eabi_attribute 20, 1
   4              		.eabi_attribute 21, 1
   5              		.eabi_attribute 23, 3
   6              		.eabi_attribute 24, 1
   7              		.eabi_attribute 25, 1
   8              		.eabi_attribute 26, 1
   9              		.eabi_attribute 30, 4
  10              		.eabi_attribute 34, 1
  11              		.eabi_attribute 18, 4
  12              		.file	"main.cpp"
  13              		.text
  14              	.Ltext0:
  15              		.cfi_sections	.debug_frame
  16              		.section	.text._ZN5daisy9ParameterD2Ev,"axG",%progbits,_ZN5daisy9ParameterD5Ev,comdat
  17              		.align	1
  18              		.weak	_ZN5daisy9ParameterD2Ev
  19              		.arch armv7e-m
  20              		.syntax unified
  21              		.thumb
  22              		.thumb_func
  23              		.fpu fpv5-d16
  25              	_ZN5daisy9ParameterD2Ev:
  26              	.LVL0:
  27              	.LFB3962:
  28              		.file 1 "../libDaisy/src/hid/parameter.h"
   1:../libDaisy/src/hid/parameter.h **** #pragma once
   2:../libDaisy/src/hid/parameter.h **** #include <stdint.h>
   3:../libDaisy/src/hid/parameter.h **** #include "hid/ctrl.h"
   4:../libDaisy/src/hid/parameter.h **** 
   5:../libDaisy/src/hid/parameter.h **** namespace daisy
   6:../libDaisy/src/hid/parameter.h **** {
   7:../libDaisy/src/hid/parameter.h **** /** @addtogroup controls
   8:../libDaisy/src/hid/parameter.h ****     @{
   9:../libDaisy/src/hid/parameter.h **** */
  10:../libDaisy/src/hid/parameter.h **** 
  11:../libDaisy/src/hid/parameter.h **** /**      Simple parameter mapping tool that takes a 0-1 input from an hid_ctrl. */
  12:../libDaisy/src/hid/parameter.h **** class Parameter
  13:../libDaisy/src/hid/parameter.h **** {
  14:../libDaisy/src/hid/parameter.h ****   public:
  15:../libDaisy/src/hid/parameter.h ****     /** Curves are applied to the output signal */
  16:../libDaisy/src/hid/parameter.h ****     enum Curve
  17:../libDaisy/src/hid/parameter.h ****     {
  18:../libDaisy/src/hid/parameter.h ****         LINEAR,      /**< Linear curve */
  19:../libDaisy/src/hid/parameter.h ****         EXPONENTIAL, /**< Exponential curve */
  20:../libDaisy/src/hid/parameter.h ****         LOGARITHMIC, /**<  Logarithmic curve */
  21:../libDaisy/src/hid/parameter.h ****         CUBE,        /**< Cubic curve */
  22:../libDaisy/src/hid/parameter.h ****         LAST,        /**< Final enum element. */
  23:../libDaisy/src/hid/parameter.h ****     };
  24:../libDaisy/src/hid/parameter.h ****     /** Constructor */
  25:../libDaisy/src/hid/parameter.h ****     Parameter() {}
  26:../libDaisy/src/hid/parameter.h ****     /** Destructor */
  27:../libDaisy/src/hid/parameter.h ****     ~Parameter() {}
  29              		.loc 1 27 5 view -0
  30              		.cfi_startproc
  31              		@ args = 0, pretend = 0, frame = 0
ARM GAS  /tmp/ccSY3rLK.s 			page 2


  32              		@ frame_needed = 0, uses_anonymous_args = 0
  33              		@ link register save eliminated.
  34              	.LBB1206:
  35              	.LBI1206:
  36              		.file 2 "../libDaisy/src/hid/ctrl.h"
   1:../libDaisy/src/hid/ctrl.h **** #pragma once
   2:../libDaisy/src/hid/ctrl.h **** #ifndef DSY_KNOB_H
   3:../libDaisy/src/hid/ctrl.h **** #define DSY_KNOB_H /**< & */
   4:../libDaisy/src/hid/ctrl.h **** #include <stdint.h>
   5:../libDaisy/src/hid/ctrl.h **** 
   6:../libDaisy/src/hid/ctrl.h **** #ifdef __cplusplus
   7:../libDaisy/src/hid/ctrl.h **** namespace daisy
   8:../libDaisy/src/hid/ctrl.h **** {
   9:../libDaisy/src/hid/ctrl.h **** /**
  10:../libDaisy/src/hid/ctrl.h ****     @brief Hardware Interface for control inputs \n 
  11:../libDaisy/src/hid/ctrl.h ****     Primarily designed for ADC input controls such as \n 
  12:../libDaisy/src/hid/ctrl.h ****     potentiometers, and control voltage. \n 
  13:../libDaisy/src/hid/ctrl.h ****     @author Stephen Hensley
  14:../libDaisy/src/hid/ctrl.h ****     @date November 2019
  15:../libDaisy/src/hid/ctrl.h ****     @ingroup controls
  16:../libDaisy/src/hid/ctrl.h **** */
  17:../libDaisy/src/hid/ctrl.h **** class AnalogControl
  18:../libDaisy/src/hid/ctrl.h **** {
  19:../libDaisy/src/hid/ctrl.h ****   public:
  20:../libDaisy/src/hid/ctrl.h ****     /** Constructor */
  21:../libDaisy/src/hid/ctrl.h ****     AnalogControl() {}
  22:../libDaisy/src/hid/ctrl.h ****     /** destructor */
  23:../libDaisy/src/hid/ctrl.h ****     ~AnalogControl() {}
  37              		.loc 2 23 5 view .LVU1
  38              		.loc 2 23 5 is_stmt 0 view .LVU2
  39              	.LBE1206:
  40              		.loc 1 27 19 view .LVU3
  41 0000 7047     		bx	lr
  42              		.cfi_endproc
  43              	.LFE3962:
  45              		.weak	_ZN5daisy9ParameterD1Ev
  46              		.thumb_set _ZN5daisy9ParameterD1Ev,_ZN5daisy9ParameterD2Ev
  47              		.section	.text._ZN4kxmx9BluemchenD2Ev,"axG",%progbits,_ZN4kxmx9BluemchenD5Ev,comdat
  48              		.align	1
  49              		.weak	_ZN4kxmx9BluemchenD2Ev
  50              		.syntax unified
  51              		.thumb
  52              		.thumb_func
  53              		.fpu fpv5-d16
  55              	_ZN4kxmx9BluemchenD2Ev:
  56              	.LVL1:
  57              	.LFB4860:
  58              		.file 3 "../libDaisy/../kxmx_bluemchen/src/kxmx_bluemchen.h"
   1:../libDaisy/../kxmx_bluemchen/src/kxmx_bluemchen.h **** #pragma once
   2:../libDaisy/../kxmx_bluemchen/src/kxmx_bluemchen.h **** 
   3:../libDaisy/../kxmx_bluemchen/src/kxmx_bluemchen.h **** #include "daisy_seed.h"
   4:../libDaisy/../kxmx_bluemchen/src/kxmx_bluemchen.h **** #include "dev/oled_ssd130x.h"
   5:../libDaisy/../kxmx_bluemchen/src/kxmx_bluemchen.h **** 
   6:../libDaisy/../kxmx_bluemchen/src/kxmx_bluemchen.h **** namespace kxmx
   7:../libDaisy/../kxmx_bluemchen/src/kxmx_bluemchen.h **** {
   8:../libDaisy/../kxmx_bluemchen/src/kxmx_bluemchen.h **** class Bluemchen
   9:../libDaisy/../kxmx_bluemchen/src/kxmx_bluemchen.h **** {
ARM GAS  /tmp/ccSY3rLK.s 			page 3


  10:../libDaisy/../kxmx_bluemchen/src/kxmx_bluemchen.h ****   public:
  11:../libDaisy/../kxmx_bluemchen/src/kxmx_bluemchen.h ****     /** Enum of Ctrls to represent the two knobs and two CV inputs of the kxmx_*
  12:../libDaisy/../kxmx_bluemchen/src/kxmx_bluemchen.h ****      */
  13:../libDaisy/../kxmx_bluemchen/src/kxmx_bluemchen.h ****     enum Ctrl
  14:../libDaisy/../kxmx_bluemchen/src/kxmx_bluemchen.h ****     {
  15:../libDaisy/../kxmx_bluemchen/src/kxmx_bluemchen.h ****         CTRL_1,   /**< */
  16:../libDaisy/../kxmx_bluemchen/src/kxmx_bluemchen.h ****         CTRL_2,   /**< */
  17:../libDaisy/../kxmx_bluemchen/src/kxmx_bluemchen.h ****         CTRL_3,   /**< */
  18:../libDaisy/../kxmx_bluemchen/src/kxmx_bluemchen.h ****         CTRL_4,   /**< */
  19:../libDaisy/../kxmx_bluemchen/src/kxmx_bluemchen.h ****         CTRL_LAST /**< */
  20:../libDaisy/../kxmx_bluemchen/src/kxmx_bluemchen.h ****     };
  21:../libDaisy/../kxmx_bluemchen/src/kxmx_bluemchen.h **** 
  22:../libDaisy/../kxmx_bluemchen/src/kxmx_bluemchen.h ****     /** Constructor */
  23:../libDaisy/../kxmx_bluemchen/src/kxmx_bluemchen.h ****     Bluemchen() {}
  24:../libDaisy/../kxmx_bluemchen/src/kxmx_bluemchen.h ****     /** Destructor */
  25:../libDaisy/../kxmx_bluemchen/src/kxmx_bluemchen.h ****     ~Bluemchen() {}
  59              		.loc 3 25 5 is_stmt 1 view -0
  60              		.cfi_startproc
  61              		@ args = 0, pretend = 0, frame = 0
  62              		@ frame_needed = 0, uses_anonymous_args = 0
  63              		@ link register save eliminated.
  64              	.LBB1207:
  65              	.LBI1207:
  66              		.file 4 "../libDaisy/src/hid/disp/oled_display.h"
   1:../libDaisy/src/hid/disp/oled_display.h **** #pragma once
   2:../libDaisy/src/hid/disp/oled_display.h **** #ifndef DSY_OLED_DISPLAY_H
   3:../libDaisy/src/hid/disp/oled_display.h **** #define DSY_OLED_DISPLAY_H /**< Macro */
   4:../libDaisy/src/hid/disp/oled_display.h **** 
   5:../libDaisy/src/hid/disp/oled_display.h **** #include "display.h"
   6:../libDaisy/src/hid/disp/oled_display.h **** 
   7:../libDaisy/src/hid/disp/oled_display.h **** namespace daisy
   8:../libDaisy/src/hid/disp/oled_display.h **** {
   9:../libDaisy/src/hid/disp/oled_display.h **** /** 
  10:../libDaisy/src/hid/disp/oled_display.h ****  * This class is for drawing to a monochrome OLED display. 
  11:../libDaisy/src/hid/disp/oled_display.h ****  * @ingroup device
  12:../libDaisy/src/hid/disp/oled_display.h **** */
  13:../libDaisy/src/hid/disp/oled_display.h **** template <typename DisplayDriver>
  14:../libDaisy/src/hid/disp/oled_display.h **** class OledDisplay : public OneBitGraphicsDisplayImpl<OledDisplay<DisplayDriver>>
  15:../libDaisy/src/hid/disp/oled_display.h **** {
  16:../libDaisy/src/hid/disp/oled_display.h ****   public:
  17:../libDaisy/src/hid/disp/oled_display.h ****     OledDisplay() {}
  18:../libDaisy/src/hid/disp/oled_display.h ****     virtual ~OledDisplay() {}
  67              		.loc 4 18 13 view .LVU5
  68              	.LBB1208:
  69              	.LBI1208:
  70              		.file 5 "../libDaisy/src/hid/disp/display.h"
   1:../libDaisy/src/hid/disp/display.h **** #pragma once
   2:../libDaisy/src/hid/disp/display.h **** #ifndef DSY_DISPLAY_H
   3:../libDaisy/src/hid/disp/display.h **** #define DSY_DISPLAY_H /**< Macro */
   4:../libDaisy/src/hid/disp/display.h **** #include <cmath>
   5:../libDaisy/src/hid/disp/display.h **** #include "util/oled_fonts.h"
   6:../libDaisy/src/hid/disp/display.h **** #include "daisy_core.h"
   7:../libDaisy/src/hid/disp/display.h **** #include "graphics_common.h"
   8:../libDaisy/src/hid/disp/display.h **** 
   9:../libDaisy/src/hid/disp/display.h **** #ifndef deg2rad
  10:../libDaisy/src/hid/disp/display.h **** #define deg2rad(deg) ((deg)*3.141592 / 180.0)
  11:../libDaisy/src/hid/disp/display.h **** #endif
ARM GAS  /tmp/ccSY3rLK.s 			page 4


  12:../libDaisy/src/hid/disp/display.h **** 
  13:../libDaisy/src/hid/disp/display.h **** namespace daisy
  14:../libDaisy/src/hid/disp/display.h **** {
  15:../libDaisy/src/hid/disp/display.h **** /** 
  16:../libDaisy/src/hid/disp/display.h ****  * This interface is used as a base class for all types of 1bit-per-pixel
  17:../libDaisy/src/hid/disp/display.h ****  * graphics displays.
  18:../libDaisy/src/hid/disp/display.h **** */
  19:../libDaisy/src/hid/disp/display.h **** class OneBitGraphicsDisplay
  20:../libDaisy/src/hid/disp/display.h **** {
  21:../libDaisy/src/hid/disp/display.h ****   public:
  22:../libDaisy/src/hid/disp/display.h ****     OneBitGraphicsDisplay() {}
  23:../libDaisy/src/hid/disp/display.h ****     virtual ~OneBitGraphicsDisplay() {}
  24:../libDaisy/src/hid/disp/display.h **** 
  25:../libDaisy/src/hid/disp/display.h ****     virtual uint16_t Height() const = 0;
  26:../libDaisy/src/hid/disp/display.h ****     virtual uint16_t Width() const  = 0;
  27:../libDaisy/src/hid/disp/display.h **** 
  28:../libDaisy/src/hid/disp/display.h ****     Rectangle GetBounds() const
  29:../libDaisy/src/hid/disp/display.h ****     {
  30:../libDaisy/src/hid/disp/display.h ****         return Rectangle(int16_t(Width()), int16_t(Height()));
  31:../libDaisy/src/hid/disp/display.h ****     }
  32:../libDaisy/src/hid/disp/display.h **** 
  33:../libDaisy/src/hid/disp/display.h **** 
  34:../libDaisy/src/hid/disp/display.h ****     size_t CurrentX() { return currentX_; };
  35:../libDaisy/src/hid/disp/display.h ****     size_t CurrentY() { return currentY_; };
  36:../libDaisy/src/hid/disp/display.h **** 
  37:../libDaisy/src/hid/disp/display.h ****     /** 
  38:../libDaisy/src/hid/disp/display.h ****     Fills the entire display with either on/off.
  39:../libDaisy/src/hid/disp/display.h ****     \param on Sets on or off.
  40:../libDaisy/src/hid/disp/display.h ****     */
  41:../libDaisy/src/hid/disp/display.h ****     virtual void Fill(bool on) = 0;
  42:../libDaisy/src/hid/disp/display.h **** 
  43:../libDaisy/src/hid/disp/display.h ****     /**
  44:../libDaisy/src/hid/disp/display.h ****     Sets the pixel at the specified coordinate to be on/off.
  45:../libDaisy/src/hid/disp/display.h ****     \param x   x Coordinate
  46:../libDaisy/src/hid/disp/display.h ****     \param y   y coordinate
  47:../libDaisy/src/hid/disp/display.h ****     \param on  on or off
  48:../libDaisy/src/hid/disp/display.h ****     */
  49:../libDaisy/src/hid/disp/display.h ****     virtual void DrawPixel(uint_fast8_t x, uint_fast8_t y, bool on) = 0;
  50:../libDaisy/src/hid/disp/display.h **** 
  51:../libDaisy/src/hid/disp/display.h ****     /**
  52:../libDaisy/src/hid/disp/display.h ****     Draws a line from (x1, y1) to (y1, y2)
  53:../libDaisy/src/hid/disp/display.h ****     \param x1  x Coordinate of the starting point
  54:../libDaisy/src/hid/disp/display.h ****     \param y1  y Coordinate of the starting point
  55:../libDaisy/src/hid/disp/display.h ****     \param x2  x Coordinate of the ending point
  56:../libDaisy/src/hid/disp/display.h ****     \param y2  y Coordinate of the ending point
  57:../libDaisy/src/hid/disp/display.h ****     \param on  on or off
  58:../libDaisy/src/hid/disp/display.h ****     */
  59:../libDaisy/src/hid/disp/display.h ****     virtual void DrawLine(uint_fast8_t x1,
  60:../libDaisy/src/hid/disp/display.h ****                           uint_fast8_t y1,
  61:../libDaisy/src/hid/disp/display.h ****                           uint_fast8_t x2,
  62:../libDaisy/src/hid/disp/display.h ****                           uint_fast8_t y2,
  63:../libDaisy/src/hid/disp/display.h ****                           bool         on)
  64:../libDaisy/src/hid/disp/display.h ****         = 0;
  65:../libDaisy/src/hid/disp/display.h **** 
  66:../libDaisy/src/hid/disp/display.h ****     /**
  67:../libDaisy/src/hid/disp/display.h ****     Draws a rectangle based on two coordinates.
  68:../libDaisy/src/hid/disp/display.h ****     \param x1 x Coordinate of the first point
ARM GAS  /tmp/ccSY3rLK.s 			page 5


  69:../libDaisy/src/hid/disp/display.h ****     \param y1 y Coordinate of the first point
  70:../libDaisy/src/hid/disp/display.h ****     \param x2 x Coordinate of the second point
  71:../libDaisy/src/hid/disp/display.h ****     \param y2 y Coordinate of the second point
  72:../libDaisy/src/hid/disp/display.h ****     \param on on or off
  73:../libDaisy/src/hid/disp/display.h ****     \param fill fill the rectangle or draw only the outline
  74:../libDaisy/src/hid/disp/display.h ****     */
  75:../libDaisy/src/hid/disp/display.h ****     virtual void DrawRect(uint_fast8_t x1,
  76:../libDaisy/src/hid/disp/display.h ****                           uint_fast8_t y1,
  77:../libDaisy/src/hid/disp/display.h ****                           uint_fast8_t x2,
  78:../libDaisy/src/hid/disp/display.h ****                           uint_fast8_t y2,
  79:../libDaisy/src/hid/disp/display.h ****                           bool         on,
  80:../libDaisy/src/hid/disp/display.h ****                           bool         fill = false)
  81:../libDaisy/src/hid/disp/display.h ****         = 0;
  82:../libDaisy/src/hid/disp/display.h **** 
  83:../libDaisy/src/hid/disp/display.h ****     /**
  84:../libDaisy/src/hid/disp/display.h ****     Draws a rectangle.
  85:../libDaisy/src/hid/disp/display.h ****     \param rect the rectangle
  86:../libDaisy/src/hid/disp/display.h ****     \param on   on or off
  87:../libDaisy/src/hid/disp/display.h ****     \param fill fill the rectangle or draw only the outline
  88:../libDaisy/src/hid/disp/display.h ****     */
  89:../libDaisy/src/hid/disp/display.h ****     void DrawRect(const Rectangle& rect, bool on, bool fill = false)
  90:../libDaisy/src/hid/disp/display.h ****     {
  91:../libDaisy/src/hid/disp/display.h ****         DrawRect(rect.GetX(),
  92:../libDaisy/src/hid/disp/display.h ****                  rect.GetY(),
  93:../libDaisy/src/hid/disp/display.h ****                  rect.GetRight(),
  94:../libDaisy/src/hid/disp/display.h ****                  rect.GetBottom(),
  95:../libDaisy/src/hid/disp/display.h ****                  on,
  96:../libDaisy/src/hid/disp/display.h ****                  fill);
  97:../libDaisy/src/hid/disp/display.h ****     }
  98:../libDaisy/src/hid/disp/display.h **** 
  99:../libDaisy/src/hid/disp/display.h ****     /**
 100:../libDaisy/src/hid/disp/display.h ****     Draws an arc around the specified coordinate
 101:../libDaisy/src/hid/disp/display.h ****     \param x           x Coordinate of the center of the arc
 102:../libDaisy/src/hid/disp/display.h ****     \param y           y Coordinate of the center of the arc
 103:../libDaisy/src/hid/disp/display.h ****     \param radius      radius of the arc
 104:../libDaisy/src/hid/disp/display.h ****     \param start_angle angle where to start the arc
 105:../libDaisy/src/hid/disp/display.h ****     \param sweep       total angle of the arc
 106:../libDaisy/src/hid/disp/display.h ****     \param on  on or off
 107:../libDaisy/src/hid/disp/display.h ****     */
 108:../libDaisy/src/hid/disp/display.h ****     virtual void DrawArc(uint_fast8_t x,
 109:../libDaisy/src/hid/disp/display.h ****                          uint_fast8_t y,
 110:../libDaisy/src/hid/disp/display.h ****                          uint_fast8_t radius,
 111:../libDaisy/src/hid/disp/display.h ****                          int_fast16_t start_angle,
 112:../libDaisy/src/hid/disp/display.h ****                          int_fast16_t sweep,
 113:../libDaisy/src/hid/disp/display.h ****                          bool         on)
 114:../libDaisy/src/hid/disp/display.h ****         = 0;
 115:../libDaisy/src/hid/disp/display.h **** 
 116:../libDaisy/src/hid/disp/display.h ****     /**
 117:../libDaisy/src/hid/disp/display.h ****     Draws a circle around the specified coordinate
 118:../libDaisy/src/hid/disp/display.h ****     \param x           x Coordinate of the center of the circle
 119:../libDaisy/src/hid/disp/display.h ****     \param y           y Coordinate of the center of the circle
 120:../libDaisy/src/hid/disp/display.h ****     \param radius      radius of the circle
 121:../libDaisy/src/hid/disp/display.h ****     \param on  on or off
 122:../libDaisy/src/hid/disp/display.h ****     */
 123:../libDaisy/src/hid/disp/display.h ****     void
 124:../libDaisy/src/hid/disp/display.h ****     DrawCircle(uint_fast8_t x, uint_fast8_t y, uint_fast8_t radius, bool on)
 125:../libDaisy/src/hid/disp/display.h ****     {
ARM GAS  /tmp/ccSY3rLK.s 			page 6


 126:../libDaisy/src/hid/disp/display.h ****         DrawArc(x, y, radius, 0, 360, on);
 127:../libDaisy/src/hid/disp/display.h ****     };
 128:../libDaisy/src/hid/disp/display.h **** 
 129:../libDaisy/src/hid/disp/display.h ****     /** 
 130:../libDaisy/src/hid/disp/display.h ****     Writes the character with the specific FontDef
 131:../libDaisy/src/hid/disp/display.h ****     to the display buffer at the current Cursor position.
 132:../libDaisy/src/hid/disp/display.h ****     \param ch character to be written
 133:../libDaisy/src/hid/disp/display.h ****     \param font font to be written in
 134:../libDaisy/src/hid/disp/display.h ****     \param on    on or off
 135:../libDaisy/src/hid/disp/display.h ****     \return &
 136:../libDaisy/src/hid/disp/display.h ****     */
 137:../libDaisy/src/hid/disp/display.h ****     virtual char WriteChar(char ch, FontDef font, bool on) = 0;
 138:../libDaisy/src/hid/disp/display.h **** 
 139:../libDaisy/src/hid/disp/display.h ****     /** 
 140:../libDaisy/src/hid/disp/display.h ****     Similar to WriteChar, except it will handle an entire String.
 141:../libDaisy/src/hid/disp/display.h ****     Wrapping does not happen automatically, so the width
 142:../libDaisy/src/hid/disp/display.h ****     of the string must be kept within the dimensions of the screen.
 143:../libDaisy/src/hid/disp/display.h ****     \param str string to be written
 144:../libDaisy/src/hid/disp/display.h ****     \param font font to use
 145:../libDaisy/src/hid/disp/display.h ****     \param on  on or off
 146:../libDaisy/src/hid/disp/display.h ****     \return &
 147:../libDaisy/src/hid/disp/display.h ****     */
 148:../libDaisy/src/hid/disp/display.h ****     virtual char WriteString(const char* str, FontDef font, bool on) = 0;
 149:../libDaisy/src/hid/disp/display.h **** 
 150:../libDaisy/src/hid/disp/display.h ****     /** 
 151:../libDaisy/src/hid/disp/display.h ****     Similar to WriteString but justified within a bounding box.
 152:../libDaisy/src/hid/disp/display.h ****     \param str          string to be written
 153:../libDaisy/src/hid/disp/display.h ****     \param font         font to use
 154:../libDaisy/src/hid/disp/display.h ****     \param boundingBox  the bounding box to draw the text in
 155:../libDaisy/src/hid/disp/display.h ****     \param alignment    the alignment to use
 156:../libDaisy/src/hid/disp/display.h ****     \param on           on or off
 157:../libDaisy/src/hid/disp/display.h ****     \return The rectangle that was drawn to
 158:../libDaisy/src/hid/disp/display.h ****     */
 159:../libDaisy/src/hid/disp/display.h ****     virtual Rectangle WriteStringAligned(const char*    str,
 160:../libDaisy/src/hid/disp/display.h ****                                          const FontDef& font,
 161:../libDaisy/src/hid/disp/display.h ****                                          Rectangle      boundingBox,
 162:../libDaisy/src/hid/disp/display.h ****                                          Alignment      alignment,
 163:../libDaisy/src/hid/disp/display.h ****                                          bool           on)
 164:../libDaisy/src/hid/disp/display.h ****         = 0;
 165:../libDaisy/src/hid/disp/display.h **** 
 166:../libDaisy/src/hid/disp/display.h ****     /** 
 167:../libDaisy/src/hid/disp/display.h ****     Moves the 'Cursor' position used for WriteChar, and WriteStr to the specified coordinate.
 168:../libDaisy/src/hid/disp/display.h ****     \param x x pos
 169:../libDaisy/src/hid/disp/display.h ****     \param y y pos
 170:../libDaisy/src/hid/disp/display.h ****     */
 171:../libDaisy/src/hid/disp/display.h ****     void SetCursor(uint16_t x, uint16_t y)
 172:../libDaisy/src/hid/disp/display.h ****     {
 173:../libDaisy/src/hid/disp/display.h ****         currentX_ = (x >= Width()) ? Width() - 1 : x;
 174:../libDaisy/src/hid/disp/display.h ****         currentY_ = (y >= Height()) ? Height() - 1 : y;
 175:../libDaisy/src/hid/disp/display.h ****     }
 176:../libDaisy/src/hid/disp/display.h **** 
 177:../libDaisy/src/hid/disp/display.h ****     /** 
 178:../libDaisy/src/hid/disp/display.h ****     Writes the current display buffer to the OLED device using SPI or I2C depending on 
 179:../libDaisy/src/hid/disp/display.h ****     how the object was initialized.
 180:../libDaisy/src/hid/disp/display.h ****     */
 181:../libDaisy/src/hid/disp/display.h ****     virtual void Update() = 0;
 182:../libDaisy/src/hid/disp/display.h **** 
ARM GAS  /tmp/ccSY3rLK.s 			page 7


 183:../libDaisy/src/hid/disp/display.h ****   protected:
 184:../libDaisy/src/hid/disp/display.h ****     uint16_t currentX_;
 185:../libDaisy/src/hid/disp/display.h ****     uint16_t currentY_;
 186:../libDaisy/src/hid/disp/display.h **** };
 187:../libDaisy/src/hid/disp/display.h **** 
 188:../libDaisy/src/hid/disp/display.h **** /** This class is intended as a intermediary class for your actual implementation of the OneBitGrap
 189:../libDaisy/src/hid/disp/display.h ****  *  interface. It uses the CRTP design pattern where the template argument is the child class. It p
 190:../libDaisy/src/hid/disp/display.h ****  *  implementations for most of the functions, except DrawPixel(), Update() and Fill(), which you'l
 191:../libDaisy/src/hid/disp/display.h ****  *  to provide in your child class.
 192:../libDaisy/src/hid/disp/display.h ****  *  The main goal of this class is to provide common drawing functions without relying on massive a
 193:../libDaisy/src/hid/disp/display.h ****  *  virtual function calls that would result in a performance loss. To achieve this, any drawing fu
 194:../libDaisy/src/hid/disp/display.h ****  *  is implemented here and internally calls other drawing functions (e.g. DrawRect() which interna
 195:../libDaisy/src/hid/disp/display.h ****  *  DrawPixel() and DrawLine()) makes these calls via the qualified name of these functions to expl
 196:../libDaisy/src/hid/disp/display.h ****  *  suppress the virtual dispatch mechanism like this:
 197:../libDaisy/src/hid/disp/display.h ****  * 
 198:../libDaisy/src/hid/disp/display.h ****  *      ChildType::DrawPixel(...); // no virtual function call; direct call into the child class fu
 199:../libDaisy/src/hid/disp/display.h ****  *  
 200:../libDaisy/src/hid/disp/display.h ****  *  To create a custom OneBitGraphicsDisplay implementation, you can 
 201:../libDaisy/src/hid/disp/display.h ****  *  A) inherit from OneBitGraphicsDisplay directly and provide all the drawing functions yourself
 202:../libDaisy/src/hid/disp/display.h ****  *  B) Inherit from OneBitGraphicsDisplayImpl and only provide DrawPixel(), Fill() and Update()
 203:../libDaisy/src/hid/disp/display.h ****  *     like this:
 204:../libDaisy/src/hid/disp/display.h ****  *  
 205:../libDaisy/src/hid/disp/display.h ****  *      class MyDisplayClass : public OneBitGraphicsDisplayImpl<MyDisplayClass> 
 206:../libDaisy/src/hid/disp/display.h ****  *      {
 207:../libDaisy/src/hid/disp/display.h ****  *      public:
 208:../libDaisy/src/hid/disp/display.h ****  *          void Fill() override { ... };
 209:../libDaisy/src/hid/disp/display.h ****  *          void DrawPixel(uint_fast8_t x, uint_fast8_t y, bool on) override { ... };
 210:../libDaisy/src/hid/disp/display.h ****  *          void Update() override { ... }
 211:../libDaisy/src/hid/disp/display.h ****  *      };
 212:../libDaisy/src/hid/disp/display.h ****  *  
 213:../libDaisy/src/hid/disp/display.h ****  */
 214:../libDaisy/src/hid/disp/display.h **** template <class ChildType>
 215:../libDaisy/src/hid/disp/display.h **** class OneBitGraphicsDisplayImpl : public OneBitGraphicsDisplay
 216:../libDaisy/src/hid/disp/display.h **** {
 217:../libDaisy/src/hid/disp/display.h ****   public:
 218:../libDaisy/src/hid/disp/display.h ****     OneBitGraphicsDisplayImpl() {}
 219:../libDaisy/src/hid/disp/display.h ****     virtual ~OneBitGraphicsDisplayImpl() {}
  71              		.loc 5 219 13 view .LVU6
  72              	.LBB1209:
  73              	.LBI1209:
  23:../libDaisy/src/hid/disp/display.h **** 
  74              		.loc 5 23 13 view .LVU7
  23:../libDaisy/src/hid/disp/display.h **** 
  75              		.loc 5 23 13 is_stmt 0 view .LVU8
  76              	.LBE1209:
  77              	.LBE1208:
  78              	.LBE1207:
  79              	.LBB1210:
  80              	.LBI1210:
  81              		.file 6 "../libDaisy/src/per/sdmmc.h"
   1:../libDaisy/src/per/sdmmc.h **** /*
   2:../libDaisy/src/per/sdmmc.h **** TODO: 
   3:../libDaisy/src/per/sdmmc.h **** - Implement configuration (currently all settings are fixed).
   4:../libDaisy/src/per/sdmmc.h **** */
   5:../libDaisy/src/per/sdmmc.h **** #pragma once
   6:../libDaisy/src/per/sdmmc.h **** #ifndef DSY_SDMMC_H
   7:../libDaisy/src/per/sdmmc.h **** #define DSY_SDMMC_H /**< macro */
ARM GAS  /tmp/ccSY3rLK.s 			page 8


   8:../libDaisy/src/per/sdmmc.h **** 
   9:../libDaisy/src/per/sdmmc.h **** #include <stdint.h>
  10:../libDaisy/src/per/sdmmc.h **** 
  11:../libDaisy/src/per/sdmmc.h **** 
  12:../libDaisy/src/per/sdmmc.h **** namespace daisy
  13:../libDaisy/src/per/sdmmc.h **** {
  14:../libDaisy/src/per/sdmmc.h **** /** @ingroup peripheral
  15:../libDaisy/src/per/sdmmc.h ****     @{
  16:../libDaisy/src/per/sdmmc.h ****     */
  17:../libDaisy/src/per/sdmmc.h **** 
  18:../libDaisy/src/per/sdmmc.h **** /** Configuration for interfacing with SD cards.
  19:../libDaisy/src/per/sdmmc.h ****  *  Currently only supports operation using FatFS filesystem
  20:../libDaisy/src/per/sdmmc.h ****  * 
  21:../libDaisy/src/per/sdmmc.h ****  *  Only SDMMC1 is supported at this time.
  22:../libDaisy/src/per/sdmmc.h ****  *
  23:../libDaisy/src/per/sdmmc.h ****  *  Pins are fixed to the following:
  24:../libDaisy/src/per/sdmmc.h ****  *  PC12 - SDMMC1 CK
  25:../libDaisy/src/per/sdmmc.h ****  *  PD2  - SDMMC1 CMD
  26:../libDaisy/src/per/sdmmc.h ****  *  PC8  - SDMMC1 D0
  27:../libDaisy/src/per/sdmmc.h ****  *  PC9  - SDMMC1 D1 (optional)
  28:../libDaisy/src/per/sdmmc.h ****  *  PC10 - SDMMC1 D2 (optional)
  29:../libDaisy/src/per/sdmmc.h ****  *  PC11 - SDMMC1 D3 (optional)
  30:../libDaisy/src/per/sdmmc.h **** */
  31:../libDaisy/src/per/sdmmc.h **** class SdmmcHandler
  32:../libDaisy/src/per/sdmmc.h **** {
  33:../libDaisy/src/per/sdmmc.h ****   public:
  34:../libDaisy/src/per/sdmmc.h ****     /** Return values for the SdmmcHandler class */
  35:../libDaisy/src/per/sdmmc.h ****     enum class Result
  36:../libDaisy/src/per/sdmmc.h ****     {
  37:../libDaisy/src/per/sdmmc.h ****         OK,
  38:../libDaisy/src/per/sdmmc.h ****         ERROR,
  39:../libDaisy/src/per/sdmmc.h ****     };
  40:../libDaisy/src/per/sdmmc.h **** 
  41:../libDaisy/src/per/sdmmc.h ****     /** Sets whether 4-bit mode or 1-bit mode is used for the SDMMC */
  42:../libDaisy/src/per/sdmmc.h ****     enum class BusWidth
  43:../libDaisy/src/per/sdmmc.h ****     {
  44:../libDaisy/src/per/sdmmc.h ****         BITS_1, /**< Only 1 bit of data per clock is transferred */
  45:../libDaisy/src/per/sdmmc.h ****         BITS_4, /**< 4-bits of parallel data for each clock pulse */
  46:../libDaisy/src/per/sdmmc.h ****     };
  47:../libDaisy/src/per/sdmmc.h **** 
  48:../libDaisy/src/per/sdmmc.h ****     /** 
  49:../libDaisy/src/per/sdmmc.h ****     Sets the desired clock speed of the SD card bus. \n 
  50:../libDaisy/src/per/sdmmc.h ****     Initialization is always done at or below 400kHz, and then the user speed is set.
  51:../libDaisy/src/per/sdmmc.h ****     */
  52:../libDaisy/src/per/sdmmc.h ****     enum class Speed
  53:../libDaisy/src/per/sdmmc.h ****     {
  54:../libDaisy/src/per/sdmmc.h ****         SLOW, /**< 400kHz, initialization  performed at this rate, before moving to user value */
  55:../libDaisy/src/per/sdmmc.h ****         MEDIUM_SLOW, /**< 12.5MHz - half of standard rate */
  56:../libDaisy/src/per/sdmmc.h ****         STANDARD,    /**< 25MHz - DS (Default Speed for SDMMC) */
  57:../libDaisy/src/per/sdmmc.h ****         FAST,        /**< 50MHz - HS (High Speed signaling) */
  58:../libDaisy/src/per/sdmmc.h ****         VERY_FAST, /**< 100MHz - SDR50 Overclocked rate for maximum transfer rates */
  59:../libDaisy/src/per/sdmmc.h ****     };
  60:../libDaisy/src/per/sdmmc.h **** 
  61:../libDaisy/src/per/sdmmc.h ****     struct Config
  62:../libDaisy/src/per/sdmmc.h ****     {
  63:../libDaisy/src/per/sdmmc.h ****         Speed    speed;
  64:../libDaisy/src/per/sdmmc.h ****         BusWidth width;
ARM GAS  /tmp/ccSY3rLK.s 			page 9


  65:../libDaisy/src/per/sdmmc.h ****         bool
  66:../libDaisy/src/per/sdmmc.h ****             clock_powersave; /**< When true, the clock will stop between transfers to save power. *
  67:../libDaisy/src/per/sdmmc.h **** 
  68:../libDaisy/src/per/sdmmc.h ****         /** Configures settings to their default settings */
  69:../libDaisy/src/per/sdmmc.h ****         void Defaults()
  70:../libDaisy/src/per/sdmmc.h ****         {
  71:../libDaisy/src/per/sdmmc.h ****             speed           = Speed::FAST;
  72:../libDaisy/src/per/sdmmc.h ****             width           = BusWidth::BITS_4;
  73:../libDaisy/src/per/sdmmc.h ****             clock_powersave = false;
  74:../libDaisy/src/per/sdmmc.h ****         }
  75:../libDaisy/src/per/sdmmc.h ****     };
  76:../libDaisy/src/per/sdmmc.h **** 
  77:../libDaisy/src/per/sdmmc.h ****     SdmmcHandler() {}
  78:../libDaisy/src/per/sdmmc.h ****     ~SdmmcHandler() {}
  82              		.loc 6 78 5 is_stmt 1 view .LVU9
  83              		.loc 6 78 5 is_stmt 0 view .LVU10
  84              	.LBE1210:
  85              	.LBB1211:
  86              	.LBI1211:
  87              		.file 7 "../libDaisy/src/hid/midi.h"
   1:../libDaisy/src/hid/midi.h **** #pragma once
   2:../libDaisy/src/hid/midi.h **** #ifndef DSY_MIDI_H
   3:../libDaisy/src/hid/midi.h **** #define DSY_MIDI_H
   4:../libDaisy/src/hid/midi.h **** 
   5:../libDaisy/src/hid/midi.h **** #include <stdint.h>
   6:../libDaisy/src/hid/midi.h **** #include <stdlib.h>
   7:../libDaisy/src/hid/midi.h **** #include <algorithm>
   8:../libDaisy/src/hid/midi.h **** #include "per/uart.h"
   9:../libDaisy/src/hid/midi.h **** #include "util/ringbuffer.h"
  10:../libDaisy/src/hid/midi.h **** #include "util/FIFO.h"
  11:../libDaisy/src/hid/midi.h **** #include "hid/midi_parser.h"
  12:../libDaisy/src/hid/midi.h **** #include "hid/usb_midi.h"
  13:../libDaisy/src/hid/midi.h **** #include "sys/dma.h"
  14:../libDaisy/src/hid/midi.h **** #include "sys/system.h"
  15:../libDaisy/src/hid/midi.h **** 
  16:../libDaisy/src/hid/midi.h **** namespace daisy
  17:../libDaisy/src/hid/midi.h **** {
  18:../libDaisy/src/hid/midi.h **** /** @brief   Transport layer for sending and receiving MIDI data over UART
  19:../libDaisy/src/hid/midi.h ****  *  @details This is the mode of communication used for TRS and DIN MIDI
  20:../libDaisy/src/hid/midi.h ****  *           There is an additional 2kB of RAM data used within this class
  21:../libDaisy/src/hid/midi.h ****  *           for processing bulk data from the UART peripheral
  22:../libDaisy/src/hid/midi.h ****  *  @ingroup midi
  23:../libDaisy/src/hid/midi.h **** */
  24:../libDaisy/src/hid/midi.h **** class MidiUartTransport
  25:../libDaisy/src/hid/midi.h **** {
  26:../libDaisy/src/hid/midi.h ****   public:
  27:../libDaisy/src/hid/midi.h ****     typedef void (*MidiRxParseCallback)(uint8_t* data,
  28:../libDaisy/src/hid/midi.h ****                                         size_t   size,
  29:../libDaisy/src/hid/midi.h ****                                         void*    context);
  30:../libDaisy/src/hid/midi.h **** 
  31:../libDaisy/src/hid/midi.h ****     MidiUartTransport() {}
  32:../libDaisy/src/hid/midi.h ****     ~MidiUartTransport() {}
  33:../libDaisy/src/hid/midi.h **** 
  34:../libDaisy/src/hid/midi.h ****     /** @brief Configuration structure for UART MIDI */
  35:../libDaisy/src/hid/midi.h ****     struct Config
  36:../libDaisy/src/hid/midi.h ****     {
  37:../libDaisy/src/hid/midi.h ****         UartHandler::Config::Peripheral periph;
ARM GAS  /tmp/ccSY3rLK.s 			page 10


  38:../libDaisy/src/hid/midi.h ****         dsy_gpio_pin                    rx;
  39:../libDaisy/src/hid/midi.h ****         dsy_gpio_pin                    tx;
  40:../libDaisy/src/hid/midi.h **** 
  41:../libDaisy/src/hid/midi.h ****         /** Pointer to buffer for DMA UART rx byte transfer in background.
  42:../libDaisy/src/hid/midi.h ****          *
  43:../libDaisy/src/hid/midi.h ****          *  @details By default this uses a shared buffer in DMA_BUFFER_MEM_SECTION,
  44:../libDaisy/src/hid/midi.h ****          *           which can only be utilized for a single UART peripheral. To
  45:../libDaisy/src/hid/midi.h ****          *           use MIDI with multiple UART peripherals, you must provide your own
  46:../libDaisy/src/hid/midi.h ****          *           buffer, allocated to a DMA-capable memory section.
  47:../libDaisy/src/hid/midi.h ****          */
  48:../libDaisy/src/hid/midi.h ****         uint8_t* rx_buffer;
  49:../libDaisy/src/hid/midi.h **** 
  50:../libDaisy/src/hid/midi.h ****         /** Size in bytes of rx_buffer.
  51:../libDaisy/src/hid/midi.h ****          *
  52:../libDaisy/src/hid/midi.h ****          *  @details This size determines the maximum Rx bytes readable by the UART in the backgrou
  53:../libDaisy/src/hid/midi.h ****          *           By default it's set to the size of the default shared rx_buffer (256 bytes).
  54:../libDaisy/src/hid/midi.h ****          *           While much smaller sizes can be used, data can get missed if the buffer is too
  55:../libDaisy/src/hid/midi.h ****          */
  56:../libDaisy/src/hid/midi.h ****         size_t rx_buffer_size;
  57:../libDaisy/src/hid/midi.h **** 
  58:../libDaisy/src/hid/midi.h ****         Config();
  59:../libDaisy/src/hid/midi.h ****     };
  60:../libDaisy/src/hid/midi.h **** 
  61:../libDaisy/src/hid/midi.h ****     /** @brief Initialization of UART using config struct */
  62:../libDaisy/src/hid/midi.h ****     inline void Init(Config config)
  63:../libDaisy/src/hid/midi.h ****     {
  64:../libDaisy/src/hid/midi.h ****         UartHandler::Config uart_config;
  65:../libDaisy/src/hid/midi.h **** 
  66:../libDaisy/src/hid/midi.h ****         //defaults
  67:../libDaisy/src/hid/midi.h ****         uart_config.baudrate   = 31250;
  68:../libDaisy/src/hid/midi.h ****         uart_config.stopbits   = UartHandler::Config::StopBits::BITS_1;
  69:../libDaisy/src/hid/midi.h ****         uart_config.parity     = UartHandler::Config::Parity::NONE;
  70:../libDaisy/src/hid/midi.h ****         uart_config.mode       = UartHandler::Config::Mode::TX_RX;
  71:../libDaisy/src/hid/midi.h ****         uart_config.wordlength = UartHandler::Config::WordLength::BITS_8;
  72:../libDaisy/src/hid/midi.h **** 
  73:../libDaisy/src/hid/midi.h ****         //user settings
  74:../libDaisy/src/hid/midi.h ****         uart_config.periph        = config.periph;
  75:../libDaisy/src/hid/midi.h ****         uart_config.pin_config.rx = config.rx;
  76:../libDaisy/src/hid/midi.h ****         uart_config.pin_config.tx = config.tx;
  77:../libDaisy/src/hid/midi.h **** 
  78:../libDaisy/src/hid/midi.h ****         rx_buffer      = config.rx_buffer;
  79:../libDaisy/src/hid/midi.h ****         rx_buffer_size = config.rx_buffer_size;
  80:../libDaisy/src/hid/midi.h **** 
  81:../libDaisy/src/hid/midi.h ****         /** zero the buffer to ensure emptiness regardless of source memory */
  82:../libDaisy/src/hid/midi.h ****         std::fill(rx_buffer, rx_buffer + rx_buffer_size, 0);
  83:../libDaisy/src/hid/midi.h **** 
  84:../libDaisy/src/hid/midi.h ****         uart_.Init(uart_config);
  85:../libDaisy/src/hid/midi.h ****     }
  86:../libDaisy/src/hid/midi.h **** 
  87:../libDaisy/src/hid/midi.h ****     /** @brief Start the UART peripheral in listening mode.
  88:../libDaisy/src/hid/midi.h ****      *  This will fill an internal data structure in the background */
  89:../libDaisy/src/hid/midi.h ****     inline void StartRx(MidiRxParseCallback parse_callback, void* context)
  90:../libDaisy/src/hid/midi.h ****     {
  91:../libDaisy/src/hid/midi.h ****         parse_context_  = context;
  92:../libDaisy/src/hid/midi.h ****         parse_callback_ = parse_callback;
  93:../libDaisy/src/hid/midi.h ****         dsy_dma_clear_cache_for_buffer((uint8_t*)this,
  94:../libDaisy/src/hid/midi.h ****                                        sizeof(MidiUartTransport));
ARM GAS  /tmp/ccSY3rLK.s 			page 11


  95:../libDaisy/src/hid/midi.h ****         uart_.DmaListenStart(
  96:../libDaisy/src/hid/midi.h ****             rx_buffer, rx_buffer_size, MidiUartTransport::rxCallback, this);
  97:../libDaisy/src/hid/midi.h ****     }
  98:../libDaisy/src/hid/midi.h **** 
  99:../libDaisy/src/hid/midi.h ****     /** @brief returns whether the UART peripheral is actively listening in the background or not *
 100:../libDaisy/src/hid/midi.h ****     inline bool RxActive() { return uart_.IsListening(); }
 101:../libDaisy/src/hid/midi.h **** 
 102:../libDaisy/src/hid/midi.h ****     /** @brief This is a no-op for UART transport - Rx is via DMA callback with circular buffer */
 103:../libDaisy/src/hid/midi.h ****     inline void FlushRx() {}
 104:../libDaisy/src/hid/midi.h **** 
 105:../libDaisy/src/hid/midi.h ****     /** @brief sends the buffer of bytes out of the UART peripheral */
 106:../libDaisy/src/hid/midi.h ****     inline void Tx(uint8_t* buff, size_t size) { uart_.PollTx(buff, size); }
 107:../libDaisy/src/hid/midi.h **** 
 108:../libDaisy/src/hid/midi.h ****   private:
 109:../libDaisy/src/hid/midi.h ****     UartHandler         uart_;
 110:../libDaisy/src/hid/midi.h ****     uint8_t*            rx_buffer;
 111:../libDaisy/src/hid/midi.h ****     size_t              rx_buffer_size;
 112:../libDaisy/src/hid/midi.h ****     void*               parse_context_;
 113:../libDaisy/src/hid/midi.h ****     MidiRxParseCallback parse_callback_;
 114:../libDaisy/src/hid/midi.h **** 
 115:../libDaisy/src/hid/midi.h ****     /** Static callback for Uart MIDI that occurs when
 116:../libDaisy/src/hid/midi.h ****          *  new data is available from the peripheral.
 117:../libDaisy/src/hid/midi.h ****          *  The new data is transferred from the peripheral to the
 118:../libDaisy/src/hid/midi.h ****          *  MIDI instance's byte FIFO that feeds the MIDI parser.
 119:../libDaisy/src/hid/midi.h ****          *
 120:../libDaisy/src/hid/midi.h ****          *  TODO: Handle UartHandler errors better/at all.
 121:../libDaisy/src/hid/midi.h ****          *  (If there is a UART error, there's not really any recovery
 122:../libDaisy/src/hid/midi.h ****          *  option at the moment)
 123:../libDaisy/src/hid/midi.h ****          */
 124:../libDaisy/src/hid/midi.h ****     static void rxCallback(uint8_t*            data,
 125:../libDaisy/src/hid/midi.h ****                            size_t              size,
 126:../libDaisy/src/hid/midi.h ****                            void*               context,
 127:../libDaisy/src/hid/midi.h ****                            UartHandler::Result res)
 128:../libDaisy/src/hid/midi.h ****     {
 129:../libDaisy/src/hid/midi.h ****         /** Read context as transport type */
 130:../libDaisy/src/hid/midi.h ****         MidiUartTransport* transport
 131:../libDaisy/src/hid/midi.h ****             = reinterpret_cast<MidiUartTransport*>(context);
 132:../libDaisy/src/hid/midi.h ****         if(res == UartHandler::Result::OK)
 133:../libDaisy/src/hid/midi.h ****         {
 134:../libDaisy/src/hid/midi.h ****             if(transport->parse_callback_)
 135:../libDaisy/src/hid/midi.h ****             {
 136:../libDaisy/src/hid/midi.h ****                 transport->parse_callback_(
 137:../libDaisy/src/hid/midi.h ****                     data, size, transport->parse_context_);
 138:../libDaisy/src/hid/midi.h ****             }
 139:../libDaisy/src/hid/midi.h ****         }
 140:../libDaisy/src/hid/midi.h ****     }
 141:../libDaisy/src/hid/midi.h **** };
 142:../libDaisy/src/hid/midi.h **** 
 143:../libDaisy/src/hid/midi.h **** /**
 144:../libDaisy/src/hid/midi.h ****     @brief Simple MIDI Handler \n
 145:../libDaisy/src/hid/midi.h ****     Parses bytes from an input into valid MidiEvents. \n
 146:../libDaisy/src/hid/midi.h ****     The MidiEvents fill a FIFO queue that the user can pop messages from.
 147:../libDaisy/src/hid/midi.h ****     @author shensley
 148:../libDaisy/src/hid/midi.h ****     @date March 2020
 149:../libDaisy/src/hid/midi.h ****     @ingroup midi
 150:../libDaisy/src/hid/midi.h **** */
 151:../libDaisy/src/hid/midi.h **** template <typename Transport>
ARM GAS  /tmp/ccSY3rLK.s 			page 12


 152:../libDaisy/src/hid/midi.h **** class MidiHandler
 153:../libDaisy/src/hid/midi.h **** {
 154:../libDaisy/src/hid/midi.h ****   public:
 155:../libDaisy/src/hid/midi.h ****     MidiHandler() {}
 156:../libDaisy/src/hid/midi.h ****     ~MidiHandler() {}
  88              		.loc 7 156 5 is_stmt 1 view .LVU11
  89              	.LBB1212:
  90              	.LBI1212:
  91              		.file 8 "../libDaisy/src/util/FIFO.h"
   1:../libDaisy/src/util/FIFO.h **** #pragma once
   2:../libDaisy/src/util/FIFO.h **** 
   3:../libDaisy/src/util/FIFO.h **** #include <stdint.h>
   4:../libDaisy/src/util/FIFO.h **** #include <stddef.h>
   5:../libDaisy/src/util/FIFO.h **** #include <initializer_list>
   6:../libDaisy/src/util/FIFO.h **** 
   7:../libDaisy/src/util/FIFO.h **** namespace daisy
   8:../libDaisy/src/util/FIFO.h **** {
   9:../libDaisy/src/util/FIFO.h **** /** Capacity-independent base class for FIFO. Use FIFO instead. */
  10:../libDaisy/src/util/FIFO.h **** template <typename T>
  11:../libDaisy/src/util/FIFO.h **** class FIFOBase
  12:../libDaisy/src/util/FIFO.h **** {
  13:../libDaisy/src/util/FIFO.h ****   protected:
  14:../libDaisy/src/util/FIFO.h ****     FIFOBase(T* buffer, size_t bufferSize)
  15:../libDaisy/src/util/FIFO.h ****     : buffer_(buffer), bufferSize_(bufferSize), bufferIn_(0), bufferOut_(0)
  16:../libDaisy/src/util/FIFO.h ****     {
  17:../libDaisy/src/util/FIFO.h ****     }
  18:../libDaisy/src/util/FIFO.h **** 
  19:../libDaisy/src/util/FIFO.h ****     FIFOBase(T* buffer, size_t bufferSize, std::initializer_list<T> valuesToAdd)
  20:../libDaisy/src/util/FIFO.h ****     : buffer_(buffer), bufferSize_(bufferSize), bufferIn_(0), bufferOut_(0)
  21:../libDaisy/src/util/FIFO.h ****     {
  22:../libDaisy/src/util/FIFO.h ****         PushBack(valuesToAdd);
  23:../libDaisy/src/util/FIFO.h ****     }
  24:../libDaisy/src/util/FIFO.h **** 
  25:../libDaisy/src/util/FIFO.h ****   public:
  26:../libDaisy/src/util/FIFO.h ****     /** Copies all elements from another FIFO */
  27:../libDaisy/src/util/FIFO.h ****     FIFOBase<T>& operator=(const FIFOBase<T>& other)
  28:../libDaisy/src/util/FIFO.h ****     {
  29:../libDaisy/src/util/FIFO.h ****         bufferIn_ = bufferOut_ = 0;
  30:../libDaisy/src/util/FIFO.h ****         if(!other.IsEmpty())
  31:../libDaisy/src/util/FIFO.h ****         {
  32:../libDaisy/src/util/FIFO.h ****             int readPtr = other.bufferOut_;
  33:../libDaisy/src/util/FIFO.h ****             while((readPtr != other.bufferIn_) && (bufferIn_ < bufferSize_))
  34:../libDaisy/src/util/FIFO.h ****             {
  35:../libDaisy/src/util/FIFO.h ****                 buffer_[bufferIn_++] = other.buffer_[readPtr++];
  36:../libDaisy/src/util/FIFO.h ****                 if(readPtr >= other.bufferSize_)
  37:../libDaisy/src/util/FIFO.h ****                     readPtr -= other.bufferSize_;
  38:../libDaisy/src/util/FIFO.h ****             }
  39:../libDaisy/src/util/FIFO.h ****         }
  40:../libDaisy/src/util/FIFO.h ****         return *this;
  41:../libDaisy/src/util/FIFO.h ****     }
  42:../libDaisy/src/util/FIFO.h ****     ~FIFOBase() {}
  43:../libDaisy/src/util/FIFO.h **** 
  44:../libDaisy/src/util/FIFO.h ****     /** Removes all elements from the FIFO */
  45:../libDaisy/src/util/FIFO.h ****     void Clear() { bufferIn_ = bufferOut_ = 0; }
  46:../libDaisy/src/util/FIFO.h **** 
  47:../libDaisy/src/util/FIFO.h ****     /** Adds an element to the back of the buffer, returning true on
  48:../libDaisy/src/util/FIFO.h ****         success */
ARM GAS  /tmp/ccSY3rLK.s 			page 13


  49:../libDaisy/src/util/FIFO.h ****     bool PushBack(const T& elementToAdd)
  50:../libDaisy/src/util/FIFO.h ****     {
  51:../libDaisy/src/util/FIFO.h ****         if(!IsFull())
  52:../libDaisy/src/util/FIFO.h ****         {
  53:../libDaisy/src/util/FIFO.h ****             buffer_[bufferIn_++] = elementToAdd;
  54:../libDaisy/src/util/FIFO.h ****             if(bufferIn_ >= bufferSize_)
  55:../libDaisy/src/util/FIFO.h ****                 bufferIn_ -= bufferSize_;
  56:../libDaisy/src/util/FIFO.h ****             return true;
  57:../libDaisy/src/util/FIFO.h ****         }
  58:../libDaisy/src/util/FIFO.h ****         return false;
  59:../libDaisy/src/util/FIFO.h ****     }
  60:../libDaisy/src/util/FIFO.h **** 
  61:../libDaisy/src/util/FIFO.h ****     /** Adds multiple elements and returns the number of elements that were added */
  62:../libDaisy/src/util/FIFO.h ****     int PushBack(std::initializer_list<T> valuesToAdd)
  63:../libDaisy/src/util/FIFO.h ****     {
  64:../libDaisy/src/util/FIFO.h ****         int numAdded = 0;
  65:../libDaisy/src/util/FIFO.h ****         for(const auto& v : valuesToAdd)
  66:../libDaisy/src/util/FIFO.h ****         {
  67:../libDaisy/src/util/FIFO.h ****             if(IsFull())
  68:../libDaisy/src/util/FIFO.h ****                 return numAdded;
  69:../libDaisy/src/util/FIFO.h **** 
  70:../libDaisy/src/util/FIFO.h ****             PushBack(v);
  71:../libDaisy/src/util/FIFO.h ****             numAdded++;
  72:../libDaisy/src/util/FIFO.h ****         }
  73:../libDaisy/src/util/FIFO.h ****         return numAdded;
  74:../libDaisy/src/util/FIFO.h ****     }
  75:../libDaisy/src/util/FIFO.h **** 
  76:../libDaisy/src/util/FIFO.h ****     /** returns a reference to the last element */
  77:../libDaisy/src/util/FIFO.h ****     T& Back()
  78:../libDaisy/src/util/FIFO.h ****     {
  79:../libDaisy/src/util/FIFO.h ****         if(IsEmpty())
  80:../libDaisy/src/util/FIFO.h ****             // invalid, but better not pass a temporary T() object as a reference...
  81:../libDaisy/src/util/FIFO.h ****             return buffer_[0];
  82:../libDaisy/src/util/FIFO.h ****         int idx = bufferIn_ - 1;
  83:../libDaisy/src/util/FIFO.h ****         if(idx < 0)
  84:../libDaisy/src/util/FIFO.h ****             idx += bufferSize_;
  85:../libDaisy/src/util/FIFO.h ****         return buffer_[idx];
  86:../libDaisy/src/util/FIFO.h ****     }
  87:../libDaisy/src/util/FIFO.h **** 
  88:../libDaisy/src/util/FIFO.h ****     /** returns a reference to the last element */
  89:../libDaisy/src/util/FIFO.h ****     const T& Back() const
  90:../libDaisy/src/util/FIFO.h ****     {
  91:../libDaisy/src/util/FIFO.h ****         if(IsEmpty())
  92:../libDaisy/src/util/FIFO.h ****             // invalid, but better not pass a temporary T() object as a reference...
  93:../libDaisy/src/util/FIFO.h ****             return buffer_[0];
  94:../libDaisy/src/util/FIFO.h ****         int idx = bufferIn_ - 1;
  95:../libDaisy/src/util/FIFO.h ****         if(idx < 0)
  96:../libDaisy/src/util/FIFO.h ****             idx += bufferSize_;
  97:../libDaisy/src/util/FIFO.h ****         return buffer_[idx];
  98:../libDaisy/src/util/FIFO.h ****     }
  99:../libDaisy/src/util/FIFO.h **** 
 100:../libDaisy/src/util/FIFO.h ****     /** removes and returns an element from the front of the buffer */
 101:../libDaisy/src/util/FIFO.h ****     T PopFront()
 102:../libDaisy/src/util/FIFO.h ****     {
 103:../libDaisy/src/util/FIFO.h ****         if(IsEmpty())
 104:../libDaisy/src/util/FIFO.h ****             return T();
 105:../libDaisy/src/util/FIFO.h ****         else
ARM GAS  /tmp/ccSY3rLK.s 			page 14


 106:../libDaisy/src/util/FIFO.h ****         {
 107:../libDaisy/src/util/FIFO.h ****             const auto result = buffer_[bufferOut_];
 108:../libDaisy/src/util/FIFO.h ****             bufferOut_++;
 109:../libDaisy/src/util/FIFO.h ****             if(bufferOut_ >= bufferSize_)
 110:../libDaisy/src/util/FIFO.h ****                 bufferOut_ -= bufferSize_;
 111:../libDaisy/src/util/FIFO.h ****             return result;
 112:../libDaisy/src/util/FIFO.h ****         }
 113:../libDaisy/src/util/FIFO.h ****     }
 114:../libDaisy/src/util/FIFO.h **** 
 115:../libDaisy/src/util/FIFO.h ****     /** returns a copy of the first element */
 116:../libDaisy/src/util/FIFO.h ****     T& Front()
 117:../libDaisy/src/util/FIFO.h ****     {
 118:../libDaisy/src/util/FIFO.h ****         if(IsEmpty())
 119:../libDaisy/src/util/FIFO.h ****             // invalid, but better not pass a temporary T() object as a reference...
 120:../libDaisy/src/util/FIFO.h ****             return buffer_[0];
 121:../libDaisy/src/util/FIFO.h ****         return buffer_[bufferOut_];
 122:../libDaisy/src/util/FIFO.h ****     }
 123:../libDaisy/src/util/FIFO.h **** 
 124:../libDaisy/src/util/FIFO.h ****     /** returns a reference to the first element */
 125:../libDaisy/src/util/FIFO.h ****     const T& Front() const
 126:../libDaisy/src/util/FIFO.h ****     {
 127:../libDaisy/src/util/FIFO.h ****         if(IsEmpty())
 128:../libDaisy/src/util/FIFO.h ****             // invalid, but better not pass a temporary T() object as a reference...
 129:../libDaisy/src/util/FIFO.h ****             return buffer_[0];
 130:../libDaisy/src/util/FIFO.h ****         return buffer_[bufferOut_];
 131:../libDaisy/src/util/FIFO.h ****     }
 132:../libDaisy/src/util/FIFO.h **** 
 133:../libDaisy/src/util/FIFO.h ****     /** Returns true if the buffer contains an element equal to the provided value */
 134:../libDaisy/src/util/FIFO.h ****     bool Contains(const T& element)
 135:../libDaisy/src/util/FIFO.h ****     {
 136:../libDaisy/src/util/FIFO.h ****         auto idx = bufferOut_;
 137:../libDaisy/src/util/FIFO.h ****         while(idx != bufferIn_)
 138:../libDaisy/src/util/FIFO.h ****         {
 139:../libDaisy/src/util/FIFO.h ****             if(buffer_[idx] == element)
 140:../libDaisy/src/util/FIFO.h ****                 return true;
 141:../libDaisy/src/util/FIFO.h ****             idx++;
 142:../libDaisy/src/util/FIFO.h ****             if(idx >= bufferSize_)
 143:../libDaisy/src/util/FIFO.h ****                 idx -= bufferSize_;
 144:../libDaisy/src/util/FIFO.h ****         }
 145:../libDaisy/src/util/FIFO.h ****         return false;
 146:../libDaisy/src/util/FIFO.h ****     }
 147:../libDaisy/src/util/FIFO.h **** 
 148:../libDaisy/src/util/FIFO.h ****     /** Returns the number of elements in the buffer that are equal to the provided value */
 149:../libDaisy/src/util/FIFO.h ****     size_t CountEqualTo(const T& element)
 150:../libDaisy/src/util/FIFO.h ****     {
 151:../libDaisy/src/util/FIFO.h ****         size_t result = 0;
 152:../libDaisy/src/util/FIFO.h ****         size_t idx    = bufferOut_;
 153:../libDaisy/src/util/FIFO.h ****         while(idx != bufferIn_)
 154:../libDaisy/src/util/FIFO.h ****         {
 155:../libDaisy/src/util/FIFO.h ****             if(buffer_[idx] == element)
 156:../libDaisy/src/util/FIFO.h ****                 result++;
 157:../libDaisy/src/util/FIFO.h ****             idx++;
 158:../libDaisy/src/util/FIFO.h ****             if(idx >= bufferSize_)
 159:../libDaisy/src/util/FIFO.h ****                 idx -= bufferSize_;
 160:../libDaisy/src/util/FIFO.h ****         }
 161:../libDaisy/src/util/FIFO.h ****         return result;
 162:../libDaisy/src/util/FIFO.h ****     }
ARM GAS  /tmp/ccSY3rLK.s 			page 15


 163:../libDaisy/src/util/FIFO.h **** 
 164:../libDaisy/src/util/FIFO.h ****     /** returns true, if the buffer is empty */
 165:../libDaisy/src/util/FIFO.h ****     bool IsEmpty() const { return bufferIn_ == bufferOut_; }
 166:../libDaisy/src/util/FIFO.h **** 
 167:../libDaisy/src/util/FIFO.h ****     /** returns true, if the buffer is Full */
 168:../libDaisy/src/util/FIFO.h ****     bool IsFull() const { return GetNumElements() == bufferSize_ - 1; }
 169:../libDaisy/src/util/FIFO.h **** 
 170:../libDaisy/src/util/FIFO.h ****     /** returns the number of elements in the buffer */
 171:../libDaisy/src/util/FIFO.h ****     size_t GetNumElements() const
 172:../libDaisy/src/util/FIFO.h ****     {
 173:../libDaisy/src/util/FIFO.h ****         int32_t numElements = bufferIn_ - bufferOut_;
 174:../libDaisy/src/util/FIFO.h ****         if(numElements < 0)
 175:../libDaisy/src/util/FIFO.h ****             numElements += bufferSize_;
 176:../libDaisy/src/util/FIFO.h ****         return size_t(numElements);
 177:../libDaisy/src/util/FIFO.h ****     }
 178:../libDaisy/src/util/FIFO.h **** 
 179:../libDaisy/src/util/FIFO.h ****     /** inserts an element "idx" positions behind the first element and returns true if successful 
 180:../libDaisy/src/util/FIFO.h ****     bool Insert(size_t idx, const T& element)
 181:../libDaisy/src/util/FIFO.h ****     {
 182:../libDaisy/src/util/FIFO.h ****         if(idx > GetNumElements())
 183:../libDaisy/src/util/FIFO.h ****             return false;
 184:../libDaisy/src/util/FIFO.h ****         if(IsFull())
 185:../libDaisy/src/util/FIFO.h ****             return false;
 186:../libDaisy/src/util/FIFO.h ****         if(idx == GetNumElements())
 187:../libDaisy/src/util/FIFO.h ****         {
 188:../libDaisy/src/util/FIFO.h ****             PushBack(element);
 189:../libDaisy/src/util/FIFO.h ****             return true;
 190:../libDaisy/src/util/FIFO.h ****         }
 191:../libDaisy/src/util/FIFO.h ****         // copy last element
 192:../libDaisy/src/util/FIFO.h ****         PushBack(Back());
 193:../libDaisy/src/util/FIFO.h ****         // move remaining elements: n => n+1
 194:../libDaisy/src/util/FIFO.h ****         for(int i = GetNumElements() - 2; i > int(idx); i--)
 195:../libDaisy/src/util/FIFO.h ****             (*this)[i] = (*this)[i - 1];
 196:../libDaisy/src/util/FIFO.h ****         // insert element
 197:../libDaisy/src/util/FIFO.h ****         (*this)[idx] = element;
 198:../libDaisy/src/util/FIFO.h ****         return true;
 199:../libDaisy/src/util/FIFO.h ****     }
 200:../libDaisy/src/util/FIFO.h **** 
 201:../libDaisy/src/util/FIFO.h ****     /** removes the element "idx" positions behind the first element 
 202:../libDaisy/src/util/FIFO.h ****      *  and returns true if successful */
 203:../libDaisy/src/util/FIFO.h ****     bool Remove(size_t idx)
 204:../libDaisy/src/util/FIFO.h ****     {
 205:../libDaisy/src/util/FIFO.h ****         if(idx >= GetNumElements())
 206:../libDaisy/src/util/FIFO.h ****             return false;
 207:../libDaisy/src/util/FIFO.h **** 
 208:../libDaisy/src/util/FIFO.h ****         size_t index = bufferOut_ + idx;
 209:../libDaisy/src/util/FIFO.h ****         if(index >= bufferSize_)
 210:../libDaisy/src/util/FIFO.h ****             index -= bufferSize_;
 211:../libDaisy/src/util/FIFO.h ****         size_t nextIndex = index + 1;
 212:../libDaisy/src/util/FIFO.h ****         if(nextIndex >= bufferSize_)
 213:../libDaisy/src/util/FIFO.h ****             nextIndex -= bufferSize_;
 214:../libDaisy/src/util/FIFO.h **** 
 215:../libDaisy/src/util/FIFO.h ****         while(nextIndex != bufferIn_)
 216:../libDaisy/src/util/FIFO.h ****         {
 217:../libDaisy/src/util/FIFO.h ****             buffer_[index] = buffer_[nextIndex];
 218:../libDaisy/src/util/FIFO.h ****             index++;
 219:../libDaisy/src/util/FIFO.h ****             nextIndex++;
ARM GAS  /tmp/ccSY3rLK.s 			page 16


 220:../libDaisy/src/util/FIFO.h ****             if(index >= bufferSize_)
 221:../libDaisy/src/util/FIFO.h ****                 index -= bufferSize_;
 222:../libDaisy/src/util/FIFO.h ****             if(nextIndex >= bufferSize_)
 223:../libDaisy/src/util/FIFO.h ****                 nextIndex -= bufferSize_;
 224:../libDaisy/src/util/FIFO.h ****         }
 225:../libDaisy/src/util/FIFO.h **** 
 226:../libDaisy/src/util/FIFO.h ****         int32_t nextBufferIn = int32_t(bufferIn_) - 1;
 227:../libDaisy/src/util/FIFO.h ****         if(nextBufferIn < 0)
 228:../libDaisy/src/util/FIFO.h ****             nextBufferIn += bufferSize_;
 229:../libDaisy/src/util/FIFO.h ****         bufferIn_ = size_t(nextBufferIn);
 230:../libDaisy/src/util/FIFO.h **** 
 231:../libDaisy/src/util/FIFO.h ****         return true;
 232:../libDaisy/src/util/FIFO.h ****     }
 233:../libDaisy/src/util/FIFO.h **** 
 234:../libDaisy/src/util/FIFO.h ****     /** removes all elements from the buffer for which
 235:../libDaisy/src/util/FIFO.h ****         (buffer(index) == element) returns true and returns the number of
 236:../libDaisy/src/util/FIFO.h ****         elements that were removed. */
 237:../libDaisy/src/util/FIFO.h ****     size_t RemoveAllEqualTo(const T& element)
 238:../libDaisy/src/util/FIFO.h ****     {
 239:../libDaisy/src/util/FIFO.h ****         size_t numRemoved = 0;
 240:../libDaisy/src/util/FIFO.h ****         int    idx        = GetNumElements() - 1;
 241:../libDaisy/src/util/FIFO.h ****         while(idx >= 0)
 242:../libDaisy/src/util/FIFO.h ****         {
 243:../libDaisy/src/util/FIFO.h ****             if((*this)[idx] == element)
 244:../libDaisy/src/util/FIFO.h ****             {
 245:../libDaisy/src/util/FIFO.h ****                 numRemoved++;
 246:../libDaisy/src/util/FIFO.h ****                 Remove(idx);
 247:../libDaisy/src/util/FIFO.h ****                 // was that the last element?
 248:../libDaisy/src/util/FIFO.h ****                 if(idx == int(GetNumElements()) - 1)
 249:../libDaisy/src/util/FIFO.h ****                     idx--;
 250:../libDaisy/src/util/FIFO.h ****             }
 251:../libDaisy/src/util/FIFO.h ****             else
 252:../libDaisy/src/util/FIFO.h ****                 idx--;
 253:../libDaisy/src/util/FIFO.h ****         }
 254:../libDaisy/src/util/FIFO.h ****         return numRemoved;
 255:../libDaisy/src/util/FIFO.h ****     }
 256:../libDaisy/src/util/FIFO.h **** 
 257:../libDaisy/src/util/FIFO.h ****     /** returns the element "idx" positions behind the first element */
 258:../libDaisy/src/util/FIFO.h ****     T& operator[](size_t idx)
 259:../libDaisy/src/util/FIFO.h ****     {
 260:../libDaisy/src/util/FIFO.h ****         if(idx >= GetNumElements())
 261:../libDaisy/src/util/FIFO.h ****             // invalid, but better not pass a temporary T() object as a reference...
 262:../libDaisy/src/util/FIFO.h ****             return buffer_[0];
 263:../libDaisy/src/util/FIFO.h **** 
 264:../libDaisy/src/util/FIFO.h ****         size_t index = bufferOut_ + idx;
 265:../libDaisy/src/util/FIFO.h ****         if(index >= bufferSize_)
 266:../libDaisy/src/util/FIFO.h ****             index -= bufferSize_;
 267:../libDaisy/src/util/FIFO.h ****         return buffer_[index];
 268:../libDaisy/src/util/FIFO.h ****     }
 269:../libDaisy/src/util/FIFO.h **** 
 270:../libDaisy/src/util/FIFO.h ****     /** returns the element "idx" positions behind the first element */
 271:../libDaisy/src/util/FIFO.h ****     const T& operator[](size_t idx) const
 272:../libDaisy/src/util/FIFO.h ****     {
 273:../libDaisy/src/util/FIFO.h ****         if(idx >= GetNumElements())
 274:../libDaisy/src/util/FIFO.h ****             // invalid, but better not pass a temporary T() object as a reference...
 275:../libDaisy/src/util/FIFO.h ****             return buffer_[0];
 276:../libDaisy/src/util/FIFO.h **** 
ARM GAS  /tmp/ccSY3rLK.s 			page 17


 277:../libDaisy/src/util/FIFO.h ****         size_t index = bufferOut_ + idx;
 278:../libDaisy/src/util/FIFO.h ****         if(index >= bufferSize_)
 279:../libDaisy/src/util/FIFO.h ****             index -= bufferSize_;
 280:../libDaisy/src/util/FIFO.h ****         return buffer_[index];
 281:../libDaisy/src/util/FIFO.h ****     }
 282:../libDaisy/src/util/FIFO.h **** 
 283:../libDaisy/src/util/FIFO.h ****     /** returns the total capacity */
 284:../libDaisy/src/util/FIFO.h ****     size_t GetCapacity() const { return bufferSize_ - 1; }
 285:../libDaisy/src/util/FIFO.h **** 
 286:../libDaisy/src/util/FIFO.h ****   private:
 287:../libDaisy/src/util/FIFO.h ****     FIFOBase(const FIFOBase<T>&) {} // non copyable
 288:../libDaisy/src/util/FIFO.h **** 
 289:../libDaisy/src/util/FIFO.h ****   private:
 290:../libDaisy/src/util/FIFO.h ****     T*           buffer_;
 291:../libDaisy/src/util/FIFO.h ****     const size_t bufferSize_;
 292:../libDaisy/src/util/FIFO.h ****     size_t       bufferIn_;
 293:../libDaisy/src/util/FIFO.h ****     size_t       bufferOut_;
 294:../libDaisy/src/util/FIFO.h **** };
 295:../libDaisy/src/util/FIFO.h **** 
 296:../libDaisy/src/util/FIFO.h **** /** A simple FIFO ring buffer with a fixed size. */
 297:../libDaisy/src/util/FIFO.h **** template <typename T, size_t capacity>
 298:../libDaisy/src/util/FIFO.h **** class FIFO : public FIFOBase<T>
  92              		.loc 8 298 7 view .LVU12
  93              	.LBB1213:
  94              	.LBI1213:
  42:../libDaisy/src/util/FIFO.h **** 
  95              		.loc 8 42 5 view .LVU13
  42:../libDaisy/src/util/FIFO.h **** 
  96              		.loc 8 42 5 is_stmt 0 view .LVU14
  97              	.LBE1213:
  98              	.LBE1212:
  99              	.LBB1214:
 100              	.LBI1214:
 101              		.file 9 "../libDaisy/src/hid/midi_parser.h"
   1:../libDaisy/src/hid/midi_parser.h **** #pragma once
   2:../libDaisy/src/hid/midi_parser.h **** #ifndef DSY_MIDI_PARSER_H
   3:../libDaisy/src/hid/midi_parser.h **** #define DSY_MIDI_PARSER_H
   4:../libDaisy/src/hid/midi_parser.h **** 
   5:../libDaisy/src/hid/midi_parser.h **** #include <stdint.h>
   6:../libDaisy/src/hid/midi_parser.h **** #include <stdlib.h>
   7:../libDaisy/src/hid/midi_parser.h **** #include "hid/MidiEvent.h"
   8:../libDaisy/src/hid/midi_parser.h **** 
   9:../libDaisy/src/hid/midi_parser.h **** namespace daisy
  10:../libDaisy/src/hid/midi_parser.h **** {
  11:../libDaisy/src/hid/midi_parser.h **** /** @brief   Utility class for parsing raw byte streams into MIDI messages
  12:../libDaisy/src/hid/midi_parser.h ****  *  @details Implemented as a state machine designed to parse one byte at a time
  13:../libDaisy/src/hid/midi_parser.h ****  *  @ingroup midi
  14:../libDaisy/src/hid/midi_parser.h ****  */
  15:../libDaisy/src/hid/midi_parser.h **** class MidiParser
  16:../libDaisy/src/hid/midi_parser.h **** {
  17:../libDaisy/src/hid/midi_parser.h ****   public:
  18:../libDaisy/src/hid/midi_parser.h ****     MidiParser(){};
  19:../libDaisy/src/hid/midi_parser.h ****     ~MidiParser() {}
 102              		.loc 9 19 5 is_stmt 1 view .LVU15
 103              		.loc 9 19 5 is_stmt 0 view .LVU16
 104              	.LBE1214:
 105              	.LBB1215:
ARM GAS  /tmp/ccSY3rLK.s 			page 18


 106              	.LBI1215:
  32:../libDaisy/src/hid/midi.h **** 
 107              		.loc 7 32 5 is_stmt 1 view .LVU17
  32:../libDaisy/src/hid/midi.h **** 
 108              		.loc 7 32 5 is_stmt 0 view .LVU18
 109              	.LBE1215:
 110              	.LBE1211:
 111              	.LBB1216:
 112              	.LBI1216:
 113              		.file 10 "../libDaisy/src/hid/encoder.h"
   1:../libDaisy/src/hid/encoder.h **** #pragma once
   2:../libDaisy/src/hid/encoder.h **** #ifndef DSY_ENCODER_H
   3:../libDaisy/src/hid/encoder.h **** #define DSY_ENCODER_H
   4:../libDaisy/src/hid/encoder.h **** #include "daisy_core.h"
   5:../libDaisy/src/hid/encoder.h **** #include "per/gpio.h"
   6:../libDaisy/src/hid/encoder.h **** #include "hid/switch.h"
   7:../libDaisy/src/hid/encoder.h **** 
   8:../libDaisy/src/hid/encoder.h **** namespace daisy
   9:../libDaisy/src/hid/encoder.h **** {
  10:../libDaisy/src/hid/encoder.h **** /** 
  11:../libDaisy/src/hid/encoder.h ****     @brief Generic Class for handling Quadrature Encoders \n 
  12:../libDaisy/src/hid/encoder.h ****     Inspired/influenced by Mutable Instruments (pichenettes) Encoder classes
  13:../libDaisy/src/hid/encoder.h ****     @author Stephen Hensley
  14:../libDaisy/src/hid/encoder.h ****     @date December 2019
  15:../libDaisy/src/hid/encoder.h ****     @ingroup controls
  16:../libDaisy/src/hid/encoder.h **** */
  17:../libDaisy/src/hid/encoder.h **** class Encoder
  18:../libDaisy/src/hid/encoder.h **** {
  19:../libDaisy/src/hid/encoder.h ****   public:
  20:../libDaisy/src/hid/encoder.h ****     Encoder() {}
  21:../libDaisy/src/hid/encoder.h ****     ~Encoder() {}
 114              		.loc 10 21 5 is_stmt 1 view .LVU19
 115              	.LBB1217:
 116              	.LBI1217:
 117              		.file 11 "../libDaisy/src/hid/switch.h"
   1:../libDaisy/src/hid/switch.h **** #pragma once
   2:../libDaisy/src/hid/switch.h **** #ifndef DSY_SWITCH_H
   3:../libDaisy/src/hid/switch.h **** #define DSY_SWITCH_H
   4:../libDaisy/src/hid/switch.h **** #include "daisy_core.h"
   5:../libDaisy/src/hid/switch.h **** #include "per/gpio.h"
   6:../libDaisy/src/hid/switch.h **** #include "sys/system.h"
   7:../libDaisy/src/hid/switch.h **** 
   8:../libDaisy/src/hid/switch.h **** namespace daisy
   9:../libDaisy/src/hid/switch.h **** {
  10:../libDaisy/src/hid/switch.h **** /** 
  11:../libDaisy/src/hid/switch.h ****     Generic Class for handling momentary/latching switches \n 
  12:../libDaisy/src/hid/switch.h ****     Inspired/influenced by Mutable Instruments (pichenettes) Switch classes
  13:../libDaisy/src/hid/switch.h ****     @author Stephen Hensley
  14:../libDaisy/src/hid/switch.h ****     @date December 2019
  15:../libDaisy/src/hid/switch.h ****     @ingroup controls
  16:../libDaisy/src/hid/switch.h **** */
  17:../libDaisy/src/hid/switch.h **** class Switch
  18:../libDaisy/src/hid/switch.h **** {
  19:../libDaisy/src/hid/switch.h ****   public:
  20:../libDaisy/src/hid/switch.h ****     /** Specifies the expected behavior of the switch */
  21:../libDaisy/src/hid/switch.h ****     enum Type
  22:../libDaisy/src/hid/switch.h ****     {
ARM GAS  /tmp/ccSY3rLK.s 			page 19


  23:../libDaisy/src/hid/switch.h ****         TYPE_TOGGLE,    /**< & */
  24:../libDaisy/src/hid/switch.h ****         TYPE_MOMENTARY, /**< & */
  25:../libDaisy/src/hid/switch.h ****     };
  26:../libDaisy/src/hid/switch.h ****     /** Specifies whether the pressed is HIGH or LOW. */
  27:../libDaisy/src/hid/switch.h ****     enum Polarity
  28:../libDaisy/src/hid/switch.h ****     {
  29:../libDaisy/src/hid/switch.h ****         POLARITY_NORMAL,   /**< & */
  30:../libDaisy/src/hid/switch.h ****         POLARITY_INVERTED, /**< & */
  31:../libDaisy/src/hid/switch.h ****     };
  32:../libDaisy/src/hid/switch.h **** 
  33:../libDaisy/src/hid/switch.h ****     /** Specifies whether to use built-in Pull Up/Down resistors to hold button at a given state wh
  34:../libDaisy/src/hid/switch.h ****     enum Pull
  35:../libDaisy/src/hid/switch.h ****     {
  36:../libDaisy/src/hid/switch.h ****         PULL_UP,   /**< & */
  37:../libDaisy/src/hid/switch.h ****         PULL_DOWN, /**< & */
  38:../libDaisy/src/hid/switch.h ****         PULL_NONE, /**< & */
  39:../libDaisy/src/hid/switch.h ****     };
  40:../libDaisy/src/hid/switch.h **** 
  41:../libDaisy/src/hid/switch.h ****     Switch() {}
  42:../libDaisy/src/hid/switch.h ****     ~Switch() {}
 118              		.loc 11 42 5 view .LVU20
 119              		.loc 11 42 5 is_stmt 0 view .LVU21
 120              	.LBE1217:
 121              	.LBE1216:
 122              	.LBB1218:
 123              	.LBI1218:
 124              		.file 12 "../libDaisy/src/daisy_seed.h"
   1:../libDaisy/src/daisy_seed.h **** #pragma once
   2:../libDaisy/src/daisy_seed.h **** #ifndef DSY_SEED_H
   3:../libDaisy/src/daisy_seed.h **** #define DSY_SEED_H
   4:../libDaisy/src/daisy_seed.h **** 
   5:../libDaisy/src/daisy_seed.h **** #include "daisy.h"
   6:../libDaisy/src/daisy_seed.h **** 
   7:../libDaisy/src/daisy_seed.h **** //Uncomment this out if you're still using the rev2 hardware
   8:../libDaisy/src/daisy_seed.h **** //#define SEED_REV2
   9:../libDaisy/src/daisy_seed.h **** 
  10:../libDaisy/src/daisy_seed.h **** namespace daisy
  11:../libDaisy/src/daisy_seed.h **** {
  12:../libDaisy/src/daisy_seed.h **** /**
  13:../libDaisy/src/daisy_seed.h ****    @brief This is the higher-level interface for the Daisy board. \n 
  14:../libDaisy/src/daisy_seed.h ****     All basic peripheral configuration/initialization is setup here. \n
  15:../libDaisy/src/daisy_seed.h **** 
  16:../libDaisy/src/daisy_seed.h ****    @ingroup boards
  17:../libDaisy/src/daisy_seed.h **** */
  18:../libDaisy/src/daisy_seed.h **** class DaisySeed
  19:../libDaisy/src/daisy_seed.h **** {
  20:../libDaisy/src/daisy_seed.h ****   public:
  21:../libDaisy/src/daisy_seed.h ****     DaisySeed() {}
  22:../libDaisy/src/daisy_seed.h ****     ~DaisySeed() {}
 125              		.loc 12 22 5 is_stmt 1 view .LVU22
 126              	.LBB1219:
 127              	.LBI1219:
 128              		.file 13 "../libDaisy/src/sys/system.h"
   1:../libDaisy/src/sys/system.h **** #ifndef DSY_SYSTEM_H
   2:../libDaisy/src/sys/system.h **** #define DSY_SYSTEM_H
   3:../libDaisy/src/sys/system.h **** 
   4:../libDaisy/src/sys/system.h **** #ifndef UNIT_TEST // for unit tests, a dummy implementation is provided below
ARM GAS  /tmp/ccSY3rLK.s 			page 20


   5:../libDaisy/src/sys/system.h **** 
   6:../libDaisy/src/sys/system.h **** #include <cstdint>
   7:../libDaisy/src/sys/system.h **** #include "per/tim.h"
   8:../libDaisy/src/sys/system.h **** 
   9:../libDaisy/src/sys/system.h **** namespace daisy
  10:../libDaisy/src/sys/system.h **** {
  11:../libDaisy/src/sys/system.h **** /** A handle for interacting with the Core System. 
  12:../libDaisy/src/sys/system.h ****  ** This includes the Clock tree, MPU, global DMA initialization,
  13:../libDaisy/src/sys/system.h ****  ** cache handling, and any other necessary global initiailzation
  14:../libDaisy/src/sys/system.h ****  **
  15:../libDaisy/src/sys/system.h ****  ** @author shensley
  16:../libDaisy/src/sys/system.h ****  ** @ingroup system
  17:../libDaisy/src/sys/system.h ****  */
  18:../libDaisy/src/sys/system.h **** class System
  19:../libDaisy/src/sys/system.h **** {
  20:../libDaisy/src/sys/system.h ****   public:
  21:../libDaisy/src/sys/system.h ****     /** Contains settings for initializing the System */
  22:../libDaisy/src/sys/system.h ****     struct Config
  23:../libDaisy/src/sys/system.h ****     {
  24:../libDaisy/src/sys/system.h ****         /** Specifies the system clock frequency that feeds APB/AHB clocks, etc. */
  25:../libDaisy/src/sys/system.h ****         enum class SysClkFreq
  26:../libDaisy/src/sys/system.h ****         {
  27:../libDaisy/src/sys/system.h ****             FREQ_400MHZ,
  28:../libDaisy/src/sys/system.h ****             FREQ_480MHZ,
  29:../libDaisy/src/sys/system.h ****         };
  30:../libDaisy/src/sys/system.h **** 
  31:../libDaisy/src/sys/system.h ****         /** Method to call on the struct to set to defaults
  32:../libDaisy/src/sys/system.h ****          ** CPU Freq set to 400MHz
  33:../libDaisy/src/sys/system.h ****          ** Cache Enabled 
  34:../libDaisy/src/sys/system.h ****          ** */
  35:../libDaisy/src/sys/system.h ****         void Defaults()
  36:../libDaisy/src/sys/system.h ****         {
  37:../libDaisy/src/sys/system.h ****             cpu_freq    = SysClkFreq::FREQ_400MHZ;
  38:../libDaisy/src/sys/system.h ****             use_dcache  = true;
  39:../libDaisy/src/sys/system.h ****             use_icache  = true;
  40:../libDaisy/src/sys/system.h ****             skip_clocks = false;
  41:../libDaisy/src/sys/system.h ****         }
  42:../libDaisy/src/sys/system.h **** 
  43:../libDaisy/src/sys/system.h ****         /** Method to call on the struct to set to boost mode:
  44:../libDaisy/src/sys/system.h ****          ** CPU Freq set to 480MHz
  45:../libDaisy/src/sys/system.h ****          ** Cache Enabled 
  46:../libDaisy/src/sys/system.h ****          ** */
  47:../libDaisy/src/sys/system.h ****         void Boost()
  48:../libDaisy/src/sys/system.h ****         {
  49:../libDaisy/src/sys/system.h ****             cpu_freq    = SysClkFreq::FREQ_480MHZ;
  50:../libDaisy/src/sys/system.h ****             use_dcache  = true;
  51:../libDaisy/src/sys/system.h ****             use_icache  = true;
  52:../libDaisy/src/sys/system.h ****             skip_clocks = false;
  53:../libDaisy/src/sys/system.h ****         }
  54:../libDaisy/src/sys/system.h **** 
  55:../libDaisy/src/sys/system.h ****         SysClkFreq cpu_freq;
  56:../libDaisy/src/sys/system.h ****         bool       use_dcache;
  57:../libDaisy/src/sys/system.h ****         bool       use_icache;
  58:../libDaisy/src/sys/system.h ****         bool       skip_clocks;
  59:../libDaisy/src/sys/system.h ****     };
  60:../libDaisy/src/sys/system.h **** 
  61:../libDaisy/src/sys/system.h ****     /** Describes the different regions of memory available to the Daisy
ARM GAS  /tmp/ccSY3rLK.s 			page 21


  62:../libDaisy/src/sys/system.h ****      * 
  63:../libDaisy/src/sys/system.h ****      */
  64:../libDaisy/src/sys/system.h ****     enum MemoryRegion
  65:../libDaisy/src/sys/system.h ****     {
  66:../libDaisy/src/sys/system.h ****         INTERNAL_FLASH = 0,
  67:../libDaisy/src/sys/system.h ****         ITCMRAM,
  68:../libDaisy/src/sys/system.h ****         DTCMRAM,
  69:../libDaisy/src/sys/system.h ****         SRAM_D1,
  70:../libDaisy/src/sys/system.h ****         SRAM_D2,
  71:../libDaisy/src/sys/system.h ****         SRAM_D3,
  72:../libDaisy/src/sys/system.h ****         SDRAM,
  73:../libDaisy/src/sys/system.h ****         QSPI,
  74:../libDaisy/src/sys/system.h ****         INVALID_ADDRESS,
  75:../libDaisy/src/sys/system.h ****     };
  76:../libDaisy/src/sys/system.h **** 
  77:../libDaisy/src/sys/system.h ****     System() {}
  78:../libDaisy/src/sys/system.h ****     ~System() {}
 129              		.loc 13 78 5 view .LVU23
 130              		.loc 13 78 5 is_stmt 0 view .LVU24
 131              	.LBE1219:
 132              	.LBB1220:
 133              	.LBI1220:
 134              		.file 14 "../libDaisy/src/hid/usb.h"
   1:../libDaisy/src/hid/usb.h **** #pragma once
   2:../libDaisy/src/hid/usb.h **** #ifndef DSY_HID_USB_H
   3:../libDaisy/src/hid/usb.h **** #define DSY_HID_USB_H
   4:../libDaisy/src/hid/usb.h **** #include <stdint.h>
   5:../libDaisy/src/hid/usb.h **** #include <stdlib.h>
   6:../libDaisy/src/hid/usb.h **** 
   7:../libDaisy/src/hid/usb.h **** namespace daisy
   8:../libDaisy/src/hid/usb.h **** /** @addtogroup human_interface
   9:../libDaisy/src/hid/usb.h ****     @{
  10:../libDaisy/src/hid/usb.h **** */
  11:../libDaisy/src/hid/usb.h **** 
  12:../libDaisy/src/hid/usb.h **** {
  13:../libDaisy/src/hid/usb.h **** /** 
  14:../libDaisy/src/hid/usb.h ****     @brief Interface for initializing and using the USB Peripherals on the daisy
  15:../libDaisy/src/hid/usb.h ****     @author Stephen Hensley
  16:../libDaisy/src/hid/usb.h ****     @date December 2019
  17:../libDaisy/src/hid/usb.h **** */
  18:../libDaisy/src/hid/usb.h **** class UsbHandle
  19:../libDaisy/src/hid/usb.h **** {
  20:../libDaisy/src/hid/usb.h ****   public:
  21:../libDaisy/src/hid/usb.h ****     /** Return values for USBHandle Functions */
  22:../libDaisy/src/hid/usb.h ****     enum class Result
  23:../libDaisy/src/hid/usb.h ****     {
  24:../libDaisy/src/hid/usb.h ****         OK,
  25:../libDaisy/src/hid/usb.h ****         ERR,
  26:../libDaisy/src/hid/usb.h ****     };
  27:../libDaisy/src/hid/usb.h **** 
  28:../libDaisy/src/hid/usb.h ****     /** Specified which of the two USB Peripherals to initialize. */
  29:../libDaisy/src/hid/usb.h ****     enum UsbPeriph
  30:../libDaisy/src/hid/usb.h ****     {
  31:../libDaisy/src/hid/usb.h ****         FS_INTERNAL, /**< Internal pin */
  32:../libDaisy/src/hid/usb.h ****         FS_EXTERNAL, /**< FS External D+ pin is Pin 38 (GPIO32). FS External D- pin is Pin 37 (GPIO
  33:../libDaisy/src/hid/usb.h ****         FS_BOTH,     /**< Both */
  34:../libDaisy/src/hid/usb.h ****     };
ARM GAS  /tmp/ccSY3rLK.s 			page 22


  35:../libDaisy/src/hid/usb.h **** 
  36:../libDaisy/src/hid/usb.h **** 
  37:../libDaisy/src/hid/usb.h ****     /** Function called upon reception of a buffer */
  38:../libDaisy/src/hid/usb.h ****     typedef void (*ReceiveCallback)(uint8_t* buff, uint32_t* len);
  39:../libDaisy/src/hid/usb.h **** 
  40:../libDaisy/src/hid/usb.h ****     UsbHandle() {}
  41:../libDaisy/src/hid/usb.h **** 
  42:../libDaisy/src/hid/usb.h ****     ~UsbHandle() {}
 135              		.loc 14 42 5 is_stmt 1 view .LVU25
 136              		.loc 14 42 5 is_stmt 0 view .LVU26
 137              	.LBE1220:
 138              	.LBB1221:
 139              	.LBI1221:
 140              		.file 15 "../libDaisy/src/per/adc.h"
   1:../libDaisy/src/per/adc.h **** #pragma once
   2:../libDaisy/src/per/adc.h **** #ifndef DSY_ADC_H
   3:../libDaisy/src/per/adc.h **** #define DSY_ADC_H /**< Macro */
   4:../libDaisy/src/per/adc.h **** #include <stdint.h>
   5:../libDaisy/src/per/adc.h **** #include <stdlib.h>
   6:../libDaisy/src/per/adc.h **** #include "daisy_core.h"
   7:../libDaisy/src/per/adc.h **** #include "per/gpio.h"
   8:../libDaisy/src/per/adc.h **** 
   9:../libDaisy/src/per/adc.h **** #define DSY_ADC_MAX_CHANNELS 16 /**< Maximum number of ADC channels */
  10:../libDaisy/src/per/adc.h **** 
  11:../libDaisy/src/per/adc.h **** namespace daisy
  12:../libDaisy/src/per/adc.h **** {
  13:../libDaisy/src/per/adc.h **** /** @addtogroup per_analog
  14:../libDaisy/src/per/adc.h ****     @{
  15:../libDaisy/src/per/adc.h **** */
  16:../libDaisy/src/per/adc.h **** 
  17:../libDaisy/src/per/adc.h **** /* While there may not be many configuration options here,
  18:../libDaisy/src/per/adc.h **** using a struct like this allows us to add more configuration
  19:../libDaisy/src/per/adc.h **** later without breaking existing functionality.
  20:../libDaisy/src/per/adc.h **** */
  21:../libDaisy/src/per/adc.h **** 
  22:../libDaisy/src/per/adc.h **** /** @brief   Configuration Structure for an ADC Channel 
  23:../libDaisy/src/per/adc.h ****  *  @details This can be used to configure a a single input, 
  24:../libDaisy/src/per/adc.h ****  *           or a multiplexed input, allowing up to 8 inputs on 
  25:../libDaisy/src/per/adc.h ****  *           one channel.
  26:../libDaisy/src/per/adc.h ****  *  @note    Sharing data lines to multiple muxes _is_ possible, but
  27:../libDaisy/src/per/adc.h ****  *           each channel sharing data lines must be set to the maximum
  28:../libDaisy/src/per/adc.h ****  *           number of channels, even if some multiplexers have fewer
  29:../libDaisy/src/per/adc.h ****  *           inputs connected.
  30:../libDaisy/src/per/adc.h **** */
  31:../libDaisy/src/per/adc.h **** struct AdcChannelConfig
  32:../libDaisy/src/per/adc.h **** {
  33:../libDaisy/src/per/adc.h ****     /** Which pin to use for multiplexing */
  34:../libDaisy/src/per/adc.h ****     enum MuxPin
  35:../libDaisy/src/per/adc.h ****     {
  36:../libDaisy/src/per/adc.h ****         MUX_SEL_0,    /**< & */
  37:../libDaisy/src/per/adc.h ****         MUX_SEL_1,    /**< & */
  38:../libDaisy/src/per/adc.h ****         MUX_SEL_2,    /**< & */
  39:../libDaisy/src/per/adc.h ****         MUX_SEL_LAST, /**< & */
  40:../libDaisy/src/per/adc.h ****     };
  41:../libDaisy/src/per/adc.h **** 
  42:../libDaisy/src/per/adc.h ****     /** \brief per channel conversion speed added to fixed time based on bitdepth, etc. */
  43:../libDaisy/src/per/adc.h ****     enum ConversionSpeed
ARM GAS  /tmp/ccSY3rLK.s 			page 23


  44:../libDaisy/src/per/adc.h ****     {
  45:../libDaisy/src/per/adc.h ****         SPEED_1CYCLES_5,
  46:../libDaisy/src/per/adc.h ****         SPEED_2CYCLES_5,
  47:../libDaisy/src/per/adc.h ****         SPEED_8CYCLES_5,
  48:../libDaisy/src/per/adc.h ****         SPEED_16CYCLES_5,
  49:../libDaisy/src/per/adc.h ****         SPEED_32CYCLES_5,
  50:../libDaisy/src/per/adc.h ****         SPEED_64CYCLES_5,
  51:../libDaisy/src/per/adc.h ****         SPEED_387CYCLES_5,
  52:../libDaisy/src/per/adc.h ****         SPEED_810CYCLES_5,
  53:../libDaisy/src/per/adc.h ****     };
  54:../libDaisy/src/per/adc.h **** 
  55:../libDaisy/src/per/adc.h ****     /** Initializes a single ADC pin as an ADC. 
  56:../libDaisy/src/per/adc.h ****     \param pin Pin to init.
  57:../libDaisy/src/per/adc.h ****     \param speed conversion speed for this pin defaults to 8.5 cycles
  58:../libDaisy/src/per/adc.h ****      */
  59:../libDaisy/src/per/adc.h ****     void InitSingle(dsy_gpio_pin pin, ConversionSpeed speed = SPEED_8CYCLES_5);
  60:../libDaisy/src/per/adc.h **** 
  61:../libDaisy/src/per/adc.h ****     /** 
  62:../libDaisy/src/per/adc.h ****     Initializes a single ADC pin as a Multiplexed ADC.
  63:../libDaisy/src/per/adc.h ****     Requires a CD405X Multiplexer connected to the pin.
  64:../libDaisy/src/per/adc.h ****     You only need to supply the mux pins that are required,
  65:../libDaisy/src/per/adc.h ****     e.g. a 4052 mux would only require mux_0 and mux_1.
  66:../libDaisy/src/per/adc.h ****     Internal Callbacks handle the pin addressing.
  67:../libDaisy/src/per/adc.h ****     \param adc_pin &
  68:../libDaisy/src/per/adc.h ****     \param mux_channels must be 1-8
  69:../libDaisy/src/per/adc.h ****     \param mux_0 First mux pin
  70:../libDaisy/src/per/adc.h ****     \param mux_1 Second mux pin
  71:../libDaisy/src/per/adc.h ****     \param mux_2 Third mux pin
  72:../libDaisy/src/per/adc.h ****     \param speed conversion speed for this pin defaults to 8.5 cycles
  73:../libDaisy/src/per/adc.h ****     */
  74:../libDaisy/src/per/adc.h ****     void InitMux(dsy_gpio_pin    adc_pin,
  75:../libDaisy/src/per/adc.h ****                  size_t          mux_channels,
  76:../libDaisy/src/per/adc.h ****                  dsy_gpio_pin    mux_0,
  77:../libDaisy/src/per/adc.h ****                  dsy_gpio_pin    mux_1 = {DSY_GPIOX, 0},
  78:../libDaisy/src/per/adc.h ****                  dsy_gpio_pin    mux_2 = {DSY_GPIOX, 0},
  79:../libDaisy/src/per/adc.h ****                  ConversionSpeed speed = SPEED_8CYCLES_5);
  80:../libDaisy/src/per/adc.h **** 
  81:../libDaisy/src/per/adc.h ****     dsy_gpio        pin_;                   /**< & */
  82:../libDaisy/src/per/adc.h ****     dsy_gpio        mux_pin_[MUX_SEL_LAST]; /**< & */
  83:../libDaisy/src/per/adc.h ****     uint8_t         mux_channels_;          /**< & */
  84:../libDaisy/src/per/adc.h ****     ConversionSpeed speed_;
  85:../libDaisy/src/per/adc.h **** };
  86:../libDaisy/src/per/adc.h **** 
  87:../libDaisy/src/per/adc.h **** /**
  88:../libDaisy/src/per/adc.h ****    @brief Handler for analog to digital conversion
  89:../libDaisy/src/per/adc.h **** */
  90:../libDaisy/src/per/adc.h **** class AdcHandle
  91:../libDaisy/src/per/adc.h **** {
  92:../libDaisy/src/per/adc.h ****   public:
  93:../libDaisy/src/per/adc.h ****     /** Supported oversampling amounts */
  94:../libDaisy/src/per/adc.h ****     enum OverSampling
  95:../libDaisy/src/per/adc.h ****     {
  96:../libDaisy/src/per/adc.h ****         OVS_NONE, /**< & */
  97:../libDaisy/src/per/adc.h ****         OVS_4,    /**< & */
  98:../libDaisy/src/per/adc.h ****         OVS_8,    /**< & */
  99:../libDaisy/src/per/adc.h ****         OVS_16,   /**< & */
 100:../libDaisy/src/per/adc.h ****         OVS_32,   /**< & */
ARM GAS  /tmp/ccSY3rLK.s 			page 24


 101:../libDaisy/src/per/adc.h ****         OVS_64,   /**< & */
 102:../libDaisy/src/per/adc.h ****         OVS_128,  /**< & */
 103:../libDaisy/src/per/adc.h ****         OVS_256,  /**< & */
 104:../libDaisy/src/per/adc.h ****         OVS_512,  /**< & */
 105:../libDaisy/src/per/adc.h ****         OVS_1024, /**< & */
 106:../libDaisy/src/per/adc.h ****         OVS_LAST, /**< & */
 107:../libDaisy/src/per/adc.h ****     };
 108:../libDaisy/src/per/adc.h **** 
 109:../libDaisy/src/per/adc.h ****     AdcHandle() {}
 110:../libDaisy/src/per/adc.h ****     ~AdcHandle() {}
 141              		.loc 15 110 5 is_stmt 1 view .LVU27
 142              		.loc 15 110 5 is_stmt 0 view .LVU28
 143              	.LBE1221:
 144              	.LBB1222:
 145              	.LBI1222:
 146              		.file 16 "../libDaisy/src/hid/audio.h"
   1:../libDaisy/src/hid/audio.h **** #ifndef DSY_AUDIO_H
   2:../libDaisy/src/hid/audio.h **** #define DSY_AUDIO_H /**< & */
   3:../libDaisy/src/hid/audio.h **** 
   4:../libDaisy/src/hid/audio.h **** #include "per/sai.h"
   5:../libDaisy/src/hid/audio.h **** 
   6:../libDaisy/src/hid/audio.h **** namespace daisy
   7:../libDaisy/src/hid/audio.h **** {
   8:../libDaisy/src/hid/audio.h **** /** @brief Audio Engine Handle
   9:../libDaisy/src/hid/audio.h ****  *  @ingroup audio 
  10:../libDaisy/src/hid/audio.h ****  *  @details This class allows for higher level access to an audio engine.
  11:../libDaisy/src/hid/audio.h ****  *           If you're using a SOM like the DaisySeed or DaisyPatchSM (or any 
  12:../libDaisy/src/hid/audio.h ****  *            board that includes one of those objects) then the intialization
  13:../libDaisy/src/hid/audio.h ****  *            is already taken  care of.
  14:../libDaisy/src/hid/audio.h ****  *           If you're setting up your own custom hardware, or need to make changes
  15:../libDaisy/src/hid/audio.h ****  *           you will have to take the following steps:
  16:../libDaisy/src/hid/audio.h ****  *             1. Create and Initialize an SaiHandle or two depending on your requirements
  17:../libDaisy/src/hid/audio.h ****  *             2. Initialize the Audio Handle with the desired settings and the Initialized SaiHand
  18:../libDaisy/src/hid/audio.h ****  *             3. If the connected codec requires special configuration or initialization, do so
  19:../libDaisy/src/hid/audio.h ****  *             4. Write a callback method using either the AudioCallback or the InterleavingAudioCa
  20:../libDaisy/src/hid/audio.h ****  *             5. Start the Audio using one of the StartAudio function
  21:../libDaisy/src/hid/audio.h ****  */
  22:../libDaisy/src/hid/audio.h **** class AudioHandle
  23:../libDaisy/src/hid/audio.h **** {
  24:../libDaisy/src/hid/audio.h ****   public:
  25:../libDaisy/src/hid/audio.h ****     /** Manually configurable details about the Audio Engine */
  26:../libDaisy/src/hid/audio.h ****     /** TODO: Figure out how to get samplerate in here. */
  27:../libDaisy/src/hid/audio.h ****     struct Config
  28:../libDaisy/src/hid/audio.h ****     {
  29:../libDaisy/src/hid/audio.h ****         /** number of samples to process per callback */
  30:../libDaisy/src/hid/audio.h ****         size_t blocksize;
  31:../libDaisy/src/hid/audio.h **** 
  32:../libDaisy/src/hid/audio.h ****         /**< Sample rate of audio */
  33:../libDaisy/src/hid/audio.h ****         SaiHandle::Config::SampleRate samplerate;
  34:../libDaisy/src/hid/audio.h **** 
  35:../libDaisy/src/hid/audio.h ****         /** factor for adjustment before and after callback for hardware that may have extra headro
  36:../libDaisy/src/hid/audio.h ****         float postgain;
  37:../libDaisy/src/hid/audio.h **** 
  38:../libDaisy/src/hid/audio.h ****         /** factor for additional one-sided compensation to audio path for hardware that may
  39:../libDaisy/src/hid/audio.h ****          *  have unequal input/output ranges
  40:../libDaisy/src/hid/audio.h ****          */
  41:../libDaisy/src/hid/audio.h ****         float output_compensation;
ARM GAS  /tmp/ccSY3rLK.s 			page 25


  42:../libDaisy/src/hid/audio.h **** 
  43:../libDaisy/src/hid/audio.h ****         /** Sets default values for config struct */
  44:../libDaisy/src/hid/audio.h ****         Config()
  45:../libDaisy/src/hid/audio.h ****         : blocksize(48),
  46:../libDaisy/src/hid/audio.h ****           samplerate(SaiHandle::Config::SampleRate::SAI_48KHZ),
  47:../libDaisy/src/hid/audio.h ****           postgain(1.f),
  48:../libDaisy/src/hid/audio.h ****           output_compensation(1.f)
  49:../libDaisy/src/hid/audio.h ****         {
  50:../libDaisy/src/hid/audio.h ****         }
  51:../libDaisy/src/hid/audio.h ****     };
  52:../libDaisy/src/hid/audio.h **** 
  53:../libDaisy/src/hid/audio.h ****     enum class Result
  54:../libDaisy/src/hid/audio.h ****     {
  55:../libDaisy/src/hid/audio.h ****         OK,
  56:../libDaisy/src/hid/audio.h ****         ERR,
  57:../libDaisy/src/hid/audio.h ****     };
  58:../libDaisy/src/hid/audio.h **** 
  59:../libDaisy/src/hid/audio.h ****     /** Non-Interleaving input buffer
  60:../libDaisy/src/hid/audio.h ****      * Buffer arranged by float[chn][sample] 
  61:../libDaisy/src/hid/audio.h ****      * const so that the user can't modify the input
  62:../libDaisy/src/hid/audio.h ****      */
  63:../libDaisy/src/hid/audio.h ****     typedef const float* const* InputBuffer;
  64:../libDaisy/src/hid/audio.h **** 
  65:../libDaisy/src/hid/audio.h ****     /** Non-Interleaving output buffer
  66:../libDaisy/src/hid/audio.h ****      * Arranged by float[chn][sample] 
  67:../libDaisy/src/hid/audio.h ****      */
  68:../libDaisy/src/hid/audio.h ****     typedef float** OutputBuffer;
  69:../libDaisy/src/hid/audio.h **** 
  70:../libDaisy/src/hid/audio.h ****     /** Type for a Non-Interleaving audio callback 
  71:../libDaisy/src/hid/audio.h ****      * Non-Interleaving audio callbacks in daisy will be of this type
  72:../libDaisy/src/hid/audio.h ****      */
  73:../libDaisy/src/hid/audio.h ****     typedef void (*AudioCallback)(InputBuffer  in,
  74:../libDaisy/src/hid/audio.h ****                                   OutputBuffer out,
  75:../libDaisy/src/hid/audio.h ****                                   size_t       size);
  76:../libDaisy/src/hid/audio.h **** 
  77:../libDaisy/src/hid/audio.h ****     /** Interleaving Input buffer
  78:../libDaisy/src/hid/audio.h ****      ** audio is prepared as { L0, R0, L1, R1, . . . LN, RN }]
  79:../libDaisy/src/hid/audio.h ****      ** this is const, as the user shouldn't modify it
  80:../libDaisy/src/hid/audio.h ****     */
  81:../libDaisy/src/hid/audio.h ****     typedef const float* InterleavingInputBuffer;
  82:../libDaisy/src/hid/audio.h **** 
  83:../libDaisy/src/hid/audio.h ****     /** Interleaving Output buffer 
  84:../libDaisy/src/hid/audio.h ****      ** audio is prepared as { L0, R0, L1, R1, . . . LN, RN }
  85:../libDaisy/src/hid/audio.h ****     */
  86:../libDaisy/src/hid/audio.h ****     typedef float* InterleavingOutputBuffer;
  87:../libDaisy/src/hid/audio.h **** 
  88:../libDaisy/src/hid/audio.h ****     /** Interleaving Audio Callback 
  89:../libDaisy/src/hid/audio.h ****      * Interleaving audio callbacks in daisy must be of this type
  90:../libDaisy/src/hid/audio.h ****      */
  91:../libDaisy/src/hid/audio.h ****     typedef void (*InterleavingAudioCallback)(InterleavingInputBuffer  in,
  92:../libDaisy/src/hid/audio.h ****                                               InterleavingOutputBuffer out,
  93:../libDaisy/src/hid/audio.h ****                                               size_t                   size);
  94:../libDaisy/src/hid/audio.h **** 
  95:../libDaisy/src/hid/audio.h ****     AudioHandle() : pimpl_(nullptr) {}
  96:../libDaisy/src/hid/audio.h ****     ~AudioHandle() {}
 147              		.loc 16 96 5 is_stmt 1 view .LVU29
 148              		.loc 16 96 5 is_stmt 0 view .LVU30
ARM GAS  /tmp/ccSY3rLK.s 			page 26


 149              	.LBE1222:
 150              	.LBE1218:
 151              		.loc 3 25 19 view .LVU31
 152 0000 7047     		bx	lr
 153              		.cfi_endproc
 154              	.LFE4860:
 156              		.weak	_ZN4kxmx9BluemchenD1Ev
 157              		.thumb_set _ZN4kxmx9BluemchenD1Ev,_ZN4kxmx9BluemchenD2Ev
 158              		.section	.text._ZN5rings6ReverbD2Ev,"axG",%progbits,_ZN5rings6ReverbD5Ev,comdat
 159              		.align	1
 160              		.weak	_ZN5rings6ReverbD2Ev
 161              		.syntax unified
 162              		.thumb
 163              		.thumb_func
 164              		.fpu fpv5-d16
 166              	_ZN5rings6ReverbD2Ev:
 167              	.LVL2:
 168              	.LFB4919:
 169              		.file 17 "src/../../eurorack/rings/dsp/fx/reverb.h"
   1:src/../../eurorack/rings/dsp/fx/reverb.h **** // Copyright 2014 Emilie Gillet.
   2:src/../../eurorack/rings/dsp/fx/reverb.h **** //
   3:src/../../eurorack/rings/dsp/fx/reverb.h **** // Author: Emilie Gillet (emilie.o.gillet@gmail.com)
   4:src/../../eurorack/rings/dsp/fx/reverb.h **** //
   5:src/../../eurorack/rings/dsp/fx/reverb.h **** // Permission is hereby granted, free of charge, to any person obtaining a copy
   6:src/../../eurorack/rings/dsp/fx/reverb.h **** // of this software and associated documentation files (the "Software"), to deal
   7:src/../../eurorack/rings/dsp/fx/reverb.h **** // in the Software without restriction, including without limitation the rights
   8:src/../../eurorack/rings/dsp/fx/reverb.h **** // to use, copy, modify, merge, publish, distribute, sublicense, and/or sell
   9:src/../../eurorack/rings/dsp/fx/reverb.h **** // copies of the Software, and to permit persons to whom the Software is
  10:src/../../eurorack/rings/dsp/fx/reverb.h **** // furnished to do so, subject to the following conditions:
  11:src/../../eurorack/rings/dsp/fx/reverb.h **** // 
  12:src/../../eurorack/rings/dsp/fx/reverb.h **** // The above copyright notice and this permission notice shall be included in
  13:src/../../eurorack/rings/dsp/fx/reverb.h **** // all copies or substantial portions of the Software.
  14:src/../../eurorack/rings/dsp/fx/reverb.h **** // 
  15:src/../../eurorack/rings/dsp/fx/reverb.h **** // THE SOFTWARE IS PROVIDED "AS IS", WITHOUT WARRANTY OF ANY KIND, EXPRESS OR
  16:src/../../eurorack/rings/dsp/fx/reverb.h **** // IMPLIED, INCLUDING BUT NOT LIMITED TO THE WARRANTIES OF MERCHANTABILITY,
  17:src/../../eurorack/rings/dsp/fx/reverb.h **** // FITNESS FOR A PARTICULAR PURPOSE AND NONINFRINGEMENT. IN NO EVENT SHALL THE
  18:src/../../eurorack/rings/dsp/fx/reverb.h **** // AUTHORS OR COPYRIGHT HOLDERS BE LIABLE FOR ANY CLAIM, DAMAGES OR OTHER
  19:src/../../eurorack/rings/dsp/fx/reverb.h **** // LIABILITY, WHETHER IN AN ACTION OF CONTRACT, TORT OR OTHERWISE, ARISING FROM,
  20:src/../../eurorack/rings/dsp/fx/reverb.h **** // OUT OF OR IN CONNECTION WITH THE SOFTWARE OR THE USE OR OTHER DEALINGS IN
  21:src/../../eurorack/rings/dsp/fx/reverb.h **** // THE SOFTWARE.
  22:src/../../eurorack/rings/dsp/fx/reverb.h **** // 
  23:src/../../eurorack/rings/dsp/fx/reverb.h **** // See http://creativecommons.org/licenses/MIT/ for more information.
  24:src/../../eurorack/rings/dsp/fx/reverb.h **** //
  25:src/../../eurorack/rings/dsp/fx/reverb.h **** // -----------------------------------------------------------------------------
  26:src/../../eurorack/rings/dsp/fx/reverb.h **** //
  27:src/../../eurorack/rings/dsp/fx/reverb.h **** // Reverb.
  28:src/../../eurorack/rings/dsp/fx/reverb.h **** 
  29:src/../../eurorack/rings/dsp/fx/reverb.h **** #ifndef RINGS_DSP_FX_REVERB_H_
  30:src/../../eurorack/rings/dsp/fx/reverb.h **** #define RINGS_DSP_FX_REVERB_H_
  31:src/../../eurorack/rings/dsp/fx/reverb.h **** 
  32:src/../../eurorack/rings/dsp/fx/reverb.h **** #include "../../../stmlib/stmlib.h"
  33:src/../../eurorack/rings/dsp/fx/reverb.h **** 
  34:src/../../eurorack/rings/dsp/fx/reverb.h **** #include "fx_engine.h"
  35:src/../../eurorack/rings/dsp/fx/reverb.h **** 
  36:src/../../eurorack/rings/dsp/fx/reverb.h **** namespace rings {
  37:src/../../eurorack/rings/dsp/fx/reverb.h **** 
  38:src/../../eurorack/rings/dsp/fx/reverb.h **** class Reverb {
ARM GAS  /tmp/ccSY3rLK.s 			page 27


  39:src/../../eurorack/rings/dsp/fx/reverb.h ****  public:
  40:src/../../eurorack/rings/dsp/fx/reverb.h ****   Reverb() { }
  41:src/../../eurorack/rings/dsp/fx/reverb.h ****   ~Reverb() { }
 170              		.loc 17 41 3 is_stmt 1 view -0
 171              		.cfi_startproc
 172              		@ args = 0, pretend = 0, frame = 0
 173              		@ frame_needed = 0, uses_anonymous_args = 0
 174              		@ link register save eliminated.
 175              	.LBB1223:
 176              	.LBI1223:
 177              		.file 18 "src/../../eurorack/rings/dsp/fx/fx_engine.h"
   1:src/../../eurorack/rings/dsp/fx/fx_engine.h **** // Copyright 2014 Emilie Gillet.
   2:src/../../eurorack/rings/dsp/fx/fx_engine.h **** //
   3:src/../../eurorack/rings/dsp/fx/fx_engine.h **** // Author: Emilie Gillet (emilie.o.gillet@gmail.com)
   4:src/../../eurorack/rings/dsp/fx/fx_engine.h **** //
   5:src/../../eurorack/rings/dsp/fx/fx_engine.h **** // Permission is hereby granted, free of charge, to any person obtaining a copy
   6:src/../../eurorack/rings/dsp/fx/fx_engine.h **** // of this software and associated documentation files (the "Software"), to deal
   7:src/../../eurorack/rings/dsp/fx/fx_engine.h **** // in the Software without restriction, including without limitation the rights
   8:src/../../eurorack/rings/dsp/fx/fx_engine.h **** // to use, copy, modify, merge, publish, distribute, sublicense, and/or sell
   9:src/../../eurorack/rings/dsp/fx/fx_engine.h **** // copies of the Software, and to permit persons to whom the Software is
  10:src/../../eurorack/rings/dsp/fx/fx_engine.h **** // furnished to do so, subject to the following conditions:
  11:src/../../eurorack/rings/dsp/fx/fx_engine.h **** // 
  12:src/../../eurorack/rings/dsp/fx/fx_engine.h **** // The above copyright notice and this permission notice shall be included in
  13:src/../../eurorack/rings/dsp/fx/fx_engine.h **** // all copies or substantial portions of the Software.
  14:src/../../eurorack/rings/dsp/fx/fx_engine.h **** // 
  15:src/../../eurorack/rings/dsp/fx/fx_engine.h **** // THE SOFTWARE IS PROVIDED "AS IS", WITHOUT WARRANTY OF ANY KIND, EXPRESS OR
  16:src/../../eurorack/rings/dsp/fx/fx_engine.h **** // IMPLIED, INCLUDING BUT NOT LIMITED TO THE WARRANTIES OF MERCHANTABILITY,
  17:src/../../eurorack/rings/dsp/fx/fx_engine.h **** // FITNESS FOR A PARTICULAR PURPOSE AND NONINFRINGEMENT. IN NO EVENT SHALL THE
  18:src/../../eurorack/rings/dsp/fx/fx_engine.h **** // AUTHORS OR COPYRIGHT HOLDERS BE LIABLE FOR ANY CLAIM, DAMAGES OR OTHER
  19:src/../../eurorack/rings/dsp/fx/fx_engine.h **** // LIABILITY, WHETHER IN AN ACTION OF CONTRACT, TORT OR OTHERWISE, ARISING FROM,
  20:src/../../eurorack/rings/dsp/fx/fx_engine.h **** // OUT OF OR IN CONNECTION WITH THE SOFTWARE OR THE USE OR OTHER DEALINGS IN
  21:src/../../eurorack/rings/dsp/fx/fx_engine.h **** // THE SOFTWARE.
  22:src/../../eurorack/rings/dsp/fx/fx_engine.h **** // 
  23:src/../../eurorack/rings/dsp/fx/fx_engine.h **** // See http://creativecommons.org/licenses/MIT/ for more information.
  24:src/../../eurorack/rings/dsp/fx/fx_engine.h **** //
  25:src/../../eurorack/rings/dsp/fx/fx_engine.h **** // -----------------------------------------------------------------------------
  26:src/../../eurorack/rings/dsp/fx/fx_engine.h **** //
  27:src/../../eurorack/rings/dsp/fx/fx_engine.h **** // Base class for building reverb.
  28:src/../../eurorack/rings/dsp/fx/fx_engine.h **** 
  29:src/../../eurorack/rings/dsp/fx/fx_engine.h **** #ifndef RINGS_DSP_FX_FX_ENGINE_H_
  30:src/../../eurorack/rings/dsp/fx/fx_engine.h **** #define RINGS_DSP_FX_FX_ENGINE_H_
  31:src/../../eurorack/rings/dsp/fx/fx_engine.h **** 
  32:src/../../eurorack/rings/dsp/fx/fx_engine.h **** #include <algorithm>
  33:src/../../eurorack/rings/dsp/fx/fx_engine.h **** 
  34:src/../../eurorack/rings/dsp/fx/fx_engine.h **** #include "../../../stmlib/stmlib.h"
  35:src/../../eurorack/rings/dsp/fx/fx_engine.h **** 
  36:src/../../eurorack/rings/dsp/fx/fx_engine.h **** #include "../../../stmlib/dsp/dsp.h"
  37:src/../../eurorack/rings/dsp/fx/fx_engine.h **** #include "../../../stmlib/dsp/cosine_oscillator.h"
  38:src/../../eurorack/rings/dsp/fx/fx_engine.h **** 
  39:src/../../eurorack/rings/dsp/fx/fx_engine.h **** namespace rings {
  40:src/../../eurorack/rings/dsp/fx/fx_engine.h **** 
  41:src/../../eurorack/rings/dsp/fx/fx_engine.h **** #define TAIL , -1
  42:src/../../eurorack/rings/dsp/fx/fx_engine.h **** 
  43:src/../../eurorack/rings/dsp/fx/fx_engine.h **** enum Format {
  44:src/../../eurorack/rings/dsp/fx/fx_engine.h ****   FORMAT_12_BIT,
  45:src/../../eurorack/rings/dsp/fx/fx_engine.h ****   FORMAT_16_BIT,
  46:src/../../eurorack/rings/dsp/fx/fx_engine.h ****   FORMAT_32_BIT
ARM GAS  /tmp/ccSY3rLK.s 			page 28


  47:src/../../eurorack/rings/dsp/fx/fx_engine.h **** };
  48:src/../../eurorack/rings/dsp/fx/fx_engine.h **** 
  49:src/../../eurorack/rings/dsp/fx/fx_engine.h **** enum LFOIndex {
  50:src/../../eurorack/rings/dsp/fx/fx_engine.h ****   LFO_1,
  51:src/../../eurorack/rings/dsp/fx/fx_engine.h ****   LFO_2
  52:src/../../eurorack/rings/dsp/fx/fx_engine.h **** };
  53:src/../../eurorack/rings/dsp/fx/fx_engine.h **** 
  54:src/../../eurorack/rings/dsp/fx/fx_engine.h **** template<Format format>
  55:src/../../eurorack/rings/dsp/fx/fx_engine.h **** struct DataType { };
  56:src/../../eurorack/rings/dsp/fx/fx_engine.h **** 
  57:src/../../eurorack/rings/dsp/fx/fx_engine.h **** template<>
  58:src/../../eurorack/rings/dsp/fx/fx_engine.h **** struct DataType<FORMAT_12_BIT> {
  59:src/../../eurorack/rings/dsp/fx/fx_engine.h ****   typedef uint16_t T;
  60:src/../../eurorack/rings/dsp/fx/fx_engine.h ****   
  61:src/../../eurorack/rings/dsp/fx/fx_engine.h ****   static inline float Decompress(T value) {
  62:src/../../eurorack/rings/dsp/fx/fx_engine.h ****     return static_cast<float>(static_cast<int16_t>(value)) / 4096.0f;
  63:src/../../eurorack/rings/dsp/fx/fx_engine.h ****   }
  64:src/../../eurorack/rings/dsp/fx/fx_engine.h ****   
  65:src/../../eurorack/rings/dsp/fx/fx_engine.h ****   static inline T Compress(float value) {
  66:src/../../eurorack/rings/dsp/fx/fx_engine.h ****     return static_cast<uint16_t>(
  67:src/../../eurorack/rings/dsp/fx/fx_engine.h ****         stmlib::Clip16(static_cast<int32_t>(value * 4096.0f)));
  68:src/../../eurorack/rings/dsp/fx/fx_engine.h ****   }
  69:src/../../eurorack/rings/dsp/fx/fx_engine.h **** };
  70:src/../../eurorack/rings/dsp/fx/fx_engine.h **** 
  71:src/../../eurorack/rings/dsp/fx/fx_engine.h **** template<>
  72:src/../../eurorack/rings/dsp/fx/fx_engine.h **** struct DataType<FORMAT_16_BIT> {
  73:src/../../eurorack/rings/dsp/fx/fx_engine.h ****   typedef uint16_t T;
  74:src/../../eurorack/rings/dsp/fx/fx_engine.h ****   
  75:src/../../eurorack/rings/dsp/fx/fx_engine.h ****   static inline float Decompress(T value) {
  76:src/../../eurorack/rings/dsp/fx/fx_engine.h ****     return static_cast<float>(static_cast<int16_t>(value)) / 32768.0f;
  77:src/../../eurorack/rings/dsp/fx/fx_engine.h ****   }
  78:src/../../eurorack/rings/dsp/fx/fx_engine.h ****   
  79:src/../../eurorack/rings/dsp/fx/fx_engine.h ****   static inline T Compress(float value) {
  80:src/../../eurorack/rings/dsp/fx/fx_engine.h ****     return static_cast<uint16_t>(
  81:src/../../eurorack/rings/dsp/fx/fx_engine.h ****         stmlib::Clip16(static_cast<int32_t>(value * 32768.0f)));
  82:src/../../eurorack/rings/dsp/fx/fx_engine.h ****   }
  83:src/../../eurorack/rings/dsp/fx/fx_engine.h **** };
  84:src/../../eurorack/rings/dsp/fx/fx_engine.h **** 
  85:src/../../eurorack/rings/dsp/fx/fx_engine.h **** template<>
  86:src/../../eurorack/rings/dsp/fx/fx_engine.h **** struct DataType<FORMAT_32_BIT> {
  87:src/../../eurorack/rings/dsp/fx/fx_engine.h ****   typedef float T;
  88:src/../../eurorack/rings/dsp/fx/fx_engine.h ****   
  89:src/../../eurorack/rings/dsp/fx/fx_engine.h ****   static inline float Decompress(T value) {
  90:src/../../eurorack/rings/dsp/fx/fx_engine.h ****     return value;;
  91:src/../../eurorack/rings/dsp/fx/fx_engine.h ****   }
  92:src/../../eurorack/rings/dsp/fx/fx_engine.h ****   
  93:src/../../eurorack/rings/dsp/fx/fx_engine.h ****   static inline T Compress(float value) {
  94:src/../../eurorack/rings/dsp/fx/fx_engine.h ****     return value;
  95:src/../../eurorack/rings/dsp/fx/fx_engine.h ****   }
  96:src/../../eurorack/rings/dsp/fx/fx_engine.h **** };
  97:src/../../eurorack/rings/dsp/fx/fx_engine.h **** 
  98:src/../../eurorack/rings/dsp/fx/fx_engine.h **** template<
  99:src/../../eurorack/rings/dsp/fx/fx_engine.h ****     size_t size,
 100:src/../../eurorack/rings/dsp/fx/fx_engine.h ****     Format format = FORMAT_12_BIT>
 101:src/../../eurorack/rings/dsp/fx/fx_engine.h **** class FxEngine {
 102:src/../../eurorack/rings/dsp/fx/fx_engine.h ****  public:
 103:src/../../eurorack/rings/dsp/fx/fx_engine.h ****   typedef typename DataType<format>::T T;
ARM GAS  /tmp/ccSY3rLK.s 			page 29


 104:src/../../eurorack/rings/dsp/fx/fx_engine.h ****   FxEngine() { }
 105:src/../../eurorack/rings/dsp/fx/fx_engine.h ****   ~FxEngine() { }
 178              		.loc 18 105 3 view .LVU33
 179              		.loc 18 105 3 is_stmt 0 view .LVU34
 180              	.LBE1223:
 181              		.loc 17 41 15 view .LVU35
 182 0000 7047     		bx	lr
 183              		.cfi_endproc
 184              	.LFE4919:
 186              		.weak	_ZN5rings6ReverbD1Ev
 187              		.thumb_set _ZN5rings6ReverbD1Ev,_ZN5rings6ReverbD2Ev
 188              		.section	.text._ZN6clouds6ReverbD2Ev,"axG",%progbits,_ZN6clouds6ReverbD5Ev,comdat
 189              		.align	1
 190              		.weak	_ZN6clouds6ReverbD2Ev
 191              		.syntax unified
 192              		.thumb
 193              		.thumb_func
 194              		.fpu fpv5-d16
 196              	_ZN6clouds6ReverbD2Ev:
 197              	.LVL3:
 198              	.LFB4962:
 199              		.file 19 "src/../../eurorack/clouds/dsp/fx/reverb.h"
   1:src/../../eurorack/clouds/dsp/fx/reverb.h **** // Copyright 2014 Emilie Gillet.
   2:src/../../eurorack/clouds/dsp/fx/reverb.h **** //
   3:src/../../eurorack/clouds/dsp/fx/reverb.h **** // Author: Emilie Gillet (emilie.o.gillet@gmail.com)
   4:src/../../eurorack/clouds/dsp/fx/reverb.h **** //
   5:src/../../eurorack/clouds/dsp/fx/reverb.h **** // Permission is hereby granted, free of charge, to any person obtaining a copy
   6:src/../../eurorack/clouds/dsp/fx/reverb.h **** // of this software and associated documentation files (the "Software"), to deal
   7:src/../../eurorack/clouds/dsp/fx/reverb.h **** // in the Software without restriction, including without limitation the rights
   8:src/../../eurorack/clouds/dsp/fx/reverb.h **** // to use, copy, modify, merge, publish, distribute, sublicense, and/or sell
   9:src/../../eurorack/clouds/dsp/fx/reverb.h **** // copies of the Software, and to permit persons to whom the Software is
  10:src/../../eurorack/clouds/dsp/fx/reverb.h **** // furnished to do so, subject to the following conditions:
  11:src/../../eurorack/clouds/dsp/fx/reverb.h **** // 
  12:src/../../eurorack/clouds/dsp/fx/reverb.h **** // The above copyright notice and this permission notice shall be included in
  13:src/../../eurorack/clouds/dsp/fx/reverb.h **** // all copies or substantial portions of the Software.
  14:src/../../eurorack/clouds/dsp/fx/reverb.h **** // 
  15:src/../../eurorack/clouds/dsp/fx/reverb.h **** // THE SOFTWARE IS PROVIDED "AS IS", WITHOUT WARRANTY OF ANY KIND, EXPRESS OR
  16:src/../../eurorack/clouds/dsp/fx/reverb.h **** // IMPLIED, INCLUDING BUT NOT LIMITED TO THE WARRANTIES OF MERCHANTABILITY,
  17:src/../../eurorack/clouds/dsp/fx/reverb.h **** // FITNESS FOR A PARTICULAR PURPOSE AND NONINFRINGEMENT. IN NO EVENT SHALL THE
  18:src/../../eurorack/clouds/dsp/fx/reverb.h **** // AUTHORS OR COPYRIGHT HOLDERS BE LIABLE FOR ANY CLAIM, DAMAGES OR OTHER
  19:src/../../eurorack/clouds/dsp/fx/reverb.h **** // LIABILITY, WHETHER IN AN ACTION OF CONTRACT, TORT OR OTHERWISE, ARISING FROM,
  20:src/../../eurorack/clouds/dsp/fx/reverb.h **** // OUT OF OR IN CONNECTION WITH THE SOFTWARE OR THE USE OR OTHER DEALINGS IN
  21:src/../../eurorack/clouds/dsp/fx/reverb.h **** // THE SOFTWARE.
  22:src/../../eurorack/clouds/dsp/fx/reverb.h **** // 
  23:src/../../eurorack/clouds/dsp/fx/reverb.h **** // See http://creativecommons.org/licenses/MIT/ for more information.
  24:src/../../eurorack/clouds/dsp/fx/reverb.h **** //
  25:src/../../eurorack/clouds/dsp/fx/reverb.h **** // -----------------------------------------------------------------------------
  26:src/../../eurorack/clouds/dsp/fx/reverb.h **** //
  27:src/../../eurorack/clouds/dsp/fx/reverb.h **** // Reverb.
  28:src/../../eurorack/clouds/dsp/fx/reverb.h **** 
  29:src/../../eurorack/clouds/dsp/fx/reverb.h **** #ifndef CLOUDS_DSP_FX_REVERB_H_
  30:src/../../eurorack/clouds/dsp/fx/reverb.h **** #define CLOUDS_DSP_FX_REVERB_H_
  31:src/../../eurorack/clouds/dsp/fx/reverb.h **** 
  32:src/../../eurorack/clouds/dsp/fx/reverb.h **** #include "../../../stmlib/stmlib.h"
  33:src/../../eurorack/clouds/dsp/fx/reverb.h **** 
  34:src/../../eurorack/clouds/dsp/fx/reverb.h **** #include "fx_engine.h"
  35:src/../../eurorack/clouds/dsp/fx/reverb.h **** 
ARM GAS  /tmp/ccSY3rLK.s 			page 30


  36:src/../../eurorack/clouds/dsp/fx/reverb.h **** namespace clouds {
  37:src/../../eurorack/clouds/dsp/fx/reverb.h **** 
  38:src/../../eurorack/clouds/dsp/fx/reverb.h **** class Reverb {
  39:src/../../eurorack/clouds/dsp/fx/reverb.h ****  public:
  40:src/../../eurorack/clouds/dsp/fx/reverb.h ****   Reverb() { }
  41:src/../../eurorack/clouds/dsp/fx/reverb.h ****   ~Reverb() { }
 200              		.loc 19 41 3 is_stmt 1 view -0
 201              		.cfi_startproc
 202              		@ args = 0, pretend = 0, frame = 0
 203              		@ frame_needed = 0, uses_anonymous_args = 0
 204              		@ link register save eliminated.
 205              	.LBB1224:
 206              	.LBI1224:
 207              		.file 20 "src/../../eurorack/clouds/dsp/fx/fx_engine.h"
   1:src/../../eurorack/clouds/dsp/fx/fx_engine.h **** // Copyright 2014 Emilie Gillet.
   2:src/../../eurorack/clouds/dsp/fx/fx_engine.h **** //
   3:src/../../eurorack/clouds/dsp/fx/fx_engine.h **** // Author: Emilie Gillet (emilie.o.gillet@gmail.com)
   4:src/../../eurorack/clouds/dsp/fx/fx_engine.h **** //
   5:src/../../eurorack/clouds/dsp/fx/fx_engine.h **** // Permission is hereby granted, free of charge, to any person obtaining a copy
   6:src/../../eurorack/clouds/dsp/fx/fx_engine.h **** // of this software and associated documentation files (the "Software"), to deal
   7:src/../../eurorack/clouds/dsp/fx/fx_engine.h **** // in the Software without restriction, including without limitation the rights
   8:src/../../eurorack/clouds/dsp/fx/fx_engine.h **** // to use, copy, modify, merge, publish, distribute, sublicense, and/or sell
   9:src/../../eurorack/clouds/dsp/fx/fx_engine.h **** // copies of the Software, and to permit persons to whom the Software is
  10:src/../../eurorack/clouds/dsp/fx/fx_engine.h **** // furnished to do so, subject to the following conditions:
  11:src/../../eurorack/clouds/dsp/fx/fx_engine.h **** // 
  12:src/../../eurorack/clouds/dsp/fx/fx_engine.h **** // The above copyright notice and this permission notice shall be included in
  13:src/../../eurorack/clouds/dsp/fx/fx_engine.h **** // all copies or substantial portions of the Software.
  14:src/../../eurorack/clouds/dsp/fx/fx_engine.h **** // 
  15:src/../../eurorack/clouds/dsp/fx/fx_engine.h **** // THE SOFTWARE IS PROVIDED "AS IS", WITHOUT WARRANTY OF ANY KIND, EXPRESS OR
  16:src/../../eurorack/clouds/dsp/fx/fx_engine.h **** // IMPLIED, INCLUDING BUT NOT LIMITED TO THE WARRANTIES OF MERCHANTABILITY,
  17:src/../../eurorack/clouds/dsp/fx/fx_engine.h **** // FITNESS FOR A PARTICULAR PURPOSE AND NONINFRINGEMENT. IN NO EVENT SHALL THE
  18:src/../../eurorack/clouds/dsp/fx/fx_engine.h **** // AUTHORS OR COPYRIGHT HOLDERS BE LIABLE FOR ANY CLAIM, DAMAGES OR OTHER
  19:src/../../eurorack/clouds/dsp/fx/fx_engine.h **** // LIABILITY, WHETHER IN AN ACTION OF CONTRACT, TORT OR OTHERWISE, ARISING FROM,
  20:src/../../eurorack/clouds/dsp/fx/fx_engine.h **** // OUT OF OR IN CONNECTION WITH THE SOFTWARE OR THE USE OR OTHER DEALINGS IN
  21:src/../../eurorack/clouds/dsp/fx/fx_engine.h **** // THE SOFTWARE.
  22:src/../../eurorack/clouds/dsp/fx/fx_engine.h **** // 
  23:src/../../eurorack/clouds/dsp/fx/fx_engine.h **** // See http://creativecommons.org/licenses/MIT/ for more information.
  24:src/../../eurorack/clouds/dsp/fx/fx_engine.h **** //
  25:src/../../eurorack/clouds/dsp/fx/fx_engine.h **** // -----------------------------------------------------------------------------
  26:src/../../eurorack/clouds/dsp/fx/fx_engine.h **** //
  27:src/../../eurorack/clouds/dsp/fx/fx_engine.h **** // Base class for building reverbs.
  28:src/../../eurorack/clouds/dsp/fx/fx_engine.h **** 
  29:src/../../eurorack/clouds/dsp/fx/fx_engine.h **** #ifndef CLOUDS_DSP_FX_FX_ENGINE_H_
  30:src/../../eurorack/clouds/dsp/fx/fx_engine.h **** #define CLOUDS_DSP_FX_FX_ENGINE_H_
  31:src/../../eurorack/clouds/dsp/fx/fx_engine.h **** 
  32:src/../../eurorack/clouds/dsp/fx/fx_engine.h **** #include <algorithm>
  33:src/../../eurorack/clouds/dsp/fx/fx_engine.h **** 
  34:src/../../eurorack/clouds/dsp/fx/fx_engine.h **** #include "../../../stmlib/stmlib.h"
  35:src/../../eurorack/clouds/dsp/fx/fx_engine.h **** 
  36:src/../../eurorack/clouds/dsp/fx/fx_engine.h **** #include "../../../stmlib/dsp/dsp.h"
  37:src/../../eurorack/clouds/dsp/fx/fx_engine.h **** #include "../../../stmlib/dsp/cosine_oscillator.h"
  38:src/../../eurorack/clouds/dsp/fx/fx_engine.h **** 
  39:src/../../eurorack/clouds/dsp/fx/fx_engine.h **** namespace clouds {
  40:src/../../eurorack/clouds/dsp/fx/fx_engine.h **** 
  41:src/../../eurorack/clouds/dsp/fx/fx_engine.h **** #define TAIL , -1
  42:src/../../eurorack/clouds/dsp/fx/fx_engine.h **** 
  43:src/../../eurorack/clouds/dsp/fx/fx_engine.h **** enum Format {
ARM GAS  /tmp/ccSY3rLK.s 			page 31


  44:src/../../eurorack/clouds/dsp/fx/fx_engine.h ****   FORMAT_12_BIT,
  45:src/../../eurorack/clouds/dsp/fx/fx_engine.h ****   FORMAT_16_BIT,
  46:src/../../eurorack/clouds/dsp/fx/fx_engine.h ****   FORMAT_32_BIT
  47:src/../../eurorack/clouds/dsp/fx/fx_engine.h **** };
  48:src/../../eurorack/clouds/dsp/fx/fx_engine.h **** 
  49:src/../../eurorack/clouds/dsp/fx/fx_engine.h **** enum LFOIndex {
  50:src/../../eurorack/clouds/dsp/fx/fx_engine.h ****   LFO_1,
  51:src/../../eurorack/clouds/dsp/fx/fx_engine.h ****   LFO_2
  52:src/../../eurorack/clouds/dsp/fx/fx_engine.h **** };
  53:src/../../eurorack/clouds/dsp/fx/fx_engine.h **** 
  54:src/../../eurorack/clouds/dsp/fx/fx_engine.h **** template<Format format>
  55:src/../../eurorack/clouds/dsp/fx/fx_engine.h **** struct DataType { };
  56:src/../../eurorack/clouds/dsp/fx/fx_engine.h **** 
  57:src/../../eurorack/clouds/dsp/fx/fx_engine.h **** template<>
  58:src/../../eurorack/clouds/dsp/fx/fx_engine.h **** struct DataType<FORMAT_12_BIT> {
  59:src/../../eurorack/clouds/dsp/fx/fx_engine.h ****   typedef uint16_t T;
  60:src/../../eurorack/clouds/dsp/fx/fx_engine.h ****   
  61:src/../../eurorack/clouds/dsp/fx/fx_engine.h ****   static inline float Decompress(T value) {
  62:src/../../eurorack/clouds/dsp/fx/fx_engine.h ****     return static_cast<float>(static_cast<int16_t>(value)) / 4096.0f;
  63:src/../../eurorack/clouds/dsp/fx/fx_engine.h ****   }
  64:src/../../eurorack/clouds/dsp/fx/fx_engine.h ****   
  65:src/../../eurorack/clouds/dsp/fx/fx_engine.h ****   static inline T Compress(float value) {
  66:src/../../eurorack/clouds/dsp/fx/fx_engine.h ****     return static_cast<uint16_t>(
  67:src/../../eurorack/clouds/dsp/fx/fx_engine.h ****         stmlib::Clip16(static_cast<int32_t>(value * 4096.0f)));
  68:src/../../eurorack/clouds/dsp/fx/fx_engine.h ****   }
  69:src/../../eurorack/clouds/dsp/fx/fx_engine.h **** };
  70:src/../../eurorack/clouds/dsp/fx/fx_engine.h **** 
  71:src/../../eurorack/clouds/dsp/fx/fx_engine.h **** template<>
  72:src/../../eurorack/clouds/dsp/fx/fx_engine.h **** struct DataType<FORMAT_16_BIT> {
  73:src/../../eurorack/clouds/dsp/fx/fx_engine.h ****   typedef uint16_t T;
  74:src/../../eurorack/clouds/dsp/fx/fx_engine.h ****   
  75:src/../../eurorack/clouds/dsp/fx/fx_engine.h ****   static inline float Decompress(T value) {
  76:src/../../eurorack/clouds/dsp/fx/fx_engine.h ****     return static_cast<float>(static_cast<int16_t>(value)) / 32768.0f;
  77:src/../../eurorack/clouds/dsp/fx/fx_engine.h ****   }
  78:src/../../eurorack/clouds/dsp/fx/fx_engine.h ****   
  79:src/../../eurorack/clouds/dsp/fx/fx_engine.h ****   static inline T Compress(float value) {
  80:src/../../eurorack/clouds/dsp/fx/fx_engine.h ****     return static_cast<uint16_t>(
  81:src/../../eurorack/clouds/dsp/fx/fx_engine.h ****         stmlib::Clip16(static_cast<int32_t>(value * 32768.0f)));
  82:src/../../eurorack/clouds/dsp/fx/fx_engine.h ****   }
  83:src/../../eurorack/clouds/dsp/fx/fx_engine.h **** };
  84:src/../../eurorack/clouds/dsp/fx/fx_engine.h **** 
  85:src/../../eurorack/clouds/dsp/fx/fx_engine.h **** template<>
  86:src/../../eurorack/clouds/dsp/fx/fx_engine.h **** struct DataType<FORMAT_32_BIT> {
  87:src/../../eurorack/clouds/dsp/fx/fx_engine.h ****   typedef float T;
  88:src/../../eurorack/clouds/dsp/fx/fx_engine.h ****   
  89:src/../../eurorack/clouds/dsp/fx/fx_engine.h ****   static inline float Decompress(T value) {
  90:src/../../eurorack/clouds/dsp/fx/fx_engine.h ****     return value;;
  91:src/../../eurorack/clouds/dsp/fx/fx_engine.h ****   }
  92:src/../../eurorack/clouds/dsp/fx/fx_engine.h ****   
  93:src/../../eurorack/clouds/dsp/fx/fx_engine.h ****   static inline T Compress(float value) {
  94:src/../../eurorack/clouds/dsp/fx/fx_engine.h ****     return value;
  95:src/../../eurorack/clouds/dsp/fx/fx_engine.h ****   }
  96:src/../../eurorack/clouds/dsp/fx/fx_engine.h **** };
  97:src/../../eurorack/clouds/dsp/fx/fx_engine.h **** 
  98:src/../../eurorack/clouds/dsp/fx/fx_engine.h **** template<
  99:src/../../eurorack/clouds/dsp/fx/fx_engine.h ****     size_t size,
 100:src/../../eurorack/clouds/dsp/fx/fx_engine.h ****     Format format = FORMAT_12_BIT>
ARM GAS  /tmp/ccSY3rLK.s 			page 32


 101:src/../../eurorack/clouds/dsp/fx/fx_engine.h **** class FxEngine {
 102:src/../../eurorack/clouds/dsp/fx/fx_engine.h ****  public:
 103:src/../../eurorack/clouds/dsp/fx/fx_engine.h ****   typedef typename DataType<format>::T T;
 104:src/../../eurorack/clouds/dsp/fx/fx_engine.h ****   FxEngine() { }
 105:src/../../eurorack/clouds/dsp/fx/fx_engine.h ****   ~FxEngine() { }
 208              		.loc 20 105 3 view .LVU37
 209              		.loc 20 105 3 is_stmt 0 view .LVU38
 210              	.LBE1224:
 211              		.loc 19 41 15 view .LVU39
 212 0000 7047     		bx	lr
 213              		.cfi_endproc
 214              	.LFE4962:
 216              		.weak	_ZN6clouds6ReverbD1Ev
 217              		.thumb_set _ZN6clouds6ReverbD1Ev,_ZN6clouds6ReverbD2Ev
 218              		.section	.text._ZN4hbpmD2Ev,"axG",%progbits,_ZN4hbpmD5Ev,comdat
 219              		.align	1
 220              		.weak	_ZN4hbpmD2Ev
 221              		.syntax unified
 222              		.thumb
 223              		.thumb_func
 224              		.fpu fpv5-d16
 226              	_ZN4hbpmD2Ev:
 227              	.LVL4:
 228              	.LFB4975:
 229              		.file 21 "src/hbpm.h"
   1:src/hbpm.h    **** #include "src/per/tim.h"
   2:src/hbpm.h    **** 
   3:src/hbpm.h    **** class hbpm
   4:src/hbpm.h    **** {
   5:src/hbpm.h    **** public:
   6:src/hbpm.h    **** 	hbpm() {};
   7:src/hbpm.h    **** 	~hbpm() {};
 230              		.loc 21 7 2 is_stmt 1 view -0
 231              		.cfi_startproc
 232              		@ args = 0, pretend = 0, frame = 0
 233              		@ frame_needed = 0, uses_anonymous_args = 0
 234              		@ link register save eliminated.
 235              	.LBB1225:
 236              	.LBI1225:
 237              		.file 22 "../libDaisy/src/per/tim.h"
   1:../libDaisy/src/per/tim.h **** #pragma once
   2:../libDaisy/src/per/tim.h **** #ifndef DSY_TIM_H
   3:../libDaisy/src/per/tim.h **** #define DSY_TIM_H
   4:../libDaisy/src/per/tim.h **** 
   5:../libDaisy/src/per/tim.h **** #include <cstdint>
   6:../libDaisy/src/per/tim.h **** 
   7:../libDaisy/src/per/tim.h **** namespace daisy
   8:../libDaisy/src/per/tim.h **** {
   9:../libDaisy/src/per/tim.h **** /** @brief Hardare timer peripheral support.
  10:../libDaisy/src/per/tim.h ****  ** 
  11:../libDaisy/src/per/tim.h ****  ** Supports general-function TIM peripherals:
  12:../libDaisy/src/per/tim.h ****  ** - TIM2, TIM3, TIM4, TIM5
  13:../libDaisy/src/per/tim.h ****  **
  14:../libDaisy/src/per/tim.h ****  ** DaisySeed, and many internal peripherals utilize TIM2 for timing/delay purposes.
  15:../libDaisy/src/per/tim.h ****  ** It is configured to be at the maximum frequency: typically 200MHz or 240MHz (boost) 
  16:../libDaisy/src/per/tim.h ****  ** for measuring/delaying for very short periods. 
  17:../libDaisy/src/per/tim.h ****  **
ARM GAS  /tmp/ccSY3rLK.s 			page 33


  18:../libDaisy/src/per/tim.h ****  ** The GetUs/GetMs functions are available for convenience (and backwards compatibility),
  19:../libDaisy/src/per/tim.h ****  ** but to avoid wrapping errors on math when doing time-delta calculations, using ticks is 
  20:../libDaisy/src/per/tim.h ****  ** recommended. The data can be converted to the final time-base after getting the difference in t
  21:../libDaisy/src/per/tim.h ****  ** (Using GetFreq() can be used for these time-base calculations).
  22:../libDaisy/src/per/tim.h ****  **
  23:../libDaisy/src/per/tim.h ****  ** User callbacks can be set, and changed at any point during operation. However,
  24:../libDaisy/src/per/tim.h ****  ** the Config::enable_irq must be set to true when initializing for the interrupts
  25:../libDaisy/src/per/tim.h ****  ** to turn on and function.
  26:../libDaisy/src/per/tim.h ****  **
  27:../libDaisy/src/per/tim.h ****  ** @todo Fix issues with realtime getters, and wrapping of the timer(s).
  28:../libDaisy/src/per/tim.h ****  **     - This very noticeable with default settings for the 16-bit counters.
  29:../libDaisy/src/per/tim.h ****  ** @todo Other General purpose timers
  30:../libDaisy/src/per/tim.h ****  ** @todo Non-internal clock sources
  31:../libDaisy/src/per/tim.h ****  ** @todo Use of the four-tim channels per tim
  32:../libDaisy/src/per/tim.h ****  **     - PWM, etc.
  33:../libDaisy/src/per/tim.h ****  **     - InputCapture/OutputCompare, etc.
  34:../libDaisy/src/per/tim.h ****  ** @todo HRTIM
  35:../libDaisy/src/per/tim.h ****  ** @todo Advanced timers (TIM1/TIM8)
  36:../libDaisy/src/per/tim.h ****  ** */
  37:../libDaisy/src/per/tim.h **** class TimerHandle
  38:../libDaisy/src/per/tim.h **** {
  39:../libDaisy/src/per/tim.h ****   public:
  40:../libDaisy/src/per/tim.h ****     /** @brief Configuration struct for the Peripheral
  41:../libDaisy/src/per/tim.h ****      *  @note These settings are used during initialization
  42:../libDaisy/src/per/tim.h ****      *   and changing them afterwards may not have the desired effect.
  43:../libDaisy/src/per/tim.h ****      */
  44:../libDaisy/src/per/tim.h ****     struct Config
  45:../libDaisy/src/per/tim.h ****     {
  46:../libDaisy/src/per/tim.h ****         /** @brief Hardware Timer to configure, and use. */
  47:../libDaisy/src/per/tim.h ****         enum class Peripheral
  48:../libDaisy/src/per/tim.h ****         {
  49:../libDaisy/src/per/tim.h ****             TIM_2 = 0, /**< 32-bit counter */
  50:../libDaisy/src/per/tim.h ****             TIM_3,     /**< 16-bit counter */
  51:../libDaisy/src/per/tim.h ****             TIM_4,     /**< 16-bit counter */
  52:../libDaisy/src/per/tim.h ****             TIM_5,     /**< 32-bit counter*/
  53:../libDaisy/src/per/tim.h ****         };
  54:../libDaisy/src/per/tim.h **** 
  55:../libDaisy/src/per/tim.h ****         /** @brief Direction of the auto-reload counter. 
  56:../libDaisy/src/per/tim.h ****          ** @todo Add support for the various  
  57:../libDaisy/src/per/tim.h ****          ** versions of Up/Down counters.
  58:../libDaisy/src/per/tim.h ****          ** */
  59:../libDaisy/src/per/tim.h ****         enum class CounterDir
  60:../libDaisy/src/per/tim.h ****         {
  61:../libDaisy/src/per/tim.h ****             UP = 0,
  62:../libDaisy/src/per/tim.h ****             DOWN,
  63:../libDaisy/src/per/tim.h ****         };
  64:../libDaisy/src/per/tim.h **** 
  65:../libDaisy/src/per/tim.h ****         Peripheral periph; /**< Hardware Peripheral */
  66:../libDaisy/src/per/tim.h ****         CounterDir dir;    /**< Counter direction */
  67:../libDaisy/src/per/tim.h **** 
  68:../libDaisy/src/per/tim.h ****         /** @brief period in ticks at TIM frequency that counter will reset based on dir
  69:../libDaisy/src/per/tim.h ****          *  @note TIM3 and TIM4 are both 16-bit timers. So the period maximum is 0xffff.
  70:../libDaisy/src/per/tim.h ****         */
  71:../libDaisy/src/per/tim.h ****         uint32_t period;
  72:../libDaisy/src/per/tim.h ****         bool     enable_irq; /**< Enable interrupt for user based callback */
  73:../libDaisy/src/per/tim.h **** 
  74:../libDaisy/src/per/tim.h ****         /* @brief Constructor for default states */
ARM GAS  /tmp/ccSY3rLK.s 			page 34


  75:../libDaisy/src/per/tim.h ****         Config()
  76:../libDaisy/src/per/tim.h ****         : periph(Peripheral::TIM_2),
  77:../libDaisy/src/per/tim.h ****           dir(CounterDir::UP),
  78:../libDaisy/src/per/tim.h ****           period(0xffffffff),
  79:../libDaisy/src/per/tim.h ****           enable_irq(false)
  80:../libDaisy/src/per/tim.h ****         {
  81:../libDaisy/src/per/tim.h ****         }
  82:../libDaisy/src/per/tim.h ****     };
  83:../libDaisy/src/per/tim.h **** 
  84:../libDaisy/src/per/tim.h ****     /** @brief Return values for TIM funcitons. */
  85:../libDaisy/src/per/tim.h ****     enum class Result
  86:../libDaisy/src/per/tim.h ****     {
  87:../libDaisy/src/per/tim.h ****         OK,
  88:../libDaisy/src/per/tim.h ****         ERR,
  89:../libDaisy/src/per/tim.h ****     };
  90:../libDaisy/src/per/tim.h **** 
  91:../libDaisy/src/per/tim.h ****     /** @brief User Callback type that will fire at the end of each timer 
  92:../libDaisy/src/per/tim.h ****      *   period. This requires that Config::enable_irq is true before Init
  93:../libDaisy/src/per/tim.h ****      *  @param data pointer to arbitrary user-provided data
  94:../libDaisy/src/per/tim.h ****     */
  95:../libDaisy/src/per/tim.h ****     typedef void (*PeriodElapsedCallback)(void* data);
  96:../libDaisy/src/per/tim.h **** 
  97:../libDaisy/src/per/tim.h ****     TimerHandle() : pimpl_(nullptr) {}
  98:../libDaisy/src/per/tim.h ****     TimerHandle(const TimerHandle& other) = default;
  99:../libDaisy/src/per/tim.h ****     TimerHandle& operator=(const TimerHandle& other) = default;
 100:../libDaisy/src/per/tim.h ****     ~TimerHandle() {}
 238              		.loc 22 100 5 view .LVU41
 239              		.loc 22 100 5 is_stmt 0 view .LVU42
 240              	.LBE1225:
 241              		.loc 21 7 11 view .LVU43
 242 0000 7047     		bx	lr
 243              		.cfi_endproc
 244              	.LFE4975:
 246              		.weak	_ZN4hbpmD1Ev
 247              		.thumb_set _ZN4hbpmD1Ev,_ZN4hbpmD2Ev
 248              		.section	.text._ZN5daisy11OledDisplayINS_13SSD130xDriverILj64ELj32ENS_19SSD130xI2CTransportEEEED2E
 249              		.align	1
 250              		.weak	_ZN5daisy11OledDisplayINS_13SSD130xDriverILj64ELj32ENS_19SSD130xI2CTransportEEEED2Ev
 251              		.syntax unified
 252              		.thumb
 253              		.thumb_func
 254              		.fpu fpv5-d16
 256              	_ZN5daisy11OledDisplayINS_13SSD130xDriverILj64ELj32ENS_19SSD130xI2CTransportEEEED2Ev:
 257              	.LVL5:
 258              	.LFB5319:
 259              		.loc 4 18 13 is_stmt 1 view -0
 260              		.cfi_startproc
 261              		@ args = 0, pretend = 0, frame = 0
 262              		@ frame_needed = 0, uses_anonymous_args = 0
 263              		@ link register save eliminated.
 264              	.LBB1226:
 265              	.LBI1226:
 266              		.loc 5 219 13 view .LVU45
 267              	.LBB1227:
 268              	.LBI1227:
  23:../libDaisy/src/hid/disp/display.h **** 
 269              		.loc 5 23 13 view .LVU46
ARM GAS  /tmp/ccSY3rLK.s 			page 35


  23:../libDaisy/src/hid/disp/display.h **** 
 270              		.loc 5 23 13 is_stmt 0 view .LVU47
 271              	.LBE1227:
 272              	.LBE1226:
 273              		.loc 4 18 29 view .LVU48
 274 0000 7047     		bx	lr
 275              		.cfi_endproc
 276              	.LFE5319:
 278              		.weak	_ZN5daisy11OledDisplayINS_13SSD130xDriverILj64ELj32ENS_19SSD130xI2CTransportEEEED1Ev
 279              		.thumb_set _ZN5daisy11OledDisplayINS_13SSD130xDriverILj64ELj32ENS_19SSD130xI2CTransportEEEED1Ev,_Z
 280              		.section	.text._ZN6hdelayD2Ev,"axG",%progbits,_ZN6hdelayD5Ev,comdat
 281              		.align	1
 282              		.weak	_ZN6hdelayD2Ev
 283              		.syntax unified
 284              		.thumb
 285              		.thumb_func
 286              		.fpu fpv5-d16
 288              	_ZN6hdelayD2Ev:
 289              	.LVL6:
 290              	.LFB4985:
 291              		.file 23 "src/hdelay.h"
   1:src/hdelay.h  **** class hdelay
   2:src/hdelay.h  **** {
   3:src/hdelay.h  **** public:
   4:src/hdelay.h  **** 	hdelay() {};
   5:src/hdelay.h  **** 	~hdelay() {};
 292              		.loc 23 5 2 is_stmt 1 view -0
 293              		.cfi_startproc
 294              		@ args = 0, pretend = 0, frame = 0
 295              		@ frame_needed = 0, uses_anonymous_args = 0
 296              		.loc 23 5 2 is_stmt 0 view .LVU50
 297 0000 70B5     		push	{r4, r5, r6, lr}
 298              		.cfi_def_cfa_offset 16
 299              		.cfi_offset 4, -16
 300              		.cfi_offset 5, -12
 301              		.cfi_offset 6, -8
 302              		.cfi_offset 14, -4
 303              		.loc 23 5 2 view .LVU51
 304 0002 0446     		mov	r4, r0
 305              	.LBB1228:
 306              		.loc 23 5 12 view .LVU52
 307 0004 00F5F275 		add	r5, r0, #484
 308 0008 00F1AC06 		add	r6, r0, #172
 309              	.LVL7:
 310              	.L9:
 311              		.loc 23 5 12 discriminator 6 view .LVU53
 312 000c B542     		cmp	r5, r6
 313 000e 04D0     		beq	.L8
 314              		.loc 23 5 12 discriminator 5 view .LVU54
 315 0010 183D     		subs	r5, r5, #24
 316              	.LVL8:
 317              	.LBB1229:
 318              	.LBI1229:
 319              		.file 24 "/home/hubert/daisy/gcc/arm-none-eabi/include/c++/10.2.1/bits/basic_string.h"
   1:/home/hubert/daisy/gcc/arm-none-eabi/include/c++/10.2.1/bits/basic_string.h **** // Components for manipulating sequences of characters -*- C++ -*-
   2:/home/hubert/daisy/gcc/arm-none-eabi/include/c++/10.2.1/bits/basic_string.h **** 
   3:/home/hubert/daisy/gcc/arm-none-eabi/include/c++/10.2.1/bits/basic_string.h **** // Copyright (C) 1997-2020 Free Software Foundation, Inc.
ARM GAS  /tmp/ccSY3rLK.s 			page 36


   4:/home/hubert/daisy/gcc/arm-none-eabi/include/c++/10.2.1/bits/basic_string.h **** //
   5:/home/hubert/daisy/gcc/arm-none-eabi/include/c++/10.2.1/bits/basic_string.h **** // This file is part of the GNU ISO C++ Library.  This library is free
   6:/home/hubert/daisy/gcc/arm-none-eabi/include/c++/10.2.1/bits/basic_string.h **** // software; you can redistribute it and/or modify it under the
   7:/home/hubert/daisy/gcc/arm-none-eabi/include/c++/10.2.1/bits/basic_string.h **** // terms of the GNU General Public License as published by the
   8:/home/hubert/daisy/gcc/arm-none-eabi/include/c++/10.2.1/bits/basic_string.h **** // Free Software Foundation; either version 3, or (at your option)
   9:/home/hubert/daisy/gcc/arm-none-eabi/include/c++/10.2.1/bits/basic_string.h **** // any later version.
  10:/home/hubert/daisy/gcc/arm-none-eabi/include/c++/10.2.1/bits/basic_string.h **** 
  11:/home/hubert/daisy/gcc/arm-none-eabi/include/c++/10.2.1/bits/basic_string.h **** // This library is distributed in the hope that it will be useful,
  12:/home/hubert/daisy/gcc/arm-none-eabi/include/c++/10.2.1/bits/basic_string.h **** // but WITHOUT ANY WARRANTY; without even the implied warranty of
  13:/home/hubert/daisy/gcc/arm-none-eabi/include/c++/10.2.1/bits/basic_string.h **** // MERCHANTABILITY or FITNESS FOR A PARTICULAR PURPOSE.  See the
  14:/home/hubert/daisy/gcc/arm-none-eabi/include/c++/10.2.1/bits/basic_string.h **** // GNU General Public License for more details.
  15:/home/hubert/daisy/gcc/arm-none-eabi/include/c++/10.2.1/bits/basic_string.h **** 
  16:/home/hubert/daisy/gcc/arm-none-eabi/include/c++/10.2.1/bits/basic_string.h **** // Under Section 7 of GPL version 3, you are granted additional
  17:/home/hubert/daisy/gcc/arm-none-eabi/include/c++/10.2.1/bits/basic_string.h **** // permissions described in the GCC Runtime Library Exception, version
  18:/home/hubert/daisy/gcc/arm-none-eabi/include/c++/10.2.1/bits/basic_string.h **** // 3.1, as published by the Free Software Foundation.
  19:/home/hubert/daisy/gcc/arm-none-eabi/include/c++/10.2.1/bits/basic_string.h **** 
  20:/home/hubert/daisy/gcc/arm-none-eabi/include/c++/10.2.1/bits/basic_string.h **** // You should have received a copy of the GNU General Public License and
  21:/home/hubert/daisy/gcc/arm-none-eabi/include/c++/10.2.1/bits/basic_string.h **** // a copy of the GCC Runtime Library Exception along with this program;
  22:/home/hubert/daisy/gcc/arm-none-eabi/include/c++/10.2.1/bits/basic_string.h **** // see the files COPYING3 and COPYING.RUNTIME respectively.  If not, see
  23:/home/hubert/daisy/gcc/arm-none-eabi/include/c++/10.2.1/bits/basic_string.h **** // <http://www.gnu.org/licenses/>.
  24:/home/hubert/daisy/gcc/arm-none-eabi/include/c++/10.2.1/bits/basic_string.h **** 
  25:/home/hubert/daisy/gcc/arm-none-eabi/include/c++/10.2.1/bits/basic_string.h **** /** @file bits/basic_string.h
  26:/home/hubert/daisy/gcc/arm-none-eabi/include/c++/10.2.1/bits/basic_string.h ****  *  This is an internal header file, included by other library headers.
  27:/home/hubert/daisy/gcc/arm-none-eabi/include/c++/10.2.1/bits/basic_string.h ****  *  Do not attempt to use it directly. @headername{string}
  28:/home/hubert/daisy/gcc/arm-none-eabi/include/c++/10.2.1/bits/basic_string.h ****  */
  29:/home/hubert/daisy/gcc/arm-none-eabi/include/c++/10.2.1/bits/basic_string.h **** 
  30:/home/hubert/daisy/gcc/arm-none-eabi/include/c++/10.2.1/bits/basic_string.h **** //
  31:/home/hubert/daisy/gcc/arm-none-eabi/include/c++/10.2.1/bits/basic_string.h **** // ISO C++ 14882: 21 Strings library
  32:/home/hubert/daisy/gcc/arm-none-eabi/include/c++/10.2.1/bits/basic_string.h **** //
  33:/home/hubert/daisy/gcc/arm-none-eabi/include/c++/10.2.1/bits/basic_string.h **** 
  34:/home/hubert/daisy/gcc/arm-none-eabi/include/c++/10.2.1/bits/basic_string.h **** #ifndef _BASIC_STRING_H
  35:/home/hubert/daisy/gcc/arm-none-eabi/include/c++/10.2.1/bits/basic_string.h **** #define _BASIC_STRING_H 1
  36:/home/hubert/daisy/gcc/arm-none-eabi/include/c++/10.2.1/bits/basic_string.h **** 
  37:/home/hubert/daisy/gcc/arm-none-eabi/include/c++/10.2.1/bits/basic_string.h **** #pragma GCC system_header
  38:/home/hubert/daisy/gcc/arm-none-eabi/include/c++/10.2.1/bits/basic_string.h **** 
  39:/home/hubert/daisy/gcc/arm-none-eabi/include/c++/10.2.1/bits/basic_string.h **** #include <ext/atomicity.h>
  40:/home/hubert/daisy/gcc/arm-none-eabi/include/c++/10.2.1/bits/basic_string.h **** #include <ext/alloc_traits.h>
  41:/home/hubert/daisy/gcc/arm-none-eabi/include/c++/10.2.1/bits/basic_string.h **** #include <debug/debug.h>
  42:/home/hubert/daisy/gcc/arm-none-eabi/include/c++/10.2.1/bits/basic_string.h **** 
  43:/home/hubert/daisy/gcc/arm-none-eabi/include/c++/10.2.1/bits/basic_string.h **** #if __cplusplus >= 201103L
  44:/home/hubert/daisy/gcc/arm-none-eabi/include/c++/10.2.1/bits/basic_string.h **** #include <initializer_list>
  45:/home/hubert/daisy/gcc/arm-none-eabi/include/c++/10.2.1/bits/basic_string.h **** #endif
  46:/home/hubert/daisy/gcc/arm-none-eabi/include/c++/10.2.1/bits/basic_string.h **** 
  47:/home/hubert/daisy/gcc/arm-none-eabi/include/c++/10.2.1/bits/basic_string.h **** #if __cplusplus >= 201703L
  48:/home/hubert/daisy/gcc/arm-none-eabi/include/c++/10.2.1/bits/basic_string.h **** # include <string_view>
  49:/home/hubert/daisy/gcc/arm-none-eabi/include/c++/10.2.1/bits/basic_string.h **** #endif
  50:/home/hubert/daisy/gcc/arm-none-eabi/include/c++/10.2.1/bits/basic_string.h **** 
  51:/home/hubert/daisy/gcc/arm-none-eabi/include/c++/10.2.1/bits/basic_string.h **** 
  52:/home/hubert/daisy/gcc/arm-none-eabi/include/c++/10.2.1/bits/basic_string.h **** namespace std _GLIBCXX_VISIBILITY(default)
  53:/home/hubert/daisy/gcc/arm-none-eabi/include/c++/10.2.1/bits/basic_string.h **** {
  54:/home/hubert/daisy/gcc/arm-none-eabi/include/c++/10.2.1/bits/basic_string.h **** _GLIBCXX_BEGIN_NAMESPACE_VERSION
  55:/home/hubert/daisy/gcc/arm-none-eabi/include/c++/10.2.1/bits/basic_string.h **** 
  56:/home/hubert/daisy/gcc/arm-none-eabi/include/c++/10.2.1/bits/basic_string.h **** #if _GLIBCXX_USE_CXX11_ABI
  57:/home/hubert/daisy/gcc/arm-none-eabi/include/c++/10.2.1/bits/basic_string.h **** _GLIBCXX_BEGIN_NAMESPACE_CXX11
  58:/home/hubert/daisy/gcc/arm-none-eabi/include/c++/10.2.1/bits/basic_string.h ****   /**
  59:/home/hubert/daisy/gcc/arm-none-eabi/include/c++/10.2.1/bits/basic_string.h ****    *  @class basic_string basic_string.h <string>
  60:/home/hubert/daisy/gcc/arm-none-eabi/include/c++/10.2.1/bits/basic_string.h ****    *  @brief  Managing sequences of characters and character-like objects.
ARM GAS  /tmp/ccSY3rLK.s 			page 37


  61:/home/hubert/daisy/gcc/arm-none-eabi/include/c++/10.2.1/bits/basic_string.h ****    *
  62:/home/hubert/daisy/gcc/arm-none-eabi/include/c++/10.2.1/bits/basic_string.h ****    *  @ingroup strings
  63:/home/hubert/daisy/gcc/arm-none-eabi/include/c++/10.2.1/bits/basic_string.h ****    *  @ingroup sequences
  64:/home/hubert/daisy/gcc/arm-none-eabi/include/c++/10.2.1/bits/basic_string.h ****    *
  65:/home/hubert/daisy/gcc/arm-none-eabi/include/c++/10.2.1/bits/basic_string.h ****    *  @tparam _CharT  Type of character
  66:/home/hubert/daisy/gcc/arm-none-eabi/include/c++/10.2.1/bits/basic_string.h ****    *  @tparam _Traits  Traits for character type, defaults to
  67:/home/hubert/daisy/gcc/arm-none-eabi/include/c++/10.2.1/bits/basic_string.h ****    *                   char_traits<_CharT>.
  68:/home/hubert/daisy/gcc/arm-none-eabi/include/c++/10.2.1/bits/basic_string.h ****    *  @tparam _Alloc  Allocator type, defaults to allocator<_CharT>.
  69:/home/hubert/daisy/gcc/arm-none-eabi/include/c++/10.2.1/bits/basic_string.h ****    *
  70:/home/hubert/daisy/gcc/arm-none-eabi/include/c++/10.2.1/bits/basic_string.h ****    *  Meets the requirements of a <a href="tables.html#65">container</a>, a
  71:/home/hubert/daisy/gcc/arm-none-eabi/include/c++/10.2.1/bits/basic_string.h ****    *  <a href="tables.html#66">reversible container</a>, and a
  72:/home/hubert/daisy/gcc/arm-none-eabi/include/c++/10.2.1/bits/basic_string.h ****    *  <a href="tables.html#67">sequence</a>.  Of the
  73:/home/hubert/daisy/gcc/arm-none-eabi/include/c++/10.2.1/bits/basic_string.h ****    *  <a href="tables.html#68">optional sequence requirements</a>, only
  74:/home/hubert/daisy/gcc/arm-none-eabi/include/c++/10.2.1/bits/basic_string.h ****    *  @c push_back, @c at, and @c %array access are supported.
  75:/home/hubert/daisy/gcc/arm-none-eabi/include/c++/10.2.1/bits/basic_string.h ****    */
  76:/home/hubert/daisy/gcc/arm-none-eabi/include/c++/10.2.1/bits/basic_string.h ****   template<typename _CharT, typename _Traits, typename _Alloc>
  77:/home/hubert/daisy/gcc/arm-none-eabi/include/c++/10.2.1/bits/basic_string.h ****     class basic_string
  78:/home/hubert/daisy/gcc/arm-none-eabi/include/c++/10.2.1/bits/basic_string.h ****     {
  79:/home/hubert/daisy/gcc/arm-none-eabi/include/c++/10.2.1/bits/basic_string.h ****       typedef typename __gnu_cxx::__alloc_traits<_Alloc>::template
  80:/home/hubert/daisy/gcc/arm-none-eabi/include/c++/10.2.1/bits/basic_string.h **** 	rebind<_CharT>::other _Char_alloc_type;
  81:/home/hubert/daisy/gcc/arm-none-eabi/include/c++/10.2.1/bits/basic_string.h ****       typedef __gnu_cxx::__alloc_traits<_Char_alloc_type> _Alloc_traits;
  82:/home/hubert/daisy/gcc/arm-none-eabi/include/c++/10.2.1/bits/basic_string.h **** 
  83:/home/hubert/daisy/gcc/arm-none-eabi/include/c++/10.2.1/bits/basic_string.h ****       // Types:
  84:/home/hubert/daisy/gcc/arm-none-eabi/include/c++/10.2.1/bits/basic_string.h ****     public:
  85:/home/hubert/daisy/gcc/arm-none-eabi/include/c++/10.2.1/bits/basic_string.h ****       typedef _Traits					traits_type;
  86:/home/hubert/daisy/gcc/arm-none-eabi/include/c++/10.2.1/bits/basic_string.h ****       typedef typename _Traits::char_type		value_type;
  87:/home/hubert/daisy/gcc/arm-none-eabi/include/c++/10.2.1/bits/basic_string.h ****       typedef _Char_alloc_type				allocator_type;
  88:/home/hubert/daisy/gcc/arm-none-eabi/include/c++/10.2.1/bits/basic_string.h ****       typedef typename _Alloc_traits::size_type		size_type;
  89:/home/hubert/daisy/gcc/arm-none-eabi/include/c++/10.2.1/bits/basic_string.h ****       typedef typename _Alloc_traits::difference_type	difference_type;
  90:/home/hubert/daisy/gcc/arm-none-eabi/include/c++/10.2.1/bits/basic_string.h ****       typedef typename _Alloc_traits::reference		reference;
  91:/home/hubert/daisy/gcc/arm-none-eabi/include/c++/10.2.1/bits/basic_string.h ****       typedef typename _Alloc_traits::const_reference	const_reference;
  92:/home/hubert/daisy/gcc/arm-none-eabi/include/c++/10.2.1/bits/basic_string.h ****       typedef typename _Alloc_traits::pointer		pointer;
  93:/home/hubert/daisy/gcc/arm-none-eabi/include/c++/10.2.1/bits/basic_string.h ****       typedef typename _Alloc_traits::const_pointer	const_pointer;
  94:/home/hubert/daisy/gcc/arm-none-eabi/include/c++/10.2.1/bits/basic_string.h ****       typedef __gnu_cxx::__normal_iterator<pointer, basic_string>  iterator;
  95:/home/hubert/daisy/gcc/arm-none-eabi/include/c++/10.2.1/bits/basic_string.h ****       typedef __gnu_cxx::__normal_iterator<const_pointer, basic_string>
  96:/home/hubert/daisy/gcc/arm-none-eabi/include/c++/10.2.1/bits/basic_string.h **** 							const_iterator;
  97:/home/hubert/daisy/gcc/arm-none-eabi/include/c++/10.2.1/bits/basic_string.h ****       typedef std::reverse_iterator<const_iterator>	const_reverse_iterator;
  98:/home/hubert/daisy/gcc/arm-none-eabi/include/c++/10.2.1/bits/basic_string.h ****       typedef std::reverse_iterator<iterator>		reverse_iterator;
  99:/home/hubert/daisy/gcc/arm-none-eabi/include/c++/10.2.1/bits/basic_string.h **** 
 100:/home/hubert/daisy/gcc/arm-none-eabi/include/c++/10.2.1/bits/basic_string.h ****       ///  Value returned by various member functions when they fail.
 101:/home/hubert/daisy/gcc/arm-none-eabi/include/c++/10.2.1/bits/basic_string.h ****       static const size_type	npos = static_cast<size_type>(-1);
 102:/home/hubert/daisy/gcc/arm-none-eabi/include/c++/10.2.1/bits/basic_string.h **** 
 103:/home/hubert/daisy/gcc/arm-none-eabi/include/c++/10.2.1/bits/basic_string.h ****     protected:
 104:/home/hubert/daisy/gcc/arm-none-eabi/include/c++/10.2.1/bits/basic_string.h ****       // type used for positions in insert, erase etc.
 105:/home/hubert/daisy/gcc/arm-none-eabi/include/c++/10.2.1/bits/basic_string.h **** #if __cplusplus < 201103L
 106:/home/hubert/daisy/gcc/arm-none-eabi/include/c++/10.2.1/bits/basic_string.h ****       typedef iterator __const_iterator;
 107:/home/hubert/daisy/gcc/arm-none-eabi/include/c++/10.2.1/bits/basic_string.h **** #else
 108:/home/hubert/daisy/gcc/arm-none-eabi/include/c++/10.2.1/bits/basic_string.h ****       typedef const_iterator __const_iterator;
 109:/home/hubert/daisy/gcc/arm-none-eabi/include/c++/10.2.1/bits/basic_string.h **** #endif
 110:/home/hubert/daisy/gcc/arm-none-eabi/include/c++/10.2.1/bits/basic_string.h **** 
 111:/home/hubert/daisy/gcc/arm-none-eabi/include/c++/10.2.1/bits/basic_string.h ****     private:
 112:/home/hubert/daisy/gcc/arm-none-eabi/include/c++/10.2.1/bits/basic_string.h **** #if __cplusplus >= 201703L
 113:/home/hubert/daisy/gcc/arm-none-eabi/include/c++/10.2.1/bits/basic_string.h ****       // A helper type for avoiding boiler-plate.
 114:/home/hubert/daisy/gcc/arm-none-eabi/include/c++/10.2.1/bits/basic_string.h ****       typedef basic_string_view<_CharT, _Traits> __sv_type;
 115:/home/hubert/daisy/gcc/arm-none-eabi/include/c++/10.2.1/bits/basic_string.h **** 
 116:/home/hubert/daisy/gcc/arm-none-eabi/include/c++/10.2.1/bits/basic_string.h ****       template<typename _Tp, typename _Res>
 117:/home/hubert/daisy/gcc/arm-none-eabi/include/c++/10.2.1/bits/basic_string.h **** 	using _If_sv = enable_if_t<
ARM GAS  /tmp/ccSY3rLK.s 			page 38


 118:/home/hubert/daisy/gcc/arm-none-eabi/include/c++/10.2.1/bits/basic_string.h **** 	  __and_<is_convertible<const _Tp&, __sv_type>,
 119:/home/hubert/daisy/gcc/arm-none-eabi/include/c++/10.2.1/bits/basic_string.h **** 		 __not_<is_convertible<const _Tp*, const basic_string*>>,
 120:/home/hubert/daisy/gcc/arm-none-eabi/include/c++/10.2.1/bits/basic_string.h **** 		 __not_<is_convertible<const _Tp&, const _CharT*>>>::value,
 121:/home/hubert/daisy/gcc/arm-none-eabi/include/c++/10.2.1/bits/basic_string.h **** 	  _Res>;
 122:/home/hubert/daisy/gcc/arm-none-eabi/include/c++/10.2.1/bits/basic_string.h **** 
 123:/home/hubert/daisy/gcc/arm-none-eabi/include/c++/10.2.1/bits/basic_string.h ****       // Allows an implicit conversion to __sv_type.
 124:/home/hubert/daisy/gcc/arm-none-eabi/include/c++/10.2.1/bits/basic_string.h ****       static __sv_type
 125:/home/hubert/daisy/gcc/arm-none-eabi/include/c++/10.2.1/bits/basic_string.h ****       _S_to_string_view(__sv_type __svt) noexcept
 126:/home/hubert/daisy/gcc/arm-none-eabi/include/c++/10.2.1/bits/basic_string.h ****       { return __svt; }
 127:/home/hubert/daisy/gcc/arm-none-eabi/include/c++/10.2.1/bits/basic_string.h **** 
 128:/home/hubert/daisy/gcc/arm-none-eabi/include/c++/10.2.1/bits/basic_string.h ****       // Wraps a string_view by explicit conversion and thus
 129:/home/hubert/daisy/gcc/arm-none-eabi/include/c++/10.2.1/bits/basic_string.h ****       // allows to add an internal constructor that does not
 130:/home/hubert/daisy/gcc/arm-none-eabi/include/c++/10.2.1/bits/basic_string.h ****       // participate in overload resolution when a string_view
 131:/home/hubert/daisy/gcc/arm-none-eabi/include/c++/10.2.1/bits/basic_string.h ****       // is provided.
 132:/home/hubert/daisy/gcc/arm-none-eabi/include/c++/10.2.1/bits/basic_string.h ****       struct __sv_wrapper
 133:/home/hubert/daisy/gcc/arm-none-eabi/include/c++/10.2.1/bits/basic_string.h ****       {
 134:/home/hubert/daisy/gcc/arm-none-eabi/include/c++/10.2.1/bits/basic_string.h **** 	explicit __sv_wrapper(__sv_type __sv) noexcept : _M_sv(__sv) { }
 135:/home/hubert/daisy/gcc/arm-none-eabi/include/c++/10.2.1/bits/basic_string.h **** 	__sv_type _M_sv;
 136:/home/hubert/daisy/gcc/arm-none-eabi/include/c++/10.2.1/bits/basic_string.h ****       };
 137:/home/hubert/daisy/gcc/arm-none-eabi/include/c++/10.2.1/bits/basic_string.h **** 
 138:/home/hubert/daisy/gcc/arm-none-eabi/include/c++/10.2.1/bits/basic_string.h ****       /**
 139:/home/hubert/daisy/gcc/arm-none-eabi/include/c++/10.2.1/bits/basic_string.h ****        *  @brief  Only internally used: Construct string from a string view
 140:/home/hubert/daisy/gcc/arm-none-eabi/include/c++/10.2.1/bits/basic_string.h ****        *          wrapper.
 141:/home/hubert/daisy/gcc/arm-none-eabi/include/c++/10.2.1/bits/basic_string.h ****        *  @param  __svw  string view wrapper.
 142:/home/hubert/daisy/gcc/arm-none-eabi/include/c++/10.2.1/bits/basic_string.h ****        *  @param  __a  Allocator to use.
 143:/home/hubert/daisy/gcc/arm-none-eabi/include/c++/10.2.1/bits/basic_string.h ****        */
 144:/home/hubert/daisy/gcc/arm-none-eabi/include/c++/10.2.1/bits/basic_string.h ****       explicit
 145:/home/hubert/daisy/gcc/arm-none-eabi/include/c++/10.2.1/bits/basic_string.h ****       basic_string(__sv_wrapper __svw, const _Alloc& __a)
 146:/home/hubert/daisy/gcc/arm-none-eabi/include/c++/10.2.1/bits/basic_string.h ****       : basic_string(__svw._M_sv.data(), __svw._M_sv.size(), __a) { }
 147:/home/hubert/daisy/gcc/arm-none-eabi/include/c++/10.2.1/bits/basic_string.h **** #endif
 148:/home/hubert/daisy/gcc/arm-none-eabi/include/c++/10.2.1/bits/basic_string.h **** 
 149:/home/hubert/daisy/gcc/arm-none-eabi/include/c++/10.2.1/bits/basic_string.h ****       // Use empty-base optimization: http://www.cantrip.org/emptyopt.html
 150:/home/hubert/daisy/gcc/arm-none-eabi/include/c++/10.2.1/bits/basic_string.h ****       struct _Alloc_hider : allocator_type // TODO check __is_final
 151:/home/hubert/daisy/gcc/arm-none-eabi/include/c++/10.2.1/bits/basic_string.h ****       {
 152:/home/hubert/daisy/gcc/arm-none-eabi/include/c++/10.2.1/bits/basic_string.h **** #if __cplusplus < 201103L
 153:/home/hubert/daisy/gcc/arm-none-eabi/include/c++/10.2.1/bits/basic_string.h **** 	_Alloc_hider(pointer __dat, const _Alloc& __a = _Alloc())
 154:/home/hubert/daisy/gcc/arm-none-eabi/include/c++/10.2.1/bits/basic_string.h **** 	: allocator_type(__a), _M_p(__dat) { }
 155:/home/hubert/daisy/gcc/arm-none-eabi/include/c++/10.2.1/bits/basic_string.h **** #else
 156:/home/hubert/daisy/gcc/arm-none-eabi/include/c++/10.2.1/bits/basic_string.h **** 	_Alloc_hider(pointer __dat, const _Alloc& __a)
 157:/home/hubert/daisy/gcc/arm-none-eabi/include/c++/10.2.1/bits/basic_string.h **** 	: allocator_type(__a), _M_p(__dat) { }
 158:/home/hubert/daisy/gcc/arm-none-eabi/include/c++/10.2.1/bits/basic_string.h **** 
 159:/home/hubert/daisy/gcc/arm-none-eabi/include/c++/10.2.1/bits/basic_string.h **** 	_Alloc_hider(pointer __dat, _Alloc&& __a = _Alloc())
 160:/home/hubert/daisy/gcc/arm-none-eabi/include/c++/10.2.1/bits/basic_string.h **** 	: allocator_type(std::move(__a)), _M_p(__dat) { }
 161:/home/hubert/daisy/gcc/arm-none-eabi/include/c++/10.2.1/bits/basic_string.h **** #endif
 162:/home/hubert/daisy/gcc/arm-none-eabi/include/c++/10.2.1/bits/basic_string.h **** 
 163:/home/hubert/daisy/gcc/arm-none-eabi/include/c++/10.2.1/bits/basic_string.h **** 	pointer _M_p; // The actual data.
 164:/home/hubert/daisy/gcc/arm-none-eabi/include/c++/10.2.1/bits/basic_string.h ****       };
 165:/home/hubert/daisy/gcc/arm-none-eabi/include/c++/10.2.1/bits/basic_string.h **** 
 166:/home/hubert/daisy/gcc/arm-none-eabi/include/c++/10.2.1/bits/basic_string.h ****       _Alloc_hider	_M_dataplus;
 167:/home/hubert/daisy/gcc/arm-none-eabi/include/c++/10.2.1/bits/basic_string.h ****       size_type		_M_string_length;
 168:/home/hubert/daisy/gcc/arm-none-eabi/include/c++/10.2.1/bits/basic_string.h **** 
 169:/home/hubert/daisy/gcc/arm-none-eabi/include/c++/10.2.1/bits/basic_string.h ****       enum { _S_local_capacity = 15 / sizeof(_CharT) };
 170:/home/hubert/daisy/gcc/arm-none-eabi/include/c++/10.2.1/bits/basic_string.h **** 
 171:/home/hubert/daisy/gcc/arm-none-eabi/include/c++/10.2.1/bits/basic_string.h ****       union
 172:/home/hubert/daisy/gcc/arm-none-eabi/include/c++/10.2.1/bits/basic_string.h ****       {
 173:/home/hubert/daisy/gcc/arm-none-eabi/include/c++/10.2.1/bits/basic_string.h **** 	_CharT           _M_local_buf[_S_local_capacity + 1];
 174:/home/hubert/daisy/gcc/arm-none-eabi/include/c++/10.2.1/bits/basic_string.h **** 	size_type        _M_allocated_capacity;
ARM GAS  /tmp/ccSY3rLK.s 			page 39


 175:/home/hubert/daisy/gcc/arm-none-eabi/include/c++/10.2.1/bits/basic_string.h ****       };
 176:/home/hubert/daisy/gcc/arm-none-eabi/include/c++/10.2.1/bits/basic_string.h **** 
 177:/home/hubert/daisy/gcc/arm-none-eabi/include/c++/10.2.1/bits/basic_string.h ****       void
 178:/home/hubert/daisy/gcc/arm-none-eabi/include/c++/10.2.1/bits/basic_string.h ****       _M_data(pointer __p)
 179:/home/hubert/daisy/gcc/arm-none-eabi/include/c++/10.2.1/bits/basic_string.h ****       { _M_dataplus._M_p = __p; }
 180:/home/hubert/daisy/gcc/arm-none-eabi/include/c++/10.2.1/bits/basic_string.h **** 
 181:/home/hubert/daisy/gcc/arm-none-eabi/include/c++/10.2.1/bits/basic_string.h ****       void
 182:/home/hubert/daisy/gcc/arm-none-eabi/include/c++/10.2.1/bits/basic_string.h ****       _M_length(size_type __length)
 183:/home/hubert/daisy/gcc/arm-none-eabi/include/c++/10.2.1/bits/basic_string.h ****       { _M_string_length = __length; }
 184:/home/hubert/daisy/gcc/arm-none-eabi/include/c++/10.2.1/bits/basic_string.h **** 
 185:/home/hubert/daisy/gcc/arm-none-eabi/include/c++/10.2.1/bits/basic_string.h ****       pointer
 186:/home/hubert/daisy/gcc/arm-none-eabi/include/c++/10.2.1/bits/basic_string.h ****       _M_data() const
 187:/home/hubert/daisy/gcc/arm-none-eabi/include/c++/10.2.1/bits/basic_string.h ****       { return _M_dataplus._M_p; }
 188:/home/hubert/daisy/gcc/arm-none-eabi/include/c++/10.2.1/bits/basic_string.h **** 
 189:/home/hubert/daisy/gcc/arm-none-eabi/include/c++/10.2.1/bits/basic_string.h ****       pointer
 190:/home/hubert/daisy/gcc/arm-none-eabi/include/c++/10.2.1/bits/basic_string.h ****       _M_local_data()
 191:/home/hubert/daisy/gcc/arm-none-eabi/include/c++/10.2.1/bits/basic_string.h ****       {
 192:/home/hubert/daisy/gcc/arm-none-eabi/include/c++/10.2.1/bits/basic_string.h **** #if __cplusplus >= 201103L
 193:/home/hubert/daisy/gcc/arm-none-eabi/include/c++/10.2.1/bits/basic_string.h **** 	return std::pointer_traits<pointer>::pointer_to(*_M_local_buf);
 194:/home/hubert/daisy/gcc/arm-none-eabi/include/c++/10.2.1/bits/basic_string.h **** #else
 195:/home/hubert/daisy/gcc/arm-none-eabi/include/c++/10.2.1/bits/basic_string.h **** 	return pointer(_M_local_buf);
 196:/home/hubert/daisy/gcc/arm-none-eabi/include/c++/10.2.1/bits/basic_string.h **** #endif
 197:/home/hubert/daisy/gcc/arm-none-eabi/include/c++/10.2.1/bits/basic_string.h ****       }
 198:/home/hubert/daisy/gcc/arm-none-eabi/include/c++/10.2.1/bits/basic_string.h **** 
 199:/home/hubert/daisy/gcc/arm-none-eabi/include/c++/10.2.1/bits/basic_string.h ****       const_pointer
 200:/home/hubert/daisy/gcc/arm-none-eabi/include/c++/10.2.1/bits/basic_string.h ****       _M_local_data() const
 201:/home/hubert/daisy/gcc/arm-none-eabi/include/c++/10.2.1/bits/basic_string.h ****       {
 202:/home/hubert/daisy/gcc/arm-none-eabi/include/c++/10.2.1/bits/basic_string.h **** #if __cplusplus >= 201103L
 203:/home/hubert/daisy/gcc/arm-none-eabi/include/c++/10.2.1/bits/basic_string.h **** 	return std::pointer_traits<const_pointer>::pointer_to(*_M_local_buf);
 204:/home/hubert/daisy/gcc/arm-none-eabi/include/c++/10.2.1/bits/basic_string.h **** #else
 205:/home/hubert/daisy/gcc/arm-none-eabi/include/c++/10.2.1/bits/basic_string.h **** 	return const_pointer(_M_local_buf);
 206:/home/hubert/daisy/gcc/arm-none-eabi/include/c++/10.2.1/bits/basic_string.h **** #endif
 207:/home/hubert/daisy/gcc/arm-none-eabi/include/c++/10.2.1/bits/basic_string.h ****       }
 208:/home/hubert/daisy/gcc/arm-none-eabi/include/c++/10.2.1/bits/basic_string.h **** 
 209:/home/hubert/daisy/gcc/arm-none-eabi/include/c++/10.2.1/bits/basic_string.h ****       void
 210:/home/hubert/daisy/gcc/arm-none-eabi/include/c++/10.2.1/bits/basic_string.h ****       _M_capacity(size_type __capacity)
 211:/home/hubert/daisy/gcc/arm-none-eabi/include/c++/10.2.1/bits/basic_string.h ****       { _M_allocated_capacity = __capacity; }
 212:/home/hubert/daisy/gcc/arm-none-eabi/include/c++/10.2.1/bits/basic_string.h **** 
 213:/home/hubert/daisy/gcc/arm-none-eabi/include/c++/10.2.1/bits/basic_string.h ****       void
 214:/home/hubert/daisy/gcc/arm-none-eabi/include/c++/10.2.1/bits/basic_string.h ****       _M_set_length(size_type __n)
 215:/home/hubert/daisy/gcc/arm-none-eabi/include/c++/10.2.1/bits/basic_string.h ****       {
 216:/home/hubert/daisy/gcc/arm-none-eabi/include/c++/10.2.1/bits/basic_string.h **** 	_M_length(__n);
 217:/home/hubert/daisy/gcc/arm-none-eabi/include/c++/10.2.1/bits/basic_string.h **** 	traits_type::assign(_M_data()[__n], _CharT());
 218:/home/hubert/daisy/gcc/arm-none-eabi/include/c++/10.2.1/bits/basic_string.h ****       }
 219:/home/hubert/daisy/gcc/arm-none-eabi/include/c++/10.2.1/bits/basic_string.h **** 
 220:/home/hubert/daisy/gcc/arm-none-eabi/include/c++/10.2.1/bits/basic_string.h ****       bool
 221:/home/hubert/daisy/gcc/arm-none-eabi/include/c++/10.2.1/bits/basic_string.h ****       _M_is_local() const
 222:/home/hubert/daisy/gcc/arm-none-eabi/include/c++/10.2.1/bits/basic_string.h ****       { return _M_data() == _M_local_data(); }
 223:/home/hubert/daisy/gcc/arm-none-eabi/include/c++/10.2.1/bits/basic_string.h **** 
 224:/home/hubert/daisy/gcc/arm-none-eabi/include/c++/10.2.1/bits/basic_string.h ****       // Create & Destroy
 225:/home/hubert/daisy/gcc/arm-none-eabi/include/c++/10.2.1/bits/basic_string.h ****       pointer
 226:/home/hubert/daisy/gcc/arm-none-eabi/include/c++/10.2.1/bits/basic_string.h ****       _M_create(size_type&, size_type);
 227:/home/hubert/daisy/gcc/arm-none-eabi/include/c++/10.2.1/bits/basic_string.h **** 
 228:/home/hubert/daisy/gcc/arm-none-eabi/include/c++/10.2.1/bits/basic_string.h ****       void
 229:/home/hubert/daisy/gcc/arm-none-eabi/include/c++/10.2.1/bits/basic_string.h ****       _M_dispose()
 230:/home/hubert/daisy/gcc/arm-none-eabi/include/c++/10.2.1/bits/basic_string.h ****       {
 231:/home/hubert/daisy/gcc/arm-none-eabi/include/c++/10.2.1/bits/basic_string.h **** 	if (!_M_is_local())
ARM GAS  /tmp/ccSY3rLK.s 			page 40


 232:/home/hubert/daisy/gcc/arm-none-eabi/include/c++/10.2.1/bits/basic_string.h **** 	  _M_destroy(_M_allocated_capacity);
 233:/home/hubert/daisy/gcc/arm-none-eabi/include/c++/10.2.1/bits/basic_string.h ****       }
 234:/home/hubert/daisy/gcc/arm-none-eabi/include/c++/10.2.1/bits/basic_string.h **** 
 235:/home/hubert/daisy/gcc/arm-none-eabi/include/c++/10.2.1/bits/basic_string.h ****       void
 236:/home/hubert/daisy/gcc/arm-none-eabi/include/c++/10.2.1/bits/basic_string.h ****       _M_destroy(size_type __size) throw()
 237:/home/hubert/daisy/gcc/arm-none-eabi/include/c++/10.2.1/bits/basic_string.h ****       { _Alloc_traits::deallocate(_M_get_allocator(), _M_data(), __size + 1); }
 238:/home/hubert/daisy/gcc/arm-none-eabi/include/c++/10.2.1/bits/basic_string.h **** 
 239:/home/hubert/daisy/gcc/arm-none-eabi/include/c++/10.2.1/bits/basic_string.h ****       // _M_construct_aux is used to implement the 21.3.1 para 15 which
 240:/home/hubert/daisy/gcc/arm-none-eabi/include/c++/10.2.1/bits/basic_string.h ****       // requires special behaviour if _InIterator is an integral type
 241:/home/hubert/daisy/gcc/arm-none-eabi/include/c++/10.2.1/bits/basic_string.h ****       template<typename _InIterator>
 242:/home/hubert/daisy/gcc/arm-none-eabi/include/c++/10.2.1/bits/basic_string.h ****         void
 243:/home/hubert/daisy/gcc/arm-none-eabi/include/c++/10.2.1/bits/basic_string.h ****         _M_construct_aux(_InIterator __beg, _InIterator __end,
 244:/home/hubert/daisy/gcc/arm-none-eabi/include/c++/10.2.1/bits/basic_string.h **** 			 std::__false_type)
 245:/home/hubert/daisy/gcc/arm-none-eabi/include/c++/10.2.1/bits/basic_string.h **** 	{
 246:/home/hubert/daisy/gcc/arm-none-eabi/include/c++/10.2.1/bits/basic_string.h ****           typedef typename iterator_traits<_InIterator>::iterator_category _Tag;
 247:/home/hubert/daisy/gcc/arm-none-eabi/include/c++/10.2.1/bits/basic_string.h ****           _M_construct(__beg, __end, _Tag());
 248:/home/hubert/daisy/gcc/arm-none-eabi/include/c++/10.2.1/bits/basic_string.h **** 	}
 249:/home/hubert/daisy/gcc/arm-none-eabi/include/c++/10.2.1/bits/basic_string.h **** 
 250:/home/hubert/daisy/gcc/arm-none-eabi/include/c++/10.2.1/bits/basic_string.h ****       // _GLIBCXX_RESOLVE_LIB_DEFECTS
 251:/home/hubert/daisy/gcc/arm-none-eabi/include/c++/10.2.1/bits/basic_string.h ****       // 438. Ambiguity in the "do the right thing" clause
 252:/home/hubert/daisy/gcc/arm-none-eabi/include/c++/10.2.1/bits/basic_string.h ****       template<typename _Integer>
 253:/home/hubert/daisy/gcc/arm-none-eabi/include/c++/10.2.1/bits/basic_string.h ****         void
 254:/home/hubert/daisy/gcc/arm-none-eabi/include/c++/10.2.1/bits/basic_string.h ****         _M_construct_aux(_Integer __beg, _Integer __end, std::__true_type)
 255:/home/hubert/daisy/gcc/arm-none-eabi/include/c++/10.2.1/bits/basic_string.h **** 	{ _M_construct_aux_2(static_cast<size_type>(__beg), __end); }
 256:/home/hubert/daisy/gcc/arm-none-eabi/include/c++/10.2.1/bits/basic_string.h **** 
 257:/home/hubert/daisy/gcc/arm-none-eabi/include/c++/10.2.1/bits/basic_string.h ****       void
 258:/home/hubert/daisy/gcc/arm-none-eabi/include/c++/10.2.1/bits/basic_string.h ****       _M_construct_aux_2(size_type __req, _CharT __c)
 259:/home/hubert/daisy/gcc/arm-none-eabi/include/c++/10.2.1/bits/basic_string.h ****       { _M_construct(__req, __c); }
 260:/home/hubert/daisy/gcc/arm-none-eabi/include/c++/10.2.1/bits/basic_string.h **** 
 261:/home/hubert/daisy/gcc/arm-none-eabi/include/c++/10.2.1/bits/basic_string.h ****       template<typename _InIterator>
 262:/home/hubert/daisy/gcc/arm-none-eabi/include/c++/10.2.1/bits/basic_string.h ****         void
 263:/home/hubert/daisy/gcc/arm-none-eabi/include/c++/10.2.1/bits/basic_string.h ****         _M_construct(_InIterator __beg, _InIterator __end)
 264:/home/hubert/daisy/gcc/arm-none-eabi/include/c++/10.2.1/bits/basic_string.h **** 	{
 265:/home/hubert/daisy/gcc/arm-none-eabi/include/c++/10.2.1/bits/basic_string.h **** 	  typedef typename std::__is_integer<_InIterator>::__type _Integral;
 266:/home/hubert/daisy/gcc/arm-none-eabi/include/c++/10.2.1/bits/basic_string.h **** 	  _M_construct_aux(__beg, __end, _Integral());
 267:/home/hubert/daisy/gcc/arm-none-eabi/include/c++/10.2.1/bits/basic_string.h ****         }
 268:/home/hubert/daisy/gcc/arm-none-eabi/include/c++/10.2.1/bits/basic_string.h **** 
 269:/home/hubert/daisy/gcc/arm-none-eabi/include/c++/10.2.1/bits/basic_string.h ****       // For Input Iterators, used in istreambuf_iterators, etc.
 270:/home/hubert/daisy/gcc/arm-none-eabi/include/c++/10.2.1/bits/basic_string.h ****       template<typename _InIterator>
 271:/home/hubert/daisy/gcc/arm-none-eabi/include/c++/10.2.1/bits/basic_string.h ****         void
 272:/home/hubert/daisy/gcc/arm-none-eabi/include/c++/10.2.1/bits/basic_string.h ****         _M_construct(_InIterator __beg, _InIterator __end,
 273:/home/hubert/daisy/gcc/arm-none-eabi/include/c++/10.2.1/bits/basic_string.h **** 		     std::input_iterator_tag);
 274:/home/hubert/daisy/gcc/arm-none-eabi/include/c++/10.2.1/bits/basic_string.h **** 
 275:/home/hubert/daisy/gcc/arm-none-eabi/include/c++/10.2.1/bits/basic_string.h ****       // For forward_iterators up to random_access_iterators, used for
 276:/home/hubert/daisy/gcc/arm-none-eabi/include/c++/10.2.1/bits/basic_string.h ****       // string::iterator, _CharT*, etc.
 277:/home/hubert/daisy/gcc/arm-none-eabi/include/c++/10.2.1/bits/basic_string.h ****       template<typename _FwdIterator>
 278:/home/hubert/daisy/gcc/arm-none-eabi/include/c++/10.2.1/bits/basic_string.h ****         void
 279:/home/hubert/daisy/gcc/arm-none-eabi/include/c++/10.2.1/bits/basic_string.h ****         _M_construct(_FwdIterator __beg, _FwdIterator __end,
 280:/home/hubert/daisy/gcc/arm-none-eabi/include/c++/10.2.1/bits/basic_string.h **** 		     std::forward_iterator_tag);
 281:/home/hubert/daisy/gcc/arm-none-eabi/include/c++/10.2.1/bits/basic_string.h **** 
 282:/home/hubert/daisy/gcc/arm-none-eabi/include/c++/10.2.1/bits/basic_string.h ****       void
 283:/home/hubert/daisy/gcc/arm-none-eabi/include/c++/10.2.1/bits/basic_string.h ****       _M_construct(size_type __req, _CharT __c);
 284:/home/hubert/daisy/gcc/arm-none-eabi/include/c++/10.2.1/bits/basic_string.h **** 
 285:/home/hubert/daisy/gcc/arm-none-eabi/include/c++/10.2.1/bits/basic_string.h ****       allocator_type&
 286:/home/hubert/daisy/gcc/arm-none-eabi/include/c++/10.2.1/bits/basic_string.h ****       _M_get_allocator()
 287:/home/hubert/daisy/gcc/arm-none-eabi/include/c++/10.2.1/bits/basic_string.h ****       { return _M_dataplus; }
 288:/home/hubert/daisy/gcc/arm-none-eabi/include/c++/10.2.1/bits/basic_string.h **** 
ARM GAS  /tmp/ccSY3rLK.s 			page 41


 289:/home/hubert/daisy/gcc/arm-none-eabi/include/c++/10.2.1/bits/basic_string.h ****       const allocator_type&
 290:/home/hubert/daisy/gcc/arm-none-eabi/include/c++/10.2.1/bits/basic_string.h ****       _M_get_allocator() const
 291:/home/hubert/daisy/gcc/arm-none-eabi/include/c++/10.2.1/bits/basic_string.h ****       { return _M_dataplus; }
 292:/home/hubert/daisy/gcc/arm-none-eabi/include/c++/10.2.1/bits/basic_string.h **** 
 293:/home/hubert/daisy/gcc/arm-none-eabi/include/c++/10.2.1/bits/basic_string.h ****     private:
 294:/home/hubert/daisy/gcc/arm-none-eabi/include/c++/10.2.1/bits/basic_string.h **** 
 295:/home/hubert/daisy/gcc/arm-none-eabi/include/c++/10.2.1/bits/basic_string.h **** #ifdef _GLIBCXX_DISAMBIGUATE_REPLACE_INST
 296:/home/hubert/daisy/gcc/arm-none-eabi/include/c++/10.2.1/bits/basic_string.h ****       // The explicit instantiations in misc-inst.cc require this due to
 297:/home/hubert/daisy/gcc/arm-none-eabi/include/c++/10.2.1/bits/basic_string.h ****       // https://gcc.gnu.org/bugzilla/show_bug.cgi?id=64063
 298:/home/hubert/daisy/gcc/arm-none-eabi/include/c++/10.2.1/bits/basic_string.h ****       template<typename _Tp, bool _Requires =
 299:/home/hubert/daisy/gcc/arm-none-eabi/include/c++/10.2.1/bits/basic_string.h **** 	       !__are_same<_Tp, _CharT*>::__value
 300:/home/hubert/daisy/gcc/arm-none-eabi/include/c++/10.2.1/bits/basic_string.h **** 	       && !__are_same<_Tp, const _CharT*>::__value
 301:/home/hubert/daisy/gcc/arm-none-eabi/include/c++/10.2.1/bits/basic_string.h **** 	       && !__are_same<_Tp, iterator>::__value
 302:/home/hubert/daisy/gcc/arm-none-eabi/include/c++/10.2.1/bits/basic_string.h **** 	       && !__are_same<_Tp, const_iterator>::__value>
 303:/home/hubert/daisy/gcc/arm-none-eabi/include/c++/10.2.1/bits/basic_string.h **** 	struct __enable_if_not_native_iterator
 304:/home/hubert/daisy/gcc/arm-none-eabi/include/c++/10.2.1/bits/basic_string.h **** 	{ typedef basic_string& __type; };
 305:/home/hubert/daisy/gcc/arm-none-eabi/include/c++/10.2.1/bits/basic_string.h ****       template<typename _Tp>
 306:/home/hubert/daisy/gcc/arm-none-eabi/include/c++/10.2.1/bits/basic_string.h **** 	struct __enable_if_not_native_iterator<_Tp, false> { };
 307:/home/hubert/daisy/gcc/arm-none-eabi/include/c++/10.2.1/bits/basic_string.h **** #endif
 308:/home/hubert/daisy/gcc/arm-none-eabi/include/c++/10.2.1/bits/basic_string.h **** 
 309:/home/hubert/daisy/gcc/arm-none-eabi/include/c++/10.2.1/bits/basic_string.h ****       size_type
 310:/home/hubert/daisy/gcc/arm-none-eabi/include/c++/10.2.1/bits/basic_string.h ****       _M_check(size_type __pos, const char* __s) const
 311:/home/hubert/daisy/gcc/arm-none-eabi/include/c++/10.2.1/bits/basic_string.h ****       {
 312:/home/hubert/daisy/gcc/arm-none-eabi/include/c++/10.2.1/bits/basic_string.h **** 	if (__pos > this->size())
 313:/home/hubert/daisy/gcc/arm-none-eabi/include/c++/10.2.1/bits/basic_string.h **** 	  __throw_out_of_range_fmt(__N("%s: __pos (which is %zu) > "
 314:/home/hubert/daisy/gcc/arm-none-eabi/include/c++/10.2.1/bits/basic_string.h **** 				       "this->size() (which is %zu)"),
 315:/home/hubert/daisy/gcc/arm-none-eabi/include/c++/10.2.1/bits/basic_string.h **** 				   __s, __pos, this->size());
 316:/home/hubert/daisy/gcc/arm-none-eabi/include/c++/10.2.1/bits/basic_string.h **** 	return __pos;
 317:/home/hubert/daisy/gcc/arm-none-eabi/include/c++/10.2.1/bits/basic_string.h ****       }
 318:/home/hubert/daisy/gcc/arm-none-eabi/include/c++/10.2.1/bits/basic_string.h **** 
 319:/home/hubert/daisy/gcc/arm-none-eabi/include/c++/10.2.1/bits/basic_string.h ****       void
 320:/home/hubert/daisy/gcc/arm-none-eabi/include/c++/10.2.1/bits/basic_string.h ****       _M_check_length(size_type __n1, size_type __n2, const char* __s) const
 321:/home/hubert/daisy/gcc/arm-none-eabi/include/c++/10.2.1/bits/basic_string.h ****       {
 322:/home/hubert/daisy/gcc/arm-none-eabi/include/c++/10.2.1/bits/basic_string.h **** 	if (this->max_size() - (this->size() - __n1) < __n2)
 323:/home/hubert/daisy/gcc/arm-none-eabi/include/c++/10.2.1/bits/basic_string.h **** 	  __throw_length_error(__N(__s));
 324:/home/hubert/daisy/gcc/arm-none-eabi/include/c++/10.2.1/bits/basic_string.h ****       }
 325:/home/hubert/daisy/gcc/arm-none-eabi/include/c++/10.2.1/bits/basic_string.h **** 
 326:/home/hubert/daisy/gcc/arm-none-eabi/include/c++/10.2.1/bits/basic_string.h **** 
 327:/home/hubert/daisy/gcc/arm-none-eabi/include/c++/10.2.1/bits/basic_string.h ****       // NB: _M_limit doesn't check for a bad __pos value.
 328:/home/hubert/daisy/gcc/arm-none-eabi/include/c++/10.2.1/bits/basic_string.h ****       size_type
 329:/home/hubert/daisy/gcc/arm-none-eabi/include/c++/10.2.1/bits/basic_string.h ****       _M_limit(size_type __pos, size_type __off) const _GLIBCXX_NOEXCEPT
 330:/home/hubert/daisy/gcc/arm-none-eabi/include/c++/10.2.1/bits/basic_string.h ****       {
 331:/home/hubert/daisy/gcc/arm-none-eabi/include/c++/10.2.1/bits/basic_string.h **** 	const bool __testoff =  __off < this->size() - __pos;
 332:/home/hubert/daisy/gcc/arm-none-eabi/include/c++/10.2.1/bits/basic_string.h **** 	return __testoff ? __off : this->size() - __pos;
 333:/home/hubert/daisy/gcc/arm-none-eabi/include/c++/10.2.1/bits/basic_string.h ****       }
 334:/home/hubert/daisy/gcc/arm-none-eabi/include/c++/10.2.1/bits/basic_string.h **** 
 335:/home/hubert/daisy/gcc/arm-none-eabi/include/c++/10.2.1/bits/basic_string.h ****       // True if _Rep and source do not overlap.
 336:/home/hubert/daisy/gcc/arm-none-eabi/include/c++/10.2.1/bits/basic_string.h ****       bool
 337:/home/hubert/daisy/gcc/arm-none-eabi/include/c++/10.2.1/bits/basic_string.h ****       _M_disjunct(const _CharT* __s) const _GLIBCXX_NOEXCEPT
 338:/home/hubert/daisy/gcc/arm-none-eabi/include/c++/10.2.1/bits/basic_string.h ****       {
 339:/home/hubert/daisy/gcc/arm-none-eabi/include/c++/10.2.1/bits/basic_string.h **** 	return (less<const _CharT*>()(__s, _M_data())
 340:/home/hubert/daisy/gcc/arm-none-eabi/include/c++/10.2.1/bits/basic_string.h **** 		|| less<const _CharT*>()(_M_data() + this->size(), __s));
 341:/home/hubert/daisy/gcc/arm-none-eabi/include/c++/10.2.1/bits/basic_string.h ****       }
 342:/home/hubert/daisy/gcc/arm-none-eabi/include/c++/10.2.1/bits/basic_string.h **** 
 343:/home/hubert/daisy/gcc/arm-none-eabi/include/c++/10.2.1/bits/basic_string.h ****       // When __n = 1 way faster than the general multichar
 344:/home/hubert/daisy/gcc/arm-none-eabi/include/c++/10.2.1/bits/basic_string.h ****       // traits_type::copy/move/assign.
 345:/home/hubert/daisy/gcc/arm-none-eabi/include/c++/10.2.1/bits/basic_string.h ****       static void
ARM GAS  /tmp/ccSY3rLK.s 			page 42


 346:/home/hubert/daisy/gcc/arm-none-eabi/include/c++/10.2.1/bits/basic_string.h ****       _S_copy(_CharT* __d, const _CharT* __s, size_type __n)
 347:/home/hubert/daisy/gcc/arm-none-eabi/include/c++/10.2.1/bits/basic_string.h ****       {
 348:/home/hubert/daisy/gcc/arm-none-eabi/include/c++/10.2.1/bits/basic_string.h **** 	if (__n == 1)
 349:/home/hubert/daisy/gcc/arm-none-eabi/include/c++/10.2.1/bits/basic_string.h **** 	  traits_type::assign(*__d, *__s);
 350:/home/hubert/daisy/gcc/arm-none-eabi/include/c++/10.2.1/bits/basic_string.h **** 	else
 351:/home/hubert/daisy/gcc/arm-none-eabi/include/c++/10.2.1/bits/basic_string.h **** 	  traits_type::copy(__d, __s, __n);
 352:/home/hubert/daisy/gcc/arm-none-eabi/include/c++/10.2.1/bits/basic_string.h ****       }
 353:/home/hubert/daisy/gcc/arm-none-eabi/include/c++/10.2.1/bits/basic_string.h **** 
 354:/home/hubert/daisy/gcc/arm-none-eabi/include/c++/10.2.1/bits/basic_string.h ****       static void
 355:/home/hubert/daisy/gcc/arm-none-eabi/include/c++/10.2.1/bits/basic_string.h ****       _S_move(_CharT* __d, const _CharT* __s, size_type __n)
 356:/home/hubert/daisy/gcc/arm-none-eabi/include/c++/10.2.1/bits/basic_string.h ****       {
 357:/home/hubert/daisy/gcc/arm-none-eabi/include/c++/10.2.1/bits/basic_string.h **** 	if (__n == 1)
 358:/home/hubert/daisy/gcc/arm-none-eabi/include/c++/10.2.1/bits/basic_string.h **** 	  traits_type::assign(*__d, *__s);
 359:/home/hubert/daisy/gcc/arm-none-eabi/include/c++/10.2.1/bits/basic_string.h **** 	else
 360:/home/hubert/daisy/gcc/arm-none-eabi/include/c++/10.2.1/bits/basic_string.h **** 	  traits_type::move(__d, __s, __n);
 361:/home/hubert/daisy/gcc/arm-none-eabi/include/c++/10.2.1/bits/basic_string.h ****       }
 362:/home/hubert/daisy/gcc/arm-none-eabi/include/c++/10.2.1/bits/basic_string.h **** 
 363:/home/hubert/daisy/gcc/arm-none-eabi/include/c++/10.2.1/bits/basic_string.h ****       static void
 364:/home/hubert/daisy/gcc/arm-none-eabi/include/c++/10.2.1/bits/basic_string.h ****       _S_assign(_CharT* __d, size_type __n, _CharT __c)
 365:/home/hubert/daisy/gcc/arm-none-eabi/include/c++/10.2.1/bits/basic_string.h ****       {
 366:/home/hubert/daisy/gcc/arm-none-eabi/include/c++/10.2.1/bits/basic_string.h **** 	if (__n == 1)
 367:/home/hubert/daisy/gcc/arm-none-eabi/include/c++/10.2.1/bits/basic_string.h **** 	  traits_type::assign(*__d, __c);
 368:/home/hubert/daisy/gcc/arm-none-eabi/include/c++/10.2.1/bits/basic_string.h **** 	else
 369:/home/hubert/daisy/gcc/arm-none-eabi/include/c++/10.2.1/bits/basic_string.h **** 	  traits_type::assign(__d, __n, __c);
 370:/home/hubert/daisy/gcc/arm-none-eabi/include/c++/10.2.1/bits/basic_string.h ****       }
 371:/home/hubert/daisy/gcc/arm-none-eabi/include/c++/10.2.1/bits/basic_string.h **** 
 372:/home/hubert/daisy/gcc/arm-none-eabi/include/c++/10.2.1/bits/basic_string.h ****       // _S_copy_chars is a separate template to permit specialization
 373:/home/hubert/daisy/gcc/arm-none-eabi/include/c++/10.2.1/bits/basic_string.h ****       // to optimize for the common case of pointers as iterators.
 374:/home/hubert/daisy/gcc/arm-none-eabi/include/c++/10.2.1/bits/basic_string.h ****       template<class _Iterator>
 375:/home/hubert/daisy/gcc/arm-none-eabi/include/c++/10.2.1/bits/basic_string.h ****         static void
 376:/home/hubert/daisy/gcc/arm-none-eabi/include/c++/10.2.1/bits/basic_string.h ****         _S_copy_chars(_CharT* __p, _Iterator __k1, _Iterator __k2)
 377:/home/hubert/daisy/gcc/arm-none-eabi/include/c++/10.2.1/bits/basic_string.h ****         {
 378:/home/hubert/daisy/gcc/arm-none-eabi/include/c++/10.2.1/bits/basic_string.h **** 	  for (; __k1 != __k2; ++__k1, (void)++__p)
 379:/home/hubert/daisy/gcc/arm-none-eabi/include/c++/10.2.1/bits/basic_string.h **** 	    traits_type::assign(*__p, *__k1); // These types are off.
 380:/home/hubert/daisy/gcc/arm-none-eabi/include/c++/10.2.1/bits/basic_string.h **** 	}
 381:/home/hubert/daisy/gcc/arm-none-eabi/include/c++/10.2.1/bits/basic_string.h **** 
 382:/home/hubert/daisy/gcc/arm-none-eabi/include/c++/10.2.1/bits/basic_string.h ****       static void
 383:/home/hubert/daisy/gcc/arm-none-eabi/include/c++/10.2.1/bits/basic_string.h ****       _S_copy_chars(_CharT* __p, iterator __k1, iterator __k2) _GLIBCXX_NOEXCEPT
 384:/home/hubert/daisy/gcc/arm-none-eabi/include/c++/10.2.1/bits/basic_string.h ****       { _S_copy_chars(__p, __k1.base(), __k2.base()); }
 385:/home/hubert/daisy/gcc/arm-none-eabi/include/c++/10.2.1/bits/basic_string.h **** 
 386:/home/hubert/daisy/gcc/arm-none-eabi/include/c++/10.2.1/bits/basic_string.h ****       static void
 387:/home/hubert/daisy/gcc/arm-none-eabi/include/c++/10.2.1/bits/basic_string.h ****       _S_copy_chars(_CharT* __p, const_iterator __k1, const_iterator __k2)
 388:/home/hubert/daisy/gcc/arm-none-eabi/include/c++/10.2.1/bits/basic_string.h ****       _GLIBCXX_NOEXCEPT
 389:/home/hubert/daisy/gcc/arm-none-eabi/include/c++/10.2.1/bits/basic_string.h ****       { _S_copy_chars(__p, __k1.base(), __k2.base()); }
 390:/home/hubert/daisy/gcc/arm-none-eabi/include/c++/10.2.1/bits/basic_string.h **** 
 391:/home/hubert/daisy/gcc/arm-none-eabi/include/c++/10.2.1/bits/basic_string.h ****       static void
 392:/home/hubert/daisy/gcc/arm-none-eabi/include/c++/10.2.1/bits/basic_string.h ****       _S_copy_chars(_CharT* __p, _CharT* __k1, _CharT* __k2) _GLIBCXX_NOEXCEPT
 393:/home/hubert/daisy/gcc/arm-none-eabi/include/c++/10.2.1/bits/basic_string.h ****       { _S_copy(__p, __k1, __k2 - __k1); }
 394:/home/hubert/daisy/gcc/arm-none-eabi/include/c++/10.2.1/bits/basic_string.h **** 
 395:/home/hubert/daisy/gcc/arm-none-eabi/include/c++/10.2.1/bits/basic_string.h ****       static void
 396:/home/hubert/daisy/gcc/arm-none-eabi/include/c++/10.2.1/bits/basic_string.h ****       _S_copy_chars(_CharT* __p, const _CharT* __k1, const _CharT* __k2)
 397:/home/hubert/daisy/gcc/arm-none-eabi/include/c++/10.2.1/bits/basic_string.h ****       _GLIBCXX_NOEXCEPT
 398:/home/hubert/daisy/gcc/arm-none-eabi/include/c++/10.2.1/bits/basic_string.h ****       { _S_copy(__p, __k1, __k2 - __k1); }
 399:/home/hubert/daisy/gcc/arm-none-eabi/include/c++/10.2.1/bits/basic_string.h **** 
 400:/home/hubert/daisy/gcc/arm-none-eabi/include/c++/10.2.1/bits/basic_string.h ****       static int
 401:/home/hubert/daisy/gcc/arm-none-eabi/include/c++/10.2.1/bits/basic_string.h ****       _S_compare(size_type __n1, size_type __n2) _GLIBCXX_NOEXCEPT
 402:/home/hubert/daisy/gcc/arm-none-eabi/include/c++/10.2.1/bits/basic_string.h ****       {
ARM GAS  /tmp/ccSY3rLK.s 			page 43


 403:/home/hubert/daisy/gcc/arm-none-eabi/include/c++/10.2.1/bits/basic_string.h **** 	const difference_type __d = difference_type(__n1 - __n2);
 404:/home/hubert/daisy/gcc/arm-none-eabi/include/c++/10.2.1/bits/basic_string.h **** 
 405:/home/hubert/daisy/gcc/arm-none-eabi/include/c++/10.2.1/bits/basic_string.h **** 	if (__d > __gnu_cxx::__numeric_traits<int>::__max)
 406:/home/hubert/daisy/gcc/arm-none-eabi/include/c++/10.2.1/bits/basic_string.h **** 	  return __gnu_cxx::__numeric_traits<int>::__max;
 407:/home/hubert/daisy/gcc/arm-none-eabi/include/c++/10.2.1/bits/basic_string.h **** 	else if (__d < __gnu_cxx::__numeric_traits<int>::__min)
 408:/home/hubert/daisy/gcc/arm-none-eabi/include/c++/10.2.1/bits/basic_string.h **** 	  return __gnu_cxx::__numeric_traits<int>::__min;
 409:/home/hubert/daisy/gcc/arm-none-eabi/include/c++/10.2.1/bits/basic_string.h **** 	else
 410:/home/hubert/daisy/gcc/arm-none-eabi/include/c++/10.2.1/bits/basic_string.h **** 	  return int(__d);
 411:/home/hubert/daisy/gcc/arm-none-eabi/include/c++/10.2.1/bits/basic_string.h ****       }
 412:/home/hubert/daisy/gcc/arm-none-eabi/include/c++/10.2.1/bits/basic_string.h **** 
 413:/home/hubert/daisy/gcc/arm-none-eabi/include/c++/10.2.1/bits/basic_string.h ****       void
 414:/home/hubert/daisy/gcc/arm-none-eabi/include/c++/10.2.1/bits/basic_string.h ****       _M_assign(const basic_string&);
 415:/home/hubert/daisy/gcc/arm-none-eabi/include/c++/10.2.1/bits/basic_string.h **** 
 416:/home/hubert/daisy/gcc/arm-none-eabi/include/c++/10.2.1/bits/basic_string.h ****       void
 417:/home/hubert/daisy/gcc/arm-none-eabi/include/c++/10.2.1/bits/basic_string.h ****       _M_mutate(size_type __pos, size_type __len1, const _CharT* __s,
 418:/home/hubert/daisy/gcc/arm-none-eabi/include/c++/10.2.1/bits/basic_string.h **** 		size_type __len2);
 419:/home/hubert/daisy/gcc/arm-none-eabi/include/c++/10.2.1/bits/basic_string.h **** 
 420:/home/hubert/daisy/gcc/arm-none-eabi/include/c++/10.2.1/bits/basic_string.h ****       void
 421:/home/hubert/daisy/gcc/arm-none-eabi/include/c++/10.2.1/bits/basic_string.h ****       _M_erase(size_type __pos, size_type __n);
 422:/home/hubert/daisy/gcc/arm-none-eabi/include/c++/10.2.1/bits/basic_string.h **** 
 423:/home/hubert/daisy/gcc/arm-none-eabi/include/c++/10.2.1/bits/basic_string.h ****     public:
 424:/home/hubert/daisy/gcc/arm-none-eabi/include/c++/10.2.1/bits/basic_string.h ****       // Construct/copy/destroy:
 425:/home/hubert/daisy/gcc/arm-none-eabi/include/c++/10.2.1/bits/basic_string.h ****       // NB: We overload ctors in some cases instead of using default
 426:/home/hubert/daisy/gcc/arm-none-eabi/include/c++/10.2.1/bits/basic_string.h ****       // arguments, per 17.4.4.4 para. 2 item 2.
 427:/home/hubert/daisy/gcc/arm-none-eabi/include/c++/10.2.1/bits/basic_string.h **** 
 428:/home/hubert/daisy/gcc/arm-none-eabi/include/c++/10.2.1/bits/basic_string.h ****       /**
 429:/home/hubert/daisy/gcc/arm-none-eabi/include/c++/10.2.1/bits/basic_string.h ****        *  @brief  Default constructor creates an empty string.
 430:/home/hubert/daisy/gcc/arm-none-eabi/include/c++/10.2.1/bits/basic_string.h ****        */
 431:/home/hubert/daisy/gcc/arm-none-eabi/include/c++/10.2.1/bits/basic_string.h ****       basic_string()
 432:/home/hubert/daisy/gcc/arm-none-eabi/include/c++/10.2.1/bits/basic_string.h ****       _GLIBCXX_NOEXCEPT_IF(is_nothrow_default_constructible<_Alloc>::value)
 433:/home/hubert/daisy/gcc/arm-none-eabi/include/c++/10.2.1/bits/basic_string.h ****       : _M_dataplus(_M_local_data())
 434:/home/hubert/daisy/gcc/arm-none-eabi/include/c++/10.2.1/bits/basic_string.h ****       { _M_set_length(0); }
 435:/home/hubert/daisy/gcc/arm-none-eabi/include/c++/10.2.1/bits/basic_string.h **** 
 436:/home/hubert/daisy/gcc/arm-none-eabi/include/c++/10.2.1/bits/basic_string.h ****       /**
 437:/home/hubert/daisy/gcc/arm-none-eabi/include/c++/10.2.1/bits/basic_string.h ****        *  @brief  Construct an empty string using allocator @a a.
 438:/home/hubert/daisy/gcc/arm-none-eabi/include/c++/10.2.1/bits/basic_string.h ****        */
 439:/home/hubert/daisy/gcc/arm-none-eabi/include/c++/10.2.1/bits/basic_string.h ****       explicit
 440:/home/hubert/daisy/gcc/arm-none-eabi/include/c++/10.2.1/bits/basic_string.h ****       basic_string(const _Alloc& __a) _GLIBCXX_NOEXCEPT
 441:/home/hubert/daisy/gcc/arm-none-eabi/include/c++/10.2.1/bits/basic_string.h ****       : _M_dataplus(_M_local_data(), __a)
 442:/home/hubert/daisy/gcc/arm-none-eabi/include/c++/10.2.1/bits/basic_string.h ****       { _M_set_length(0); }
 443:/home/hubert/daisy/gcc/arm-none-eabi/include/c++/10.2.1/bits/basic_string.h **** 
 444:/home/hubert/daisy/gcc/arm-none-eabi/include/c++/10.2.1/bits/basic_string.h ****       /**
 445:/home/hubert/daisy/gcc/arm-none-eabi/include/c++/10.2.1/bits/basic_string.h ****        *  @brief  Construct string with copy of value of @a __str.
 446:/home/hubert/daisy/gcc/arm-none-eabi/include/c++/10.2.1/bits/basic_string.h ****        *  @param  __str  Source string.
 447:/home/hubert/daisy/gcc/arm-none-eabi/include/c++/10.2.1/bits/basic_string.h ****        */
 448:/home/hubert/daisy/gcc/arm-none-eabi/include/c++/10.2.1/bits/basic_string.h ****       basic_string(const basic_string& __str)
 449:/home/hubert/daisy/gcc/arm-none-eabi/include/c++/10.2.1/bits/basic_string.h ****       : _M_dataplus(_M_local_data(),
 450:/home/hubert/daisy/gcc/arm-none-eabi/include/c++/10.2.1/bits/basic_string.h **** 		    _Alloc_traits::_S_select_on_copy(__str._M_get_allocator()))
 451:/home/hubert/daisy/gcc/arm-none-eabi/include/c++/10.2.1/bits/basic_string.h ****       { _M_construct(__str._M_data(), __str._M_data() + __str.length()); }
 452:/home/hubert/daisy/gcc/arm-none-eabi/include/c++/10.2.1/bits/basic_string.h **** 
 453:/home/hubert/daisy/gcc/arm-none-eabi/include/c++/10.2.1/bits/basic_string.h ****       // _GLIBCXX_RESOLVE_LIB_DEFECTS
 454:/home/hubert/daisy/gcc/arm-none-eabi/include/c++/10.2.1/bits/basic_string.h ****       // 2583. no way to supply an allocator for basic_string(str, pos)
 455:/home/hubert/daisy/gcc/arm-none-eabi/include/c++/10.2.1/bits/basic_string.h ****       /**
 456:/home/hubert/daisy/gcc/arm-none-eabi/include/c++/10.2.1/bits/basic_string.h ****        *  @brief  Construct string as copy of a substring.
 457:/home/hubert/daisy/gcc/arm-none-eabi/include/c++/10.2.1/bits/basic_string.h ****        *  @param  __str  Source string.
 458:/home/hubert/daisy/gcc/arm-none-eabi/include/c++/10.2.1/bits/basic_string.h ****        *  @param  __pos  Index of first character to copy from.
 459:/home/hubert/daisy/gcc/arm-none-eabi/include/c++/10.2.1/bits/basic_string.h ****        *  @param  __a  Allocator to use.
ARM GAS  /tmp/ccSY3rLK.s 			page 44


 460:/home/hubert/daisy/gcc/arm-none-eabi/include/c++/10.2.1/bits/basic_string.h ****        */
 461:/home/hubert/daisy/gcc/arm-none-eabi/include/c++/10.2.1/bits/basic_string.h ****       basic_string(const basic_string& __str, size_type __pos,
 462:/home/hubert/daisy/gcc/arm-none-eabi/include/c++/10.2.1/bits/basic_string.h **** 		   const _Alloc& __a = _Alloc())
 463:/home/hubert/daisy/gcc/arm-none-eabi/include/c++/10.2.1/bits/basic_string.h ****       : _M_dataplus(_M_local_data(), __a)
 464:/home/hubert/daisy/gcc/arm-none-eabi/include/c++/10.2.1/bits/basic_string.h ****       {
 465:/home/hubert/daisy/gcc/arm-none-eabi/include/c++/10.2.1/bits/basic_string.h **** 	const _CharT* __start = __str._M_data()
 466:/home/hubert/daisy/gcc/arm-none-eabi/include/c++/10.2.1/bits/basic_string.h **** 	  + __str._M_check(__pos, "basic_string::basic_string");
 467:/home/hubert/daisy/gcc/arm-none-eabi/include/c++/10.2.1/bits/basic_string.h **** 	_M_construct(__start, __start + __str._M_limit(__pos, npos));
 468:/home/hubert/daisy/gcc/arm-none-eabi/include/c++/10.2.1/bits/basic_string.h ****       }
 469:/home/hubert/daisy/gcc/arm-none-eabi/include/c++/10.2.1/bits/basic_string.h **** 
 470:/home/hubert/daisy/gcc/arm-none-eabi/include/c++/10.2.1/bits/basic_string.h ****       /**
 471:/home/hubert/daisy/gcc/arm-none-eabi/include/c++/10.2.1/bits/basic_string.h ****        *  @brief  Construct string as copy of a substring.
 472:/home/hubert/daisy/gcc/arm-none-eabi/include/c++/10.2.1/bits/basic_string.h ****        *  @param  __str  Source string.
 473:/home/hubert/daisy/gcc/arm-none-eabi/include/c++/10.2.1/bits/basic_string.h ****        *  @param  __pos  Index of first character to copy from.
 474:/home/hubert/daisy/gcc/arm-none-eabi/include/c++/10.2.1/bits/basic_string.h ****        *  @param  __n  Number of characters to copy.
 475:/home/hubert/daisy/gcc/arm-none-eabi/include/c++/10.2.1/bits/basic_string.h ****        */
 476:/home/hubert/daisy/gcc/arm-none-eabi/include/c++/10.2.1/bits/basic_string.h ****       basic_string(const basic_string& __str, size_type __pos,
 477:/home/hubert/daisy/gcc/arm-none-eabi/include/c++/10.2.1/bits/basic_string.h **** 		   size_type __n)
 478:/home/hubert/daisy/gcc/arm-none-eabi/include/c++/10.2.1/bits/basic_string.h ****       : _M_dataplus(_M_local_data())
 479:/home/hubert/daisy/gcc/arm-none-eabi/include/c++/10.2.1/bits/basic_string.h ****       {
 480:/home/hubert/daisy/gcc/arm-none-eabi/include/c++/10.2.1/bits/basic_string.h **** 	const _CharT* __start = __str._M_data()
 481:/home/hubert/daisy/gcc/arm-none-eabi/include/c++/10.2.1/bits/basic_string.h **** 	  + __str._M_check(__pos, "basic_string::basic_string");
 482:/home/hubert/daisy/gcc/arm-none-eabi/include/c++/10.2.1/bits/basic_string.h **** 	_M_construct(__start, __start + __str._M_limit(__pos, __n));
 483:/home/hubert/daisy/gcc/arm-none-eabi/include/c++/10.2.1/bits/basic_string.h ****       }
 484:/home/hubert/daisy/gcc/arm-none-eabi/include/c++/10.2.1/bits/basic_string.h **** 
 485:/home/hubert/daisy/gcc/arm-none-eabi/include/c++/10.2.1/bits/basic_string.h ****       /**
 486:/home/hubert/daisy/gcc/arm-none-eabi/include/c++/10.2.1/bits/basic_string.h ****        *  @brief  Construct string as copy of a substring.
 487:/home/hubert/daisy/gcc/arm-none-eabi/include/c++/10.2.1/bits/basic_string.h ****        *  @param  __str  Source string.
 488:/home/hubert/daisy/gcc/arm-none-eabi/include/c++/10.2.1/bits/basic_string.h ****        *  @param  __pos  Index of first character to copy from.
 489:/home/hubert/daisy/gcc/arm-none-eabi/include/c++/10.2.1/bits/basic_string.h ****        *  @param  __n  Number of characters to copy.
 490:/home/hubert/daisy/gcc/arm-none-eabi/include/c++/10.2.1/bits/basic_string.h ****        *  @param  __a  Allocator to use.
 491:/home/hubert/daisy/gcc/arm-none-eabi/include/c++/10.2.1/bits/basic_string.h ****        */
 492:/home/hubert/daisy/gcc/arm-none-eabi/include/c++/10.2.1/bits/basic_string.h ****       basic_string(const basic_string& __str, size_type __pos,
 493:/home/hubert/daisy/gcc/arm-none-eabi/include/c++/10.2.1/bits/basic_string.h **** 		   size_type __n, const _Alloc& __a)
 494:/home/hubert/daisy/gcc/arm-none-eabi/include/c++/10.2.1/bits/basic_string.h ****       : _M_dataplus(_M_local_data(), __a)
 495:/home/hubert/daisy/gcc/arm-none-eabi/include/c++/10.2.1/bits/basic_string.h ****       {
 496:/home/hubert/daisy/gcc/arm-none-eabi/include/c++/10.2.1/bits/basic_string.h **** 	const _CharT* __start
 497:/home/hubert/daisy/gcc/arm-none-eabi/include/c++/10.2.1/bits/basic_string.h **** 	  = __str._M_data() + __str._M_check(__pos, "string::string");
 498:/home/hubert/daisy/gcc/arm-none-eabi/include/c++/10.2.1/bits/basic_string.h **** 	_M_construct(__start, __start + __str._M_limit(__pos, __n));
 499:/home/hubert/daisy/gcc/arm-none-eabi/include/c++/10.2.1/bits/basic_string.h ****       }
 500:/home/hubert/daisy/gcc/arm-none-eabi/include/c++/10.2.1/bits/basic_string.h **** 
 501:/home/hubert/daisy/gcc/arm-none-eabi/include/c++/10.2.1/bits/basic_string.h ****       /**
 502:/home/hubert/daisy/gcc/arm-none-eabi/include/c++/10.2.1/bits/basic_string.h ****        *  @brief  Construct string initialized by a character %array.
 503:/home/hubert/daisy/gcc/arm-none-eabi/include/c++/10.2.1/bits/basic_string.h ****        *  @param  __s  Source character %array.
 504:/home/hubert/daisy/gcc/arm-none-eabi/include/c++/10.2.1/bits/basic_string.h ****        *  @param  __n  Number of characters to copy.
 505:/home/hubert/daisy/gcc/arm-none-eabi/include/c++/10.2.1/bits/basic_string.h ****        *  @param  __a  Allocator to use (default is default allocator).
 506:/home/hubert/daisy/gcc/arm-none-eabi/include/c++/10.2.1/bits/basic_string.h ****        *
 507:/home/hubert/daisy/gcc/arm-none-eabi/include/c++/10.2.1/bits/basic_string.h ****        *  NB: @a __s must have at least @a __n characters, &apos;\\0&apos;
 508:/home/hubert/daisy/gcc/arm-none-eabi/include/c++/10.2.1/bits/basic_string.h ****        *  has no special meaning.
 509:/home/hubert/daisy/gcc/arm-none-eabi/include/c++/10.2.1/bits/basic_string.h ****        */
 510:/home/hubert/daisy/gcc/arm-none-eabi/include/c++/10.2.1/bits/basic_string.h ****       basic_string(const _CharT* __s, size_type __n,
 511:/home/hubert/daisy/gcc/arm-none-eabi/include/c++/10.2.1/bits/basic_string.h **** 		   const _Alloc& __a = _Alloc())
 512:/home/hubert/daisy/gcc/arm-none-eabi/include/c++/10.2.1/bits/basic_string.h ****       : _M_dataplus(_M_local_data(), __a)
 513:/home/hubert/daisy/gcc/arm-none-eabi/include/c++/10.2.1/bits/basic_string.h ****       { _M_construct(__s, __s + __n); }
 514:/home/hubert/daisy/gcc/arm-none-eabi/include/c++/10.2.1/bits/basic_string.h **** 
 515:/home/hubert/daisy/gcc/arm-none-eabi/include/c++/10.2.1/bits/basic_string.h ****       /**
 516:/home/hubert/daisy/gcc/arm-none-eabi/include/c++/10.2.1/bits/basic_string.h ****        *  @brief  Construct string as copy of a C string.
ARM GAS  /tmp/ccSY3rLK.s 			page 45


 517:/home/hubert/daisy/gcc/arm-none-eabi/include/c++/10.2.1/bits/basic_string.h ****        *  @param  __s  Source C string.
 518:/home/hubert/daisy/gcc/arm-none-eabi/include/c++/10.2.1/bits/basic_string.h ****        *  @param  __a  Allocator to use (default is default allocator).
 519:/home/hubert/daisy/gcc/arm-none-eabi/include/c++/10.2.1/bits/basic_string.h ****        */
 520:/home/hubert/daisy/gcc/arm-none-eabi/include/c++/10.2.1/bits/basic_string.h **** #if __cpp_deduction_guides && ! defined _GLIBCXX_DEFINING_STRING_INSTANTIATIONS
 521:/home/hubert/daisy/gcc/arm-none-eabi/include/c++/10.2.1/bits/basic_string.h ****       // _GLIBCXX_RESOLVE_LIB_DEFECTS
 522:/home/hubert/daisy/gcc/arm-none-eabi/include/c++/10.2.1/bits/basic_string.h ****       // 3076. basic_string CTAD ambiguity
 523:/home/hubert/daisy/gcc/arm-none-eabi/include/c++/10.2.1/bits/basic_string.h ****       template<typename = _RequireAllocator<_Alloc>>
 524:/home/hubert/daisy/gcc/arm-none-eabi/include/c++/10.2.1/bits/basic_string.h **** #endif
 525:/home/hubert/daisy/gcc/arm-none-eabi/include/c++/10.2.1/bits/basic_string.h ****       basic_string(const _CharT* __s, const _Alloc& __a = _Alloc())
 526:/home/hubert/daisy/gcc/arm-none-eabi/include/c++/10.2.1/bits/basic_string.h ****       : _M_dataplus(_M_local_data(), __a)
 527:/home/hubert/daisy/gcc/arm-none-eabi/include/c++/10.2.1/bits/basic_string.h ****       { _M_construct(__s, __s ? __s + traits_type::length(__s) : __s+npos); }
 528:/home/hubert/daisy/gcc/arm-none-eabi/include/c++/10.2.1/bits/basic_string.h **** 
 529:/home/hubert/daisy/gcc/arm-none-eabi/include/c++/10.2.1/bits/basic_string.h ****       /**
 530:/home/hubert/daisy/gcc/arm-none-eabi/include/c++/10.2.1/bits/basic_string.h ****        *  @brief  Construct string as multiple characters.
 531:/home/hubert/daisy/gcc/arm-none-eabi/include/c++/10.2.1/bits/basic_string.h ****        *  @param  __n  Number of characters.
 532:/home/hubert/daisy/gcc/arm-none-eabi/include/c++/10.2.1/bits/basic_string.h ****        *  @param  __c  Character to use.
 533:/home/hubert/daisy/gcc/arm-none-eabi/include/c++/10.2.1/bits/basic_string.h ****        *  @param  __a  Allocator to use (default is default allocator).
 534:/home/hubert/daisy/gcc/arm-none-eabi/include/c++/10.2.1/bits/basic_string.h ****        */
 535:/home/hubert/daisy/gcc/arm-none-eabi/include/c++/10.2.1/bits/basic_string.h **** #if __cpp_deduction_guides && ! defined _GLIBCXX_DEFINING_STRING_INSTANTIATIONS
 536:/home/hubert/daisy/gcc/arm-none-eabi/include/c++/10.2.1/bits/basic_string.h ****       // _GLIBCXX_RESOLVE_LIB_DEFECTS
 537:/home/hubert/daisy/gcc/arm-none-eabi/include/c++/10.2.1/bits/basic_string.h ****       // 3076. basic_string CTAD ambiguity
 538:/home/hubert/daisy/gcc/arm-none-eabi/include/c++/10.2.1/bits/basic_string.h ****       template<typename = _RequireAllocator<_Alloc>>
 539:/home/hubert/daisy/gcc/arm-none-eabi/include/c++/10.2.1/bits/basic_string.h **** #endif
 540:/home/hubert/daisy/gcc/arm-none-eabi/include/c++/10.2.1/bits/basic_string.h ****       basic_string(size_type __n, _CharT __c, const _Alloc& __a = _Alloc())
 541:/home/hubert/daisy/gcc/arm-none-eabi/include/c++/10.2.1/bits/basic_string.h ****       : _M_dataplus(_M_local_data(), __a)
 542:/home/hubert/daisy/gcc/arm-none-eabi/include/c++/10.2.1/bits/basic_string.h ****       { _M_construct(__n, __c); }
 543:/home/hubert/daisy/gcc/arm-none-eabi/include/c++/10.2.1/bits/basic_string.h **** 
 544:/home/hubert/daisy/gcc/arm-none-eabi/include/c++/10.2.1/bits/basic_string.h **** #if __cplusplus >= 201103L
 545:/home/hubert/daisy/gcc/arm-none-eabi/include/c++/10.2.1/bits/basic_string.h ****       /**
 546:/home/hubert/daisy/gcc/arm-none-eabi/include/c++/10.2.1/bits/basic_string.h ****        *  @brief  Move construct string.
 547:/home/hubert/daisy/gcc/arm-none-eabi/include/c++/10.2.1/bits/basic_string.h ****        *  @param  __str  Source string.
 548:/home/hubert/daisy/gcc/arm-none-eabi/include/c++/10.2.1/bits/basic_string.h ****        *
 549:/home/hubert/daisy/gcc/arm-none-eabi/include/c++/10.2.1/bits/basic_string.h ****        *  The newly-created string contains the exact contents of @a __str.
 550:/home/hubert/daisy/gcc/arm-none-eabi/include/c++/10.2.1/bits/basic_string.h ****        *  @a __str is a valid, but unspecified string.
 551:/home/hubert/daisy/gcc/arm-none-eabi/include/c++/10.2.1/bits/basic_string.h ****        **/
 552:/home/hubert/daisy/gcc/arm-none-eabi/include/c++/10.2.1/bits/basic_string.h ****       basic_string(basic_string&& __str) noexcept
 553:/home/hubert/daisy/gcc/arm-none-eabi/include/c++/10.2.1/bits/basic_string.h ****       : _M_dataplus(_M_local_data(), std::move(__str._M_get_allocator()))
 554:/home/hubert/daisy/gcc/arm-none-eabi/include/c++/10.2.1/bits/basic_string.h ****       {
 555:/home/hubert/daisy/gcc/arm-none-eabi/include/c++/10.2.1/bits/basic_string.h **** 	if (__str._M_is_local())
 556:/home/hubert/daisy/gcc/arm-none-eabi/include/c++/10.2.1/bits/basic_string.h **** 	  {
 557:/home/hubert/daisy/gcc/arm-none-eabi/include/c++/10.2.1/bits/basic_string.h **** 	    traits_type::copy(_M_local_buf, __str._M_local_buf,
 558:/home/hubert/daisy/gcc/arm-none-eabi/include/c++/10.2.1/bits/basic_string.h **** 			      _S_local_capacity + 1);
 559:/home/hubert/daisy/gcc/arm-none-eabi/include/c++/10.2.1/bits/basic_string.h **** 	  }
 560:/home/hubert/daisy/gcc/arm-none-eabi/include/c++/10.2.1/bits/basic_string.h **** 	else
 561:/home/hubert/daisy/gcc/arm-none-eabi/include/c++/10.2.1/bits/basic_string.h **** 	  {
 562:/home/hubert/daisy/gcc/arm-none-eabi/include/c++/10.2.1/bits/basic_string.h **** 	    _M_data(__str._M_data());
 563:/home/hubert/daisy/gcc/arm-none-eabi/include/c++/10.2.1/bits/basic_string.h **** 	    _M_capacity(__str._M_allocated_capacity);
 564:/home/hubert/daisy/gcc/arm-none-eabi/include/c++/10.2.1/bits/basic_string.h **** 	  }
 565:/home/hubert/daisy/gcc/arm-none-eabi/include/c++/10.2.1/bits/basic_string.h **** 
 566:/home/hubert/daisy/gcc/arm-none-eabi/include/c++/10.2.1/bits/basic_string.h **** 	// Must use _M_length() here not _M_set_length() because
 567:/home/hubert/daisy/gcc/arm-none-eabi/include/c++/10.2.1/bits/basic_string.h **** 	// basic_stringbuf relies on writing into unallocated capacity so
 568:/home/hubert/daisy/gcc/arm-none-eabi/include/c++/10.2.1/bits/basic_string.h **** 	// we mess up the contents if we put a '\0' in the string.
 569:/home/hubert/daisy/gcc/arm-none-eabi/include/c++/10.2.1/bits/basic_string.h **** 	_M_length(__str.length());
 570:/home/hubert/daisy/gcc/arm-none-eabi/include/c++/10.2.1/bits/basic_string.h **** 	__str._M_data(__str._M_local_data());
 571:/home/hubert/daisy/gcc/arm-none-eabi/include/c++/10.2.1/bits/basic_string.h **** 	__str._M_set_length(0);
 572:/home/hubert/daisy/gcc/arm-none-eabi/include/c++/10.2.1/bits/basic_string.h ****       }
 573:/home/hubert/daisy/gcc/arm-none-eabi/include/c++/10.2.1/bits/basic_string.h **** 
ARM GAS  /tmp/ccSY3rLK.s 			page 46


 574:/home/hubert/daisy/gcc/arm-none-eabi/include/c++/10.2.1/bits/basic_string.h ****       /**
 575:/home/hubert/daisy/gcc/arm-none-eabi/include/c++/10.2.1/bits/basic_string.h ****        *  @brief  Construct string from an initializer %list.
 576:/home/hubert/daisy/gcc/arm-none-eabi/include/c++/10.2.1/bits/basic_string.h ****        *  @param  __l  std::initializer_list of characters.
 577:/home/hubert/daisy/gcc/arm-none-eabi/include/c++/10.2.1/bits/basic_string.h ****        *  @param  __a  Allocator to use (default is default allocator).
 578:/home/hubert/daisy/gcc/arm-none-eabi/include/c++/10.2.1/bits/basic_string.h ****        */
 579:/home/hubert/daisy/gcc/arm-none-eabi/include/c++/10.2.1/bits/basic_string.h ****       basic_string(initializer_list<_CharT> __l, const _Alloc& __a = _Alloc())
 580:/home/hubert/daisy/gcc/arm-none-eabi/include/c++/10.2.1/bits/basic_string.h ****       : _M_dataplus(_M_local_data(), __a)
 581:/home/hubert/daisy/gcc/arm-none-eabi/include/c++/10.2.1/bits/basic_string.h ****       { _M_construct(__l.begin(), __l.end()); }
 582:/home/hubert/daisy/gcc/arm-none-eabi/include/c++/10.2.1/bits/basic_string.h **** 
 583:/home/hubert/daisy/gcc/arm-none-eabi/include/c++/10.2.1/bits/basic_string.h ****       basic_string(const basic_string& __str, const _Alloc& __a)
 584:/home/hubert/daisy/gcc/arm-none-eabi/include/c++/10.2.1/bits/basic_string.h ****       : _M_dataplus(_M_local_data(), __a)
 585:/home/hubert/daisy/gcc/arm-none-eabi/include/c++/10.2.1/bits/basic_string.h ****       { _M_construct(__str.begin(), __str.end()); }
 586:/home/hubert/daisy/gcc/arm-none-eabi/include/c++/10.2.1/bits/basic_string.h **** 
 587:/home/hubert/daisy/gcc/arm-none-eabi/include/c++/10.2.1/bits/basic_string.h ****       basic_string(basic_string&& __str, const _Alloc& __a)
 588:/home/hubert/daisy/gcc/arm-none-eabi/include/c++/10.2.1/bits/basic_string.h ****       noexcept(_Alloc_traits::_S_always_equal())
 589:/home/hubert/daisy/gcc/arm-none-eabi/include/c++/10.2.1/bits/basic_string.h ****       : _M_dataplus(_M_local_data(), __a)
 590:/home/hubert/daisy/gcc/arm-none-eabi/include/c++/10.2.1/bits/basic_string.h ****       {
 591:/home/hubert/daisy/gcc/arm-none-eabi/include/c++/10.2.1/bits/basic_string.h **** 	if (__str._M_is_local())
 592:/home/hubert/daisy/gcc/arm-none-eabi/include/c++/10.2.1/bits/basic_string.h **** 	  {
 593:/home/hubert/daisy/gcc/arm-none-eabi/include/c++/10.2.1/bits/basic_string.h **** 	    traits_type::copy(_M_local_buf, __str._M_local_buf,
 594:/home/hubert/daisy/gcc/arm-none-eabi/include/c++/10.2.1/bits/basic_string.h **** 			      _S_local_capacity + 1);
 595:/home/hubert/daisy/gcc/arm-none-eabi/include/c++/10.2.1/bits/basic_string.h **** 	    _M_length(__str.length());
 596:/home/hubert/daisy/gcc/arm-none-eabi/include/c++/10.2.1/bits/basic_string.h **** 	    __str._M_set_length(0);
 597:/home/hubert/daisy/gcc/arm-none-eabi/include/c++/10.2.1/bits/basic_string.h **** 	  }
 598:/home/hubert/daisy/gcc/arm-none-eabi/include/c++/10.2.1/bits/basic_string.h **** 	else if (_Alloc_traits::_S_always_equal()
 599:/home/hubert/daisy/gcc/arm-none-eabi/include/c++/10.2.1/bits/basic_string.h **** 	    || __str.get_allocator() == __a)
 600:/home/hubert/daisy/gcc/arm-none-eabi/include/c++/10.2.1/bits/basic_string.h **** 	  {
 601:/home/hubert/daisy/gcc/arm-none-eabi/include/c++/10.2.1/bits/basic_string.h **** 	    _M_data(__str._M_data());
 602:/home/hubert/daisy/gcc/arm-none-eabi/include/c++/10.2.1/bits/basic_string.h **** 	    _M_length(__str.length());
 603:/home/hubert/daisy/gcc/arm-none-eabi/include/c++/10.2.1/bits/basic_string.h **** 	    _M_capacity(__str._M_allocated_capacity);
 604:/home/hubert/daisy/gcc/arm-none-eabi/include/c++/10.2.1/bits/basic_string.h **** 	    __str._M_data(__str._M_local_buf);
 605:/home/hubert/daisy/gcc/arm-none-eabi/include/c++/10.2.1/bits/basic_string.h **** 	    __str._M_set_length(0);
 606:/home/hubert/daisy/gcc/arm-none-eabi/include/c++/10.2.1/bits/basic_string.h **** 	  }
 607:/home/hubert/daisy/gcc/arm-none-eabi/include/c++/10.2.1/bits/basic_string.h **** 	else
 608:/home/hubert/daisy/gcc/arm-none-eabi/include/c++/10.2.1/bits/basic_string.h **** 	  _M_construct(__str.begin(), __str.end());
 609:/home/hubert/daisy/gcc/arm-none-eabi/include/c++/10.2.1/bits/basic_string.h ****       }
 610:/home/hubert/daisy/gcc/arm-none-eabi/include/c++/10.2.1/bits/basic_string.h **** 
 611:/home/hubert/daisy/gcc/arm-none-eabi/include/c++/10.2.1/bits/basic_string.h **** #endif // C++11
 612:/home/hubert/daisy/gcc/arm-none-eabi/include/c++/10.2.1/bits/basic_string.h **** 
 613:/home/hubert/daisy/gcc/arm-none-eabi/include/c++/10.2.1/bits/basic_string.h ****       /**
 614:/home/hubert/daisy/gcc/arm-none-eabi/include/c++/10.2.1/bits/basic_string.h ****        *  @brief  Construct string as copy of a range.
 615:/home/hubert/daisy/gcc/arm-none-eabi/include/c++/10.2.1/bits/basic_string.h ****        *  @param  __beg  Start of range.
 616:/home/hubert/daisy/gcc/arm-none-eabi/include/c++/10.2.1/bits/basic_string.h ****        *  @param  __end  End of range.
 617:/home/hubert/daisy/gcc/arm-none-eabi/include/c++/10.2.1/bits/basic_string.h ****        *  @param  __a  Allocator to use (default is default allocator).
 618:/home/hubert/daisy/gcc/arm-none-eabi/include/c++/10.2.1/bits/basic_string.h ****        */
 619:/home/hubert/daisy/gcc/arm-none-eabi/include/c++/10.2.1/bits/basic_string.h **** #if __cplusplus >= 201103L
 620:/home/hubert/daisy/gcc/arm-none-eabi/include/c++/10.2.1/bits/basic_string.h ****       template<typename _InputIterator,
 621:/home/hubert/daisy/gcc/arm-none-eabi/include/c++/10.2.1/bits/basic_string.h **** 	       typename = std::_RequireInputIter<_InputIterator>>
 622:/home/hubert/daisy/gcc/arm-none-eabi/include/c++/10.2.1/bits/basic_string.h **** #else
 623:/home/hubert/daisy/gcc/arm-none-eabi/include/c++/10.2.1/bits/basic_string.h ****       template<typename _InputIterator>
 624:/home/hubert/daisy/gcc/arm-none-eabi/include/c++/10.2.1/bits/basic_string.h **** #endif
 625:/home/hubert/daisy/gcc/arm-none-eabi/include/c++/10.2.1/bits/basic_string.h ****         basic_string(_InputIterator __beg, _InputIterator __end,
 626:/home/hubert/daisy/gcc/arm-none-eabi/include/c++/10.2.1/bits/basic_string.h **** 		     const _Alloc& __a = _Alloc())
 627:/home/hubert/daisy/gcc/arm-none-eabi/include/c++/10.2.1/bits/basic_string.h **** 	: _M_dataplus(_M_local_data(), __a)
 628:/home/hubert/daisy/gcc/arm-none-eabi/include/c++/10.2.1/bits/basic_string.h **** 	{ _M_construct(__beg, __end); }
 629:/home/hubert/daisy/gcc/arm-none-eabi/include/c++/10.2.1/bits/basic_string.h **** 
 630:/home/hubert/daisy/gcc/arm-none-eabi/include/c++/10.2.1/bits/basic_string.h **** #if __cplusplus >= 201703L
ARM GAS  /tmp/ccSY3rLK.s 			page 47


 631:/home/hubert/daisy/gcc/arm-none-eabi/include/c++/10.2.1/bits/basic_string.h ****       /**
 632:/home/hubert/daisy/gcc/arm-none-eabi/include/c++/10.2.1/bits/basic_string.h ****        *  @brief  Construct string from a substring of a string_view.
 633:/home/hubert/daisy/gcc/arm-none-eabi/include/c++/10.2.1/bits/basic_string.h ****        *  @param  __t   Source object convertible to string view.
 634:/home/hubert/daisy/gcc/arm-none-eabi/include/c++/10.2.1/bits/basic_string.h ****        *  @param  __pos The index of the first character to copy from __t.
 635:/home/hubert/daisy/gcc/arm-none-eabi/include/c++/10.2.1/bits/basic_string.h ****        *  @param  __n   The number of characters to copy from __t.
 636:/home/hubert/daisy/gcc/arm-none-eabi/include/c++/10.2.1/bits/basic_string.h ****        *  @param  __a   Allocator to use.
 637:/home/hubert/daisy/gcc/arm-none-eabi/include/c++/10.2.1/bits/basic_string.h ****        */
 638:/home/hubert/daisy/gcc/arm-none-eabi/include/c++/10.2.1/bits/basic_string.h ****       template<typename _Tp, typename = _If_sv<_Tp, void>>
 639:/home/hubert/daisy/gcc/arm-none-eabi/include/c++/10.2.1/bits/basic_string.h **** 	basic_string(const _Tp& __t, size_type __pos, size_type __n,
 640:/home/hubert/daisy/gcc/arm-none-eabi/include/c++/10.2.1/bits/basic_string.h **** 		     const _Alloc& __a = _Alloc())
 641:/home/hubert/daisy/gcc/arm-none-eabi/include/c++/10.2.1/bits/basic_string.h **** 	: basic_string(_S_to_string_view(__t).substr(__pos, __n), __a) { }
 642:/home/hubert/daisy/gcc/arm-none-eabi/include/c++/10.2.1/bits/basic_string.h **** 
 643:/home/hubert/daisy/gcc/arm-none-eabi/include/c++/10.2.1/bits/basic_string.h ****       /**
 644:/home/hubert/daisy/gcc/arm-none-eabi/include/c++/10.2.1/bits/basic_string.h ****        *  @brief  Construct string from a string_view.
 645:/home/hubert/daisy/gcc/arm-none-eabi/include/c++/10.2.1/bits/basic_string.h ****        *  @param  __t  Source object convertible to string view.
 646:/home/hubert/daisy/gcc/arm-none-eabi/include/c++/10.2.1/bits/basic_string.h ****        *  @param  __a  Allocator to use (default is default allocator).
 647:/home/hubert/daisy/gcc/arm-none-eabi/include/c++/10.2.1/bits/basic_string.h ****        */
 648:/home/hubert/daisy/gcc/arm-none-eabi/include/c++/10.2.1/bits/basic_string.h ****       template<typename _Tp, typename = _If_sv<_Tp, void>>
 649:/home/hubert/daisy/gcc/arm-none-eabi/include/c++/10.2.1/bits/basic_string.h **** 	explicit
 650:/home/hubert/daisy/gcc/arm-none-eabi/include/c++/10.2.1/bits/basic_string.h **** 	basic_string(const _Tp& __t, const _Alloc& __a = _Alloc())
 651:/home/hubert/daisy/gcc/arm-none-eabi/include/c++/10.2.1/bits/basic_string.h **** 	: basic_string(__sv_wrapper(_S_to_string_view(__t)), __a) { }
 652:/home/hubert/daisy/gcc/arm-none-eabi/include/c++/10.2.1/bits/basic_string.h **** #endif // C++17
 653:/home/hubert/daisy/gcc/arm-none-eabi/include/c++/10.2.1/bits/basic_string.h **** 
 654:/home/hubert/daisy/gcc/arm-none-eabi/include/c++/10.2.1/bits/basic_string.h ****       /**
 655:/home/hubert/daisy/gcc/arm-none-eabi/include/c++/10.2.1/bits/basic_string.h ****        *  @brief  Destroy the string instance.
 656:/home/hubert/daisy/gcc/arm-none-eabi/include/c++/10.2.1/bits/basic_string.h ****        */
 657:/home/hubert/daisy/gcc/arm-none-eabi/include/c++/10.2.1/bits/basic_string.h ****       ~basic_string()
 320              		.loc 24 657 7 is_stmt 1 discriminator 5 view .LVU55
 321              	.LBB1230:
 322              	.LBB1231:
 658:/home/hubert/daisy/gcc/arm-none-eabi/include/c++/10.2.1/bits/basic_string.h ****       { _M_dispose(); }
 323              		.loc 24 658 19 is_stmt 0 discriminator 5 view .LVU56
 324 0012 2846     		mov	r0, r5
 325 0014 FFF7FEFF 		bl	_ZNSt7__cxx1112basic_stringIcSt11char_traitsIcESaIcEE10_M_disposeEv
 326              	.LVL9:
 327              	.LBB1232:
 328              	.LBI1232:
 150:/home/hubert/daisy/gcc/arm-none-eabi/include/c++/10.2.1/bits/basic_string.h ****       {
 329              		.loc 24 150 14 is_stmt 1 discriminator 5 view .LVU57
 330              	.LBB1233:
 331              	.LBI1233:
 332              		.file 25 "/home/hubert/daisy/gcc/arm-none-eabi/include/c++/10.2.1/bits/allocator.h"
   1:/home/hubert/daisy/gcc/arm-none-eabi/include/c++/10.2.1/bits/allocator.h **** // Allocators -*- C++ -*-
   2:/home/hubert/daisy/gcc/arm-none-eabi/include/c++/10.2.1/bits/allocator.h **** 
   3:/home/hubert/daisy/gcc/arm-none-eabi/include/c++/10.2.1/bits/allocator.h **** // Copyright (C) 2001-2020 Free Software Foundation, Inc.
   4:/home/hubert/daisy/gcc/arm-none-eabi/include/c++/10.2.1/bits/allocator.h **** //
   5:/home/hubert/daisy/gcc/arm-none-eabi/include/c++/10.2.1/bits/allocator.h **** // This file is part of the GNU ISO C++ Library.  This library is free
   6:/home/hubert/daisy/gcc/arm-none-eabi/include/c++/10.2.1/bits/allocator.h **** // software; you can redistribute it and/or modify it under the
   7:/home/hubert/daisy/gcc/arm-none-eabi/include/c++/10.2.1/bits/allocator.h **** // terms of the GNU General Public License as published by the
   8:/home/hubert/daisy/gcc/arm-none-eabi/include/c++/10.2.1/bits/allocator.h **** // Free Software Foundation; either version 3, or (at your option)
   9:/home/hubert/daisy/gcc/arm-none-eabi/include/c++/10.2.1/bits/allocator.h **** // any later version.
  10:/home/hubert/daisy/gcc/arm-none-eabi/include/c++/10.2.1/bits/allocator.h **** 
  11:/home/hubert/daisy/gcc/arm-none-eabi/include/c++/10.2.1/bits/allocator.h **** // This library is distributed in the hope that it will be useful,
  12:/home/hubert/daisy/gcc/arm-none-eabi/include/c++/10.2.1/bits/allocator.h **** // but WITHOUT ANY WARRANTY; without even the implied warranty of
  13:/home/hubert/daisy/gcc/arm-none-eabi/include/c++/10.2.1/bits/allocator.h **** // MERCHANTABILITY or FITNESS FOR A PARTICULAR PURPOSE.  See the
  14:/home/hubert/daisy/gcc/arm-none-eabi/include/c++/10.2.1/bits/allocator.h **** // GNU General Public License for more details.
  15:/home/hubert/daisy/gcc/arm-none-eabi/include/c++/10.2.1/bits/allocator.h **** 
ARM GAS  /tmp/ccSY3rLK.s 			page 48


  16:/home/hubert/daisy/gcc/arm-none-eabi/include/c++/10.2.1/bits/allocator.h **** // Under Section 7 of GPL version 3, you are granted additional
  17:/home/hubert/daisy/gcc/arm-none-eabi/include/c++/10.2.1/bits/allocator.h **** // permissions described in the GCC Runtime Library Exception, version
  18:/home/hubert/daisy/gcc/arm-none-eabi/include/c++/10.2.1/bits/allocator.h **** // 3.1, as published by the Free Software Foundation.
  19:/home/hubert/daisy/gcc/arm-none-eabi/include/c++/10.2.1/bits/allocator.h **** 
  20:/home/hubert/daisy/gcc/arm-none-eabi/include/c++/10.2.1/bits/allocator.h **** // You should have received a copy of the GNU General Public License and
  21:/home/hubert/daisy/gcc/arm-none-eabi/include/c++/10.2.1/bits/allocator.h **** // a copy of the GCC Runtime Library Exception along with this program;
  22:/home/hubert/daisy/gcc/arm-none-eabi/include/c++/10.2.1/bits/allocator.h **** // see the files COPYING3 and COPYING.RUNTIME respectively.  If not, see
  23:/home/hubert/daisy/gcc/arm-none-eabi/include/c++/10.2.1/bits/allocator.h **** // <http://www.gnu.org/licenses/>.
  24:/home/hubert/daisy/gcc/arm-none-eabi/include/c++/10.2.1/bits/allocator.h **** 
  25:/home/hubert/daisy/gcc/arm-none-eabi/include/c++/10.2.1/bits/allocator.h **** /*
  26:/home/hubert/daisy/gcc/arm-none-eabi/include/c++/10.2.1/bits/allocator.h ****  * Copyright (c) 1996-1997
  27:/home/hubert/daisy/gcc/arm-none-eabi/include/c++/10.2.1/bits/allocator.h ****  * Silicon Graphics Computer Systems, Inc.
  28:/home/hubert/daisy/gcc/arm-none-eabi/include/c++/10.2.1/bits/allocator.h ****  *
  29:/home/hubert/daisy/gcc/arm-none-eabi/include/c++/10.2.1/bits/allocator.h ****  * Permission to use, copy, modify, distribute and sell this software
  30:/home/hubert/daisy/gcc/arm-none-eabi/include/c++/10.2.1/bits/allocator.h ****  * and its documentation for any purpose is hereby granted without fee,
  31:/home/hubert/daisy/gcc/arm-none-eabi/include/c++/10.2.1/bits/allocator.h ****  * provided that the above copyright notice appear in all copies and
  32:/home/hubert/daisy/gcc/arm-none-eabi/include/c++/10.2.1/bits/allocator.h ****  * that both that copyright notice and this permission notice appear
  33:/home/hubert/daisy/gcc/arm-none-eabi/include/c++/10.2.1/bits/allocator.h ****  * in supporting documentation.  Silicon Graphics makes no
  34:/home/hubert/daisy/gcc/arm-none-eabi/include/c++/10.2.1/bits/allocator.h ****  * representations about the suitability of this software for any
  35:/home/hubert/daisy/gcc/arm-none-eabi/include/c++/10.2.1/bits/allocator.h ****  * purpose.  It is provided "as is" without express or implied warranty.
  36:/home/hubert/daisy/gcc/arm-none-eabi/include/c++/10.2.1/bits/allocator.h ****  */
  37:/home/hubert/daisy/gcc/arm-none-eabi/include/c++/10.2.1/bits/allocator.h **** 
  38:/home/hubert/daisy/gcc/arm-none-eabi/include/c++/10.2.1/bits/allocator.h **** /** @file bits/allocator.h
  39:/home/hubert/daisy/gcc/arm-none-eabi/include/c++/10.2.1/bits/allocator.h ****  *  This is an internal header file, included by other library headers.
  40:/home/hubert/daisy/gcc/arm-none-eabi/include/c++/10.2.1/bits/allocator.h ****  *  Do not attempt to use it directly. @headername{memory}
  41:/home/hubert/daisy/gcc/arm-none-eabi/include/c++/10.2.1/bits/allocator.h ****  */
  42:/home/hubert/daisy/gcc/arm-none-eabi/include/c++/10.2.1/bits/allocator.h **** 
  43:/home/hubert/daisy/gcc/arm-none-eabi/include/c++/10.2.1/bits/allocator.h **** #ifndef _ALLOCATOR_H
  44:/home/hubert/daisy/gcc/arm-none-eabi/include/c++/10.2.1/bits/allocator.h **** #define _ALLOCATOR_H 1
  45:/home/hubert/daisy/gcc/arm-none-eabi/include/c++/10.2.1/bits/allocator.h **** 
  46:/home/hubert/daisy/gcc/arm-none-eabi/include/c++/10.2.1/bits/allocator.h **** #include <bits/c++allocator.h> // Define the base class to std::allocator.
  47:/home/hubert/daisy/gcc/arm-none-eabi/include/c++/10.2.1/bits/allocator.h **** #include <bits/memoryfwd.h>
  48:/home/hubert/daisy/gcc/arm-none-eabi/include/c++/10.2.1/bits/allocator.h **** #if __cplusplus >= 201103L
  49:/home/hubert/daisy/gcc/arm-none-eabi/include/c++/10.2.1/bits/allocator.h **** #include <type_traits>
  50:/home/hubert/daisy/gcc/arm-none-eabi/include/c++/10.2.1/bits/allocator.h **** #endif
  51:/home/hubert/daisy/gcc/arm-none-eabi/include/c++/10.2.1/bits/allocator.h **** 
  52:/home/hubert/daisy/gcc/arm-none-eabi/include/c++/10.2.1/bits/allocator.h **** #define __cpp_lib_incomplete_container_elements 201505
  53:/home/hubert/daisy/gcc/arm-none-eabi/include/c++/10.2.1/bits/allocator.h **** 
  54:/home/hubert/daisy/gcc/arm-none-eabi/include/c++/10.2.1/bits/allocator.h **** namespace std _GLIBCXX_VISIBILITY(default)
  55:/home/hubert/daisy/gcc/arm-none-eabi/include/c++/10.2.1/bits/allocator.h **** {
  56:/home/hubert/daisy/gcc/arm-none-eabi/include/c++/10.2.1/bits/allocator.h **** _GLIBCXX_BEGIN_NAMESPACE_VERSION
  57:/home/hubert/daisy/gcc/arm-none-eabi/include/c++/10.2.1/bits/allocator.h **** 
  58:/home/hubert/daisy/gcc/arm-none-eabi/include/c++/10.2.1/bits/allocator.h ****   /**
  59:/home/hubert/daisy/gcc/arm-none-eabi/include/c++/10.2.1/bits/allocator.h ****    *  @addtogroup allocators
  60:/home/hubert/daisy/gcc/arm-none-eabi/include/c++/10.2.1/bits/allocator.h ****    *  @{
  61:/home/hubert/daisy/gcc/arm-none-eabi/include/c++/10.2.1/bits/allocator.h ****    */
  62:/home/hubert/daisy/gcc/arm-none-eabi/include/c++/10.2.1/bits/allocator.h **** 
  63:/home/hubert/daisy/gcc/arm-none-eabi/include/c++/10.2.1/bits/allocator.h ****   /// allocator<void> specialization.
  64:/home/hubert/daisy/gcc/arm-none-eabi/include/c++/10.2.1/bits/allocator.h ****   template<>
  65:/home/hubert/daisy/gcc/arm-none-eabi/include/c++/10.2.1/bits/allocator.h ****     class allocator<void>
  66:/home/hubert/daisy/gcc/arm-none-eabi/include/c++/10.2.1/bits/allocator.h ****     {
  67:/home/hubert/daisy/gcc/arm-none-eabi/include/c++/10.2.1/bits/allocator.h ****     public:
  68:/home/hubert/daisy/gcc/arm-none-eabi/include/c++/10.2.1/bits/allocator.h ****       typedef void        value_type;
  69:/home/hubert/daisy/gcc/arm-none-eabi/include/c++/10.2.1/bits/allocator.h ****       typedef size_t      size_type;
  70:/home/hubert/daisy/gcc/arm-none-eabi/include/c++/10.2.1/bits/allocator.h ****       typedef ptrdiff_t   difference_type;
  71:/home/hubert/daisy/gcc/arm-none-eabi/include/c++/10.2.1/bits/allocator.h **** #if __cplusplus <= 201703L
  72:/home/hubert/daisy/gcc/arm-none-eabi/include/c++/10.2.1/bits/allocator.h ****       typedef void*       pointer;
ARM GAS  /tmp/ccSY3rLK.s 			page 49


  73:/home/hubert/daisy/gcc/arm-none-eabi/include/c++/10.2.1/bits/allocator.h ****       typedef const void* const_pointer;
  74:/home/hubert/daisy/gcc/arm-none-eabi/include/c++/10.2.1/bits/allocator.h **** 
  75:/home/hubert/daisy/gcc/arm-none-eabi/include/c++/10.2.1/bits/allocator.h ****       template<typename _Tp1>
  76:/home/hubert/daisy/gcc/arm-none-eabi/include/c++/10.2.1/bits/allocator.h **** 	struct rebind
  77:/home/hubert/daisy/gcc/arm-none-eabi/include/c++/10.2.1/bits/allocator.h **** 	{ typedef allocator<_Tp1> other; };
  78:/home/hubert/daisy/gcc/arm-none-eabi/include/c++/10.2.1/bits/allocator.h **** #else
  79:/home/hubert/daisy/gcc/arm-none-eabi/include/c++/10.2.1/bits/allocator.h ****       allocator() = default;
  80:/home/hubert/daisy/gcc/arm-none-eabi/include/c++/10.2.1/bits/allocator.h **** 
  81:/home/hubert/daisy/gcc/arm-none-eabi/include/c++/10.2.1/bits/allocator.h ****       template<typename _Up>
  82:/home/hubert/daisy/gcc/arm-none-eabi/include/c++/10.2.1/bits/allocator.h **** 	constexpr
  83:/home/hubert/daisy/gcc/arm-none-eabi/include/c++/10.2.1/bits/allocator.h **** 	allocator(const allocator<_Up>&) { }
  84:/home/hubert/daisy/gcc/arm-none-eabi/include/c++/10.2.1/bits/allocator.h **** #endif // ! C++20
  85:/home/hubert/daisy/gcc/arm-none-eabi/include/c++/10.2.1/bits/allocator.h **** 
  86:/home/hubert/daisy/gcc/arm-none-eabi/include/c++/10.2.1/bits/allocator.h **** #if __cplusplus >= 201103L && __cplusplus <= 201703L
  87:/home/hubert/daisy/gcc/arm-none-eabi/include/c++/10.2.1/bits/allocator.h ****       // _GLIBCXX_RESOLVE_LIB_DEFECTS
  88:/home/hubert/daisy/gcc/arm-none-eabi/include/c++/10.2.1/bits/allocator.h ****       // 2103. std::allocator propagate_on_container_move_assignment
  89:/home/hubert/daisy/gcc/arm-none-eabi/include/c++/10.2.1/bits/allocator.h ****       typedef true_type propagate_on_container_move_assignment;
  90:/home/hubert/daisy/gcc/arm-none-eabi/include/c++/10.2.1/bits/allocator.h **** 
  91:/home/hubert/daisy/gcc/arm-none-eabi/include/c++/10.2.1/bits/allocator.h ****       typedef true_type is_always_equal;
  92:/home/hubert/daisy/gcc/arm-none-eabi/include/c++/10.2.1/bits/allocator.h **** 
  93:/home/hubert/daisy/gcc/arm-none-eabi/include/c++/10.2.1/bits/allocator.h ****       template<typename _Up, typename... _Args>
  94:/home/hubert/daisy/gcc/arm-none-eabi/include/c++/10.2.1/bits/allocator.h **** 	void
  95:/home/hubert/daisy/gcc/arm-none-eabi/include/c++/10.2.1/bits/allocator.h **** 	construct(_Up* __p, _Args&&... __args)
  96:/home/hubert/daisy/gcc/arm-none-eabi/include/c++/10.2.1/bits/allocator.h **** 	noexcept(std::is_nothrow_constructible<_Up, _Args...>::value)
  97:/home/hubert/daisy/gcc/arm-none-eabi/include/c++/10.2.1/bits/allocator.h **** 	{ ::new((void *)__p) _Up(std::forward<_Args>(__args)...); }
  98:/home/hubert/daisy/gcc/arm-none-eabi/include/c++/10.2.1/bits/allocator.h **** 
  99:/home/hubert/daisy/gcc/arm-none-eabi/include/c++/10.2.1/bits/allocator.h ****       template<typename _Up>
 100:/home/hubert/daisy/gcc/arm-none-eabi/include/c++/10.2.1/bits/allocator.h **** 	void
 101:/home/hubert/daisy/gcc/arm-none-eabi/include/c++/10.2.1/bits/allocator.h **** 	destroy(_Up* __p)
 102:/home/hubert/daisy/gcc/arm-none-eabi/include/c++/10.2.1/bits/allocator.h **** 	noexcept(std::is_nothrow_destructible<_Up>::value)
 103:/home/hubert/daisy/gcc/arm-none-eabi/include/c++/10.2.1/bits/allocator.h **** 	{ __p->~_Up(); }
 104:/home/hubert/daisy/gcc/arm-none-eabi/include/c++/10.2.1/bits/allocator.h **** #endif // C++11 to C++17
 105:/home/hubert/daisy/gcc/arm-none-eabi/include/c++/10.2.1/bits/allocator.h ****     };
 106:/home/hubert/daisy/gcc/arm-none-eabi/include/c++/10.2.1/bits/allocator.h **** 
 107:/home/hubert/daisy/gcc/arm-none-eabi/include/c++/10.2.1/bits/allocator.h ****   /**
 108:/home/hubert/daisy/gcc/arm-none-eabi/include/c++/10.2.1/bits/allocator.h ****    * @brief  The @a standard allocator, as per [20.4].
 109:/home/hubert/daisy/gcc/arm-none-eabi/include/c++/10.2.1/bits/allocator.h ****    *
 110:/home/hubert/daisy/gcc/arm-none-eabi/include/c++/10.2.1/bits/allocator.h ****    *  See https://gcc.gnu.org/onlinedocs/libstdc++/manual/memory.html#std.util.memory.allocator
 111:/home/hubert/daisy/gcc/arm-none-eabi/include/c++/10.2.1/bits/allocator.h ****    *  for further details.
 112:/home/hubert/daisy/gcc/arm-none-eabi/include/c++/10.2.1/bits/allocator.h ****    *
 113:/home/hubert/daisy/gcc/arm-none-eabi/include/c++/10.2.1/bits/allocator.h ****    *  @tparam  _Tp  Type of allocated object.
 114:/home/hubert/daisy/gcc/arm-none-eabi/include/c++/10.2.1/bits/allocator.h ****    */
 115:/home/hubert/daisy/gcc/arm-none-eabi/include/c++/10.2.1/bits/allocator.h ****   template<typename _Tp>
 116:/home/hubert/daisy/gcc/arm-none-eabi/include/c++/10.2.1/bits/allocator.h ****     class allocator : public __allocator_base<_Tp>
 117:/home/hubert/daisy/gcc/arm-none-eabi/include/c++/10.2.1/bits/allocator.h ****     {
 118:/home/hubert/daisy/gcc/arm-none-eabi/include/c++/10.2.1/bits/allocator.h ****     public:
 119:/home/hubert/daisy/gcc/arm-none-eabi/include/c++/10.2.1/bits/allocator.h ****       typedef _Tp        value_type;
 120:/home/hubert/daisy/gcc/arm-none-eabi/include/c++/10.2.1/bits/allocator.h ****       typedef size_t     size_type;
 121:/home/hubert/daisy/gcc/arm-none-eabi/include/c++/10.2.1/bits/allocator.h ****       typedef ptrdiff_t  difference_type;
 122:/home/hubert/daisy/gcc/arm-none-eabi/include/c++/10.2.1/bits/allocator.h **** #if __cplusplus <= 201703L
 123:/home/hubert/daisy/gcc/arm-none-eabi/include/c++/10.2.1/bits/allocator.h ****       typedef _Tp*       pointer;
 124:/home/hubert/daisy/gcc/arm-none-eabi/include/c++/10.2.1/bits/allocator.h ****       typedef const _Tp* const_pointer;
 125:/home/hubert/daisy/gcc/arm-none-eabi/include/c++/10.2.1/bits/allocator.h ****       typedef _Tp&       reference;
 126:/home/hubert/daisy/gcc/arm-none-eabi/include/c++/10.2.1/bits/allocator.h ****       typedef const _Tp& const_reference;
 127:/home/hubert/daisy/gcc/arm-none-eabi/include/c++/10.2.1/bits/allocator.h **** 
 128:/home/hubert/daisy/gcc/arm-none-eabi/include/c++/10.2.1/bits/allocator.h ****       template<typename _Tp1>
 129:/home/hubert/daisy/gcc/arm-none-eabi/include/c++/10.2.1/bits/allocator.h **** 	struct rebind
ARM GAS  /tmp/ccSY3rLK.s 			page 50


 130:/home/hubert/daisy/gcc/arm-none-eabi/include/c++/10.2.1/bits/allocator.h **** 	{ typedef allocator<_Tp1> other; };
 131:/home/hubert/daisy/gcc/arm-none-eabi/include/c++/10.2.1/bits/allocator.h **** #endif
 132:/home/hubert/daisy/gcc/arm-none-eabi/include/c++/10.2.1/bits/allocator.h **** 
 133:/home/hubert/daisy/gcc/arm-none-eabi/include/c++/10.2.1/bits/allocator.h **** #if __cplusplus >= 201103L
 134:/home/hubert/daisy/gcc/arm-none-eabi/include/c++/10.2.1/bits/allocator.h ****       // _GLIBCXX_RESOLVE_LIB_DEFECTS
 135:/home/hubert/daisy/gcc/arm-none-eabi/include/c++/10.2.1/bits/allocator.h ****       // 2103. std::allocator propagate_on_container_move_assignment
 136:/home/hubert/daisy/gcc/arm-none-eabi/include/c++/10.2.1/bits/allocator.h ****       typedef true_type propagate_on_container_move_assignment;
 137:/home/hubert/daisy/gcc/arm-none-eabi/include/c++/10.2.1/bits/allocator.h **** 
 138:/home/hubert/daisy/gcc/arm-none-eabi/include/c++/10.2.1/bits/allocator.h ****       typedef true_type is_always_equal;
 139:/home/hubert/daisy/gcc/arm-none-eabi/include/c++/10.2.1/bits/allocator.h **** #endif
 140:/home/hubert/daisy/gcc/arm-none-eabi/include/c++/10.2.1/bits/allocator.h **** 
 141:/home/hubert/daisy/gcc/arm-none-eabi/include/c++/10.2.1/bits/allocator.h ****       // _GLIBCXX_RESOLVE_LIB_DEFECTS
 142:/home/hubert/daisy/gcc/arm-none-eabi/include/c++/10.2.1/bits/allocator.h ****       // 3035. std::allocator's constructors should be constexpr
 143:/home/hubert/daisy/gcc/arm-none-eabi/include/c++/10.2.1/bits/allocator.h ****       _GLIBCXX20_CONSTEXPR
 144:/home/hubert/daisy/gcc/arm-none-eabi/include/c++/10.2.1/bits/allocator.h ****       allocator() _GLIBCXX_NOTHROW { }
 145:/home/hubert/daisy/gcc/arm-none-eabi/include/c++/10.2.1/bits/allocator.h **** 
 146:/home/hubert/daisy/gcc/arm-none-eabi/include/c++/10.2.1/bits/allocator.h ****       _GLIBCXX20_CONSTEXPR
 147:/home/hubert/daisy/gcc/arm-none-eabi/include/c++/10.2.1/bits/allocator.h ****       allocator(const allocator& __a) _GLIBCXX_NOTHROW
 148:/home/hubert/daisy/gcc/arm-none-eabi/include/c++/10.2.1/bits/allocator.h ****       : __allocator_base<_Tp>(__a) { }
 149:/home/hubert/daisy/gcc/arm-none-eabi/include/c++/10.2.1/bits/allocator.h **** 
 150:/home/hubert/daisy/gcc/arm-none-eabi/include/c++/10.2.1/bits/allocator.h **** #if __cplusplus >= 201103L
 151:/home/hubert/daisy/gcc/arm-none-eabi/include/c++/10.2.1/bits/allocator.h ****       // Avoid implicit deprecation.
 152:/home/hubert/daisy/gcc/arm-none-eabi/include/c++/10.2.1/bits/allocator.h ****       allocator& operator=(const allocator&) = default;
 153:/home/hubert/daisy/gcc/arm-none-eabi/include/c++/10.2.1/bits/allocator.h **** #endif
 154:/home/hubert/daisy/gcc/arm-none-eabi/include/c++/10.2.1/bits/allocator.h **** 
 155:/home/hubert/daisy/gcc/arm-none-eabi/include/c++/10.2.1/bits/allocator.h ****       template<typename _Tp1>
 156:/home/hubert/daisy/gcc/arm-none-eabi/include/c++/10.2.1/bits/allocator.h **** 	_GLIBCXX20_CONSTEXPR
 157:/home/hubert/daisy/gcc/arm-none-eabi/include/c++/10.2.1/bits/allocator.h **** 	allocator(const allocator<_Tp1>&) _GLIBCXX_NOTHROW { }
 158:/home/hubert/daisy/gcc/arm-none-eabi/include/c++/10.2.1/bits/allocator.h **** 
 159:/home/hubert/daisy/gcc/arm-none-eabi/include/c++/10.2.1/bits/allocator.h **** #if __cpp_constexpr_dynamic_alloc
 160:/home/hubert/daisy/gcc/arm-none-eabi/include/c++/10.2.1/bits/allocator.h ****       constexpr
 161:/home/hubert/daisy/gcc/arm-none-eabi/include/c++/10.2.1/bits/allocator.h **** #endif
 162:/home/hubert/daisy/gcc/arm-none-eabi/include/c++/10.2.1/bits/allocator.h ****       ~allocator() _GLIBCXX_NOTHROW { }
 333              		.loc 25 162 7 discriminator 5 view .LVU58
 334              	.LBB1234:
 335              	.LBI1234:
 336              		.file 26 "/home/hubert/daisy/gcc/arm-none-eabi/include/c++/10.2.1/ext/new_allocator.h"
   1:/home/hubert/daisy/gcc/arm-none-eabi/include/c++/10.2.1/ext/new_allocator.h **** // Allocator that wraps operator new -*- C++ -*-
   2:/home/hubert/daisy/gcc/arm-none-eabi/include/c++/10.2.1/ext/new_allocator.h **** 
   3:/home/hubert/daisy/gcc/arm-none-eabi/include/c++/10.2.1/ext/new_allocator.h **** // Copyright (C) 2001-2020 Free Software Foundation, Inc.
   4:/home/hubert/daisy/gcc/arm-none-eabi/include/c++/10.2.1/ext/new_allocator.h **** //
   5:/home/hubert/daisy/gcc/arm-none-eabi/include/c++/10.2.1/ext/new_allocator.h **** // This file is part of the GNU ISO C++ Library.  This library is free
   6:/home/hubert/daisy/gcc/arm-none-eabi/include/c++/10.2.1/ext/new_allocator.h **** // software; you can redistribute it and/or modify it under the
   7:/home/hubert/daisy/gcc/arm-none-eabi/include/c++/10.2.1/ext/new_allocator.h **** // terms of the GNU General Public License as published by the
   8:/home/hubert/daisy/gcc/arm-none-eabi/include/c++/10.2.1/ext/new_allocator.h **** // Free Software Foundation; either version 3, or (at your option)
   9:/home/hubert/daisy/gcc/arm-none-eabi/include/c++/10.2.1/ext/new_allocator.h **** // any later version.
  10:/home/hubert/daisy/gcc/arm-none-eabi/include/c++/10.2.1/ext/new_allocator.h **** 
  11:/home/hubert/daisy/gcc/arm-none-eabi/include/c++/10.2.1/ext/new_allocator.h **** // This library is distributed in the hope that it will be useful,
  12:/home/hubert/daisy/gcc/arm-none-eabi/include/c++/10.2.1/ext/new_allocator.h **** // but WITHOUT ANY WARRANTY; without even the implied warranty of
  13:/home/hubert/daisy/gcc/arm-none-eabi/include/c++/10.2.1/ext/new_allocator.h **** // MERCHANTABILITY or FITNESS FOR A PARTICULAR PURPOSE.  See the
  14:/home/hubert/daisy/gcc/arm-none-eabi/include/c++/10.2.1/ext/new_allocator.h **** // GNU General Public License for more details.
  15:/home/hubert/daisy/gcc/arm-none-eabi/include/c++/10.2.1/ext/new_allocator.h **** 
  16:/home/hubert/daisy/gcc/arm-none-eabi/include/c++/10.2.1/ext/new_allocator.h **** // Under Section 7 of GPL version 3, you are granted additional
  17:/home/hubert/daisy/gcc/arm-none-eabi/include/c++/10.2.1/ext/new_allocator.h **** // permissions described in the GCC Runtime Library Exception, version
  18:/home/hubert/daisy/gcc/arm-none-eabi/include/c++/10.2.1/ext/new_allocator.h **** // 3.1, as published by the Free Software Foundation.
  19:/home/hubert/daisy/gcc/arm-none-eabi/include/c++/10.2.1/ext/new_allocator.h **** 
  20:/home/hubert/daisy/gcc/arm-none-eabi/include/c++/10.2.1/ext/new_allocator.h **** // You should have received a copy of the GNU General Public License and
ARM GAS  /tmp/ccSY3rLK.s 			page 51


  21:/home/hubert/daisy/gcc/arm-none-eabi/include/c++/10.2.1/ext/new_allocator.h **** // a copy of the GCC Runtime Library Exception along with this program;
  22:/home/hubert/daisy/gcc/arm-none-eabi/include/c++/10.2.1/ext/new_allocator.h **** // see the files COPYING3 and COPYING.RUNTIME respectively.  If not, see
  23:/home/hubert/daisy/gcc/arm-none-eabi/include/c++/10.2.1/ext/new_allocator.h **** // <http://www.gnu.org/licenses/>.
  24:/home/hubert/daisy/gcc/arm-none-eabi/include/c++/10.2.1/ext/new_allocator.h **** 
  25:/home/hubert/daisy/gcc/arm-none-eabi/include/c++/10.2.1/ext/new_allocator.h **** /** @file ext/new_allocator.h
  26:/home/hubert/daisy/gcc/arm-none-eabi/include/c++/10.2.1/ext/new_allocator.h ****  *  This file is a GNU extension to the Standard C++ Library.
  27:/home/hubert/daisy/gcc/arm-none-eabi/include/c++/10.2.1/ext/new_allocator.h ****  */
  28:/home/hubert/daisy/gcc/arm-none-eabi/include/c++/10.2.1/ext/new_allocator.h **** 
  29:/home/hubert/daisy/gcc/arm-none-eabi/include/c++/10.2.1/ext/new_allocator.h **** #ifndef _NEW_ALLOCATOR_H
  30:/home/hubert/daisy/gcc/arm-none-eabi/include/c++/10.2.1/ext/new_allocator.h **** #define _NEW_ALLOCATOR_H 1
  31:/home/hubert/daisy/gcc/arm-none-eabi/include/c++/10.2.1/ext/new_allocator.h **** 
  32:/home/hubert/daisy/gcc/arm-none-eabi/include/c++/10.2.1/ext/new_allocator.h **** #include <bits/c++config.h>
  33:/home/hubert/daisy/gcc/arm-none-eabi/include/c++/10.2.1/ext/new_allocator.h **** #include <new>
  34:/home/hubert/daisy/gcc/arm-none-eabi/include/c++/10.2.1/ext/new_allocator.h **** #include <bits/functexcept.h>
  35:/home/hubert/daisy/gcc/arm-none-eabi/include/c++/10.2.1/ext/new_allocator.h **** #include <bits/move.h>
  36:/home/hubert/daisy/gcc/arm-none-eabi/include/c++/10.2.1/ext/new_allocator.h **** #if __cplusplus >= 201103L
  37:/home/hubert/daisy/gcc/arm-none-eabi/include/c++/10.2.1/ext/new_allocator.h **** #include <type_traits>
  38:/home/hubert/daisy/gcc/arm-none-eabi/include/c++/10.2.1/ext/new_allocator.h **** #endif
  39:/home/hubert/daisy/gcc/arm-none-eabi/include/c++/10.2.1/ext/new_allocator.h **** 
  40:/home/hubert/daisy/gcc/arm-none-eabi/include/c++/10.2.1/ext/new_allocator.h **** namespace __gnu_cxx _GLIBCXX_VISIBILITY(default)
  41:/home/hubert/daisy/gcc/arm-none-eabi/include/c++/10.2.1/ext/new_allocator.h **** {
  42:/home/hubert/daisy/gcc/arm-none-eabi/include/c++/10.2.1/ext/new_allocator.h **** _GLIBCXX_BEGIN_NAMESPACE_VERSION
  43:/home/hubert/daisy/gcc/arm-none-eabi/include/c++/10.2.1/ext/new_allocator.h **** 
  44:/home/hubert/daisy/gcc/arm-none-eabi/include/c++/10.2.1/ext/new_allocator.h ****   /**
  45:/home/hubert/daisy/gcc/arm-none-eabi/include/c++/10.2.1/ext/new_allocator.h ****    *  @brief  An allocator that uses global new, as per [20.4].
  46:/home/hubert/daisy/gcc/arm-none-eabi/include/c++/10.2.1/ext/new_allocator.h ****    *  @ingroup allocators
  47:/home/hubert/daisy/gcc/arm-none-eabi/include/c++/10.2.1/ext/new_allocator.h ****    *
  48:/home/hubert/daisy/gcc/arm-none-eabi/include/c++/10.2.1/ext/new_allocator.h ****    *  This is precisely the allocator defined in the C++ Standard.
  49:/home/hubert/daisy/gcc/arm-none-eabi/include/c++/10.2.1/ext/new_allocator.h ****    *    - all allocation calls operator new
  50:/home/hubert/daisy/gcc/arm-none-eabi/include/c++/10.2.1/ext/new_allocator.h ****    *    - all deallocation calls operator delete
  51:/home/hubert/daisy/gcc/arm-none-eabi/include/c++/10.2.1/ext/new_allocator.h ****    *
  52:/home/hubert/daisy/gcc/arm-none-eabi/include/c++/10.2.1/ext/new_allocator.h ****    *  @tparam  _Tp  Type of allocated object.
  53:/home/hubert/daisy/gcc/arm-none-eabi/include/c++/10.2.1/ext/new_allocator.h ****    */
  54:/home/hubert/daisy/gcc/arm-none-eabi/include/c++/10.2.1/ext/new_allocator.h ****   template<typename _Tp>
  55:/home/hubert/daisy/gcc/arm-none-eabi/include/c++/10.2.1/ext/new_allocator.h ****     class new_allocator
  56:/home/hubert/daisy/gcc/arm-none-eabi/include/c++/10.2.1/ext/new_allocator.h ****     {
  57:/home/hubert/daisy/gcc/arm-none-eabi/include/c++/10.2.1/ext/new_allocator.h ****     public:
  58:/home/hubert/daisy/gcc/arm-none-eabi/include/c++/10.2.1/ext/new_allocator.h ****       typedef _Tp        value_type;
  59:/home/hubert/daisy/gcc/arm-none-eabi/include/c++/10.2.1/ext/new_allocator.h ****       typedef std::size_t     size_type;
  60:/home/hubert/daisy/gcc/arm-none-eabi/include/c++/10.2.1/ext/new_allocator.h ****       typedef std::ptrdiff_t  difference_type;
  61:/home/hubert/daisy/gcc/arm-none-eabi/include/c++/10.2.1/ext/new_allocator.h **** #if __cplusplus <= 201703L
  62:/home/hubert/daisy/gcc/arm-none-eabi/include/c++/10.2.1/ext/new_allocator.h ****       typedef _Tp*       pointer;
  63:/home/hubert/daisy/gcc/arm-none-eabi/include/c++/10.2.1/ext/new_allocator.h ****       typedef const _Tp* const_pointer;
  64:/home/hubert/daisy/gcc/arm-none-eabi/include/c++/10.2.1/ext/new_allocator.h ****       typedef _Tp&       reference;
  65:/home/hubert/daisy/gcc/arm-none-eabi/include/c++/10.2.1/ext/new_allocator.h ****       typedef const _Tp& const_reference;
  66:/home/hubert/daisy/gcc/arm-none-eabi/include/c++/10.2.1/ext/new_allocator.h **** 
  67:/home/hubert/daisy/gcc/arm-none-eabi/include/c++/10.2.1/ext/new_allocator.h ****       template<typename _Tp1>
  68:/home/hubert/daisy/gcc/arm-none-eabi/include/c++/10.2.1/ext/new_allocator.h **** 	struct rebind
  69:/home/hubert/daisy/gcc/arm-none-eabi/include/c++/10.2.1/ext/new_allocator.h **** 	{ typedef new_allocator<_Tp1> other; };
  70:/home/hubert/daisy/gcc/arm-none-eabi/include/c++/10.2.1/ext/new_allocator.h **** #endif
  71:/home/hubert/daisy/gcc/arm-none-eabi/include/c++/10.2.1/ext/new_allocator.h **** 
  72:/home/hubert/daisy/gcc/arm-none-eabi/include/c++/10.2.1/ext/new_allocator.h **** #if __cplusplus >= 201103L
  73:/home/hubert/daisy/gcc/arm-none-eabi/include/c++/10.2.1/ext/new_allocator.h ****       // _GLIBCXX_RESOLVE_LIB_DEFECTS
  74:/home/hubert/daisy/gcc/arm-none-eabi/include/c++/10.2.1/ext/new_allocator.h ****       // 2103. propagate_on_container_move_assignment
  75:/home/hubert/daisy/gcc/arm-none-eabi/include/c++/10.2.1/ext/new_allocator.h ****       typedef std::true_type propagate_on_container_move_assignment;
  76:/home/hubert/daisy/gcc/arm-none-eabi/include/c++/10.2.1/ext/new_allocator.h **** #endif
  77:/home/hubert/daisy/gcc/arm-none-eabi/include/c++/10.2.1/ext/new_allocator.h **** 
ARM GAS  /tmp/ccSY3rLK.s 			page 52


  78:/home/hubert/daisy/gcc/arm-none-eabi/include/c++/10.2.1/ext/new_allocator.h ****       _GLIBCXX20_CONSTEXPR
  79:/home/hubert/daisy/gcc/arm-none-eabi/include/c++/10.2.1/ext/new_allocator.h ****       new_allocator() _GLIBCXX_USE_NOEXCEPT { }
  80:/home/hubert/daisy/gcc/arm-none-eabi/include/c++/10.2.1/ext/new_allocator.h **** 
  81:/home/hubert/daisy/gcc/arm-none-eabi/include/c++/10.2.1/ext/new_allocator.h ****       _GLIBCXX20_CONSTEXPR
  82:/home/hubert/daisy/gcc/arm-none-eabi/include/c++/10.2.1/ext/new_allocator.h ****       new_allocator(const new_allocator&) _GLIBCXX_USE_NOEXCEPT { }
  83:/home/hubert/daisy/gcc/arm-none-eabi/include/c++/10.2.1/ext/new_allocator.h **** 
  84:/home/hubert/daisy/gcc/arm-none-eabi/include/c++/10.2.1/ext/new_allocator.h ****       template<typename _Tp1>
  85:/home/hubert/daisy/gcc/arm-none-eabi/include/c++/10.2.1/ext/new_allocator.h **** 	_GLIBCXX20_CONSTEXPR
  86:/home/hubert/daisy/gcc/arm-none-eabi/include/c++/10.2.1/ext/new_allocator.h **** 	new_allocator(const new_allocator<_Tp1>&) _GLIBCXX_USE_NOEXCEPT { }
  87:/home/hubert/daisy/gcc/arm-none-eabi/include/c++/10.2.1/ext/new_allocator.h **** 
  88:/home/hubert/daisy/gcc/arm-none-eabi/include/c++/10.2.1/ext/new_allocator.h **** #if __cplusplus <= 201703L
  89:/home/hubert/daisy/gcc/arm-none-eabi/include/c++/10.2.1/ext/new_allocator.h ****       ~new_allocator() _GLIBCXX_USE_NOEXCEPT { }
 337              		.loc 26 89 7 discriminator 5 view .LVU59
 338              		.loc 26 89 7 is_stmt 0 discriminator 5 view .LVU60
 339              	.LBE1234:
 340              	.LBE1233:
 341              	.LBE1232:
 342              	.LBE1231:
 343              		.loc 24 658 23 discriminator 5 view .LVU61
 344 0018 F8E7     		b	.L9
 345              	.LVL10:
 346              	.L8:
 347              		.loc 24 658 23 discriminator 5 view .LVU62
 348              	.LBE1230:
 349              	.LBE1229:
 350              	.LBE1228:
 351              		.loc 23 5 13 discriminator 13 view .LVU63
 352 001a 2046     		mov	r0, r4
 353 001c 70BD     		pop	{r4, r5, r6, pc}
 354              		.loc 23 5 13 discriminator 13 view .LVU64
 355              		.cfi_endproc
 356              	.LFE4985:
 358              		.weak	_ZN6hdelayD1Ev
 359              		.thumb_set _ZN6hdelayD1Ev,_ZN6hdelayD2Ev
 360              		.section	.text._ZN5daisy11OledDisplayINS_13SSD130xDriverILj64ELj32ENS_19SSD130xI2CTransportEEEE4Fi
 361              		.align	1
 362              		.weak	_ZN5daisy11OledDisplayINS_13SSD130xDriverILj64ELj32ENS_19SSD130xI2CTransportEEEE4FillEb
 363              		.syntax unified
 364              		.thumb
 365              		.thumb_func
 366              		.fpu fpv5-d16
 368              	_ZN5daisy11OledDisplayINS_13SSD130xDriverILj64ELj32ENS_19SSD130xI2CTransportEEEE4FillEb:
 369              	.LVL11:
 370              	.LFB5413:
  19:../libDaisy/src/hid/disp/oled_display.h **** 
  20:../libDaisy/src/hid/disp/oled_display.h ****     struct Config
  21:../libDaisy/src/hid/disp/oled_display.h ****     {
  22:../libDaisy/src/hid/disp/oled_display.h ****         typename DisplayDriver::Config driver_config;
  23:../libDaisy/src/hid/disp/oled_display.h ****     };
  24:../libDaisy/src/hid/disp/oled_display.h **** 
  25:../libDaisy/src/hid/disp/oled_display.h ****     void Init(Config config) { driver_.Init(config.driver_config); }
  26:../libDaisy/src/hid/disp/oled_display.h **** 
  27:../libDaisy/src/hid/disp/oled_display.h ****     uint16_t Height() const override { return driver_.Height(); }
  28:../libDaisy/src/hid/disp/oled_display.h ****     uint16_t Width() const override { return driver_.Width(); }
  29:../libDaisy/src/hid/disp/oled_display.h **** 
  30:../libDaisy/src/hid/disp/oled_display.h ****     /** 
  31:../libDaisy/src/hid/disp/oled_display.h ****     Fills the entire display with either on/off.
ARM GAS  /tmp/ccSY3rLK.s 			page 53


  32:../libDaisy/src/hid/disp/oled_display.h ****     \param on Sets on or off.
  33:../libDaisy/src/hid/disp/oled_display.h ****     */
  34:../libDaisy/src/hid/disp/oled_display.h ****     void Fill(bool on) override { driver_.Fill(on); }
 371              		.loc 4 34 10 is_stmt 1 view -0
 372              		.cfi_startproc
 373              		@ args = 0, pretend = 0, frame = 0
 374              		@ frame_needed = 0, uses_anonymous_args = 0
 375              		@ link register save eliminated.
 376              	.LBB1238:
 377              	.LBI1238:
 378              		.file 27 "../libDaisy/src/dev/oled_ssd130x.h"
   1:../libDaisy/src/dev/oled_ssd130x.h **** #pragma once
   2:../libDaisy/src/dev/oled_ssd130x.h **** #ifndef SA_OLED_SSD130X_H
   3:../libDaisy/src/dev/oled_ssd130x.h **** #define SA_OLED_SSD130X_H /**< & */
   4:../libDaisy/src/dev/oled_ssd130x.h **** 
   5:../libDaisy/src/dev/oled_ssd130x.h **** #include "per/i2c.h"
   6:../libDaisy/src/dev/oled_ssd130x.h **** #include "per/spi.h"
   7:../libDaisy/src/dev/oled_ssd130x.h **** #include "per/gpio.h"
   8:../libDaisy/src/dev/oled_ssd130x.h **** #include "sys/system.h"
   9:../libDaisy/src/dev/oled_ssd130x.h **** 
  10:../libDaisy/src/dev/oled_ssd130x.h **** namespace daisy
  11:../libDaisy/src/dev/oled_ssd130x.h **** {
  12:../libDaisy/src/dev/oled_ssd130x.h **** /**
  13:../libDaisy/src/dev/oled_ssd130x.h ****  * I2C Transport for SSD1306 / SSD1309 OLED display devices
  14:../libDaisy/src/dev/oled_ssd130x.h ****  */
  15:../libDaisy/src/dev/oled_ssd130x.h **** class SSD130xI2CTransport
  16:../libDaisy/src/dev/oled_ssd130x.h **** {
  17:../libDaisy/src/dev/oled_ssd130x.h ****   public:
  18:../libDaisy/src/dev/oled_ssd130x.h ****     struct Config
  19:../libDaisy/src/dev/oled_ssd130x.h ****     {
  20:../libDaisy/src/dev/oled_ssd130x.h ****         Config()
  21:../libDaisy/src/dev/oled_ssd130x.h ****         {
  22:../libDaisy/src/dev/oled_ssd130x.h ****             // Intialize using defaults
  23:../libDaisy/src/dev/oled_ssd130x.h ****             Defaults();
  24:../libDaisy/src/dev/oled_ssd130x.h ****         }
  25:../libDaisy/src/dev/oled_ssd130x.h ****         I2CHandle::Config i2c_config;
  26:../libDaisy/src/dev/oled_ssd130x.h ****         uint8_t           i2c_address;
  27:../libDaisy/src/dev/oled_ssd130x.h ****         void              Defaults()
  28:../libDaisy/src/dev/oled_ssd130x.h ****         {
  29:../libDaisy/src/dev/oled_ssd130x.h ****             i2c_config.periph         = I2CHandle::Config::Peripheral::I2C_1;
  30:../libDaisy/src/dev/oled_ssd130x.h ****             i2c_config.speed          = I2CHandle::Config::Speed::I2C_1MHZ;
  31:../libDaisy/src/dev/oled_ssd130x.h ****             i2c_config.mode           = I2CHandle::Config::Mode::I2C_MASTER;
  32:../libDaisy/src/dev/oled_ssd130x.h ****             i2c_config.pin_config.scl = {DSY_GPIOB, 8};
  33:../libDaisy/src/dev/oled_ssd130x.h ****             i2c_config.pin_config.sda = {DSY_GPIOB, 9};
  34:../libDaisy/src/dev/oled_ssd130x.h ****             i2c_address               = 0x3C;
  35:../libDaisy/src/dev/oled_ssd130x.h ****         }
  36:../libDaisy/src/dev/oled_ssd130x.h ****     };
  37:../libDaisy/src/dev/oled_ssd130x.h ****     void Init(const Config& config)
  38:../libDaisy/src/dev/oled_ssd130x.h ****     {
  39:../libDaisy/src/dev/oled_ssd130x.h ****         i2c_address_ = config.i2c_address;
  40:../libDaisy/src/dev/oled_ssd130x.h ****         i2c_.Init(config.i2c_config);
  41:../libDaisy/src/dev/oled_ssd130x.h ****     };
  42:../libDaisy/src/dev/oled_ssd130x.h ****     void SendCommand(uint8_t cmd)
  43:../libDaisy/src/dev/oled_ssd130x.h ****     {
  44:../libDaisy/src/dev/oled_ssd130x.h ****         uint8_t buf[2] = {0X00, cmd};
  45:../libDaisy/src/dev/oled_ssd130x.h ****         i2c_.TransmitBlocking(i2c_address_, buf, 2, 1000);
  46:../libDaisy/src/dev/oled_ssd130x.h ****     };
ARM GAS  /tmp/ccSY3rLK.s 			page 54


  47:../libDaisy/src/dev/oled_ssd130x.h **** 
  48:../libDaisy/src/dev/oled_ssd130x.h ****     void SendData(uint8_t* buff, size_t size)
  49:../libDaisy/src/dev/oled_ssd130x.h ****     {
  50:../libDaisy/src/dev/oled_ssd130x.h ****         for(size_t i = 0; i < size; i++)
  51:../libDaisy/src/dev/oled_ssd130x.h ****         {
  52:../libDaisy/src/dev/oled_ssd130x.h ****             uint8_t buf[2] = {0X40, buff[i]};
  53:../libDaisy/src/dev/oled_ssd130x.h ****             i2c_.TransmitBlocking(i2c_address_, buf, 2, 1000);
  54:../libDaisy/src/dev/oled_ssd130x.h ****         }
  55:../libDaisy/src/dev/oled_ssd130x.h ****     };
  56:../libDaisy/src/dev/oled_ssd130x.h **** 
  57:../libDaisy/src/dev/oled_ssd130x.h ****   private:
  58:../libDaisy/src/dev/oled_ssd130x.h ****     daisy::I2CHandle i2c_;
  59:../libDaisy/src/dev/oled_ssd130x.h ****     uint8_t          i2c_address_;
  60:../libDaisy/src/dev/oled_ssd130x.h **** };
  61:../libDaisy/src/dev/oled_ssd130x.h **** 
  62:../libDaisy/src/dev/oled_ssd130x.h **** /**
  63:../libDaisy/src/dev/oled_ssd130x.h ****  * 4 Wire SPI Transport for SSD1306 / SSD1309 OLED display devices
  64:../libDaisy/src/dev/oled_ssd130x.h ****  */
  65:../libDaisy/src/dev/oled_ssd130x.h **** class SSD130x4WireSpiTransport
  66:../libDaisy/src/dev/oled_ssd130x.h **** {
  67:../libDaisy/src/dev/oled_ssd130x.h ****   public:
  68:../libDaisy/src/dev/oled_ssd130x.h ****     struct Config
