ARM GAS  /tmp/cczoWLZx.s 			page 1


   1              		.cpu cortex-m7
   2              		.eabi_attribute 28, 1
   3              		.eabi_attribute 20, 1
   4              		.eabi_attribute 21, 1
   5              		.eabi_attribute 23, 3
   6              		.eabi_attribute 24, 1
   7              		.eabi_attribute 25, 1
   8              		.eabi_attribute 26, 1
   9              		.eabi_attribute 30, 6
  10              		.eabi_attribute 34, 1
  11              		.eabi_attribute 18, 4
  12              		.file	"saturator1.cpp"
  13              		.text
  14              	.Ltext0:
  15              		.cfi_sections	.debug_frame
  16              		.section	.text._ZSt3absf,"axG",%progbits,_ZSt3absf,comdat
  17              		.align	1
  18              		.weak	_ZSt3absf
  19              		.arch armv7e-m
  20              		.syntax unified
  21              		.thumb
  22              		.thumb_func
  23              		.fpu fpv5-d16
  25              	_ZSt3absf:
  26              	.LFB141:
  27              		.file 1 "/home/hubert/daisy/gcc/arm-none-eabi/include/c++/10.2.1/bits/std_abs.h"
   1:/home/hubert/daisy/gcc/arm-none-eabi/include/c++/10.2.1/bits/std_abs.h **** // -*- C++ -*- C library enhancements header.
   2:/home/hubert/daisy/gcc/arm-none-eabi/include/c++/10.2.1/bits/std_abs.h **** 
   3:/home/hubert/daisy/gcc/arm-none-eabi/include/c++/10.2.1/bits/std_abs.h **** // Copyright (C) 2016-2020 Free Software Foundation, Inc.
   4:/home/hubert/daisy/gcc/arm-none-eabi/include/c++/10.2.1/bits/std_abs.h **** //
   5:/home/hubert/daisy/gcc/arm-none-eabi/include/c++/10.2.1/bits/std_abs.h **** // This file is part of the GNU ISO C++ Library.  This library is free
   6:/home/hubert/daisy/gcc/arm-none-eabi/include/c++/10.2.1/bits/std_abs.h **** // software; you can redistribute it and/or modify it under the
   7:/home/hubert/daisy/gcc/arm-none-eabi/include/c++/10.2.1/bits/std_abs.h **** // terms of the GNU General Public License as published by the
   8:/home/hubert/daisy/gcc/arm-none-eabi/include/c++/10.2.1/bits/std_abs.h **** // Free Software Foundation; either version 3, or (at your option)
   9:/home/hubert/daisy/gcc/arm-none-eabi/include/c++/10.2.1/bits/std_abs.h **** // any later version.
  10:/home/hubert/daisy/gcc/arm-none-eabi/include/c++/10.2.1/bits/std_abs.h **** 
  11:/home/hubert/daisy/gcc/arm-none-eabi/include/c++/10.2.1/bits/std_abs.h **** // This library is distributed in the hope that it will be useful,
  12:/home/hubert/daisy/gcc/arm-none-eabi/include/c++/10.2.1/bits/std_abs.h **** // but WITHOUT ANY WARRANTY; without even the implied warranty of
  13:/home/hubert/daisy/gcc/arm-none-eabi/include/c++/10.2.1/bits/std_abs.h **** // MERCHANTABILITY or FITNESS FOR A PARTICULAR PURPOSE.  See the
  14:/home/hubert/daisy/gcc/arm-none-eabi/include/c++/10.2.1/bits/std_abs.h **** // GNU General Public License for more details.
  15:/home/hubert/daisy/gcc/arm-none-eabi/include/c++/10.2.1/bits/std_abs.h **** 
  16:/home/hubert/daisy/gcc/arm-none-eabi/include/c++/10.2.1/bits/std_abs.h **** // Under Section 7 of GPL version 3, you are granted additional
  17:/home/hubert/daisy/gcc/arm-none-eabi/include/c++/10.2.1/bits/std_abs.h **** // permissions described in the GCC Runtime Library Exception, version
  18:/home/hubert/daisy/gcc/arm-none-eabi/include/c++/10.2.1/bits/std_abs.h **** // 3.1, as published by the Free Software Foundation.
  19:/home/hubert/daisy/gcc/arm-none-eabi/include/c++/10.2.1/bits/std_abs.h **** 
  20:/home/hubert/daisy/gcc/arm-none-eabi/include/c++/10.2.1/bits/std_abs.h **** // You should have received a copy of the GNU General Public License and
  21:/home/hubert/daisy/gcc/arm-none-eabi/include/c++/10.2.1/bits/std_abs.h **** // a copy of the GCC Runtime Library Exception along with this program;
  22:/home/hubert/daisy/gcc/arm-none-eabi/include/c++/10.2.1/bits/std_abs.h **** // see the files COPYING3 and COPYING.RUNTIME respectively.  If not, see
  23:/home/hubert/daisy/gcc/arm-none-eabi/include/c++/10.2.1/bits/std_abs.h **** // <http://www.gnu.org/licenses/>.
  24:/home/hubert/daisy/gcc/arm-none-eabi/include/c++/10.2.1/bits/std_abs.h **** 
  25:/home/hubert/daisy/gcc/arm-none-eabi/include/c++/10.2.1/bits/std_abs.h **** /** @file include/bits/std_abs.h
  26:/home/hubert/daisy/gcc/arm-none-eabi/include/c++/10.2.1/bits/std_abs.h ****  *  This is an internal header file, included by other library headers.
  27:/home/hubert/daisy/gcc/arm-none-eabi/include/c++/10.2.1/bits/std_abs.h ****  *  Do not attempt to use it directly. @headername{cmath, cstdlib}
  28:/home/hubert/daisy/gcc/arm-none-eabi/include/c++/10.2.1/bits/std_abs.h ****  */
  29:/home/hubert/daisy/gcc/arm-none-eabi/include/c++/10.2.1/bits/std_abs.h **** 
  30:/home/hubert/daisy/gcc/arm-none-eabi/include/c++/10.2.1/bits/std_abs.h **** #ifndef _GLIBCXX_BITS_STD_ABS_H
  31:/home/hubert/daisy/gcc/arm-none-eabi/include/c++/10.2.1/bits/std_abs.h **** #define _GLIBCXX_BITS_STD_ABS_H
ARM GAS  /tmp/cczoWLZx.s 			page 2


  32:/home/hubert/daisy/gcc/arm-none-eabi/include/c++/10.2.1/bits/std_abs.h **** 
  33:/home/hubert/daisy/gcc/arm-none-eabi/include/c++/10.2.1/bits/std_abs.h **** #pragma GCC system_header
  34:/home/hubert/daisy/gcc/arm-none-eabi/include/c++/10.2.1/bits/std_abs.h **** 
  35:/home/hubert/daisy/gcc/arm-none-eabi/include/c++/10.2.1/bits/std_abs.h **** #include <bits/c++config.h>
  36:/home/hubert/daisy/gcc/arm-none-eabi/include/c++/10.2.1/bits/std_abs.h **** 
  37:/home/hubert/daisy/gcc/arm-none-eabi/include/c++/10.2.1/bits/std_abs.h **** #define _GLIBCXX_INCLUDE_NEXT_C_HEADERS
  38:/home/hubert/daisy/gcc/arm-none-eabi/include/c++/10.2.1/bits/std_abs.h **** #include_next <stdlib.h>
  39:/home/hubert/daisy/gcc/arm-none-eabi/include/c++/10.2.1/bits/std_abs.h **** #ifdef __CORRECT_ISO_CPP_MATH_H_PROTO
  40:/home/hubert/daisy/gcc/arm-none-eabi/include/c++/10.2.1/bits/std_abs.h **** # include_next <math.h>
  41:/home/hubert/daisy/gcc/arm-none-eabi/include/c++/10.2.1/bits/std_abs.h **** #endif
  42:/home/hubert/daisy/gcc/arm-none-eabi/include/c++/10.2.1/bits/std_abs.h **** #undef _GLIBCXX_INCLUDE_NEXT_C_HEADERS
  43:/home/hubert/daisy/gcc/arm-none-eabi/include/c++/10.2.1/bits/std_abs.h **** 
  44:/home/hubert/daisy/gcc/arm-none-eabi/include/c++/10.2.1/bits/std_abs.h **** #undef abs
  45:/home/hubert/daisy/gcc/arm-none-eabi/include/c++/10.2.1/bits/std_abs.h **** 
  46:/home/hubert/daisy/gcc/arm-none-eabi/include/c++/10.2.1/bits/std_abs.h **** extern "C++"
  47:/home/hubert/daisy/gcc/arm-none-eabi/include/c++/10.2.1/bits/std_abs.h **** {
  48:/home/hubert/daisy/gcc/arm-none-eabi/include/c++/10.2.1/bits/std_abs.h **** namespace std _GLIBCXX_VISIBILITY(default)
  49:/home/hubert/daisy/gcc/arm-none-eabi/include/c++/10.2.1/bits/std_abs.h **** {
  50:/home/hubert/daisy/gcc/arm-none-eabi/include/c++/10.2.1/bits/std_abs.h **** _GLIBCXX_BEGIN_NAMESPACE_VERSION
  51:/home/hubert/daisy/gcc/arm-none-eabi/include/c++/10.2.1/bits/std_abs.h **** 
  52:/home/hubert/daisy/gcc/arm-none-eabi/include/c++/10.2.1/bits/std_abs.h ****   using ::abs;
  53:/home/hubert/daisy/gcc/arm-none-eabi/include/c++/10.2.1/bits/std_abs.h **** 
  54:/home/hubert/daisy/gcc/arm-none-eabi/include/c++/10.2.1/bits/std_abs.h **** #ifndef __CORRECT_ISO_CPP_STDLIB_H_PROTO
  55:/home/hubert/daisy/gcc/arm-none-eabi/include/c++/10.2.1/bits/std_abs.h ****   inline long
  56:/home/hubert/daisy/gcc/arm-none-eabi/include/c++/10.2.1/bits/std_abs.h ****   abs(long __i) { return __builtin_labs(__i); }
  57:/home/hubert/daisy/gcc/arm-none-eabi/include/c++/10.2.1/bits/std_abs.h **** #endif
  58:/home/hubert/daisy/gcc/arm-none-eabi/include/c++/10.2.1/bits/std_abs.h **** 
  59:/home/hubert/daisy/gcc/arm-none-eabi/include/c++/10.2.1/bits/std_abs.h **** #ifdef _GLIBCXX_USE_LONG_LONG
  60:/home/hubert/daisy/gcc/arm-none-eabi/include/c++/10.2.1/bits/std_abs.h ****   inline long long
  61:/home/hubert/daisy/gcc/arm-none-eabi/include/c++/10.2.1/bits/std_abs.h ****   abs(long long __x) { return __builtin_llabs (__x); }
  62:/home/hubert/daisy/gcc/arm-none-eabi/include/c++/10.2.1/bits/std_abs.h **** #endif
  63:/home/hubert/daisy/gcc/arm-none-eabi/include/c++/10.2.1/bits/std_abs.h **** 
  64:/home/hubert/daisy/gcc/arm-none-eabi/include/c++/10.2.1/bits/std_abs.h **** // _GLIBCXX_RESOLVE_LIB_DEFECTS
  65:/home/hubert/daisy/gcc/arm-none-eabi/include/c++/10.2.1/bits/std_abs.h **** // 2192. Validity and return type of std::abs(0u) is unclear
  66:/home/hubert/daisy/gcc/arm-none-eabi/include/c++/10.2.1/bits/std_abs.h **** // 2294. <cstdlib> should declare abs(double)
  67:/home/hubert/daisy/gcc/arm-none-eabi/include/c++/10.2.1/bits/std_abs.h **** // 2735. std::abs(short), std::abs(signed char) and others should return int
  68:/home/hubert/daisy/gcc/arm-none-eabi/include/c++/10.2.1/bits/std_abs.h **** 
  69:/home/hubert/daisy/gcc/arm-none-eabi/include/c++/10.2.1/bits/std_abs.h **** #ifndef __CORRECT_ISO_CPP_MATH_H_PROTO
  70:/home/hubert/daisy/gcc/arm-none-eabi/include/c++/10.2.1/bits/std_abs.h ****   inline _GLIBCXX_CONSTEXPR double
  71:/home/hubert/daisy/gcc/arm-none-eabi/include/c++/10.2.1/bits/std_abs.h ****   abs(double __x)
  72:/home/hubert/daisy/gcc/arm-none-eabi/include/c++/10.2.1/bits/std_abs.h ****   { return __builtin_fabs(__x); }
  73:/home/hubert/daisy/gcc/arm-none-eabi/include/c++/10.2.1/bits/std_abs.h **** 
  74:/home/hubert/daisy/gcc/arm-none-eabi/include/c++/10.2.1/bits/std_abs.h ****   inline _GLIBCXX_CONSTEXPR float
  75:/home/hubert/daisy/gcc/arm-none-eabi/include/c++/10.2.1/bits/std_abs.h ****   abs(float __x)
  76:/home/hubert/daisy/gcc/arm-none-eabi/include/c++/10.2.1/bits/std_abs.h ****   { return __builtin_fabsf(__x); }
  28              		.loc 1 76 3
  29              		.cfi_startproc
  30              		@ args = 0, pretend = 0, frame = 8
  31              		@ frame_needed = 1, uses_anonymous_args = 0
  32              		@ link register save eliminated.
  33 0000 80B4     		push	{r7}
  34              		.cfi_def_cfa_offset 4
  35              		.cfi_offset 7, -4
  36 0002 83B0     		sub	sp, sp, #12
  37              		.cfi_def_cfa_offset 16
  38 0004 00AF     		add	r7, sp, #0
  39              		.cfi_def_cfa_register 7
ARM GAS  /tmp/cczoWLZx.s 			page 3


  40 0006 87ED010A 		vstr.32	s0, [r7, #4]
  41              		.loc 1 76 31
  42 000a D7ED017A 		vldr.32	s15, [r7, #4]
  43 000e F0EEE77A 		vabs.f32	s15, s15
  44              		.loc 1 76 34
  45 0012 B0EE670A 		vmov.f32	s0, s15
  46 0016 0C37     		adds	r7, r7, #12
  47              		.cfi_def_cfa_offset 4
  48 0018 BD46     		mov	sp, r7
  49              		.cfi_def_cfa_register 13
  50              		@ sp needed
  51 001a 5DF8047B 		ldr	r7, [sp], #4
  52              		.cfi_restore 7
  53              		.cfi_def_cfa_offset 0
  54 001e 7047     		bx	lr
  55              		.cfi_endproc
  56              	.LFE141:
  58              		.section	.text._ZSt3cosf,"axG",%progbits,_ZSt3cosf,comdat
  59              		.align	1
  60              		.weak	_ZSt3cosf
  61              		.syntax unified
  62              		.thumb
  63              		.thumb_func
  64              		.fpu fpv5-d16
  66              	_ZSt3cosf:
  67              	.LFB158:
  68              		.file 2 "/home/hubert/daisy/gcc/arm-none-eabi/include/c++/10.2.1/cmath"
   1:/home/hubert/daisy/gcc/arm-none-eabi/include/c++/10.2.1/cmath **** // -*- C++ -*- C forwarding header.
   2:/home/hubert/daisy/gcc/arm-none-eabi/include/c++/10.2.1/cmath **** 
   3:/home/hubert/daisy/gcc/arm-none-eabi/include/c++/10.2.1/cmath **** // Copyright (C) 1997-2020 Free Software Foundation, Inc.
   4:/home/hubert/daisy/gcc/arm-none-eabi/include/c++/10.2.1/cmath **** //
   5:/home/hubert/daisy/gcc/arm-none-eabi/include/c++/10.2.1/cmath **** // This file is part of the GNU ISO C++ Library.  This library is free
   6:/home/hubert/daisy/gcc/arm-none-eabi/include/c++/10.2.1/cmath **** // software; you can redistribute it and/or modify it under the
   7:/home/hubert/daisy/gcc/arm-none-eabi/include/c++/10.2.1/cmath **** // terms of the GNU General Public License as published by the
   8:/home/hubert/daisy/gcc/arm-none-eabi/include/c++/10.2.1/cmath **** // Free Software Foundation; either version 3, or (at your option)
   9:/home/hubert/daisy/gcc/arm-none-eabi/include/c++/10.2.1/cmath **** // any later version.
  10:/home/hubert/daisy/gcc/arm-none-eabi/include/c++/10.2.1/cmath **** 
  11:/home/hubert/daisy/gcc/arm-none-eabi/include/c++/10.2.1/cmath **** // This library is distributed in the hope that it will be useful,
  12:/home/hubert/daisy/gcc/arm-none-eabi/include/c++/10.2.1/cmath **** // but WITHOUT ANY WARRANTY; without even the implied warranty of
  13:/home/hubert/daisy/gcc/arm-none-eabi/include/c++/10.2.1/cmath **** // MERCHANTABILITY or FITNESS FOR A PARTICULAR PURPOSE.  See the
  14:/home/hubert/daisy/gcc/arm-none-eabi/include/c++/10.2.1/cmath **** // GNU General Public License for more details.
  15:/home/hubert/daisy/gcc/arm-none-eabi/include/c++/10.2.1/cmath **** 
  16:/home/hubert/daisy/gcc/arm-none-eabi/include/c++/10.2.1/cmath **** // Under Section 7 of GPL version 3, you are granted additional
  17:/home/hubert/daisy/gcc/arm-none-eabi/include/c++/10.2.1/cmath **** // permissions described in the GCC Runtime Library Exception, version
  18:/home/hubert/daisy/gcc/arm-none-eabi/include/c++/10.2.1/cmath **** // 3.1, as published by the Free Software Foundation.
  19:/home/hubert/daisy/gcc/arm-none-eabi/include/c++/10.2.1/cmath **** 
  20:/home/hubert/daisy/gcc/arm-none-eabi/include/c++/10.2.1/cmath **** // You should have received a copy of the GNU General Public License and
  21:/home/hubert/daisy/gcc/arm-none-eabi/include/c++/10.2.1/cmath **** // a copy of the GCC Runtime Library Exception along with this program;
  22:/home/hubert/daisy/gcc/arm-none-eabi/include/c++/10.2.1/cmath **** // see the files COPYING3 and COPYING.RUNTIME respectively.  If not, see
  23:/home/hubert/daisy/gcc/arm-none-eabi/include/c++/10.2.1/cmath **** // <http://www.gnu.org/licenses/>.
  24:/home/hubert/daisy/gcc/arm-none-eabi/include/c++/10.2.1/cmath **** 
  25:/home/hubert/daisy/gcc/arm-none-eabi/include/c++/10.2.1/cmath **** /** @file include/cmath
  26:/home/hubert/daisy/gcc/arm-none-eabi/include/c++/10.2.1/cmath ****  *  This is a Standard C++ Library file.  You should @c \#include this file
  27:/home/hubert/daisy/gcc/arm-none-eabi/include/c++/10.2.1/cmath ****  *  in your programs, rather than any of the @a *.h implementation files.
  28:/home/hubert/daisy/gcc/arm-none-eabi/include/c++/10.2.1/cmath ****  *
  29:/home/hubert/daisy/gcc/arm-none-eabi/include/c++/10.2.1/cmath ****  *  This is the C++ version of the Standard C Library header @c math.h,
  30:/home/hubert/daisy/gcc/arm-none-eabi/include/c++/10.2.1/cmath ****  *  and its contents are (mostly) the same as that header, but are all
ARM GAS  /tmp/cczoWLZx.s 			page 4


  31:/home/hubert/daisy/gcc/arm-none-eabi/include/c++/10.2.1/cmath ****  *  contained in the namespace @c std (except for names which are defined
  32:/home/hubert/daisy/gcc/arm-none-eabi/include/c++/10.2.1/cmath ****  *  as macros in C).
  33:/home/hubert/daisy/gcc/arm-none-eabi/include/c++/10.2.1/cmath ****  */
  34:/home/hubert/daisy/gcc/arm-none-eabi/include/c++/10.2.1/cmath **** 
  35:/home/hubert/daisy/gcc/arm-none-eabi/include/c++/10.2.1/cmath **** //
  36:/home/hubert/daisy/gcc/arm-none-eabi/include/c++/10.2.1/cmath **** // ISO C++ 14882: 26.5  C library
  37:/home/hubert/daisy/gcc/arm-none-eabi/include/c++/10.2.1/cmath **** //
  38:/home/hubert/daisy/gcc/arm-none-eabi/include/c++/10.2.1/cmath **** 
  39:/home/hubert/daisy/gcc/arm-none-eabi/include/c++/10.2.1/cmath **** #pragma GCC system_header
  40:/home/hubert/daisy/gcc/arm-none-eabi/include/c++/10.2.1/cmath **** 
  41:/home/hubert/daisy/gcc/arm-none-eabi/include/c++/10.2.1/cmath **** #include <bits/c++config.h>
  42:/home/hubert/daisy/gcc/arm-none-eabi/include/c++/10.2.1/cmath **** #include <bits/cpp_type_traits.h>
  43:/home/hubert/daisy/gcc/arm-none-eabi/include/c++/10.2.1/cmath **** #include <ext/type_traits.h>
  44:/home/hubert/daisy/gcc/arm-none-eabi/include/c++/10.2.1/cmath **** #define _GLIBCXX_INCLUDE_NEXT_C_HEADERS
  45:/home/hubert/daisy/gcc/arm-none-eabi/include/c++/10.2.1/cmath **** #include_next <math.h>
  46:/home/hubert/daisy/gcc/arm-none-eabi/include/c++/10.2.1/cmath **** #undef _GLIBCXX_INCLUDE_NEXT_C_HEADERS
  47:/home/hubert/daisy/gcc/arm-none-eabi/include/c++/10.2.1/cmath **** #include <bits/std_abs.h>
  48:/home/hubert/daisy/gcc/arm-none-eabi/include/c++/10.2.1/cmath **** 
  49:/home/hubert/daisy/gcc/arm-none-eabi/include/c++/10.2.1/cmath **** #ifndef _GLIBCXX_CMATH
  50:/home/hubert/daisy/gcc/arm-none-eabi/include/c++/10.2.1/cmath **** #define _GLIBCXX_CMATH 1
  51:/home/hubert/daisy/gcc/arm-none-eabi/include/c++/10.2.1/cmath **** 
  52:/home/hubert/daisy/gcc/arm-none-eabi/include/c++/10.2.1/cmath **** // Get rid of those macros defined in <math.h> in lieu of real functions.
  53:/home/hubert/daisy/gcc/arm-none-eabi/include/c++/10.2.1/cmath **** #undef div
  54:/home/hubert/daisy/gcc/arm-none-eabi/include/c++/10.2.1/cmath **** #undef acos
  55:/home/hubert/daisy/gcc/arm-none-eabi/include/c++/10.2.1/cmath **** #undef asin
  56:/home/hubert/daisy/gcc/arm-none-eabi/include/c++/10.2.1/cmath **** #undef atan
  57:/home/hubert/daisy/gcc/arm-none-eabi/include/c++/10.2.1/cmath **** #undef atan2
  58:/home/hubert/daisy/gcc/arm-none-eabi/include/c++/10.2.1/cmath **** #undef ceil
  59:/home/hubert/daisy/gcc/arm-none-eabi/include/c++/10.2.1/cmath **** #undef cos
  60:/home/hubert/daisy/gcc/arm-none-eabi/include/c++/10.2.1/cmath **** #undef cosh
  61:/home/hubert/daisy/gcc/arm-none-eabi/include/c++/10.2.1/cmath **** #undef exp
  62:/home/hubert/daisy/gcc/arm-none-eabi/include/c++/10.2.1/cmath **** #undef fabs
  63:/home/hubert/daisy/gcc/arm-none-eabi/include/c++/10.2.1/cmath **** #undef floor
  64:/home/hubert/daisy/gcc/arm-none-eabi/include/c++/10.2.1/cmath **** #undef fmod
  65:/home/hubert/daisy/gcc/arm-none-eabi/include/c++/10.2.1/cmath **** #undef frexp
  66:/home/hubert/daisy/gcc/arm-none-eabi/include/c++/10.2.1/cmath **** #undef ldexp
  67:/home/hubert/daisy/gcc/arm-none-eabi/include/c++/10.2.1/cmath **** #undef log
  68:/home/hubert/daisy/gcc/arm-none-eabi/include/c++/10.2.1/cmath **** #undef log10
  69:/home/hubert/daisy/gcc/arm-none-eabi/include/c++/10.2.1/cmath **** #undef modf
  70:/home/hubert/daisy/gcc/arm-none-eabi/include/c++/10.2.1/cmath **** #undef pow
  71:/home/hubert/daisy/gcc/arm-none-eabi/include/c++/10.2.1/cmath **** #undef sin
  72:/home/hubert/daisy/gcc/arm-none-eabi/include/c++/10.2.1/cmath **** #undef sinh
  73:/home/hubert/daisy/gcc/arm-none-eabi/include/c++/10.2.1/cmath **** #undef sqrt
  74:/home/hubert/daisy/gcc/arm-none-eabi/include/c++/10.2.1/cmath **** #undef tan
  75:/home/hubert/daisy/gcc/arm-none-eabi/include/c++/10.2.1/cmath **** #undef tanh
  76:/home/hubert/daisy/gcc/arm-none-eabi/include/c++/10.2.1/cmath **** 
  77:/home/hubert/daisy/gcc/arm-none-eabi/include/c++/10.2.1/cmath **** extern "C++"
  78:/home/hubert/daisy/gcc/arm-none-eabi/include/c++/10.2.1/cmath **** {
  79:/home/hubert/daisy/gcc/arm-none-eabi/include/c++/10.2.1/cmath **** namespace std _GLIBCXX_VISIBILITY(default)
  80:/home/hubert/daisy/gcc/arm-none-eabi/include/c++/10.2.1/cmath **** {
  81:/home/hubert/daisy/gcc/arm-none-eabi/include/c++/10.2.1/cmath **** _GLIBCXX_BEGIN_NAMESPACE_VERSION
  82:/home/hubert/daisy/gcc/arm-none-eabi/include/c++/10.2.1/cmath **** 
  83:/home/hubert/daisy/gcc/arm-none-eabi/include/c++/10.2.1/cmath ****   using ::acos;
  84:/home/hubert/daisy/gcc/arm-none-eabi/include/c++/10.2.1/cmath **** 
  85:/home/hubert/daisy/gcc/arm-none-eabi/include/c++/10.2.1/cmath **** #ifndef __CORRECT_ISO_CPP_MATH_H_PROTO
  86:/home/hubert/daisy/gcc/arm-none-eabi/include/c++/10.2.1/cmath ****   inline _GLIBCXX_CONSTEXPR float
  87:/home/hubert/daisy/gcc/arm-none-eabi/include/c++/10.2.1/cmath ****   acos(float __x)
ARM GAS  /tmp/cczoWLZx.s 			page 5


  88:/home/hubert/daisy/gcc/arm-none-eabi/include/c++/10.2.1/cmath ****   { return __builtin_acosf(__x); }
  89:/home/hubert/daisy/gcc/arm-none-eabi/include/c++/10.2.1/cmath **** 
  90:/home/hubert/daisy/gcc/arm-none-eabi/include/c++/10.2.1/cmath ****   inline _GLIBCXX_CONSTEXPR long double
  91:/home/hubert/daisy/gcc/arm-none-eabi/include/c++/10.2.1/cmath ****   acos(long double __x)
  92:/home/hubert/daisy/gcc/arm-none-eabi/include/c++/10.2.1/cmath ****   { return __builtin_acosl(__x); }
  93:/home/hubert/daisy/gcc/arm-none-eabi/include/c++/10.2.1/cmath **** #endif
  94:/home/hubert/daisy/gcc/arm-none-eabi/include/c++/10.2.1/cmath **** 
  95:/home/hubert/daisy/gcc/arm-none-eabi/include/c++/10.2.1/cmath ****   template<typename _Tp>
  96:/home/hubert/daisy/gcc/arm-none-eabi/include/c++/10.2.1/cmath ****     inline _GLIBCXX_CONSTEXPR
  97:/home/hubert/daisy/gcc/arm-none-eabi/include/c++/10.2.1/cmath ****     typename __gnu_cxx::__enable_if<__is_integer<_Tp>::__value, 
  98:/home/hubert/daisy/gcc/arm-none-eabi/include/c++/10.2.1/cmath ****                                     double>::__type
  99:/home/hubert/daisy/gcc/arm-none-eabi/include/c++/10.2.1/cmath ****     acos(_Tp __x)
 100:/home/hubert/daisy/gcc/arm-none-eabi/include/c++/10.2.1/cmath ****     { return __builtin_acos(__x); }
 101:/home/hubert/daisy/gcc/arm-none-eabi/include/c++/10.2.1/cmath **** 
 102:/home/hubert/daisy/gcc/arm-none-eabi/include/c++/10.2.1/cmath ****   using ::asin;
 103:/home/hubert/daisy/gcc/arm-none-eabi/include/c++/10.2.1/cmath **** 
 104:/home/hubert/daisy/gcc/arm-none-eabi/include/c++/10.2.1/cmath **** #ifndef __CORRECT_ISO_CPP_MATH_H_PROTO
 105:/home/hubert/daisy/gcc/arm-none-eabi/include/c++/10.2.1/cmath ****   inline _GLIBCXX_CONSTEXPR float
 106:/home/hubert/daisy/gcc/arm-none-eabi/include/c++/10.2.1/cmath ****   asin(float __x)
 107:/home/hubert/daisy/gcc/arm-none-eabi/include/c++/10.2.1/cmath ****   { return __builtin_asinf(__x); }
 108:/home/hubert/daisy/gcc/arm-none-eabi/include/c++/10.2.1/cmath **** 
 109:/home/hubert/daisy/gcc/arm-none-eabi/include/c++/10.2.1/cmath ****   inline _GLIBCXX_CONSTEXPR long double
 110:/home/hubert/daisy/gcc/arm-none-eabi/include/c++/10.2.1/cmath ****   asin(long double __x)
 111:/home/hubert/daisy/gcc/arm-none-eabi/include/c++/10.2.1/cmath ****   { return __builtin_asinl(__x); }
 112:/home/hubert/daisy/gcc/arm-none-eabi/include/c++/10.2.1/cmath **** #endif
 113:/home/hubert/daisy/gcc/arm-none-eabi/include/c++/10.2.1/cmath **** 
 114:/home/hubert/daisy/gcc/arm-none-eabi/include/c++/10.2.1/cmath ****   template<typename _Tp>
 115:/home/hubert/daisy/gcc/arm-none-eabi/include/c++/10.2.1/cmath ****     inline _GLIBCXX_CONSTEXPR
 116:/home/hubert/daisy/gcc/arm-none-eabi/include/c++/10.2.1/cmath ****     typename __gnu_cxx::__enable_if<__is_integer<_Tp>::__value,
 117:/home/hubert/daisy/gcc/arm-none-eabi/include/c++/10.2.1/cmath ****                                     double>::__type
 118:/home/hubert/daisy/gcc/arm-none-eabi/include/c++/10.2.1/cmath ****     asin(_Tp __x)
 119:/home/hubert/daisy/gcc/arm-none-eabi/include/c++/10.2.1/cmath ****     { return __builtin_asin(__x); }
 120:/home/hubert/daisy/gcc/arm-none-eabi/include/c++/10.2.1/cmath **** 
 121:/home/hubert/daisy/gcc/arm-none-eabi/include/c++/10.2.1/cmath ****   using ::atan;
 122:/home/hubert/daisy/gcc/arm-none-eabi/include/c++/10.2.1/cmath **** 
 123:/home/hubert/daisy/gcc/arm-none-eabi/include/c++/10.2.1/cmath **** #ifndef __CORRECT_ISO_CPP_MATH_H_PROTO
 124:/home/hubert/daisy/gcc/arm-none-eabi/include/c++/10.2.1/cmath ****   inline _GLIBCXX_CONSTEXPR float
 125:/home/hubert/daisy/gcc/arm-none-eabi/include/c++/10.2.1/cmath ****   atan(float __x)
 126:/home/hubert/daisy/gcc/arm-none-eabi/include/c++/10.2.1/cmath ****   { return __builtin_atanf(__x); }
 127:/home/hubert/daisy/gcc/arm-none-eabi/include/c++/10.2.1/cmath **** 
 128:/home/hubert/daisy/gcc/arm-none-eabi/include/c++/10.2.1/cmath ****   inline _GLIBCXX_CONSTEXPR long double
 129:/home/hubert/daisy/gcc/arm-none-eabi/include/c++/10.2.1/cmath ****   atan(long double __x)
 130:/home/hubert/daisy/gcc/arm-none-eabi/include/c++/10.2.1/cmath ****   { return __builtin_atanl(__x); }
 131:/home/hubert/daisy/gcc/arm-none-eabi/include/c++/10.2.1/cmath **** #endif
 132:/home/hubert/daisy/gcc/arm-none-eabi/include/c++/10.2.1/cmath **** 
 133:/home/hubert/daisy/gcc/arm-none-eabi/include/c++/10.2.1/cmath ****   template<typename _Tp>
 134:/home/hubert/daisy/gcc/arm-none-eabi/include/c++/10.2.1/cmath ****     inline _GLIBCXX_CONSTEXPR
 135:/home/hubert/daisy/gcc/arm-none-eabi/include/c++/10.2.1/cmath ****     typename __gnu_cxx::__enable_if<__is_integer<_Tp>::__value,
 136:/home/hubert/daisy/gcc/arm-none-eabi/include/c++/10.2.1/cmath ****                                     double>::__type
 137:/home/hubert/daisy/gcc/arm-none-eabi/include/c++/10.2.1/cmath ****     atan(_Tp __x)
 138:/home/hubert/daisy/gcc/arm-none-eabi/include/c++/10.2.1/cmath ****     { return __builtin_atan(__x); }
 139:/home/hubert/daisy/gcc/arm-none-eabi/include/c++/10.2.1/cmath **** 
 140:/home/hubert/daisy/gcc/arm-none-eabi/include/c++/10.2.1/cmath ****   using ::atan2;
 141:/home/hubert/daisy/gcc/arm-none-eabi/include/c++/10.2.1/cmath **** 
 142:/home/hubert/daisy/gcc/arm-none-eabi/include/c++/10.2.1/cmath **** #ifndef __CORRECT_ISO_CPP_MATH_H_PROTO
 143:/home/hubert/daisy/gcc/arm-none-eabi/include/c++/10.2.1/cmath ****   inline _GLIBCXX_CONSTEXPR float
 144:/home/hubert/daisy/gcc/arm-none-eabi/include/c++/10.2.1/cmath ****   atan2(float __y, float __x)
ARM GAS  /tmp/cczoWLZx.s 			page 6


 145:/home/hubert/daisy/gcc/arm-none-eabi/include/c++/10.2.1/cmath ****   { return __builtin_atan2f(__y, __x); }
 146:/home/hubert/daisy/gcc/arm-none-eabi/include/c++/10.2.1/cmath **** 
 147:/home/hubert/daisy/gcc/arm-none-eabi/include/c++/10.2.1/cmath ****   inline _GLIBCXX_CONSTEXPR long double
 148:/home/hubert/daisy/gcc/arm-none-eabi/include/c++/10.2.1/cmath ****   atan2(long double __y, long double __x)
 149:/home/hubert/daisy/gcc/arm-none-eabi/include/c++/10.2.1/cmath ****   { return __builtin_atan2l(__y, __x); }
 150:/home/hubert/daisy/gcc/arm-none-eabi/include/c++/10.2.1/cmath **** #endif
 151:/home/hubert/daisy/gcc/arm-none-eabi/include/c++/10.2.1/cmath **** 
 152:/home/hubert/daisy/gcc/arm-none-eabi/include/c++/10.2.1/cmath ****   template<typename _Tp, typename _Up>
 153:/home/hubert/daisy/gcc/arm-none-eabi/include/c++/10.2.1/cmath ****     inline _GLIBCXX_CONSTEXPR
 154:/home/hubert/daisy/gcc/arm-none-eabi/include/c++/10.2.1/cmath ****     typename __gnu_cxx::__promote_2<_Tp, _Up>::__type
 155:/home/hubert/daisy/gcc/arm-none-eabi/include/c++/10.2.1/cmath ****     atan2(_Tp __y, _Up __x)
 156:/home/hubert/daisy/gcc/arm-none-eabi/include/c++/10.2.1/cmath ****     {
 157:/home/hubert/daisy/gcc/arm-none-eabi/include/c++/10.2.1/cmath ****       typedef typename __gnu_cxx::__promote_2<_Tp, _Up>::__type __type;
 158:/home/hubert/daisy/gcc/arm-none-eabi/include/c++/10.2.1/cmath ****       return atan2(__type(__y), __type(__x));
 159:/home/hubert/daisy/gcc/arm-none-eabi/include/c++/10.2.1/cmath ****     }
 160:/home/hubert/daisy/gcc/arm-none-eabi/include/c++/10.2.1/cmath **** 
 161:/home/hubert/daisy/gcc/arm-none-eabi/include/c++/10.2.1/cmath ****   using ::ceil;
 162:/home/hubert/daisy/gcc/arm-none-eabi/include/c++/10.2.1/cmath **** 
 163:/home/hubert/daisy/gcc/arm-none-eabi/include/c++/10.2.1/cmath **** #ifndef __CORRECT_ISO_CPP_MATH_H_PROTO
 164:/home/hubert/daisy/gcc/arm-none-eabi/include/c++/10.2.1/cmath ****   inline _GLIBCXX_CONSTEXPR float
 165:/home/hubert/daisy/gcc/arm-none-eabi/include/c++/10.2.1/cmath ****   ceil(float __x)
 166:/home/hubert/daisy/gcc/arm-none-eabi/include/c++/10.2.1/cmath ****   { return __builtin_ceilf(__x); }
 167:/home/hubert/daisy/gcc/arm-none-eabi/include/c++/10.2.1/cmath **** 
 168:/home/hubert/daisy/gcc/arm-none-eabi/include/c++/10.2.1/cmath ****   inline _GLIBCXX_CONSTEXPR long double
 169:/home/hubert/daisy/gcc/arm-none-eabi/include/c++/10.2.1/cmath ****   ceil(long double __x)
 170:/home/hubert/daisy/gcc/arm-none-eabi/include/c++/10.2.1/cmath ****   { return __builtin_ceill(__x); }
 171:/home/hubert/daisy/gcc/arm-none-eabi/include/c++/10.2.1/cmath **** #endif
 172:/home/hubert/daisy/gcc/arm-none-eabi/include/c++/10.2.1/cmath **** 
 173:/home/hubert/daisy/gcc/arm-none-eabi/include/c++/10.2.1/cmath ****   template<typename _Tp>
 174:/home/hubert/daisy/gcc/arm-none-eabi/include/c++/10.2.1/cmath ****     inline _GLIBCXX_CONSTEXPR
 175:/home/hubert/daisy/gcc/arm-none-eabi/include/c++/10.2.1/cmath ****     typename __gnu_cxx::__enable_if<__is_integer<_Tp>::__value, 
 176:/home/hubert/daisy/gcc/arm-none-eabi/include/c++/10.2.1/cmath ****                                     double>::__type
 177:/home/hubert/daisy/gcc/arm-none-eabi/include/c++/10.2.1/cmath ****     ceil(_Tp __x)
 178:/home/hubert/daisy/gcc/arm-none-eabi/include/c++/10.2.1/cmath ****     { return __builtin_ceil(__x); }
 179:/home/hubert/daisy/gcc/arm-none-eabi/include/c++/10.2.1/cmath **** 
 180:/home/hubert/daisy/gcc/arm-none-eabi/include/c++/10.2.1/cmath ****   using ::cos;
 181:/home/hubert/daisy/gcc/arm-none-eabi/include/c++/10.2.1/cmath **** 
 182:/home/hubert/daisy/gcc/arm-none-eabi/include/c++/10.2.1/cmath **** #ifndef __CORRECT_ISO_CPP_MATH_H_PROTO
 183:/home/hubert/daisy/gcc/arm-none-eabi/include/c++/10.2.1/cmath ****   inline _GLIBCXX_CONSTEXPR float
 184:/home/hubert/daisy/gcc/arm-none-eabi/include/c++/10.2.1/cmath ****   cos(float __x)
 185:/home/hubert/daisy/gcc/arm-none-eabi/include/c++/10.2.1/cmath ****   { return __builtin_cosf(__x); }
  69              		.loc 2 185 3
  70              		.cfi_startproc
  71              		@ args = 0, pretend = 0, frame = 8
  72              		@ frame_needed = 1, uses_anonymous_args = 0
  73 0000 80B5     		push	{r7, lr}
  74              		.cfi_def_cfa_offset 8
  75              		.cfi_offset 7, -8
  76              		.cfi_offset 14, -4
  77 0002 82B0     		sub	sp, sp, #8
  78              		.cfi_def_cfa_offset 16
  79 0004 00AF     		add	r7, sp, #0
  80              		.cfi_def_cfa_register 7
  81 0006 87ED010A 		vstr.32	s0, [r7, #4]
  82              		.loc 2 185 26
  83 000a 97ED010A 		vldr.32	s0, [r7, #4]
  84 000e FFF7FEFF 		bl	cosf
ARM GAS  /tmp/cczoWLZx.s 			page 7


  85 0012 F0EE407A 		vmov.f32	s15, s0
  86              		.loc 2 185 33
  87 0016 B0EE670A 		vmov.f32	s0, s15
  88 001a 0837     		adds	r7, r7, #8
  89              		.cfi_def_cfa_offset 8
  90 001c BD46     		mov	sp, r7
  91              		.cfi_def_cfa_register 13
  92              		@ sp needed
  93 001e 80BD     		pop	{r7, pc}
  94              		.cfi_endproc
  95              	.LFE158:
  97              		.section	.text._ZSt3sinf,"axG",%progbits,_ZSt3sinf,comdat
  98              		.align	1
  99              		.weak	_ZSt3sinf
 100              		.syntax unified
 101              		.thumb
 102              		.thumb_func
 103              		.fpu fpv5-d16
 105              	_ZSt3sinf:
 106              	.LFB193:
 186:/home/hubert/daisy/gcc/arm-none-eabi/include/c++/10.2.1/cmath **** 
 187:/home/hubert/daisy/gcc/arm-none-eabi/include/c++/10.2.1/cmath ****   inline _GLIBCXX_CONSTEXPR long double
 188:/home/hubert/daisy/gcc/arm-none-eabi/include/c++/10.2.1/cmath ****   cos(long double __x)
 189:/home/hubert/daisy/gcc/arm-none-eabi/include/c++/10.2.1/cmath ****   { return __builtin_cosl(__x); }
 190:/home/hubert/daisy/gcc/arm-none-eabi/include/c++/10.2.1/cmath **** #endif
 191:/home/hubert/daisy/gcc/arm-none-eabi/include/c++/10.2.1/cmath **** 
 192:/home/hubert/daisy/gcc/arm-none-eabi/include/c++/10.2.1/cmath ****   template<typename _Tp>
 193:/home/hubert/daisy/gcc/arm-none-eabi/include/c++/10.2.1/cmath ****     inline _GLIBCXX_CONSTEXPR
 194:/home/hubert/daisy/gcc/arm-none-eabi/include/c++/10.2.1/cmath ****     typename __gnu_cxx::__enable_if<__is_integer<_Tp>::__value,
 195:/home/hubert/daisy/gcc/arm-none-eabi/include/c++/10.2.1/cmath ****                                     double>::__type
 196:/home/hubert/daisy/gcc/arm-none-eabi/include/c++/10.2.1/cmath ****     cos(_Tp __x)
 197:/home/hubert/daisy/gcc/arm-none-eabi/include/c++/10.2.1/cmath ****     { return __builtin_cos(__x); }
 198:/home/hubert/daisy/gcc/arm-none-eabi/include/c++/10.2.1/cmath **** 
 199:/home/hubert/daisy/gcc/arm-none-eabi/include/c++/10.2.1/cmath ****   using ::cosh;
 200:/home/hubert/daisy/gcc/arm-none-eabi/include/c++/10.2.1/cmath **** 
 201:/home/hubert/daisy/gcc/arm-none-eabi/include/c++/10.2.1/cmath **** #ifndef __CORRECT_ISO_CPP_MATH_H_PROTO
 202:/home/hubert/daisy/gcc/arm-none-eabi/include/c++/10.2.1/cmath ****   inline _GLIBCXX_CONSTEXPR float
 203:/home/hubert/daisy/gcc/arm-none-eabi/include/c++/10.2.1/cmath ****   cosh(float __x)
 204:/home/hubert/daisy/gcc/arm-none-eabi/include/c++/10.2.1/cmath ****   { return __builtin_coshf(__x); }
 205:/home/hubert/daisy/gcc/arm-none-eabi/include/c++/10.2.1/cmath **** 
 206:/home/hubert/daisy/gcc/arm-none-eabi/include/c++/10.2.1/cmath ****   inline _GLIBCXX_CONSTEXPR long double
 207:/home/hubert/daisy/gcc/arm-none-eabi/include/c++/10.2.1/cmath ****   cosh(long double __x)
 208:/home/hubert/daisy/gcc/arm-none-eabi/include/c++/10.2.1/cmath ****   { return __builtin_coshl(__x); }
 209:/home/hubert/daisy/gcc/arm-none-eabi/include/c++/10.2.1/cmath **** #endif
 210:/home/hubert/daisy/gcc/arm-none-eabi/include/c++/10.2.1/cmath **** 
 211:/home/hubert/daisy/gcc/arm-none-eabi/include/c++/10.2.1/cmath ****   template<typename _Tp>
 212:/home/hubert/daisy/gcc/arm-none-eabi/include/c++/10.2.1/cmath ****     inline _GLIBCXX_CONSTEXPR
 213:/home/hubert/daisy/gcc/arm-none-eabi/include/c++/10.2.1/cmath ****     typename __gnu_cxx::__enable_if<__is_integer<_Tp>::__value,
 214:/home/hubert/daisy/gcc/arm-none-eabi/include/c++/10.2.1/cmath ****                                     double>::__type
 215:/home/hubert/daisy/gcc/arm-none-eabi/include/c++/10.2.1/cmath ****     cosh(_Tp __x)
 216:/home/hubert/daisy/gcc/arm-none-eabi/include/c++/10.2.1/cmath ****     { return __builtin_cosh(__x); }
 217:/home/hubert/daisy/gcc/arm-none-eabi/include/c++/10.2.1/cmath **** 
 218:/home/hubert/daisy/gcc/arm-none-eabi/include/c++/10.2.1/cmath ****   using ::exp;
 219:/home/hubert/daisy/gcc/arm-none-eabi/include/c++/10.2.1/cmath **** 
 220:/home/hubert/daisy/gcc/arm-none-eabi/include/c++/10.2.1/cmath **** #ifndef __CORRECT_ISO_CPP_MATH_H_PROTO
 221:/home/hubert/daisy/gcc/arm-none-eabi/include/c++/10.2.1/cmath ****   inline _GLIBCXX_CONSTEXPR float
 222:/home/hubert/daisy/gcc/arm-none-eabi/include/c++/10.2.1/cmath ****   exp(float __x)
ARM GAS  /tmp/cczoWLZx.s 			page 8


 223:/home/hubert/daisy/gcc/arm-none-eabi/include/c++/10.2.1/cmath ****   { return __builtin_expf(__x); }
 224:/home/hubert/daisy/gcc/arm-none-eabi/include/c++/10.2.1/cmath **** 
 225:/home/hubert/daisy/gcc/arm-none-eabi/include/c++/10.2.1/cmath ****   inline _GLIBCXX_CONSTEXPR long double
 226:/home/hubert/daisy/gcc/arm-none-eabi/include/c++/10.2.1/cmath ****   exp(long double __x)
 227:/home/hubert/daisy/gcc/arm-none-eabi/include/c++/10.2.1/cmath ****   { return __builtin_expl(__x); }
 228:/home/hubert/daisy/gcc/arm-none-eabi/include/c++/10.2.1/cmath **** #endif
 229:/home/hubert/daisy/gcc/arm-none-eabi/include/c++/10.2.1/cmath **** 
 230:/home/hubert/daisy/gcc/arm-none-eabi/include/c++/10.2.1/cmath ****   template<typename _Tp>
 231:/home/hubert/daisy/gcc/arm-none-eabi/include/c++/10.2.1/cmath ****     inline _GLIBCXX_CONSTEXPR
 232:/home/hubert/daisy/gcc/arm-none-eabi/include/c++/10.2.1/cmath ****     typename __gnu_cxx::__enable_if<__is_integer<_Tp>::__value,
 233:/home/hubert/daisy/gcc/arm-none-eabi/include/c++/10.2.1/cmath ****                                     double>::__type
 234:/home/hubert/daisy/gcc/arm-none-eabi/include/c++/10.2.1/cmath ****     exp(_Tp __x)
 235:/home/hubert/daisy/gcc/arm-none-eabi/include/c++/10.2.1/cmath ****     { return __builtin_exp(__x); }
 236:/home/hubert/daisy/gcc/arm-none-eabi/include/c++/10.2.1/cmath **** 
 237:/home/hubert/daisy/gcc/arm-none-eabi/include/c++/10.2.1/cmath ****   using ::fabs;
 238:/home/hubert/daisy/gcc/arm-none-eabi/include/c++/10.2.1/cmath **** 
 239:/home/hubert/daisy/gcc/arm-none-eabi/include/c++/10.2.1/cmath **** #ifndef __CORRECT_ISO_CPP_MATH_H_PROTO
 240:/home/hubert/daisy/gcc/arm-none-eabi/include/c++/10.2.1/cmath ****   inline _GLIBCXX_CONSTEXPR float
 241:/home/hubert/daisy/gcc/arm-none-eabi/include/c++/10.2.1/cmath ****   fabs(float __x)
 242:/home/hubert/daisy/gcc/arm-none-eabi/include/c++/10.2.1/cmath ****   { return __builtin_fabsf(__x); }
 243:/home/hubert/daisy/gcc/arm-none-eabi/include/c++/10.2.1/cmath **** 
 244:/home/hubert/daisy/gcc/arm-none-eabi/include/c++/10.2.1/cmath ****   inline _GLIBCXX_CONSTEXPR long double
 245:/home/hubert/daisy/gcc/arm-none-eabi/include/c++/10.2.1/cmath ****   fabs(long double __x)
 246:/home/hubert/daisy/gcc/arm-none-eabi/include/c++/10.2.1/cmath ****   { return __builtin_fabsl(__x); }
 247:/home/hubert/daisy/gcc/arm-none-eabi/include/c++/10.2.1/cmath **** #endif
 248:/home/hubert/daisy/gcc/arm-none-eabi/include/c++/10.2.1/cmath **** 
 249:/home/hubert/daisy/gcc/arm-none-eabi/include/c++/10.2.1/cmath ****   template<typename _Tp>
 250:/home/hubert/daisy/gcc/arm-none-eabi/include/c++/10.2.1/cmath ****     inline _GLIBCXX_CONSTEXPR
 251:/home/hubert/daisy/gcc/arm-none-eabi/include/c++/10.2.1/cmath ****     typename __gnu_cxx::__enable_if<__is_integer<_Tp>::__value,
 252:/home/hubert/daisy/gcc/arm-none-eabi/include/c++/10.2.1/cmath ****                                     double>::__type
 253:/home/hubert/daisy/gcc/arm-none-eabi/include/c++/10.2.1/cmath ****     fabs(_Tp __x)
 254:/home/hubert/daisy/gcc/arm-none-eabi/include/c++/10.2.1/cmath ****     { return __builtin_fabs(__x); }
 255:/home/hubert/daisy/gcc/arm-none-eabi/include/c++/10.2.1/cmath **** 
 256:/home/hubert/daisy/gcc/arm-none-eabi/include/c++/10.2.1/cmath ****   using ::floor;
 257:/home/hubert/daisy/gcc/arm-none-eabi/include/c++/10.2.1/cmath **** 
 258:/home/hubert/daisy/gcc/arm-none-eabi/include/c++/10.2.1/cmath **** #ifndef __CORRECT_ISO_CPP_MATH_H_PROTO
 259:/home/hubert/daisy/gcc/arm-none-eabi/include/c++/10.2.1/cmath ****   inline _GLIBCXX_CONSTEXPR float
 260:/home/hubert/daisy/gcc/arm-none-eabi/include/c++/10.2.1/cmath ****   floor(float __x)
 261:/home/hubert/daisy/gcc/arm-none-eabi/include/c++/10.2.1/cmath ****   { return __builtin_floorf(__x); }
 262:/home/hubert/daisy/gcc/arm-none-eabi/include/c++/10.2.1/cmath **** 
 263:/home/hubert/daisy/gcc/arm-none-eabi/include/c++/10.2.1/cmath ****   inline _GLIBCXX_CONSTEXPR long double
 264:/home/hubert/daisy/gcc/arm-none-eabi/include/c++/10.2.1/cmath ****   floor(long double __x)
 265:/home/hubert/daisy/gcc/arm-none-eabi/include/c++/10.2.1/cmath ****   { return __builtin_floorl(__x); }
 266:/home/hubert/daisy/gcc/arm-none-eabi/include/c++/10.2.1/cmath **** #endif
 267:/home/hubert/daisy/gcc/arm-none-eabi/include/c++/10.2.1/cmath **** 
 268:/home/hubert/daisy/gcc/arm-none-eabi/include/c++/10.2.1/cmath ****   template<typename _Tp>
 269:/home/hubert/daisy/gcc/arm-none-eabi/include/c++/10.2.1/cmath ****     inline _GLIBCXX_CONSTEXPR
 270:/home/hubert/daisy/gcc/arm-none-eabi/include/c++/10.2.1/cmath ****     typename __gnu_cxx::__enable_if<__is_integer<_Tp>::__value,
 271:/home/hubert/daisy/gcc/arm-none-eabi/include/c++/10.2.1/cmath ****                                     double>::__type
 272:/home/hubert/daisy/gcc/arm-none-eabi/include/c++/10.2.1/cmath ****     floor(_Tp __x)
 273:/home/hubert/daisy/gcc/arm-none-eabi/include/c++/10.2.1/cmath ****     { return __builtin_floor(__x); }
 274:/home/hubert/daisy/gcc/arm-none-eabi/include/c++/10.2.1/cmath **** 
 275:/home/hubert/daisy/gcc/arm-none-eabi/include/c++/10.2.1/cmath ****   using ::fmod;
 276:/home/hubert/daisy/gcc/arm-none-eabi/include/c++/10.2.1/cmath **** 
 277:/home/hubert/daisy/gcc/arm-none-eabi/include/c++/10.2.1/cmath **** #ifndef __CORRECT_ISO_CPP_MATH_H_PROTO
 278:/home/hubert/daisy/gcc/arm-none-eabi/include/c++/10.2.1/cmath ****   inline _GLIBCXX_CONSTEXPR float
 279:/home/hubert/daisy/gcc/arm-none-eabi/include/c++/10.2.1/cmath ****   fmod(float __x, float __y)
ARM GAS  /tmp/cczoWLZx.s 			page 9


 280:/home/hubert/daisy/gcc/arm-none-eabi/include/c++/10.2.1/cmath ****   { return __builtin_fmodf(__x, __y); }
 281:/home/hubert/daisy/gcc/arm-none-eabi/include/c++/10.2.1/cmath **** 
 282:/home/hubert/daisy/gcc/arm-none-eabi/include/c++/10.2.1/cmath ****   inline _GLIBCXX_CONSTEXPR long double
 283:/home/hubert/daisy/gcc/arm-none-eabi/include/c++/10.2.1/cmath ****   fmod(long double __x, long double __y)
 284:/home/hubert/daisy/gcc/arm-none-eabi/include/c++/10.2.1/cmath ****   { return __builtin_fmodl(__x, __y); }
 285:/home/hubert/daisy/gcc/arm-none-eabi/include/c++/10.2.1/cmath **** #endif
 286:/home/hubert/daisy/gcc/arm-none-eabi/include/c++/10.2.1/cmath **** 
 287:/home/hubert/daisy/gcc/arm-none-eabi/include/c++/10.2.1/cmath ****   template<typename _Tp, typename _Up>
 288:/home/hubert/daisy/gcc/arm-none-eabi/include/c++/10.2.1/cmath ****     inline _GLIBCXX_CONSTEXPR
 289:/home/hubert/daisy/gcc/arm-none-eabi/include/c++/10.2.1/cmath ****     typename __gnu_cxx::__promote_2<_Tp, _Up>::__type
 290:/home/hubert/daisy/gcc/arm-none-eabi/include/c++/10.2.1/cmath ****     fmod(_Tp __x, _Up __y)
 291:/home/hubert/daisy/gcc/arm-none-eabi/include/c++/10.2.1/cmath ****     {
 292:/home/hubert/daisy/gcc/arm-none-eabi/include/c++/10.2.1/cmath ****       typedef typename __gnu_cxx::__promote_2<_Tp, _Up>::__type __type;
 293:/home/hubert/daisy/gcc/arm-none-eabi/include/c++/10.2.1/cmath ****       return fmod(__type(__x), __type(__y));
 294:/home/hubert/daisy/gcc/arm-none-eabi/include/c++/10.2.1/cmath ****     }
 295:/home/hubert/daisy/gcc/arm-none-eabi/include/c++/10.2.1/cmath **** 
 296:/home/hubert/daisy/gcc/arm-none-eabi/include/c++/10.2.1/cmath ****   using ::frexp;
 297:/home/hubert/daisy/gcc/arm-none-eabi/include/c++/10.2.1/cmath **** 
 298:/home/hubert/daisy/gcc/arm-none-eabi/include/c++/10.2.1/cmath **** #ifndef __CORRECT_ISO_CPP_MATH_H_PROTO
 299:/home/hubert/daisy/gcc/arm-none-eabi/include/c++/10.2.1/cmath ****   inline float
 300:/home/hubert/daisy/gcc/arm-none-eabi/include/c++/10.2.1/cmath ****   frexp(float __x, int* __exp)
 301:/home/hubert/daisy/gcc/arm-none-eabi/include/c++/10.2.1/cmath ****   { return __builtin_frexpf(__x, __exp); }
 302:/home/hubert/daisy/gcc/arm-none-eabi/include/c++/10.2.1/cmath **** 
 303:/home/hubert/daisy/gcc/arm-none-eabi/include/c++/10.2.1/cmath ****   inline long double
 304:/home/hubert/daisy/gcc/arm-none-eabi/include/c++/10.2.1/cmath ****   frexp(long double __x, int* __exp)
 305:/home/hubert/daisy/gcc/arm-none-eabi/include/c++/10.2.1/cmath ****   { return __builtin_frexpl(__x, __exp); }
 306:/home/hubert/daisy/gcc/arm-none-eabi/include/c++/10.2.1/cmath **** #endif
 307:/home/hubert/daisy/gcc/arm-none-eabi/include/c++/10.2.1/cmath **** 
 308:/home/hubert/daisy/gcc/arm-none-eabi/include/c++/10.2.1/cmath ****   template<typename _Tp>
 309:/home/hubert/daisy/gcc/arm-none-eabi/include/c++/10.2.1/cmath ****     inline _GLIBCXX_CONSTEXPR
 310:/home/hubert/daisy/gcc/arm-none-eabi/include/c++/10.2.1/cmath ****     typename __gnu_cxx::__enable_if<__is_integer<_Tp>::__value, 
 311:/home/hubert/daisy/gcc/arm-none-eabi/include/c++/10.2.1/cmath ****                                     double>::__type
 312:/home/hubert/daisy/gcc/arm-none-eabi/include/c++/10.2.1/cmath ****     frexp(_Tp __x, int* __exp)
 313:/home/hubert/daisy/gcc/arm-none-eabi/include/c++/10.2.1/cmath ****     { return __builtin_frexp(__x, __exp); }
 314:/home/hubert/daisy/gcc/arm-none-eabi/include/c++/10.2.1/cmath **** 
 315:/home/hubert/daisy/gcc/arm-none-eabi/include/c++/10.2.1/cmath ****   using ::ldexp;
 316:/home/hubert/daisy/gcc/arm-none-eabi/include/c++/10.2.1/cmath **** 
 317:/home/hubert/daisy/gcc/arm-none-eabi/include/c++/10.2.1/cmath **** #ifndef __CORRECT_ISO_CPP_MATH_H_PROTO
 318:/home/hubert/daisy/gcc/arm-none-eabi/include/c++/10.2.1/cmath ****   inline _GLIBCXX_CONSTEXPR float
 319:/home/hubert/daisy/gcc/arm-none-eabi/include/c++/10.2.1/cmath ****   ldexp(float __x, int __exp)
 320:/home/hubert/daisy/gcc/arm-none-eabi/include/c++/10.2.1/cmath ****   { return __builtin_ldexpf(__x, __exp); }
 321:/home/hubert/daisy/gcc/arm-none-eabi/include/c++/10.2.1/cmath **** 
 322:/home/hubert/daisy/gcc/arm-none-eabi/include/c++/10.2.1/cmath ****   inline _GLIBCXX_CONSTEXPR long double
 323:/home/hubert/daisy/gcc/arm-none-eabi/include/c++/10.2.1/cmath ****   ldexp(long double __x, int __exp)
 324:/home/hubert/daisy/gcc/arm-none-eabi/include/c++/10.2.1/cmath ****   { return __builtin_ldexpl(__x, __exp); }
 325:/home/hubert/daisy/gcc/arm-none-eabi/include/c++/10.2.1/cmath **** #endif
 326:/home/hubert/daisy/gcc/arm-none-eabi/include/c++/10.2.1/cmath **** 
 327:/home/hubert/daisy/gcc/arm-none-eabi/include/c++/10.2.1/cmath ****   template<typename _Tp>
 328:/home/hubert/daisy/gcc/arm-none-eabi/include/c++/10.2.1/cmath ****     inline _GLIBCXX_CONSTEXPR
 329:/home/hubert/daisy/gcc/arm-none-eabi/include/c++/10.2.1/cmath ****     typename __gnu_cxx::__enable_if<__is_integer<_Tp>::__value, 
 330:/home/hubert/daisy/gcc/arm-none-eabi/include/c++/10.2.1/cmath ****                                     double>::__type
 331:/home/hubert/daisy/gcc/arm-none-eabi/include/c++/10.2.1/cmath ****     ldexp(_Tp __x, int __exp)
 332:/home/hubert/daisy/gcc/arm-none-eabi/include/c++/10.2.1/cmath ****     { return __builtin_ldexp(__x, __exp); }
 333:/home/hubert/daisy/gcc/arm-none-eabi/include/c++/10.2.1/cmath **** 
 334:/home/hubert/daisy/gcc/arm-none-eabi/include/c++/10.2.1/cmath ****   using ::log;
 335:/home/hubert/daisy/gcc/arm-none-eabi/include/c++/10.2.1/cmath **** 
 336:/home/hubert/daisy/gcc/arm-none-eabi/include/c++/10.2.1/cmath **** #ifndef __CORRECT_ISO_CPP_MATH_H_PROTO
ARM GAS  /tmp/cczoWLZx.s 			page 10


 337:/home/hubert/daisy/gcc/arm-none-eabi/include/c++/10.2.1/cmath ****   inline _GLIBCXX_CONSTEXPR float
 338:/home/hubert/daisy/gcc/arm-none-eabi/include/c++/10.2.1/cmath ****   log(float __x)
 339:/home/hubert/daisy/gcc/arm-none-eabi/include/c++/10.2.1/cmath ****   { return __builtin_logf(__x); }
 340:/home/hubert/daisy/gcc/arm-none-eabi/include/c++/10.2.1/cmath **** 
 341:/home/hubert/daisy/gcc/arm-none-eabi/include/c++/10.2.1/cmath ****   inline _GLIBCXX_CONSTEXPR long double
 342:/home/hubert/daisy/gcc/arm-none-eabi/include/c++/10.2.1/cmath ****   log(long double __x)
 343:/home/hubert/daisy/gcc/arm-none-eabi/include/c++/10.2.1/cmath ****   { return __builtin_logl(__x); }
 344:/home/hubert/daisy/gcc/arm-none-eabi/include/c++/10.2.1/cmath **** #endif
 345:/home/hubert/daisy/gcc/arm-none-eabi/include/c++/10.2.1/cmath **** 
 346:/home/hubert/daisy/gcc/arm-none-eabi/include/c++/10.2.1/cmath ****   template<typename _Tp>
 347:/home/hubert/daisy/gcc/arm-none-eabi/include/c++/10.2.1/cmath ****     inline _GLIBCXX_CONSTEXPR
 348:/home/hubert/daisy/gcc/arm-none-eabi/include/c++/10.2.1/cmath ****     typename __gnu_cxx::__enable_if<__is_integer<_Tp>::__value, 
 349:/home/hubert/daisy/gcc/arm-none-eabi/include/c++/10.2.1/cmath ****                                     double>::__type
 350:/home/hubert/daisy/gcc/arm-none-eabi/include/c++/10.2.1/cmath ****     log(_Tp __x)
 351:/home/hubert/daisy/gcc/arm-none-eabi/include/c++/10.2.1/cmath ****     { return __builtin_log(__x); }
 352:/home/hubert/daisy/gcc/arm-none-eabi/include/c++/10.2.1/cmath **** 
 353:/home/hubert/daisy/gcc/arm-none-eabi/include/c++/10.2.1/cmath ****   using ::log10;
 354:/home/hubert/daisy/gcc/arm-none-eabi/include/c++/10.2.1/cmath **** 
 355:/home/hubert/daisy/gcc/arm-none-eabi/include/c++/10.2.1/cmath **** #ifndef __CORRECT_ISO_CPP_MATH_H_PROTO
 356:/home/hubert/daisy/gcc/arm-none-eabi/include/c++/10.2.1/cmath ****   inline _GLIBCXX_CONSTEXPR float
 357:/home/hubert/daisy/gcc/arm-none-eabi/include/c++/10.2.1/cmath ****   log10(float __x)
 358:/home/hubert/daisy/gcc/arm-none-eabi/include/c++/10.2.1/cmath ****   { return __builtin_log10f(__x); }
 359:/home/hubert/daisy/gcc/arm-none-eabi/include/c++/10.2.1/cmath **** 
 360:/home/hubert/daisy/gcc/arm-none-eabi/include/c++/10.2.1/cmath ****   inline _GLIBCXX_CONSTEXPR long double
 361:/home/hubert/daisy/gcc/arm-none-eabi/include/c++/10.2.1/cmath ****   log10(long double __x)
 362:/home/hubert/daisy/gcc/arm-none-eabi/include/c++/10.2.1/cmath ****   { return __builtin_log10l(__x); }
 363:/home/hubert/daisy/gcc/arm-none-eabi/include/c++/10.2.1/cmath **** #endif
 364:/home/hubert/daisy/gcc/arm-none-eabi/include/c++/10.2.1/cmath **** 
 365:/home/hubert/daisy/gcc/arm-none-eabi/include/c++/10.2.1/cmath ****   template<typename _Tp>
 366:/home/hubert/daisy/gcc/arm-none-eabi/include/c++/10.2.1/cmath ****     inline _GLIBCXX_CONSTEXPR
 367:/home/hubert/daisy/gcc/arm-none-eabi/include/c++/10.2.1/cmath ****     typename __gnu_cxx::__enable_if<__is_integer<_Tp>::__value,
 368:/home/hubert/daisy/gcc/arm-none-eabi/include/c++/10.2.1/cmath ****                                     double>::__type
 369:/home/hubert/daisy/gcc/arm-none-eabi/include/c++/10.2.1/cmath ****     log10(_Tp __x)
 370:/home/hubert/daisy/gcc/arm-none-eabi/include/c++/10.2.1/cmath ****     { return __builtin_log10(__x); }
 371:/home/hubert/daisy/gcc/arm-none-eabi/include/c++/10.2.1/cmath **** 
 372:/home/hubert/daisy/gcc/arm-none-eabi/include/c++/10.2.1/cmath ****   using ::modf;
 373:/home/hubert/daisy/gcc/arm-none-eabi/include/c++/10.2.1/cmath **** 
 374:/home/hubert/daisy/gcc/arm-none-eabi/include/c++/10.2.1/cmath **** #ifndef __CORRECT_ISO_CPP_MATH_H_PROTO
 375:/home/hubert/daisy/gcc/arm-none-eabi/include/c++/10.2.1/cmath ****   inline float
 376:/home/hubert/daisy/gcc/arm-none-eabi/include/c++/10.2.1/cmath ****   modf(float __x, float* __iptr)
 377:/home/hubert/daisy/gcc/arm-none-eabi/include/c++/10.2.1/cmath ****   { return __builtin_modff(__x, __iptr); }
 378:/home/hubert/daisy/gcc/arm-none-eabi/include/c++/10.2.1/cmath **** 
 379:/home/hubert/daisy/gcc/arm-none-eabi/include/c++/10.2.1/cmath ****   inline long double
 380:/home/hubert/daisy/gcc/arm-none-eabi/include/c++/10.2.1/cmath ****   modf(long double __x, long double* __iptr)
 381:/home/hubert/daisy/gcc/arm-none-eabi/include/c++/10.2.1/cmath ****   { return __builtin_modfl(__x, __iptr); }
 382:/home/hubert/daisy/gcc/arm-none-eabi/include/c++/10.2.1/cmath **** #endif
 383:/home/hubert/daisy/gcc/arm-none-eabi/include/c++/10.2.1/cmath **** 
 384:/home/hubert/daisy/gcc/arm-none-eabi/include/c++/10.2.1/cmath ****   using ::pow;
 385:/home/hubert/daisy/gcc/arm-none-eabi/include/c++/10.2.1/cmath **** 
 386:/home/hubert/daisy/gcc/arm-none-eabi/include/c++/10.2.1/cmath **** #ifndef __CORRECT_ISO_CPP_MATH_H_PROTO
 387:/home/hubert/daisy/gcc/arm-none-eabi/include/c++/10.2.1/cmath ****   inline _GLIBCXX_CONSTEXPR float
 388:/home/hubert/daisy/gcc/arm-none-eabi/include/c++/10.2.1/cmath ****   pow(float __x, float __y)
 389:/home/hubert/daisy/gcc/arm-none-eabi/include/c++/10.2.1/cmath ****   { return __builtin_powf(__x, __y); }
 390:/home/hubert/daisy/gcc/arm-none-eabi/include/c++/10.2.1/cmath **** 
 391:/home/hubert/daisy/gcc/arm-none-eabi/include/c++/10.2.1/cmath ****   inline _GLIBCXX_CONSTEXPR long double
 392:/home/hubert/daisy/gcc/arm-none-eabi/include/c++/10.2.1/cmath ****   pow(long double __x, long double __y)
 393:/home/hubert/daisy/gcc/arm-none-eabi/include/c++/10.2.1/cmath ****   { return __builtin_powl(__x, __y); }
ARM GAS  /tmp/cczoWLZx.s 			page 11


 394:/home/hubert/daisy/gcc/arm-none-eabi/include/c++/10.2.1/cmath **** 
 395:/home/hubert/daisy/gcc/arm-none-eabi/include/c++/10.2.1/cmath **** #if __cplusplus < 201103L
 396:/home/hubert/daisy/gcc/arm-none-eabi/include/c++/10.2.1/cmath ****   // _GLIBCXX_RESOLVE_LIB_DEFECTS
 397:/home/hubert/daisy/gcc/arm-none-eabi/include/c++/10.2.1/cmath ****   // DR 550. What should the return type of pow(float,int) be?
 398:/home/hubert/daisy/gcc/arm-none-eabi/include/c++/10.2.1/cmath ****   inline double
 399:/home/hubert/daisy/gcc/arm-none-eabi/include/c++/10.2.1/cmath ****   pow(double __x, int __i)
 400:/home/hubert/daisy/gcc/arm-none-eabi/include/c++/10.2.1/cmath ****   { return __builtin_powi(__x, __i); }
 401:/home/hubert/daisy/gcc/arm-none-eabi/include/c++/10.2.1/cmath **** 
 402:/home/hubert/daisy/gcc/arm-none-eabi/include/c++/10.2.1/cmath ****   inline float
 403:/home/hubert/daisy/gcc/arm-none-eabi/include/c++/10.2.1/cmath ****   pow(float __x, int __n)
 404:/home/hubert/daisy/gcc/arm-none-eabi/include/c++/10.2.1/cmath ****   { return __builtin_powif(__x, __n); }
 405:/home/hubert/daisy/gcc/arm-none-eabi/include/c++/10.2.1/cmath **** 
 406:/home/hubert/daisy/gcc/arm-none-eabi/include/c++/10.2.1/cmath ****   inline long double
 407:/home/hubert/daisy/gcc/arm-none-eabi/include/c++/10.2.1/cmath ****   pow(long double __x, int __n)
 408:/home/hubert/daisy/gcc/arm-none-eabi/include/c++/10.2.1/cmath ****   { return __builtin_powil(__x, __n); }
 409:/home/hubert/daisy/gcc/arm-none-eabi/include/c++/10.2.1/cmath **** #endif
 410:/home/hubert/daisy/gcc/arm-none-eabi/include/c++/10.2.1/cmath **** #endif
 411:/home/hubert/daisy/gcc/arm-none-eabi/include/c++/10.2.1/cmath **** 
 412:/home/hubert/daisy/gcc/arm-none-eabi/include/c++/10.2.1/cmath ****   template<typename _Tp, typename _Up>
 413:/home/hubert/daisy/gcc/arm-none-eabi/include/c++/10.2.1/cmath ****     inline _GLIBCXX_CONSTEXPR
 414:/home/hubert/daisy/gcc/arm-none-eabi/include/c++/10.2.1/cmath ****     typename __gnu_cxx::__promote_2<_Tp, _Up>::__type
 415:/home/hubert/daisy/gcc/arm-none-eabi/include/c++/10.2.1/cmath ****     pow(_Tp __x, _Up __y)
 416:/home/hubert/daisy/gcc/arm-none-eabi/include/c++/10.2.1/cmath ****     {
 417:/home/hubert/daisy/gcc/arm-none-eabi/include/c++/10.2.1/cmath ****       typedef typename __gnu_cxx::__promote_2<_Tp, _Up>::__type __type;
 418:/home/hubert/daisy/gcc/arm-none-eabi/include/c++/10.2.1/cmath ****       return pow(__type(__x), __type(__y));
 419:/home/hubert/daisy/gcc/arm-none-eabi/include/c++/10.2.1/cmath ****     }
 420:/home/hubert/daisy/gcc/arm-none-eabi/include/c++/10.2.1/cmath **** 
 421:/home/hubert/daisy/gcc/arm-none-eabi/include/c++/10.2.1/cmath ****   using ::sin;
 422:/home/hubert/daisy/gcc/arm-none-eabi/include/c++/10.2.1/cmath **** 
 423:/home/hubert/daisy/gcc/arm-none-eabi/include/c++/10.2.1/cmath **** #ifndef __CORRECT_ISO_CPP_MATH_H_PROTO
 424:/home/hubert/daisy/gcc/arm-none-eabi/include/c++/10.2.1/cmath ****   inline _GLIBCXX_CONSTEXPR float
 425:/home/hubert/daisy/gcc/arm-none-eabi/include/c++/10.2.1/cmath ****   sin(float __x)
 426:/home/hubert/daisy/gcc/arm-none-eabi/include/c++/10.2.1/cmath ****   { return __builtin_sinf(__x); }
 107              		.loc 2 426 3
 108              		.cfi_startproc
 109              		@ args = 0, pretend = 0, frame = 8
 110              		@ frame_needed = 1, uses_anonymous_args = 0
 111 0000 80B5     		push	{r7, lr}
 112              		.cfi_def_cfa_offset 8
 113              		.cfi_offset 7, -8
 114              		.cfi_offset 14, -4
 115 0002 82B0     		sub	sp, sp, #8
 116              		.cfi_def_cfa_offset 16
 117 0004 00AF     		add	r7, sp, #0
 118              		.cfi_def_cfa_register 7
 119 0006 87ED010A 		vstr.32	s0, [r7, #4]
 120              		.loc 2 426 26
 121 000a 97ED010A 		vldr.32	s0, [r7, #4]
 122 000e FFF7FEFF 		bl	sinf
 123 0012 F0EE407A 		vmov.f32	s15, s0
 124              		.loc 2 426 33
 125 0016 B0EE670A 		vmov.f32	s0, s15
 126 001a 0837     		adds	r7, r7, #8
 127              		.cfi_def_cfa_offset 8
 128 001c BD46     		mov	sp, r7
 129              		.cfi_def_cfa_register 13
 130              		@ sp needed
ARM GAS  /tmp/cczoWLZx.s 			page 12


 131 001e 80BD     		pop	{r7, pc}
 132              		.cfi_endproc
 133              	.LFE193:
 135              		.section	.rodata._ZStL19piecewise_construct,"a"
 136              		.align	2
 139              	_ZStL19piecewise_construct:
 140 0000 00       		.space	1
 141              		.section	.text._ZnwjPv,"axG",%progbits,_ZnwjPv,comdat
 142              		.align	1
 143              		.weak	_ZnwjPv
 144              		.syntax unified
 145              		.thumb
 146              		.thumb_func
 147              		.fpu fpv5-d16
 149              	_ZnwjPv:
 150              	.LFB1055:
 151              		.file 3 "/home/hubert/daisy/gcc/arm-none-eabi/include/c++/10.2.1/new"
   1:/home/hubert/daisy/gcc/arm-none-eabi/include/c++/10.2.1/new **** // The -*- C++ -*- dynamic memory management header.
   2:/home/hubert/daisy/gcc/arm-none-eabi/include/c++/10.2.1/new **** 
   3:/home/hubert/daisy/gcc/arm-none-eabi/include/c++/10.2.1/new **** // Copyright (C) 1994-2020 Free Software Foundation, Inc.
   4:/home/hubert/daisy/gcc/arm-none-eabi/include/c++/10.2.1/new **** 
   5:/home/hubert/daisy/gcc/arm-none-eabi/include/c++/10.2.1/new **** // This file is part of GCC.
   6:/home/hubert/daisy/gcc/arm-none-eabi/include/c++/10.2.1/new **** //
   7:/home/hubert/daisy/gcc/arm-none-eabi/include/c++/10.2.1/new **** // GCC is free software; you can redistribute it and/or modify
   8:/home/hubert/daisy/gcc/arm-none-eabi/include/c++/10.2.1/new **** // it under the terms of the GNU General Public License as published by
   9:/home/hubert/daisy/gcc/arm-none-eabi/include/c++/10.2.1/new **** // the Free Software Foundation; either version 3, or (at your option)
  10:/home/hubert/daisy/gcc/arm-none-eabi/include/c++/10.2.1/new **** // any later version.
  11:/home/hubert/daisy/gcc/arm-none-eabi/include/c++/10.2.1/new **** // 
  12:/home/hubert/daisy/gcc/arm-none-eabi/include/c++/10.2.1/new **** // GCC is distributed in the hope that it will be useful,
  13:/home/hubert/daisy/gcc/arm-none-eabi/include/c++/10.2.1/new **** // but WITHOUT ANY WARRANTY; without even the implied warranty of
  14:/home/hubert/daisy/gcc/arm-none-eabi/include/c++/10.2.1/new **** // MERCHANTABILITY or FITNESS FOR A PARTICULAR PURPOSE.  See the
  15:/home/hubert/daisy/gcc/arm-none-eabi/include/c++/10.2.1/new **** // GNU General Public License for more details.
  16:/home/hubert/daisy/gcc/arm-none-eabi/include/c++/10.2.1/new **** // 
  17:/home/hubert/daisy/gcc/arm-none-eabi/include/c++/10.2.1/new **** // Under Section 7 of GPL version 3, you are granted additional
  18:/home/hubert/daisy/gcc/arm-none-eabi/include/c++/10.2.1/new **** // permissions described in the GCC Runtime Library Exception, version
  19:/home/hubert/daisy/gcc/arm-none-eabi/include/c++/10.2.1/new **** // 3.1, as published by the Free Software Foundation.
  20:/home/hubert/daisy/gcc/arm-none-eabi/include/c++/10.2.1/new **** 
  21:/home/hubert/daisy/gcc/arm-none-eabi/include/c++/10.2.1/new **** // You should have received a copy of the GNU General Public License and
  22:/home/hubert/daisy/gcc/arm-none-eabi/include/c++/10.2.1/new **** // a copy of the GCC Runtime Library Exception along with this program;
  23:/home/hubert/daisy/gcc/arm-none-eabi/include/c++/10.2.1/new **** // see the files COPYING3 and COPYING.RUNTIME respectively.  If not, see
  24:/home/hubert/daisy/gcc/arm-none-eabi/include/c++/10.2.1/new **** // <http://www.gnu.org/licenses/>.
  25:/home/hubert/daisy/gcc/arm-none-eabi/include/c++/10.2.1/new **** 
  26:/home/hubert/daisy/gcc/arm-none-eabi/include/c++/10.2.1/new **** /** @file new
  27:/home/hubert/daisy/gcc/arm-none-eabi/include/c++/10.2.1/new ****  *  This is a Standard C++ Library header.
  28:/home/hubert/daisy/gcc/arm-none-eabi/include/c++/10.2.1/new ****  *
  29:/home/hubert/daisy/gcc/arm-none-eabi/include/c++/10.2.1/new ****  *  The header @c new defines several functions to manage dynamic memory and
  30:/home/hubert/daisy/gcc/arm-none-eabi/include/c++/10.2.1/new ****  *  handling memory allocation errors; see
  31:/home/hubert/daisy/gcc/arm-none-eabi/include/c++/10.2.1/new ****  *  https://gcc.gnu.org/onlinedocs/libstdc++/manual/dynamic_memory.html
  32:/home/hubert/daisy/gcc/arm-none-eabi/include/c++/10.2.1/new ****  *  for more.
  33:/home/hubert/daisy/gcc/arm-none-eabi/include/c++/10.2.1/new ****  */
  34:/home/hubert/daisy/gcc/arm-none-eabi/include/c++/10.2.1/new **** 
  35:/home/hubert/daisy/gcc/arm-none-eabi/include/c++/10.2.1/new **** #ifndef _NEW
  36:/home/hubert/daisy/gcc/arm-none-eabi/include/c++/10.2.1/new **** #define _NEW
  37:/home/hubert/daisy/gcc/arm-none-eabi/include/c++/10.2.1/new **** 
  38:/home/hubert/daisy/gcc/arm-none-eabi/include/c++/10.2.1/new **** #pragma GCC system_header
  39:/home/hubert/daisy/gcc/arm-none-eabi/include/c++/10.2.1/new **** 
  40:/home/hubert/daisy/gcc/arm-none-eabi/include/c++/10.2.1/new **** #include <bits/c++config.h>
ARM GAS  /tmp/cczoWLZx.s 			page 13


  41:/home/hubert/daisy/gcc/arm-none-eabi/include/c++/10.2.1/new **** #include <exception>
  42:/home/hubert/daisy/gcc/arm-none-eabi/include/c++/10.2.1/new **** 
  43:/home/hubert/daisy/gcc/arm-none-eabi/include/c++/10.2.1/new **** #pragma GCC visibility push(default)
  44:/home/hubert/daisy/gcc/arm-none-eabi/include/c++/10.2.1/new **** 
  45:/home/hubert/daisy/gcc/arm-none-eabi/include/c++/10.2.1/new **** extern "C++" {
  46:/home/hubert/daisy/gcc/arm-none-eabi/include/c++/10.2.1/new **** 
  47:/home/hubert/daisy/gcc/arm-none-eabi/include/c++/10.2.1/new **** namespace std 
  48:/home/hubert/daisy/gcc/arm-none-eabi/include/c++/10.2.1/new **** {
  49:/home/hubert/daisy/gcc/arm-none-eabi/include/c++/10.2.1/new ****   /**
  50:/home/hubert/daisy/gcc/arm-none-eabi/include/c++/10.2.1/new ****    *  @brief  Exception possibly thrown by @c new.
  51:/home/hubert/daisy/gcc/arm-none-eabi/include/c++/10.2.1/new ****    *  @ingroup exceptions
  52:/home/hubert/daisy/gcc/arm-none-eabi/include/c++/10.2.1/new ****    *
  53:/home/hubert/daisy/gcc/arm-none-eabi/include/c++/10.2.1/new ****    *  @c bad_alloc (or classes derived from it) is used to report allocation
  54:/home/hubert/daisy/gcc/arm-none-eabi/include/c++/10.2.1/new ****    *  errors from the throwing forms of @c new.  */
  55:/home/hubert/daisy/gcc/arm-none-eabi/include/c++/10.2.1/new ****   class bad_alloc : public exception 
  56:/home/hubert/daisy/gcc/arm-none-eabi/include/c++/10.2.1/new ****   {
  57:/home/hubert/daisy/gcc/arm-none-eabi/include/c++/10.2.1/new ****   public:
  58:/home/hubert/daisy/gcc/arm-none-eabi/include/c++/10.2.1/new ****     bad_alloc() throw() { }
  59:/home/hubert/daisy/gcc/arm-none-eabi/include/c++/10.2.1/new **** 
  60:/home/hubert/daisy/gcc/arm-none-eabi/include/c++/10.2.1/new **** #if __cplusplus >= 201103L
  61:/home/hubert/daisy/gcc/arm-none-eabi/include/c++/10.2.1/new ****     bad_alloc(const bad_alloc&) = default;
  62:/home/hubert/daisy/gcc/arm-none-eabi/include/c++/10.2.1/new ****     bad_alloc& operator=(const bad_alloc&) = default;
  63:/home/hubert/daisy/gcc/arm-none-eabi/include/c++/10.2.1/new **** #endif
  64:/home/hubert/daisy/gcc/arm-none-eabi/include/c++/10.2.1/new **** 
  65:/home/hubert/daisy/gcc/arm-none-eabi/include/c++/10.2.1/new ****     // This declaration is not useless:
  66:/home/hubert/daisy/gcc/arm-none-eabi/include/c++/10.2.1/new ****     // http://gcc.gnu.org/onlinedocs/gcc-3.0.2/gcc_6.html#SEC118
  67:/home/hubert/daisy/gcc/arm-none-eabi/include/c++/10.2.1/new ****     virtual ~bad_alloc() throw();
  68:/home/hubert/daisy/gcc/arm-none-eabi/include/c++/10.2.1/new **** 
  69:/home/hubert/daisy/gcc/arm-none-eabi/include/c++/10.2.1/new ****     // See comment in eh_exception.cc.
  70:/home/hubert/daisy/gcc/arm-none-eabi/include/c++/10.2.1/new ****     virtual const char* what() const throw();
  71:/home/hubert/daisy/gcc/arm-none-eabi/include/c++/10.2.1/new ****   };
  72:/home/hubert/daisy/gcc/arm-none-eabi/include/c++/10.2.1/new **** 
  73:/home/hubert/daisy/gcc/arm-none-eabi/include/c++/10.2.1/new **** #if __cplusplus >= 201103L
  74:/home/hubert/daisy/gcc/arm-none-eabi/include/c++/10.2.1/new ****   class bad_array_new_length : public bad_alloc
  75:/home/hubert/daisy/gcc/arm-none-eabi/include/c++/10.2.1/new ****   {
  76:/home/hubert/daisy/gcc/arm-none-eabi/include/c++/10.2.1/new ****   public:
  77:/home/hubert/daisy/gcc/arm-none-eabi/include/c++/10.2.1/new ****     bad_array_new_length() throw() { }
  78:/home/hubert/daisy/gcc/arm-none-eabi/include/c++/10.2.1/new **** 
  79:/home/hubert/daisy/gcc/arm-none-eabi/include/c++/10.2.1/new ****     // This declaration is not useless:
  80:/home/hubert/daisy/gcc/arm-none-eabi/include/c++/10.2.1/new ****     // http://gcc.gnu.org/onlinedocs/gcc-3.0.2/gcc_6.html#SEC118
  81:/home/hubert/daisy/gcc/arm-none-eabi/include/c++/10.2.1/new ****     virtual ~bad_array_new_length() throw();
  82:/home/hubert/daisy/gcc/arm-none-eabi/include/c++/10.2.1/new **** 
  83:/home/hubert/daisy/gcc/arm-none-eabi/include/c++/10.2.1/new ****     // See comment in eh_exception.cc.
  84:/home/hubert/daisy/gcc/arm-none-eabi/include/c++/10.2.1/new ****     virtual const char* what() const throw();
  85:/home/hubert/daisy/gcc/arm-none-eabi/include/c++/10.2.1/new ****   };
  86:/home/hubert/daisy/gcc/arm-none-eabi/include/c++/10.2.1/new **** #endif
  87:/home/hubert/daisy/gcc/arm-none-eabi/include/c++/10.2.1/new **** 
  88:/home/hubert/daisy/gcc/arm-none-eabi/include/c++/10.2.1/new **** #if __cpp_aligned_new
  89:/home/hubert/daisy/gcc/arm-none-eabi/include/c++/10.2.1/new ****   enum class align_val_t: size_t {};
  90:/home/hubert/daisy/gcc/arm-none-eabi/include/c++/10.2.1/new **** #endif
  91:/home/hubert/daisy/gcc/arm-none-eabi/include/c++/10.2.1/new **** 
  92:/home/hubert/daisy/gcc/arm-none-eabi/include/c++/10.2.1/new ****   struct nothrow_t
  93:/home/hubert/daisy/gcc/arm-none-eabi/include/c++/10.2.1/new ****   {
  94:/home/hubert/daisy/gcc/arm-none-eabi/include/c++/10.2.1/new **** #if __cplusplus >= 201103L
  95:/home/hubert/daisy/gcc/arm-none-eabi/include/c++/10.2.1/new ****     explicit nothrow_t() = default;
  96:/home/hubert/daisy/gcc/arm-none-eabi/include/c++/10.2.1/new **** #endif
  97:/home/hubert/daisy/gcc/arm-none-eabi/include/c++/10.2.1/new ****   };
ARM GAS  /tmp/cczoWLZx.s 			page 14


  98:/home/hubert/daisy/gcc/arm-none-eabi/include/c++/10.2.1/new **** 
  99:/home/hubert/daisy/gcc/arm-none-eabi/include/c++/10.2.1/new ****   extern const nothrow_t nothrow;
 100:/home/hubert/daisy/gcc/arm-none-eabi/include/c++/10.2.1/new **** 
 101:/home/hubert/daisy/gcc/arm-none-eabi/include/c++/10.2.1/new ****   /** If you write your own error handler to be called by @c new, it must
 102:/home/hubert/daisy/gcc/arm-none-eabi/include/c++/10.2.1/new ****    *  be of this type.  */
 103:/home/hubert/daisy/gcc/arm-none-eabi/include/c++/10.2.1/new ****   typedef void (*new_handler)();
 104:/home/hubert/daisy/gcc/arm-none-eabi/include/c++/10.2.1/new **** 
 105:/home/hubert/daisy/gcc/arm-none-eabi/include/c++/10.2.1/new ****   /// Takes a replacement handler as the argument, returns the
 106:/home/hubert/daisy/gcc/arm-none-eabi/include/c++/10.2.1/new ****   /// previous handler.
 107:/home/hubert/daisy/gcc/arm-none-eabi/include/c++/10.2.1/new ****   new_handler set_new_handler(new_handler) throw();
 108:/home/hubert/daisy/gcc/arm-none-eabi/include/c++/10.2.1/new **** 
 109:/home/hubert/daisy/gcc/arm-none-eabi/include/c++/10.2.1/new **** #if __cplusplus >= 201103L
 110:/home/hubert/daisy/gcc/arm-none-eabi/include/c++/10.2.1/new ****   /// Return the current new handler.
 111:/home/hubert/daisy/gcc/arm-none-eabi/include/c++/10.2.1/new ****   new_handler get_new_handler() noexcept;
 112:/home/hubert/daisy/gcc/arm-none-eabi/include/c++/10.2.1/new **** #endif
 113:/home/hubert/daisy/gcc/arm-none-eabi/include/c++/10.2.1/new **** } // namespace std
 114:/home/hubert/daisy/gcc/arm-none-eabi/include/c++/10.2.1/new **** 
 115:/home/hubert/daisy/gcc/arm-none-eabi/include/c++/10.2.1/new **** //@{
 116:/home/hubert/daisy/gcc/arm-none-eabi/include/c++/10.2.1/new **** /** These are replaceable signatures:
 117:/home/hubert/daisy/gcc/arm-none-eabi/include/c++/10.2.1/new ****  *  - normal single new and delete (no arguments, throw @c bad_alloc on error)
 118:/home/hubert/daisy/gcc/arm-none-eabi/include/c++/10.2.1/new ****  *  - normal array new and delete (same)
 119:/home/hubert/daisy/gcc/arm-none-eabi/include/c++/10.2.1/new ****  *  - @c nothrow single new and delete (take a @c nothrow argument, return
 120:/home/hubert/daisy/gcc/arm-none-eabi/include/c++/10.2.1/new ****  *    @c NULL on error)
 121:/home/hubert/daisy/gcc/arm-none-eabi/include/c++/10.2.1/new ****  *  - @c nothrow array new and delete (same)
 122:/home/hubert/daisy/gcc/arm-none-eabi/include/c++/10.2.1/new ****  *
 123:/home/hubert/daisy/gcc/arm-none-eabi/include/c++/10.2.1/new ****  *  Placement new and delete signatures (take a memory address argument,
 124:/home/hubert/daisy/gcc/arm-none-eabi/include/c++/10.2.1/new ****  *  does nothing) may not be replaced by a user's program.
 125:/home/hubert/daisy/gcc/arm-none-eabi/include/c++/10.2.1/new **** */
 126:/home/hubert/daisy/gcc/arm-none-eabi/include/c++/10.2.1/new **** _GLIBCXX_NODISCARD void* operator new(std::size_t) _GLIBCXX_THROW (std::bad_alloc)
 127:/home/hubert/daisy/gcc/arm-none-eabi/include/c++/10.2.1/new ****   __attribute__((__externally_visible__));
 128:/home/hubert/daisy/gcc/arm-none-eabi/include/c++/10.2.1/new **** _GLIBCXX_NODISCARD void* operator new[](std::size_t) _GLIBCXX_THROW (std::bad_alloc)
 129:/home/hubert/daisy/gcc/arm-none-eabi/include/c++/10.2.1/new ****   __attribute__((__externally_visible__));
 130:/home/hubert/daisy/gcc/arm-none-eabi/include/c++/10.2.1/new **** void operator delete(void*) _GLIBCXX_USE_NOEXCEPT
 131:/home/hubert/daisy/gcc/arm-none-eabi/include/c++/10.2.1/new ****   __attribute__((__externally_visible__));
 132:/home/hubert/daisy/gcc/arm-none-eabi/include/c++/10.2.1/new **** void operator delete[](void*) _GLIBCXX_USE_NOEXCEPT
 133:/home/hubert/daisy/gcc/arm-none-eabi/include/c++/10.2.1/new ****   __attribute__((__externally_visible__));
 134:/home/hubert/daisy/gcc/arm-none-eabi/include/c++/10.2.1/new **** #if __cpp_sized_deallocation
 135:/home/hubert/daisy/gcc/arm-none-eabi/include/c++/10.2.1/new **** void operator delete(void*, std::size_t) _GLIBCXX_USE_NOEXCEPT
 136:/home/hubert/daisy/gcc/arm-none-eabi/include/c++/10.2.1/new ****   __attribute__((__externally_visible__));
 137:/home/hubert/daisy/gcc/arm-none-eabi/include/c++/10.2.1/new **** void operator delete[](void*, std::size_t) _GLIBCXX_USE_NOEXCEPT
 138:/home/hubert/daisy/gcc/arm-none-eabi/include/c++/10.2.1/new ****   __attribute__((__externally_visible__));
 139:/home/hubert/daisy/gcc/arm-none-eabi/include/c++/10.2.1/new **** #endif
 140:/home/hubert/daisy/gcc/arm-none-eabi/include/c++/10.2.1/new **** _GLIBCXX_NODISCARD void* operator new(std::size_t, const std::nothrow_t&) _GLIBCXX_USE_NOEXCEPT
 141:/home/hubert/daisy/gcc/arm-none-eabi/include/c++/10.2.1/new ****   __attribute__((__externally_visible__, __malloc__));
 142:/home/hubert/daisy/gcc/arm-none-eabi/include/c++/10.2.1/new **** _GLIBCXX_NODISCARD void* operator new[](std::size_t, const std::nothrow_t&) _GLIBCXX_USE_NOEXCEPT
 143:/home/hubert/daisy/gcc/arm-none-eabi/include/c++/10.2.1/new ****   __attribute__((__externally_visible__, __malloc__));
 144:/home/hubert/daisy/gcc/arm-none-eabi/include/c++/10.2.1/new **** void operator delete(void*, const std::nothrow_t&) _GLIBCXX_USE_NOEXCEPT
 145:/home/hubert/daisy/gcc/arm-none-eabi/include/c++/10.2.1/new ****   __attribute__((__externally_visible__));
 146:/home/hubert/daisy/gcc/arm-none-eabi/include/c++/10.2.1/new **** void operator delete[](void*, const std::nothrow_t&) _GLIBCXX_USE_NOEXCEPT
 147:/home/hubert/daisy/gcc/arm-none-eabi/include/c++/10.2.1/new ****   __attribute__((__externally_visible__));
 148:/home/hubert/daisy/gcc/arm-none-eabi/include/c++/10.2.1/new **** #if __cpp_aligned_new
 149:/home/hubert/daisy/gcc/arm-none-eabi/include/c++/10.2.1/new **** _GLIBCXX_NODISCARD void* operator new(std::size_t, std::align_val_t)
 150:/home/hubert/daisy/gcc/arm-none-eabi/include/c++/10.2.1/new ****   __attribute__((__externally_visible__));
 151:/home/hubert/daisy/gcc/arm-none-eabi/include/c++/10.2.1/new **** _GLIBCXX_NODISCARD void* operator new(std::size_t, std::align_val_t, const std::nothrow_t&)
 152:/home/hubert/daisy/gcc/arm-none-eabi/include/c++/10.2.1/new ****   _GLIBCXX_USE_NOEXCEPT __attribute__((__externally_visible__, __malloc__));
 153:/home/hubert/daisy/gcc/arm-none-eabi/include/c++/10.2.1/new **** void operator delete(void*, std::align_val_t)
 154:/home/hubert/daisy/gcc/arm-none-eabi/include/c++/10.2.1/new ****   _GLIBCXX_USE_NOEXCEPT __attribute__((__externally_visible__));
ARM GAS  /tmp/cczoWLZx.s 			page 15


 155:/home/hubert/daisy/gcc/arm-none-eabi/include/c++/10.2.1/new **** void operator delete(void*, std::align_val_t, const std::nothrow_t&)
 156:/home/hubert/daisy/gcc/arm-none-eabi/include/c++/10.2.1/new ****   _GLIBCXX_USE_NOEXCEPT __attribute__((__externally_visible__));
 157:/home/hubert/daisy/gcc/arm-none-eabi/include/c++/10.2.1/new **** _GLIBCXX_NODISCARD void* operator new[](std::size_t, std::align_val_t)
 158:/home/hubert/daisy/gcc/arm-none-eabi/include/c++/10.2.1/new ****   __attribute__((__externally_visible__));
 159:/home/hubert/daisy/gcc/arm-none-eabi/include/c++/10.2.1/new **** _GLIBCXX_NODISCARD void* operator new[](std::size_t, std::align_val_t, const std::nothrow_t&)
 160:/home/hubert/daisy/gcc/arm-none-eabi/include/c++/10.2.1/new ****   _GLIBCXX_USE_NOEXCEPT __attribute__((__externally_visible__, __malloc__));
 161:/home/hubert/daisy/gcc/arm-none-eabi/include/c++/10.2.1/new **** void operator delete[](void*, std::align_val_t)
 162:/home/hubert/daisy/gcc/arm-none-eabi/include/c++/10.2.1/new ****   _GLIBCXX_USE_NOEXCEPT __attribute__((__externally_visible__));
 163:/home/hubert/daisy/gcc/arm-none-eabi/include/c++/10.2.1/new **** void operator delete[](void*, std::align_val_t, const std::nothrow_t&)
 164:/home/hubert/daisy/gcc/arm-none-eabi/include/c++/10.2.1/new ****   _GLIBCXX_USE_NOEXCEPT __attribute__((__externally_visible__));
 165:/home/hubert/daisy/gcc/arm-none-eabi/include/c++/10.2.1/new **** #if __cpp_sized_deallocation
 166:/home/hubert/daisy/gcc/arm-none-eabi/include/c++/10.2.1/new **** void operator delete(void*, std::size_t, std::align_val_t)
 167:/home/hubert/daisy/gcc/arm-none-eabi/include/c++/10.2.1/new ****   _GLIBCXX_USE_NOEXCEPT __attribute__((__externally_visible__));
 168:/home/hubert/daisy/gcc/arm-none-eabi/include/c++/10.2.1/new **** void operator delete[](void*, std::size_t, std::align_val_t)
 169:/home/hubert/daisy/gcc/arm-none-eabi/include/c++/10.2.1/new ****   _GLIBCXX_USE_NOEXCEPT __attribute__((__externally_visible__));
 170:/home/hubert/daisy/gcc/arm-none-eabi/include/c++/10.2.1/new **** #endif // __cpp_sized_deallocation
 171:/home/hubert/daisy/gcc/arm-none-eabi/include/c++/10.2.1/new **** #endif // __cpp_aligned_new
 172:/home/hubert/daisy/gcc/arm-none-eabi/include/c++/10.2.1/new **** 
 173:/home/hubert/daisy/gcc/arm-none-eabi/include/c++/10.2.1/new **** // Default placement versions of operator new.
 174:/home/hubert/daisy/gcc/arm-none-eabi/include/c++/10.2.1/new **** _GLIBCXX_NODISCARD inline void* operator new(std::size_t, void* __p) _GLIBCXX_USE_NOEXCEPT
 175:/home/hubert/daisy/gcc/arm-none-eabi/include/c++/10.2.1/new **** { return __p; }
 152              		.loc 3 175 1
 153              		.cfi_startproc
 154              		@ args = 0, pretend = 0, frame = 8
 155              		@ frame_needed = 1, uses_anonymous_args = 0
 156              		@ link register save eliminated.
 157 0000 80B4     		push	{r7}
 158              		.cfi_def_cfa_offset 4
 159              		.cfi_offset 7, -4
 160 0002 83B0     		sub	sp, sp, #12
 161              		.cfi_def_cfa_offset 16
 162 0004 00AF     		add	r7, sp, #0
 163              		.cfi_def_cfa_register 7
 164 0006 7860     		str	r0, [r7, #4]
 165 0008 3960     		str	r1, [r7]
 166              		.loc 3 175 10
 167 000a 3B68     		ldr	r3, [r7]
 168              		.loc 3 175 15
 169 000c 1846     		mov	r0, r3
 170 000e 0C37     		adds	r7, r7, #12
 171              		.cfi_def_cfa_offset 4
 172 0010 BD46     		mov	sp, r7
 173              		.cfi_def_cfa_register 13
 174              		@ sp needed
 175 0012 5DF8047B 		ldr	r7, [sp], #4
 176              		.cfi_restore 7
 177              		.cfi_def_cfa_offset 0
 178 0016 7047     		bx	lr
 179              		.cfi_endproc
 180              	.LFE1055:
 182              		.section	.text._ZL20__gthread_key_deletei,"ax",%progbits
 183              		.align	1
 184              		.syntax unified
 185              		.thumb
 186              		.thumb_func
 187              		.fpu fpv5-d16
 189              	_ZL20__gthread_key_deletei:
ARM GAS  /tmp/cczoWLZx.s 			page 16


 190              	.LFB1232:
 191              		.file 4 "/home/hubert/daisy/gcc/arm-none-eabi/include/c++/10.2.1/arm-none-eabi/thumb/v7e-m+dp/hard
   1:/home/hubert/daisy/gcc/arm-none-eabi/include/c++/10.2.1/arm-none-eabi/thumb/v7e-m+dp/hard/bits/gthr-default.h **** /* Threads compatibility routines for libgcc2 and libobjc.  */
   2:/home/hubert/daisy/gcc/arm-none-eabi/include/c++/10.2.1/arm-none-eabi/thumb/v7e-m+dp/hard/bits/gthr-default.h **** /* Compile this one with gcc.  */
   3:/home/hubert/daisy/gcc/arm-none-eabi/include/c++/10.2.1/arm-none-eabi/thumb/v7e-m+dp/hard/bits/gthr-default.h **** /* Copyright (C) 1997-2020 Free Software Foundation, Inc.
   4:/home/hubert/daisy/gcc/arm-none-eabi/include/c++/10.2.1/arm-none-eabi/thumb/v7e-m+dp/hard/bits/gthr-default.h **** 
   5:/home/hubert/daisy/gcc/arm-none-eabi/include/c++/10.2.1/arm-none-eabi/thumb/v7e-m+dp/hard/bits/gthr-default.h **** This file is part of GCC.
   6:/home/hubert/daisy/gcc/arm-none-eabi/include/c++/10.2.1/arm-none-eabi/thumb/v7e-m+dp/hard/bits/gthr-default.h **** 
   7:/home/hubert/daisy/gcc/arm-none-eabi/include/c++/10.2.1/arm-none-eabi/thumb/v7e-m+dp/hard/bits/gthr-default.h **** GCC is free software; you can redistribute it and/or modify it under
   8:/home/hubert/daisy/gcc/arm-none-eabi/include/c++/10.2.1/arm-none-eabi/thumb/v7e-m+dp/hard/bits/gthr-default.h **** the terms of the GNU General Public License as published by the Free
   9:/home/hubert/daisy/gcc/arm-none-eabi/include/c++/10.2.1/arm-none-eabi/thumb/v7e-m+dp/hard/bits/gthr-default.h **** Software Foundation; either version 3, or (at your option) any later
  10:/home/hubert/daisy/gcc/arm-none-eabi/include/c++/10.2.1/arm-none-eabi/thumb/v7e-m+dp/hard/bits/gthr-default.h **** version.
  11:/home/hubert/daisy/gcc/arm-none-eabi/include/c++/10.2.1/arm-none-eabi/thumb/v7e-m+dp/hard/bits/gthr-default.h **** 
  12:/home/hubert/daisy/gcc/arm-none-eabi/include/c++/10.2.1/arm-none-eabi/thumb/v7e-m+dp/hard/bits/gthr-default.h **** GCC is distributed in the hope that it will be useful, but WITHOUT ANY
  13:/home/hubert/daisy/gcc/arm-none-eabi/include/c++/10.2.1/arm-none-eabi/thumb/v7e-m+dp/hard/bits/gthr-default.h **** WARRANTY; without even the implied warranty of MERCHANTABILITY or
  14:/home/hubert/daisy/gcc/arm-none-eabi/include/c++/10.2.1/arm-none-eabi/thumb/v7e-m+dp/hard/bits/gthr-default.h **** FITNESS FOR A PARTICULAR PURPOSE.  See the GNU General Public License
  15:/home/hubert/daisy/gcc/arm-none-eabi/include/c++/10.2.1/arm-none-eabi/thumb/v7e-m+dp/hard/bits/gthr-default.h **** for more details.
  16:/home/hubert/daisy/gcc/arm-none-eabi/include/c++/10.2.1/arm-none-eabi/thumb/v7e-m+dp/hard/bits/gthr-default.h **** 
  17:/home/hubert/daisy/gcc/arm-none-eabi/include/c++/10.2.1/arm-none-eabi/thumb/v7e-m+dp/hard/bits/gthr-default.h **** Under Section 7 of GPL version 3, you are granted additional
  18:/home/hubert/daisy/gcc/arm-none-eabi/include/c++/10.2.1/arm-none-eabi/thumb/v7e-m+dp/hard/bits/gthr-default.h **** permissions described in the GCC Runtime Library Exception, version
  19:/home/hubert/daisy/gcc/arm-none-eabi/include/c++/10.2.1/arm-none-eabi/thumb/v7e-m+dp/hard/bits/gthr-default.h **** 3.1, as published by the Free Software Foundation.
  20:/home/hubert/daisy/gcc/arm-none-eabi/include/c++/10.2.1/arm-none-eabi/thumb/v7e-m+dp/hard/bits/gthr-default.h **** 
  21:/home/hubert/daisy/gcc/arm-none-eabi/include/c++/10.2.1/arm-none-eabi/thumb/v7e-m+dp/hard/bits/gthr-default.h **** You should have received a copy of the GNU General Public License and
  22:/home/hubert/daisy/gcc/arm-none-eabi/include/c++/10.2.1/arm-none-eabi/thumb/v7e-m+dp/hard/bits/gthr-default.h **** a copy of the GCC Runtime Library Exception along with this program;
  23:/home/hubert/daisy/gcc/arm-none-eabi/include/c++/10.2.1/arm-none-eabi/thumb/v7e-m+dp/hard/bits/gthr-default.h **** see the files COPYING3 and COPYING.RUNTIME respectively.  If not, see
  24:/home/hubert/daisy/gcc/arm-none-eabi/include/c++/10.2.1/arm-none-eabi/thumb/v7e-m+dp/hard/bits/gthr-default.h **** <http://www.gnu.org/licenses/>.  */
  25:/home/hubert/daisy/gcc/arm-none-eabi/include/c++/10.2.1/arm-none-eabi/thumb/v7e-m+dp/hard/bits/gthr-default.h **** 
  26:/home/hubert/daisy/gcc/arm-none-eabi/include/c++/10.2.1/arm-none-eabi/thumb/v7e-m+dp/hard/bits/gthr-default.h **** #ifndef _GLIBCXX_GCC_GTHR_SINGLE_H
  27:/home/hubert/daisy/gcc/arm-none-eabi/include/c++/10.2.1/arm-none-eabi/thumb/v7e-m+dp/hard/bits/gthr-default.h **** #define _GLIBCXX_GCC_GTHR_SINGLE_H
  28:/home/hubert/daisy/gcc/arm-none-eabi/include/c++/10.2.1/arm-none-eabi/thumb/v7e-m+dp/hard/bits/gthr-default.h **** 
  29:/home/hubert/daisy/gcc/arm-none-eabi/include/c++/10.2.1/arm-none-eabi/thumb/v7e-m+dp/hard/bits/gthr-default.h **** /* Just provide compatibility for mutex handling.  */
  30:/home/hubert/daisy/gcc/arm-none-eabi/include/c++/10.2.1/arm-none-eabi/thumb/v7e-m+dp/hard/bits/gthr-default.h **** 
  31:/home/hubert/daisy/gcc/arm-none-eabi/include/c++/10.2.1/arm-none-eabi/thumb/v7e-m+dp/hard/bits/gthr-default.h **** typedef int __gthread_key_t;
  32:/home/hubert/daisy/gcc/arm-none-eabi/include/c++/10.2.1/arm-none-eabi/thumb/v7e-m+dp/hard/bits/gthr-default.h **** typedef int __gthread_once_t;
  33:/home/hubert/daisy/gcc/arm-none-eabi/include/c++/10.2.1/arm-none-eabi/thumb/v7e-m+dp/hard/bits/gthr-default.h **** typedef int __gthread_mutex_t;
  34:/home/hubert/daisy/gcc/arm-none-eabi/include/c++/10.2.1/arm-none-eabi/thumb/v7e-m+dp/hard/bits/gthr-default.h **** typedef int __gthread_recursive_mutex_t;
  35:/home/hubert/daisy/gcc/arm-none-eabi/include/c++/10.2.1/arm-none-eabi/thumb/v7e-m+dp/hard/bits/gthr-default.h **** 
  36:/home/hubert/daisy/gcc/arm-none-eabi/include/c++/10.2.1/arm-none-eabi/thumb/v7e-m+dp/hard/bits/gthr-default.h **** #define __GTHREAD_ONCE_INIT 0
  37:/home/hubert/daisy/gcc/arm-none-eabi/include/c++/10.2.1/arm-none-eabi/thumb/v7e-m+dp/hard/bits/gthr-default.h **** #define __GTHREAD_MUTEX_INIT 0
  38:/home/hubert/daisy/gcc/arm-none-eabi/include/c++/10.2.1/arm-none-eabi/thumb/v7e-m+dp/hard/bits/gthr-default.h **** #define __GTHREAD_MUTEX_INIT_FUNCTION(mx) do {} while (0)
  39:/home/hubert/daisy/gcc/arm-none-eabi/include/c++/10.2.1/arm-none-eabi/thumb/v7e-m+dp/hard/bits/gthr-default.h **** #define __GTHREAD_RECURSIVE_MUTEX_INIT 0
  40:/home/hubert/daisy/gcc/arm-none-eabi/include/c++/10.2.1/arm-none-eabi/thumb/v7e-m+dp/hard/bits/gthr-default.h **** 
  41:/home/hubert/daisy/gcc/arm-none-eabi/include/c++/10.2.1/arm-none-eabi/thumb/v7e-m+dp/hard/bits/gthr-default.h **** #define _GLIBCXX_UNUSED __attribute__((__unused__))
  42:/home/hubert/daisy/gcc/arm-none-eabi/include/c++/10.2.1/arm-none-eabi/thumb/v7e-m+dp/hard/bits/gthr-default.h **** 
  43:/home/hubert/daisy/gcc/arm-none-eabi/include/c++/10.2.1/arm-none-eabi/thumb/v7e-m+dp/hard/bits/gthr-default.h **** #ifdef _LIBOBJC
  44:/home/hubert/daisy/gcc/arm-none-eabi/include/c++/10.2.1/arm-none-eabi/thumb/v7e-m+dp/hard/bits/gthr-default.h **** 
  45:/home/hubert/daisy/gcc/arm-none-eabi/include/c++/10.2.1/arm-none-eabi/thumb/v7e-m+dp/hard/bits/gthr-default.h **** /* Thread local storage for a single thread */
  46:/home/hubert/daisy/gcc/arm-none-eabi/include/c++/10.2.1/arm-none-eabi/thumb/v7e-m+dp/hard/bits/gthr-default.h **** static void *thread_local_storage = NULL;
  47:/home/hubert/daisy/gcc/arm-none-eabi/include/c++/10.2.1/arm-none-eabi/thumb/v7e-m+dp/hard/bits/gthr-default.h **** 
  48:/home/hubert/daisy/gcc/arm-none-eabi/include/c++/10.2.1/arm-none-eabi/thumb/v7e-m+dp/hard/bits/gthr-default.h **** /* Backend initialization functions */
  49:/home/hubert/daisy/gcc/arm-none-eabi/include/c++/10.2.1/arm-none-eabi/thumb/v7e-m+dp/hard/bits/gthr-default.h **** 
  50:/home/hubert/daisy/gcc/arm-none-eabi/include/c++/10.2.1/arm-none-eabi/thumb/v7e-m+dp/hard/bits/gthr-default.h **** /* Initialize the threads subsystem.  */
  51:/home/hubert/daisy/gcc/arm-none-eabi/include/c++/10.2.1/arm-none-eabi/thumb/v7e-m+dp/hard/bits/gthr-default.h **** static inline int
  52:/home/hubert/daisy/gcc/arm-none-eabi/include/c++/10.2.1/arm-none-eabi/thumb/v7e-m+dp/hard/bits/gthr-default.h **** __gthread_objc_init_thread_system (void)
  53:/home/hubert/daisy/gcc/arm-none-eabi/include/c++/10.2.1/arm-none-eabi/thumb/v7e-m+dp/hard/bits/gthr-default.h **** {
  54:/home/hubert/daisy/gcc/arm-none-eabi/include/c++/10.2.1/arm-none-eabi/thumb/v7e-m+dp/hard/bits/gthr-default.h ****   /* No thread support available */
  55:/home/hubert/daisy/gcc/arm-none-eabi/include/c++/10.2.1/arm-none-eabi/thumb/v7e-m+dp/hard/bits/gthr-default.h ****   return -1;
ARM GAS  /tmp/cczoWLZx.s 			page 17


  56:/home/hubert/daisy/gcc/arm-none-eabi/include/c++/10.2.1/arm-none-eabi/thumb/v7e-m+dp/hard/bits/gthr-default.h **** }
  57:/home/hubert/daisy/gcc/arm-none-eabi/include/c++/10.2.1/arm-none-eabi/thumb/v7e-m+dp/hard/bits/gthr-default.h **** 
  58:/home/hubert/daisy/gcc/arm-none-eabi/include/c++/10.2.1/arm-none-eabi/thumb/v7e-m+dp/hard/bits/gthr-default.h **** /* Close the threads subsystem.  */
  59:/home/hubert/daisy/gcc/arm-none-eabi/include/c++/10.2.1/arm-none-eabi/thumb/v7e-m+dp/hard/bits/gthr-default.h **** static inline int
  60:/home/hubert/daisy/gcc/arm-none-eabi/include/c++/10.2.1/arm-none-eabi/thumb/v7e-m+dp/hard/bits/gthr-default.h **** __gthread_objc_close_thread_system (void)
  61:/home/hubert/daisy/gcc/arm-none-eabi/include/c++/10.2.1/arm-none-eabi/thumb/v7e-m+dp/hard/bits/gthr-default.h **** {
  62:/home/hubert/daisy/gcc/arm-none-eabi/include/c++/10.2.1/arm-none-eabi/thumb/v7e-m+dp/hard/bits/gthr-default.h ****   /* No thread support available */
  63:/home/hubert/daisy/gcc/arm-none-eabi/include/c++/10.2.1/arm-none-eabi/thumb/v7e-m+dp/hard/bits/gthr-default.h ****   return -1;
  64:/home/hubert/daisy/gcc/arm-none-eabi/include/c++/10.2.1/arm-none-eabi/thumb/v7e-m+dp/hard/bits/gthr-default.h **** }
  65:/home/hubert/daisy/gcc/arm-none-eabi/include/c++/10.2.1/arm-none-eabi/thumb/v7e-m+dp/hard/bits/gthr-default.h **** 
  66:/home/hubert/daisy/gcc/arm-none-eabi/include/c++/10.2.1/arm-none-eabi/thumb/v7e-m+dp/hard/bits/gthr-default.h **** /* Backend thread functions */
  67:/home/hubert/daisy/gcc/arm-none-eabi/include/c++/10.2.1/arm-none-eabi/thumb/v7e-m+dp/hard/bits/gthr-default.h **** 
  68:/home/hubert/daisy/gcc/arm-none-eabi/include/c++/10.2.1/arm-none-eabi/thumb/v7e-m+dp/hard/bits/gthr-default.h **** /* Create a new thread of execution.  */
  69:/home/hubert/daisy/gcc/arm-none-eabi/include/c++/10.2.1/arm-none-eabi/thumb/v7e-m+dp/hard/bits/gthr-default.h **** static inline objc_thread_t
  70:/home/hubert/daisy/gcc/arm-none-eabi/include/c++/10.2.1/arm-none-eabi/thumb/v7e-m+dp/hard/bits/gthr-default.h **** __gthread_objc_thread_detach (void (* func)(void *), void * arg _GLIBCXX_UNUSED)
  71:/home/hubert/daisy/gcc/arm-none-eabi/include/c++/10.2.1/arm-none-eabi/thumb/v7e-m+dp/hard/bits/gthr-default.h **** {
  72:/home/hubert/daisy/gcc/arm-none-eabi/include/c++/10.2.1/arm-none-eabi/thumb/v7e-m+dp/hard/bits/gthr-default.h ****   /* No thread support available */
  73:/home/hubert/daisy/gcc/arm-none-eabi/include/c++/10.2.1/arm-none-eabi/thumb/v7e-m+dp/hard/bits/gthr-default.h ****   return NULL;
  74:/home/hubert/daisy/gcc/arm-none-eabi/include/c++/10.2.1/arm-none-eabi/thumb/v7e-m+dp/hard/bits/gthr-default.h **** }
  75:/home/hubert/daisy/gcc/arm-none-eabi/include/c++/10.2.1/arm-none-eabi/thumb/v7e-m+dp/hard/bits/gthr-default.h **** 
  76:/home/hubert/daisy/gcc/arm-none-eabi/include/c++/10.2.1/arm-none-eabi/thumb/v7e-m+dp/hard/bits/gthr-default.h **** /* Set the current thread's priority.  */
  77:/home/hubert/daisy/gcc/arm-none-eabi/include/c++/10.2.1/arm-none-eabi/thumb/v7e-m+dp/hard/bits/gthr-default.h **** static inline int
  78:/home/hubert/daisy/gcc/arm-none-eabi/include/c++/10.2.1/arm-none-eabi/thumb/v7e-m+dp/hard/bits/gthr-default.h **** __gthread_objc_thread_set_priority (int priority _GLIBCXX_UNUSED)
  79:/home/hubert/daisy/gcc/arm-none-eabi/include/c++/10.2.1/arm-none-eabi/thumb/v7e-m+dp/hard/bits/gthr-default.h **** {
  80:/home/hubert/daisy/gcc/arm-none-eabi/include/c++/10.2.1/arm-none-eabi/thumb/v7e-m+dp/hard/bits/gthr-default.h ****   /* No thread support available */
  81:/home/hubert/daisy/gcc/arm-none-eabi/include/c++/10.2.1/arm-none-eabi/thumb/v7e-m+dp/hard/bits/gthr-default.h ****   return -1;
  82:/home/hubert/daisy/gcc/arm-none-eabi/include/c++/10.2.1/arm-none-eabi/thumb/v7e-m+dp/hard/bits/gthr-default.h **** }
  83:/home/hubert/daisy/gcc/arm-none-eabi/include/c++/10.2.1/arm-none-eabi/thumb/v7e-m+dp/hard/bits/gthr-default.h **** 
  84:/home/hubert/daisy/gcc/arm-none-eabi/include/c++/10.2.1/arm-none-eabi/thumb/v7e-m+dp/hard/bits/gthr-default.h **** /* Return the current thread's priority.  */
  85:/home/hubert/daisy/gcc/arm-none-eabi/include/c++/10.2.1/arm-none-eabi/thumb/v7e-m+dp/hard/bits/gthr-default.h **** static inline int
  86:/home/hubert/daisy/gcc/arm-none-eabi/include/c++/10.2.1/arm-none-eabi/thumb/v7e-m+dp/hard/bits/gthr-default.h **** __gthread_objc_thread_get_priority (void)
  87:/home/hubert/daisy/gcc/arm-none-eabi/include/c++/10.2.1/arm-none-eabi/thumb/v7e-m+dp/hard/bits/gthr-default.h **** {
  88:/home/hubert/daisy/gcc/arm-none-eabi/include/c++/10.2.1/arm-none-eabi/thumb/v7e-m+dp/hard/bits/gthr-default.h ****   return OBJC_THREAD_INTERACTIVE_PRIORITY;
  89:/home/hubert/daisy/gcc/arm-none-eabi/include/c++/10.2.1/arm-none-eabi/thumb/v7e-m+dp/hard/bits/gthr-default.h **** }
  90:/home/hubert/daisy/gcc/arm-none-eabi/include/c++/10.2.1/arm-none-eabi/thumb/v7e-m+dp/hard/bits/gthr-default.h **** 
  91:/home/hubert/daisy/gcc/arm-none-eabi/include/c++/10.2.1/arm-none-eabi/thumb/v7e-m+dp/hard/bits/gthr-default.h **** /* Yield our process time to another thread.  */
  92:/home/hubert/daisy/gcc/arm-none-eabi/include/c++/10.2.1/arm-none-eabi/thumb/v7e-m+dp/hard/bits/gthr-default.h **** static inline void
  93:/home/hubert/daisy/gcc/arm-none-eabi/include/c++/10.2.1/arm-none-eabi/thumb/v7e-m+dp/hard/bits/gthr-default.h **** __gthread_objc_thread_yield (void)
  94:/home/hubert/daisy/gcc/arm-none-eabi/include/c++/10.2.1/arm-none-eabi/thumb/v7e-m+dp/hard/bits/gthr-default.h **** {
  95:/home/hubert/daisy/gcc/arm-none-eabi/include/c++/10.2.1/arm-none-eabi/thumb/v7e-m+dp/hard/bits/gthr-default.h ****   return;
  96:/home/hubert/daisy/gcc/arm-none-eabi/include/c++/10.2.1/arm-none-eabi/thumb/v7e-m+dp/hard/bits/gthr-default.h **** }
  97:/home/hubert/daisy/gcc/arm-none-eabi/include/c++/10.2.1/arm-none-eabi/thumb/v7e-m+dp/hard/bits/gthr-default.h **** 
  98:/home/hubert/daisy/gcc/arm-none-eabi/include/c++/10.2.1/arm-none-eabi/thumb/v7e-m+dp/hard/bits/gthr-default.h **** /* Terminate the current thread.  */
  99:/home/hubert/daisy/gcc/arm-none-eabi/include/c++/10.2.1/arm-none-eabi/thumb/v7e-m+dp/hard/bits/gthr-default.h **** static inline int
 100:/home/hubert/daisy/gcc/arm-none-eabi/include/c++/10.2.1/arm-none-eabi/thumb/v7e-m+dp/hard/bits/gthr-default.h **** __gthread_objc_thread_exit (void)
 101:/home/hubert/daisy/gcc/arm-none-eabi/include/c++/10.2.1/arm-none-eabi/thumb/v7e-m+dp/hard/bits/gthr-default.h **** {
 102:/home/hubert/daisy/gcc/arm-none-eabi/include/c++/10.2.1/arm-none-eabi/thumb/v7e-m+dp/hard/bits/gthr-default.h ****   /* No thread support available */
 103:/home/hubert/daisy/gcc/arm-none-eabi/include/c++/10.2.1/arm-none-eabi/thumb/v7e-m+dp/hard/bits/gthr-default.h ****   /* Should we really exit the program */
 104:/home/hubert/daisy/gcc/arm-none-eabi/include/c++/10.2.1/arm-none-eabi/thumb/v7e-m+dp/hard/bits/gthr-default.h ****   /* exit (&__objc_thread_exit_status); */
 105:/home/hubert/daisy/gcc/arm-none-eabi/include/c++/10.2.1/arm-none-eabi/thumb/v7e-m+dp/hard/bits/gthr-default.h ****   return -1;
 106:/home/hubert/daisy/gcc/arm-none-eabi/include/c++/10.2.1/arm-none-eabi/thumb/v7e-m+dp/hard/bits/gthr-default.h **** }
 107:/home/hubert/daisy/gcc/arm-none-eabi/include/c++/10.2.1/arm-none-eabi/thumb/v7e-m+dp/hard/bits/gthr-default.h **** 
 108:/home/hubert/daisy/gcc/arm-none-eabi/include/c++/10.2.1/arm-none-eabi/thumb/v7e-m+dp/hard/bits/gthr-default.h **** /* Returns an integer value which uniquely describes a thread.  */
 109:/home/hubert/daisy/gcc/arm-none-eabi/include/c++/10.2.1/arm-none-eabi/thumb/v7e-m+dp/hard/bits/gthr-default.h **** static inline objc_thread_t
 110:/home/hubert/daisy/gcc/arm-none-eabi/include/c++/10.2.1/arm-none-eabi/thumb/v7e-m+dp/hard/bits/gthr-default.h **** __gthread_objc_thread_id (void)
 111:/home/hubert/daisy/gcc/arm-none-eabi/include/c++/10.2.1/arm-none-eabi/thumb/v7e-m+dp/hard/bits/gthr-default.h **** {
 112:/home/hubert/daisy/gcc/arm-none-eabi/include/c++/10.2.1/arm-none-eabi/thumb/v7e-m+dp/hard/bits/gthr-default.h ****   /* No thread support, use 1.  */
ARM GAS  /tmp/cczoWLZx.s 			page 18


 113:/home/hubert/daisy/gcc/arm-none-eabi/include/c++/10.2.1/arm-none-eabi/thumb/v7e-m+dp/hard/bits/gthr-default.h ****   return (objc_thread_t) 1;
 114:/home/hubert/daisy/gcc/arm-none-eabi/include/c++/10.2.1/arm-none-eabi/thumb/v7e-m+dp/hard/bits/gthr-default.h **** }
 115:/home/hubert/daisy/gcc/arm-none-eabi/include/c++/10.2.1/arm-none-eabi/thumb/v7e-m+dp/hard/bits/gthr-default.h **** 
 116:/home/hubert/daisy/gcc/arm-none-eabi/include/c++/10.2.1/arm-none-eabi/thumb/v7e-m+dp/hard/bits/gthr-default.h **** /* Sets the thread's local storage pointer.  */
 117:/home/hubert/daisy/gcc/arm-none-eabi/include/c++/10.2.1/arm-none-eabi/thumb/v7e-m+dp/hard/bits/gthr-default.h **** static inline int
 118:/home/hubert/daisy/gcc/arm-none-eabi/include/c++/10.2.1/arm-none-eabi/thumb/v7e-m+dp/hard/bits/gthr-default.h **** __gthread_objc_thread_set_data (void *value)
 119:/home/hubert/daisy/gcc/arm-none-eabi/include/c++/10.2.1/arm-none-eabi/thumb/v7e-m+dp/hard/bits/gthr-default.h **** {
 120:/home/hubert/daisy/gcc/arm-none-eabi/include/c++/10.2.1/arm-none-eabi/thumb/v7e-m+dp/hard/bits/gthr-default.h ****   thread_local_storage = value;
 121:/home/hubert/daisy/gcc/arm-none-eabi/include/c++/10.2.1/arm-none-eabi/thumb/v7e-m+dp/hard/bits/gthr-default.h ****   return 0;
 122:/home/hubert/daisy/gcc/arm-none-eabi/include/c++/10.2.1/arm-none-eabi/thumb/v7e-m+dp/hard/bits/gthr-default.h **** }
 123:/home/hubert/daisy/gcc/arm-none-eabi/include/c++/10.2.1/arm-none-eabi/thumb/v7e-m+dp/hard/bits/gthr-default.h **** 
 124:/home/hubert/daisy/gcc/arm-none-eabi/include/c++/10.2.1/arm-none-eabi/thumb/v7e-m+dp/hard/bits/gthr-default.h **** /* Returns the thread's local storage pointer.  */
 125:/home/hubert/daisy/gcc/arm-none-eabi/include/c++/10.2.1/arm-none-eabi/thumb/v7e-m+dp/hard/bits/gthr-default.h **** static inline void *
 126:/home/hubert/daisy/gcc/arm-none-eabi/include/c++/10.2.1/arm-none-eabi/thumb/v7e-m+dp/hard/bits/gthr-default.h **** __gthread_objc_thread_get_data (void)
 127:/home/hubert/daisy/gcc/arm-none-eabi/include/c++/10.2.1/arm-none-eabi/thumb/v7e-m+dp/hard/bits/gthr-default.h **** {
 128:/home/hubert/daisy/gcc/arm-none-eabi/include/c++/10.2.1/arm-none-eabi/thumb/v7e-m+dp/hard/bits/gthr-default.h ****   return thread_local_storage;
 129:/home/hubert/daisy/gcc/arm-none-eabi/include/c++/10.2.1/arm-none-eabi/thumb/v7e-m+dp/hard/bits/gthr-default.h **** }
 130:/home/hubert/daisy/gcc/arm-none-eabi/include/c++/10.2.1/arm-none-eabi/thumb/v7e-m+dp/hard/bits/gthr-default.h **** 
 131:/home/hubert/daisy/gcc/arm-none-eabi/include/c++/10.2.1/arm-none-eabi/thumb/v7e-m+dp/hard/bits/gthr-default.h **** /* Backend mutex functions */
 132:/home/hubert/daisy/gcc/arm-none-eabi/include/c++/10.2.1/arm-none-eabi/thumb/v7e-m+dp/hard/bits/gthr-default.h **** 
 133:/home/hubert/daisy/gcc/arm-none-eabi/include/c++/10.2.1/arm-none-eabi/thumb/v7e-m+dp/hard/bits/gthr-default.h **** /* Allocate a mutex.  */
 134:/home/hubert/daisy/gcc/arm-none-eabi/include/c++/10.2.1/arm-none-eabi/thumb/v7e-m+dp/hard/bits/gthr-default.h **** static inline int
 135:/home/hubert/daisy/gcc/arm-none-eabi/include/c++/10.2.1/arm-none-eabi/thumb/v7e-m+dp/hard/bits/gthr-default.h **** __gthread_objc_mutex_allocate (objc_mutex_t mutex _GLIBCXX_UNUSED)
 136:/home/hubert/daisy/gcc/arm-none-eabi/include/c++/10.2.1/arm-none-eabi/thumb/v7e-m+dp/hard/bits/gthr-default.h **** {
 137:/home/hubert/daisy/gcc/arm-none-eabi/include/c++/10.2.1/arm-none-eabi/thumb/v7e-m+dp/hard/bits/gthr-default.h ****   return 0;
 138:/home/hubert/daisy/gcc/arm-none-eabi/include/c++/10.2.1/arm-none-eabi/thumb/v7e-m+dp/hard/bits/gthr-default.h **** }
 139:/home/hubert/daisy/gcc/arm-none-eabi/include/c++/10.2.1/arm-none-eabi/thumb/v7e-m+dp/hard/bits/gthr-default.h **** 
 140:/home/hubert/daisy/gcc/arm-none-eabi/include/c++/10.2.1/arm-none-eabi/thumb/v7e-m+dp/hard/bits/gthr-default.h **** /* Deallocate a mutex.  */
 141:/home/hubert/daisy/gcc/arm-none-eabi/include/c++/10.2.1/arm-none-eabi/thumb/v7e-m+dp/hard/bits/gthr-default.h **** static inline int
 142:/home/hubert/daisy/gcc/arm-none-eabi/include/c++/10.2.1/arm-none-eabi/thumb/v7e-m+dp/hard/bits/gthr-default.h **** __gthread_objc_mutex_deallocate (objc_mutex_t mutex _GLIBCXX_UNUSED)
 143:/home/hubert/daisy/gcc/arm-none-eabi/include/c++/10.2.1/arm-none-eabi/thumb/v7e-m+dp/hard/bits/gthr-default.h **** {
 144:/home/hubert/daisy/gcc/arm-none-eabi/include/c++/10.2.1/arm-none-eabi/thumb/v7e-m+dp/hard/bits/gthr-default.h ****   return 0;
 145:/home/hubert/daisy/gcc/arm-none-eabi/include/c++/10.2.1/arm-none-eabi/thumb/v7e-m+dp/hard/bits/gthr-default.h **** }
 146:/home/hubert/daisy/gcc/arm-none-eabi/include/c++/10.2.1/arm-none-eabi/thumb/v7e-m+dp/hard/bits/gthr-default.h **** 
 147:/home/hubert/daisy/gcc/arm-none-eabi/include/c++/10.2.1/arm-none-eabi/thumb/v7e-m+dp/hard/bits/gthr-default.h **** /* Grab a lock on a mutex.  */
 148:/home/hubert/daisy/gcc/arm-none-eabi/include/c++/10.2.1/arm-none-eabi/thumb/v7e-m+dp/hard/bits/gthr-default.h **** static inline int
 149:/home/hubert/daisy/gcc/arm-none-eabi/include/c++/10.2.1/arm-none-eabi/thumb/v7e-m+dp/hard/bits/gthr-default.h **** __gthread_objc_mutex_lock (objc_mutex_t mutex _GLIBCXX_UNUSED)
 150:/home/hubert/daisy/gcc/arm-none-eabi/include/c++/10.2.1/arm-none-eabi/thumb/v7e-m+dp/hard/bits/gthr-default.h **** {
 151:/home/hubert/daisy/gcc/arm-none-eabi/include/c++/10.2.1/arm-none-eabi/thumb/v7e-m+dp/hard/bits/gthr-default.h ****   /* There can only be one thread, so we always get the lock */
 152:/home/hubert/daisy/gcc/arm-none-eabi/include/c++/10.2.1/arm-none-eabi/thumb/v7e-m+dp/hard/bits/gthr-default.h ****   return 0;
 153:/home/hubert/daisy/gcc/arm-none-eabi/include/c++/10.2.1/arm-none-eabi/thumb/v7e-m+dp/hard/bits/gthr-default.h **** }
 154:/home/hubert/daisy/gcc/arm-none-eabi/include/c++/10.2.1/arm-none-eabi/thumb/v7e-m+dp/hard/bits/gthr-default.h **** 
 155:/home/hubert/daisy/gcc/arm-none-eabi/include/c++/10.2.1/arm-none-eabi/thumb/v7e-m+dp/hard/bits/gthr-default.h **** /* Try to grab a lock on a mutex.  */
 156:/home/hubert/daisy/gcc/arm-none-eabi/include/c++/10.2.1/arm-none-eabi/thumb/v7e-m+dp/hard/bits/gthr-default.h **** static inline int
 157:/home/hubert/daisy/gcc/arm-none-eabi/include/c++/10.2.1/arm-none-eabi/thumb/v7e-m+dp/hard/bits/gthr-default.h **** __gthread_objc_mutex_trylock (objc_mutex_t mutex _GLIBCXX_UNUSED)
 158:/home/hubert/daisy/gcc/arm-none-eabi/include/c++/10.2.1/arm-none-eabi/thumb/v7e-m+dp/hard/bits/gthr-default.h **** {
 159:/home/hubert/daisy/gcc/arm-none-eabi/include/c++/10.2.1/arm-none-eabi/thumb/v7e-m+dp/hard/bits/gthr-default.h ****   /* There can only be one thread, so we always get the lock */
 160:/home/hubert/daisy/gcc/arm-none-eabi/include/c++/10.2.1/arm-none-eabi/thumb/v7e-m+dp/hard/bits/gthr-default.h ****   return 0;
 161:/home/hubert/daisy/gcc/arm-none-eabi/include/c++/10.2.1/arm-none-eabi/thumb/v7e-m+dp/hard/bits/gthr-default.h **** }
 162:/home/hubert/daisy/gcc/arm-none-eabi/include/c++/10.2.1/arm-none-eabi/thumb/v7e-m+dp/hard/bits/gthr-default.h **** 
 163:/home/hubert/daisy/gcc/arm-none-eabi/include/c++/10.2.1/arm-none-eabi/thumb/v7e-m+dp/hard/bits/gthr-default.h **** /* Unlock the mutex */
 164:/home/hubert/daisy/gcc/arm-none-eabi/include/c++/10.2.1/arm-none-eabi/thumb/v7e-m+dp/hard/bits/gthr-default.h **** static inline int
 165:/home/hubert/daisy/gcc/arm-none-eabi/include/c++/10.2.1/arm-none-eabi/thumb/v7e-m+dp/hard/bits/gthr-default.h **** __gthread_objc_mutex_unlock (objc_mutex_t mutex _GLIBCXX_UNUSED)
 166:/home/hubert/daisy/gcc/arm-none-eabi/include/c++/10.2.1/arm-none-eabi/thumb/v7e-m+dp/hard/bits/gthr-default.h **** {
 167:/home/hubert/daisy/gcc/arm-none-eabi/include/c++/10.2.1/arm-none-eabi/thumb/v7e-m+dp/hard/bits/gthr-default.h ****   return 0;
 168:/home/hubert/daisy/gcc/arm-none-eabi/include/c++/10.2.1/arm-none-eabi/thumb/v7e-m+dp/hard/bits/gthr-default.h **** }
 169:/home/hubert/daisy/gcc/arm-none-eabi/include/c++/10.2.1/arm-none-eabi/thumb/v7e-m+dp/hard/bits/gthr-default.h **** 
ARM GAS  /tmp/cczoWLZx.s 			page 19


 170:/home/hubert/daisy/gcc/arm-none-eabi/include/c++/10.2.1/arm-none-eabi/thumb/v7e-m+dp/hard/bits/gthr-default.h **** /* Backend condition mutex functions */
 171:/home/hubert/daisy/gcc/arm-none-eabi/include/c++/10.2.1/arm-none-eabi/thumb/v7e-m+dp/hard/bits/gthr-default.h **** 
 172:/home/hubert/daisy/gcc/arm-none-eabi/include/c++/10.2.1/arm-none-eabi/thumb/v7e-m+dp/hard/bits/gthr-default.h **** /* Allocate a condition.  */
 173:/home/hubert/daisy/gcc/arm-none-eabi/include/c++/10.2.1/arm-none-eabi/thumb/v7e-m+dp/hard/bits/gthr-default.h **** static inline int
 174:/home/hubert/daisy/gcc/arm-none-eabi/include/c++/10.2.1/arm-none-eabi/thumb/v7e-m+dp/hard/bits/gthr-default.h **** __gthread_objc_condition_allocate (objc_condition_t condition _GLIBCXX_UNUSED)
 175:/home/hubert/daisy/gcc/arm-none-eabi/include/c++/10.2.1/arm-none-eabi/thumb/v7e-m+dp/hard/bits/gthr-default.h **** {
 176:/home/hubert/daisy/gcc/arm-none-eabi/include/c++/10.2.1/arm-none-eabi/thumb/v7e-m+dp/hard/bits/gthr-default.h ****   return 0;
 177:/home/hubert/daisy/gcc/arm-none-eabi/include/c++/10.2.1/arm-none-eabi/thumb/v7e-m+dp/hard/bits/gthr-default.h **** }
 178:/home/hubert/daisy/gcc/arm-none-eabi/include/c++/10.2.1/arm-none-eabi/thumb/v7e-m+dp/hard/bits/gthr-default.h **** 
 179:/home/hubert/daisy/gcc/arm-none-eabi/include/c++/10.2.1/arm-none-eabi/thumb/v7e-m+dp/hard/bits/gthr-default.h **** /* Deallocate a condition.  */
 180:/home/hubert/daisy/gcc/arm-none-eabi/include/c++/10.2.1/arm-none-eabi/thumb/v7e-m+dp/hard/bits/gthr-default.h **** static inline int
 181:/home/hubert/daisy/gcc/arm-none-eabi/include/c++/10.2.1/arm-none-eabi/thumb/v7e-m+dp/hard/bits/gthr-default.h **** __gthread_objc_condition_deallocate (objc_condition_t condition _GLIBCXX_UNUSED)
 182:/home/hubert/daisy/gcc/arm-none-eabi/include/c++/10.2.1/arm-none-eabi/thumb/v7e-m+dp/hard/bits/gthr-default.h **** {
 183:/home/hubert/daisy/gcc/arm-none-eabi/include/c++/10.2.1/arm-none-eabi/thumb/v7e-m+dp/hard/bits/gthr-default.h ****   return 0;
 184:/home/hubert/daisy/gcc/arm-none-eabi/include/c++/10.2.1/arm-none-eabi/thumb/v7e-m+dp/hard/bits/gthr-default.h **** }
 185:/home/hubert/daisy/gcc/arm-none-eabi/include/c++/10.2.1/arm-none-eabi/thumb/v7e-m+dp/hard/bits/gthr-default.h **** 
 186:/home/hubert/daisy/gcc/arm-none-eabi/include/c++/10.2.1/arm-none-eabi/thumb/v7e-m+dp/hard/bits/gthr-default.h **** /* Wait on the condition */
 187:/home/hubert/daisy/gcc/arm-none-eabi/include/c++/10.2.1/arm-none-eabi/thumb/v7e-m+dp/hard/bits/gthr-default.h **** static inline int
 188:/home/hubert/daisy/gcc/arm-none-eabi/include/c++/10.2.1/arm-none-eabi/thumb/v7e-m+dp/hard/bits/gthr-default.h **** __gthread_objc_condition_wait (objc_condition_t condition _GLIBCXX_UNUSED,
 189:/home/hubert/daisy/gcc/arm-none-eabi/include/c++/10.2.1/arm-none-eabi/thumb/v7e-m+dp/hard/bits/gthr-default.h **** 			       objc_mutex_t mutex _GLIBCXX_UNUSED)
 190:/home/hubert/daisy/gcc/arm-none-eabi/include/c++/10.2.1/arm-none-eabi/thumb/v7e-m+dp/hard/bits/gthr-default.h **** {
 191:/home/hubert/daisy/gcc/arm-none-eabi/include/c++/10.2.1/arm-none-eabi/thumb/v7e-m+dp/hard/bits/gthr-default.h ****   return 0;
 192:/home/hubert/daisy/gcc/arm-none-eabi/include/c++/10.2.1/arm-none-eabi/thumb/v7e-m+dp/hard/bits/gthr-default.h **** }
 193:/home/hubert/daisy/gcc/arm-none-eabi/include/c++/10.2.1/arm-none-eabi/thumb/v7e-m+dp/hard/bits/gthr-default.h **** 
 194:/home/hubert/daisy/gcc/arm-none-eabi/include/c++/10.2.1/arm-none-eabi/thumb/v7e-m+dp/hard/bits/gthr-default.h **** /* Wake up all threads waiting on this condition.  */
 195:/home/hubert/daisy/gcc/arm-none-eabi/include/c++/10.2.1/arm-none-eabi/thumb/v7e-m+dp/hard/bits/gthr-default.h **** static inline int
 196:/home/hubert/daisy/gcc/arm-none-eabi/include/c++/10.2.1/arm-none-eabi/thumb/v7e-m+dp/hard/bits/gthr-default.h **** __gthread_objc_condition_broadcast (objc_condition_t condition _GLIBCXX_UNUSED)
 197:/home/hubert/daisy/gcc/arm-none-eabi/include/c++/10.2.1/arm-none-eabi/thumb/v7e-m+dp/hard/bits/gthr-default.h **** {
 198:/home/hubert/daisy/gcc/arm-none-eabi/include/c++/10.2.1/arm-none-eabi/thumb/v7e-m+dp/hard/bits/gthr-default.h ****   return 0;
 199:/home/hubert/daisy/gcc/arm-none-eabi/include/c++/10.2.1/arm-none-eabi/thumb/v7e-m+dp/hard/bits/gthr-default.h **** }
 200:/home/hubert/daisy/gcc/arm-none-eabi/include/c++/10.2.1/arm-none-eabi/thumb/v7e-m+dp/hard/bits/gthr-default.h **** 
 201:/home/hubert/daisy/gcc/arm-none-eabi/include/c++/10.2.1/arm-none-eabi/thumb/v7e-m+dp/hard/bits/gthr-default.h **** /* Wake up one thread waiting on this condition.  */
 202:/home/hubert/daisy/gcc/arm-none-eabi/include/c++/10.2.1/arm-none-eabi/thumb/v7e-m+dp/hard/bits/gthr-default.h **** static inline int
 203:/home/hubert/daisy/gcc/arm-none-eabi/include/c++/10.2.1/arm-none-eabi/thumb/v7e-m+dp/hard/bits/gthr-default.h **** __gthread_objc_condition_signal (objc_condition_t condition _GLIBCXX_UNUSED)
 204:/home/hubert/daisy/gcc/arm-none-eabi/include/c++/10.2.1/arm-none-eabi/thumb/v7e-m+dp/hard/bits/gthr-default.h **** {
 205:/home/hubert/daisy/gcc/arm-none-eabi/include/c++/10.2.1/arm-none-eabi/thumb/v7e-m+dp/hard/bits/gthr-default.h ****   return 0;
 206:/home/hubert/daisy/gcc/arm-none-eabi/include/c++/10.2.1/arm-none-eabi/thumb/v7e-m+dp/hard/bits/gthr-default.h **** }
 207:/home/hubert/daisy/gcc/arm-none-eabi/include/c++/10.2.1/arm-none-eabi/thumb/v7e-m+dp/hard/bits/gthr-default.h **** 
 208:/home/hubert/daisy/gcc/arm-none-eabi/include/c++/10.2.1/arm-none-eabi/thumb/v7e-m+dp/hard/bits/gthr-default.h **** #else /* _LIBOBJC */
 209:/home/hubert/daisy/gcc/arm-none-eabi/include/c++/10.2.1/arm-none-eabi/thumb/v7e-m+dp/hard/bits/gthr-default.h **** 
 210:/home/hubert/daisy/gcc/arm-none-eabi/include/c++/10.2.1/arm-none-eabi/thumb/v7e-m+dp/hard/bits/gthr-default.h **** static inline int
 211:/home/hubert/daisy/gcc/arm-none-eabi/include/c++/10.2.1/arm-none-eabi/thumb/v7e-m+dp/hard/bits/gthr-default.h **** __gthread_active_p (void)
 212:/home/hubert/daisy/gcc/arm-none-eabi/include/c++/10.2.1/arm-none-eabi/thumb/v7e-m+dp/hard/bits/gthr-default.h **** {
 213:/home/hubert/daisy/gcc/arm-none-eabi/include/c++/10.2.1/arm-none-eabi/thumb/v7e-m+dp/hard/bits/gthr-default.h ****   return 0;
 214:/home/hubert/daisy/gcc/arm-none-eabi/include/c++/10.2.1/arm-none-eabi/thumb/v7e-m+dp/hard/bits/gthr-default.h **** }
 215:/home/hubert/daisy/gcc/arm-none-eabi/include/c++/10.2.1/arm-none-eabi/thumb/v7e-m+dp/hard/bits/gthr-default.h **** 
 216:/home/hubert/daisy/gcc/arm-none-eabi/include/c++/10.2.1/arm-none-eabi/thumb/v7e-m+dp/hard/bits/gthr-default.h **** static inline int
 217:/home/hubert/daisy/gcc/arm-none-eabi/include/c++/10.2.1/arm-none-eabi/thumb/v7e-m+dp/hard/bits/gthr-default.h **** __gthread_once (__gthread_once_t *__once _GLIBCXX_UNUSED, void (*__func) (void) _GLIBCXX_UNUSED)
 218:/home/hubert/daisy/gcc/arm-none-eabi/include/c++/10.2.1/arm-none-eabi/thumb/v7e-m+dp/hard/bits/gthr-default.h **** {
 219:/home/hubert/daisy/gcc/arm-none-eabi/include/c++/10.2.1/arm-none-eabi/thumb/v7e-m+dp/hard/bits/gthr-default.h ****   return 0;
 220:/home/hubert/daisy/gcc/arm-none-eabi/include/c++/10.2.1/arm-none-eabi/thumb/v7e-m+dp/hard/bits/gthr-default.h **** }
 221:/home/hubert/daisy/gcc/arm-none-eabi/include/c++/10.2.1/arm-none-eabi/thumb/v7e-m+dp/hard/bits/gthr-default.h **** 
 222:/home/hubert/daisy/gcc/arm-none-eabi/include/c++/10.2.1/arm-none-eabi/thumb/v7e-m+dp/hard/bits/gthr-default.h **** static inline int _GLIBCXX_UNUSED
 223:/home/hubert/daisy/gcc/arm-none-eabi/include/c++/10.2.1/arm-none-eabi/thumb/v7e-m+dp/hard/bits/gthr-default.h **** __gthread_key_create (__gthread_key_t *__key _GLIBCXX_UNUSED, void (*__func) (void *) _GLIBCXX_UNUS
 224:/home/hubert/daisy/gcc/arm-none-eabi/include/c++/10.2.1/arm-none-eabi/thumb/v7e-m+dp/hard/bits/gthr-default.h **** {
 225:/home/hubert/daisy/gcc/arm-none-eabi/include/c++/10.2.1/arm-none-eabi/thumb/v7e-m+dp/hard/bits/gthr-default.h ****   return 0;
 226:/home/hubert/daisy/gcc/arm-none-eabi/include/c++/10.2.1/arm-none-eabi/thumb/v7e-m+dp/hard/bits/gthr-default.h **** }
ARM GAS  /tmp/cczoWLZx.s 			page 20


 227:/home/hubert/daisy/gcc/arm-none-eabi/include/c++/10.2.1/arm-none-eabi/thumb/v7e-m+dp/hard/bits/gthr-default.h **** 
 228:/home/hubert/daisy/gcc/arm-none-eabi/include/c++/10.2.1/arm-none-eabi/thumb/v7e-m+dp/hard/bits/gthr-default.h **** static int _GLIBCXX_UNUSED
 229:/home/hubert/daisy/gcc/arm-none-eabi/include/c++/10.2.1/arm-none-eabi/thumb/v7e-m+dp/hard/bits/gthr-default.h **** __gthread_key_delete (__gthread_key_t __key _GLIBCXX_UNUSED)
 230:/home/hubert/daisy/gcc/arm-none-eabi/include/c++/10.2.1/arm-none-eabi/thumb/v7e-m+dp/hard/bits/gthr-default.h **** {
 192              		.loc 4 230 1
 193              		.cfi_startproc
 194              		@ args = 0, pretend = 0, frame = 8
 195              		@ frame_needed = 1, uses_anonymous_args = 0
 196              		@ link register save eliminated.
 197 0000 80B4     		push	{r7}
 198              		.cfi_def_cfa_offset 4
 199              		.cfi_offset 7, -4
 200 0002 83B0     		sub	sp, sp, #12
 201              		.cfi_def_cfa_offset 16
 202 0004 00AF     		add	r7, sp, #0
 203              		.cfi_def_cfa_register 7
 204 0006 7860     		str	r0, [r7, #4]
 231:/home/hubert/daisy/gcc/arm-none-eabi/include/c++/10.2.1/arm-none-eabi/thumb/v7e-m+dp/hard/bits/gthr-default.h ****   return 0;
 205              		.loc 4 231 10
 206 0008 0023     		movs	r3, #0
 232:/home/hubert/daisy/gcc/arm-none-eabi/include/c++/10.2.1/arm-none-eabi/thumb/v7e-m+dp/hard/bits/gthr-default.h **** }
 207              		.loc 4 232 1
 208 000a 1846     		mov	r0, r3
 209 000c 0C37     		adds	r7, r7, #12
 210              		.cfi_def_cfa_offset 4
 211 000e BD46     		mov	sp, r7
 212              		.cfi_def_cfa_register 13
 213              		@ sp needed
 214 0010 5DF8047B 		ldr	r7, [sp], #4
 215              		.cfi_restore 7
 216              		.cfi_def_cfa_offset 0
 217 0014 7047     		bx	lr
 218              		.cfi_endproc
 219              	.LFE1232:
 221              		.section	.text._ZNSt7__cxx119to_stringEi,"axG",%progbits,_ZNSt7__cxx119to_stringEi,comdat
 222              		.align	1
 223              		.weak	_ZNSt7__cxx119to_stringEi
 224              		.syntax unified
 225              		.thumb
 226              		.thumb_func
 227              		.fpu fpv5-d16
 229              	_ZNSt7__cxx119to_stringEi:
 230              	.LFB1501:
 231              		.file 5 "/home/hubert/daisy/gcc/arm-none-eabi/include/c++/10.2.1/bits/basic_string.h"
   1:/home/hubert/daisy/gcc/arm-none-eabi/include/c++/10.2.1/bits/basic_string.h **** // Components for manipulating sequences of characters -*- C++ -*-
   2:/home/hubert/daisy/gcc/arm-none-eabi/include/c++/10.2.1/bits/basic_string.h **** 
   3:/home/hubert/daisy/gcc/arm-none-eabi/include/c++/10.2.1/bits/basic_string.h **** // Copyright (C) 1997-2020 Free Software Foundation, Inc.
   4:/home/hubert/daisy/gcc/arm-none-eabi/include/c++/10.2.1/bits/basic_string.h **** //
   5:/home/hubert/daisy/gcc/arm-none-eabi/include/c++/10.2.1/bits/basic_string.h **** // This file is part of the GNU ISO C++ Library.  This library is free
   6:/home/hubert/daisy/gcc/arm-none-eabi/include/c++/10.2.1/bits/basic_string.h **** // software; you can redistribute it and/or modify it under the
   7:/home/hubert/daisy/gcc/arm-none-eabi/include/c++/10.2.1/bits/basic_string.h **** // terms of the GNU General Public License as published by the
   8:/home/hubert/daisy/gcc/arm-none-eabi/include/c++/10.2.1/bits/basic_string.h **** // Free Software Foundation; either version 3, or (at your option)
   9:/home/hubert/daisy/gcc/arm-none-eabi/include/c++/10.2.1/bits/basic_string.h **** // any later version.
  10:/home/hubert/daisy/gcc/arm-none-eabi/include/c++/10.2.1/bits/basic_string.h **** 
  11:/home/hubert/daisy/gcc/arm-none-eabi/include/c++/10.2.1/bits/basic_string.h **** // This library is distributed in the hope that it will be useful,
  12:/home/hubert/daisy/gcc/arm-none-eabi/include/c++/10.2.1/bits/basic_string.h **** // but WITHOUT ANY WARRANTY; without even the implied warranty of
  13:/home/hubert/daisy/gcc/arm-none-eabi/include/c++/10.2.1/bits/basic_string.h **** // MERCHANTABILITY or FITNESS FOR A PARTICULAR PURPOSE.  See the
ARM GAS  /tmp/cczoWLZx.s 			page 21


  14:/home/hubert/daisy/gcc/arm-none-eabi/include/c++/10.2.1/bits/basic_string.h **** // GNU General Public License for more details.
  15:/home/hubert/daisy/gcc/arm-none-eabi/include/c++/10.2.1/bits/basic_string.h **** 
  16:/home/hubert/daisy/gcc/arm-none-eabi/include/c++/10.2.1/bits/basic_string.h **** // Under Section 7 of GPL version 3, you are granted additional
  17:/home/hubert/daisy/gcc/arm-none-eabi/include/c++/10.2.1/bits/basic_string.h **** // permissions described in the GCC Runtime Library Exception, version
  18:/home/hubert/daisy/gcc/arm-none-eabi/include/c++/10.2.1/bits/basic_string.h **** // 3.1, as published by the Free Software Foundation.
  19:/home/hubert/daisy/gcc/arm-none-eabi/include/c++/10.2.1/bits/basic_string.h **** 
  20:/home/hubert/daisy/gcc/arm-none-eabi/include/c++/10.2.1/bits/basic_string.h **** // You should have received a copy of the GNU General Public License and
  21:/home/hubert/daisy/gcc/arm-none-eabi/include/c++/10.2.1/bits/basic_string.h **** // a copy of the GCC Runtime Library Exception along with this program;
  22:/home/hubert/daisy/gcc/arm-none-eabi/include/c++/10.2.1/bits/basic_string.h **** // see the files COPYING3 and COPYING.RUNTIME respectively.  If not, see
  23:/home/hubert/daisy/gcc/arm-none-eabi/include/c++/10.2.1/bits/basic_string.h **** // <http://www.gnu.org/licenses/>.
  24:/home/hubert/daisy/gcc/arm-none-eabi/include/c++/10.2.1/bits/basic_string.h **** 
  25:/home/hubert/daisy/gcc/arm-none-eabi/include/c++/10.2.1/bits/basic_string.h **** /** @file bits/basic_string.h
  26:/home/hubert/daisy/gcc/arm-none-eabi/include/c++/10.2.1/bits/basic_string.h ****  *  This is an internal header file, included by other library headers.
  27:/home/hubert/daisy/gcc/arm-none-eabi/include/c++/10.2.1/bits/basic_string.h ****  *  Do not attempt to use it directly. @headername{string}
  28:/home/hubert/daisy/gcc/arm-none-eabi/include/c++/10.2.1/bits/basic_string.h ****  */
  29:/home/hubert/daisy/gcc/arm-none-eabi/include/c++/10.2.1/bits/basic_string.h **** 
  30:/home/hubert/daisy/gcc/arm-none-eabi/include/c++/10.2.1/bits/basic_string.h **** //
  31:/home/hubert/daisy/gcc/arm-none-eabi/include/c++/10.2.1/bits/basic_string.h **** // ISO C++ 14882: 21 Strings library
  32:/home/hubert/daisy/gcc/arm-none-eabi/include/c++/10.2.1/bits/basic_string.h **** //
  33:/home/hubert/daisy/gcc/arm-none-eabi/include/c++/10.2.1/bits/basic_string.h **** 
  34:/home/hubert/daisy/gcc/arm-none-eabi/include/c++/10.2.1/bits/basic_string.h **** #ifndef _BASIC_STRING_H
  35:/home/hubert/daisy/gcc/arm-none-eabi/include/c++/10.2.1/bits/basic_string.h **** #define _BASIC_STRING_H 1
  36:/home/hubert/daisy/gcc/arm-none-eabi/include/c++/10.2.1/bits/basic_string.h **** 
  37:/home/hubert/daisy/gcc/arm-none-eabi/include/c++/10.2.1/bits/basic_string.h **** #pragma GCC system_header
  38:/home/hubert/daisy/gcc/arm-none-eabi/include/c++/10.2.1/bits/basic_string.h **** 
  39:/home/hubert/daisy/gcc/arm-none-eabi/include/c++/10.2.1/bits/basic_string.h **** #include <ext/atomicity.h>
  40:/home/hubert/daisy/gcc/arm-none-eabi/include/c++/10.2.1/bits/basic_string.h **** #include <ext/alloc_traits.h>
  41:/home/hubert/daisy/gcc/arm-none-eabi/include/c++/10.2.1/bits/basic_string.h **** #include <debug/debug.h>
  42:/home/hubert/daisy/gcc/arm-none-eabi/include/c++/10.2.1/bits/basic_string.h **** 
  43:/home/hubert/daisy/gcc/arm-none-eabi/include/c++/10.2.1/bits/basic_string.h **** #if __cplusplus >= 201103L
  44:/home/hubert/daisy/gcc/arm-none-eabi/include/c++/10.2.1/bits/basic_string.h **** #include <initializer_list>
  45:/home/hubert/daisy/gcc/arm-none-eabi/include/c++/10.2.1/bits/basic_string.h **** #endif
  46:/home/hubert/daisy/gcc/arm-none-eabi/include/c++/10.2.1/bits/basic_string.h **** 
  47:/home/hubert/daisy/gcc/arm-none-eabi/include/c++/10.2.1/bits/basic_string.h **** #if __cplusplus >= 201703L
  48:/home/hubert/daisy/gcc/arm-none-eabi/include/c++/10.2.1/bits/basic_string.h **** # include <string_view>
  49:/home/hubert/daisy/gcc/arm-none-eabi/include/c++/10.2.1/bits/basic_string.h **** #endif
  50:/home/hubert/daisy/gcc/arm-none-eabi/include/c++/10.2.1/bits/basic_string.h **** 
  51:/home/hubert/daisy/gcc/arm-none-eabi/include/c++/10.2.1/bits/basic_string.h **** 
  52:/home/hubert/daisy/gcc/arm-none-eabi/include/c++/10.2.1/bits/basic_string.h **** namespace std _GLIBCXX_VISIBILITY(default)
  53:/home/hubert/daisy/gcc/arm-none-eabi/include/c++/10.2.1/bits/basic_string.h **** {
  54:/home/hubert/daisy/gcc/arm-none-eabi/include/c++/10.2.1/bits/basic_string.h **** _GLIBCXX_BEGIN_NAMESPACE_VERSION
  55:/home/hubert/daisy/gcc/arm-none-eabi/include/c++/10.2.1/bits/basic_string.h **** 
  56:/home/hubert/daisy/gcc/arm-none-eabi/include/c++/10.2.1/bits/basic_string.h **** #if _GLIBCXX_USE_CXX11_ABI
  57:/home/hubert/daisy/gcc/arm-none-eabi/include/c++/10.2.1/bits/basic_string.h **** _GLIBCXX_BEGIN_NAMESPACE_CXX11
  58:/home/hubert/daisy/gcc/arm-none-eabi/include/c++/10.2.1/bits/basic_string.h ****   /**
  59:/home/hubert/daisy/gcc/arm-none-eabi/include/c++/10.2.1/bits/basic_string.h ****    *  @class basic_string basic_string.h <string>
  60:/home/hubert/daisy/gcc/arm-none-eabi/include/c++/10.2.1/bits/basic_string.h ****    *  @brief  Managing sequences of characters and character-like objects.
  61:/home/hubert/daisy/gcc/arm-none-eabi/include/c++/10.2.1/bits/basic_string.h ****    *
  62:/home/hubert/daisy/gcc/arm-none-eabi/include/c++/10.2.1/bits/basic_string.h ****    *  @ingroup strings
  63:/home/hubert/daisy/gcc/arm-none-eabi/include/c++/10.2.1/bits/basic_string.h ****    *  @ingroup sequences
  64:/home/hubert/daisy/gcc/arm-none-eabi/include/c++/10.2.1/bits/basic_string.h ****    *
  65:/home/hubert/daisy/gcc/arm-none-eabi/include/c++/10.2.1/bits/basic_string.h ****    *  @tparam _CharT  Type of character
  66:/home/hubert/daisy/gcc/arm-none-eabi/include/c++/10.2.1/bits/basic_string.h ****    *  @tparam _Traits  Traits for character type, defaults to
  67:/home/hubert/daisy/gcc/arm-none-eabi/include/c++/10.2.1/bits/basic_string.h ****    *                   char_traits<_CharT>.
  68:/home/hubert/daisy/gcc/arm-none-eabi/include/c++/10.2.1/bits/basic_string.h ****    *  @tparam _Alloc  Allocator type, defaults to allocator<_CharT>.
  69:/home/hubert/daisy/gcc/arm-none-eabi/include/c++/10.2.1/bits/basic_string.h ****    *
  70:/home/hubert/daisy/gcc/arm-none-eabi/include/c++/10.2.1/bits/basic_string.h ****    *  Meets the requirements of a <a href="tables.html#65">container</a>, a
ARM GAS  /tmp/cczoWLZx.s 			page 22


  71:/home/hubert/daisy/gcc/arm-none-eabi/include/c++/10.2.1/bits/basic_string.h ****    *  <a href="tables.html#66">reversible container</a>, and a
  72:/home/hubert/daisy/gcc/arm-none-eabi/include/c++/10.2.1/bits/basic_string.h ****    *  <a href="tables.html#67">sequence</a>.  Of the
  73:/home/hubert/daisy/gcc/arm-none-eabi/include/c++/10.2.1/bits/basic_string.h ****    *  <a href="tables.html#68">optional sequence requirements</a>, only
  74:/home/hubert/daisy/gcc/arm-none-eabi/include/c++/10.2.1/bits/basic_string.h ****    *  @c push_back, @c at, and @c %array access are supported.
  75:/home/hubert/daisy/gcc/arm-none-eabi/include/c++/10.2.1/bits/basic_string.h ****    */
  76:/home/hubert/daisy/gcc/arm-none-eabi/include/c++/10.2.1/bits/basic_string.h ****   template<typename _CharT, typename _Traits, typename _Alloc>
  77:/home/hubert/daisy/gcc/arm-none-eabi/include/c++/10.2.1/bits/basic_string.h ****     class basic_string
  78:/home/hubert/daisy/gcc/arm-none-eabi/include/c++/10.2.1/bits/basic_string.h ****     {
  79:/home/hubert/daisy/gcc/arm-none-eabi/include/c++/10.2.1/bits/basic_string.h ****       typedef typename __gnu_cxx::__alloc_traits<_Alloc>::template
  80:/home/hubert/daisy/gcc/arm-none-eabi/include/c++/10.2.1/bits/basic_string.h **** 	rebind<_CharT>::other _Char_alloc_type;
  81:/home/hubert/daisy/gcc/arm-none-eabi/include/c++/10.2.1/bits/basic_string.h ****       typedef __gnu_cxx::__alloc_traits<_Char_alloc_type> _Alloc_traits;
  82:/home/hubert/daisy/gcc/arm-none-eabi/include/c++/10.2.1/bits/basic_string.h **** 
  83:/home/hubert/daisy/gcc/arm-none-eabi/include/c++/10.2.1/bits/basic_string.h ****       // Types:
  84:/home/hubert/daisy/gcc/arm-none-eabi/include/c++/10.2.1/bits/basic_string.h ****     public:
  85:/home/hubert/daisy/gcc/arm-none-eabi/include/c++/10.2.1/bits/basic_string.h ****       typedef _Traits					traits_type;
  86:/home/hubert/daisy/gcc/arm-none-eabi/include/c++/10.2.1/bits/basic_string.h ****       typedef typename _Traits::char_type		value_type;
  87:/home/hubert/daisy/gcc/arm-none-eabi/include/c++/10.2.1/bits/basic_string.h ****       typedef _Char_alloc_type				allocator_type;
  88:/home/hubert/daisy/gcc/arm-none-eabi/include/c++/10.2.1/bits/basic_string.h ****       typedef typename _Alloc_traits::size_type		size_type;
  89:/home/hubert/daisy/gcc/arm-none-eabi/include/c++/10.2.1/bits/basic_string.h ****       typedef typename _Alloc_traits::difference_type	difference_type;
  90:/home/hubert/daisy/gcc/arm-none-eabi/include/c++/10.2.1/bits/basic_string.h ****       typedef typename _Alloc_traits::reference		reference;
  91:/home/hubert/daisy/gcc/arm-none-eabi/include/c++/10.2.1/bits/basic_string.h ****       typedef typename _Alloc_traits::const_reference	const_reference;
  92:/home/hubert/daisy/gcc/arm-none-eabi/include/c++/10.2.1/bits/basic_string.h ****       typedef typename _Alloc_traits::pointer		pointer;
  93:/home/hubert/daisy/gcc/arm-none-eabi/include/c++/10.2.1/bits/basic_string.h ****       typedef typename _Alloc_traits::const_pointer	const_pointer;
  94:/home/hubert/daisy/gcc/arm-none-eabi/include/c++/10.2.1/bits/basic_string.h ****       typedef __gnu_cxx::__normal_iterator<pointer, basic_string>  iterator;
  95:/home/hubert/daisy/gcc/arm-none-eabi/include/c++/10.2.1/bits/basic_string.h ****       typedef __gnu_cxx::__normal_iterator<const_pointer, basic_string>
  96:/home/hubert/daisy/gcc/arm-none-eabi/include/c++/10.2.1/bits/basic_string.h **** 							const_iterator;
  97:/home/hubert/daisy/gcc/arm-none-eabi/include/c++/10.2.1/bits/basic_string.h ****       typedef std::reverse_iterator<const_iterator>	const_reverse_iterator;
  98:/home/hubert/daisy/gcc/arm-none-eabi/include/c++/10.2.1/bits/basic_string.h ****       typedef std::reverse_iterator<iterator>		reverse_iterator;
  99:/home/hubert/daisy/gcc/arm-none-eabi/include/c++/10.2.1/bits/basic_string.h **** 
 100:/home/hubert/daisy/gcc/arm-none-eabi/include/c++/10.2.1/bits/basic_string.h ****       ///  Value returned by various member functions when they fail.
 101:/home/hubert/daisy/gcc/arm-none-eabi/include/c++/10.2.1/bits/basic_string.h ****       static const size_type	npos = static_cast<size_type>(-1);
 102:/home/hubert/daisy/gcc/arm-none-eabi/include/c++/10.2.1/bits/basic_string.h **** 
 103:/home/hubert/daisy/gcc/arm-none-eabi/include/c++/10.2.1/bits/basic_string.h ****     protected:
 104:/home/hubert/daisy/gcc/arm-none-eabi/include/c++/10.2.1/bits/basic_string.h ****       // type used for positions in insert, erase etc.
 105:/home/hubert/daisy/gcc/arm-none-eabi/include/c++/10.2.1/bits/basic_string.h **** #if __cplusplus < 201103L
 106:/home/hubert/daisy/gcc/arm-none-eabi/include/c++/10.2.1/bits/basic_string.h ****       typedef iterator __const_iterator;
 107:/home/hubert/daisy/gcc/arm-none-eabi/include/c++/10.2.1/bits/basic_string.h **** #else
 108:/home/hubert/daisy/gcc/arm-none-eabi/include/c++/10.2.1/bits/basic_string.h ****       typedef const_iterator __const_iterator;
 109:/home/hubert/daisy/gcc/arm-none-eabi/include/c++/10.2.1/bits/basic_string.h **** #endif
 110:/home/hubert/daisy/gcc/arm-none-eabi/include/c++/10.2.1/bits/basic_string.h **** 
 111:/home/hubert/daisy/gcc/arm-none-eabi/include/c++/10.2.1/bits/basic_string.h ****     private:
 112:/home/hubert/daisy/gcc/arm-none-eabi/include/c++/10.2.1/bits/basic_string.h **** #if __cplusplus >= 201703L
 113:/home/hubert/daisy/gcc/arm-none-eabi/include/c++/10.2.1/bits/basic_string.h ****       // A helper type for avoiding boiler-plate.
 114:/home/hubert/daisy/gcc/arm-none-eabi/include/c++/10.2.1/bits/basic_string.h ****       typedef basic_string_view<_CharT, _Traits> __sv_type;
 115:/home/hubert/daisy/gcc/arm-none-eabi/include/c++/10.2.1/bits/basic_string.h **** 
 116:/home/hubert/daisy/gcc/arm-none-eabi/include/c++/10.2.1/bits/basic_string.h ****       template<typename _Tp, typename _Res>
 117:/home/hubert/daisy/gcc/arm-none-eabi/include/c++/10.2.1/bits/basic_string.h **** 	using _If_sv = enable_if_t<
 118:/home/hubert/daisy/gcc/arm-none-eabi/include/c++/10.2.1/bits/basic_string.h **** 	  __and_<is_convertible<const _Tp&, __sv_type>,
 119:/home/hubert/daisy/gcc/arm-none-eabi/include/c++/10.2.1/bits/basic_string.h **** 		 __not_<is_convertible<const _Tp*, const basic_string*>>,
 120:/home/hubert/daisy/gcc/arm-none-eabi/include/c++/10.2.1/bits/basic_string.h **** 		 __not_<is_convertible<const _Tp&, const _CharT*>>>::value,
 121:/home/hubert/daisy/gcc/arm-none-eabi/include/c++/10.2.1/bits/basic_string.h **** 	  _Res>;
 122:/home/hubert/daisy/gcc/arm-none-eabi/include/c++/10.2.1/bits/basic_string.h **** 
 123:/home/hubert/daisy/gcc/arm-none-eabi/include/c++/10.2.1/bits/basic_string.h ****       // Allows an implicit conversion to __sv_type.
 124:/home/hubert/daisy/gcc/arm-none-eabi/include/c++/10.2.1/bits/basic_string.h ****       static __sv_type
 125:/home/hubert/daisy/gcc/arm-none-eabi/include/c++/10.2.1/bits/basic_string.h ****       _S_to_string_view(__sv_type __svt) noexcept
 126:/home/hubert/daisy/gcc/arm-none-eabi/include/c++/10.2.1/bits/basic_string.h ****       { return __svt; }
 127:/home/hubert/daisy/gcc/arm-none-eabi/include/c++/10.2.1/bits/basic_string.h **** 
ARM GAS  /tmp/cczoWLZx.s 			page 23


 128:/home/hubert/daisy/gcc/arm-none-eabi/include/c++/10.2.1/bits/basic_string.h ****       // Wraps a string_view by explicit conversion and thus
 129:/home/hubert/daisy/gcc/arm-none-eabi/include/c++/10.2.1/bits/basic_string.h ****       // allows to add an internal constructor that does not
 130:/home/hubert/daisy/gcc/arm-none-eabi/include/c++/10.2.1/bits/basic_string.h ****       // participate in overload resolution when a string_view
 131:/home/hubert/daisy/gcc/arm-none-eabi/include/c++/10.2.1/bits/basic_string.h ****       // is provided.
 132:/home/hubert/daisy/gcc/arm-none-eabi/include/c++/10.2.1/bits/basic_string.h ****       struct __sv_wrapper
 133:/home/hubert/daisy/gcc/arm-none-eabi/include/c++/10.2.1/bits/basic_string.h ****       {
 134:/home/hubert/daisy/gcc/arm-none-eabi/include/c++/10.2.1/bits/basic_string.h **** 	explicit __sv_wrapper(__sv_type __sv) noexcept : _M_sv(__sv) { }
 135:/home/hubert/daisy/gcc/arm-none-eabi/include/c++/10.2.1/bits/basic_string.h **** 	__sv_type _M_sv;
 136:/home/hubert/daisy/gcc/arm-none-eabi/include/c++/10.2.1/bits/basic_string.h ****       };
 137:/home/hubert/daisy/gcc/arm-none-eabi/include/c++/10.2.1/bits/basic_string.h **** 
 138:/home/hubert/daisy/gcc/arm-none-eabi/include/c++/10.2.1/bits/basic_string.h ****       /**
 139:/home/hubert/daisy/gcc/arm-none-eabi/include/c++/10.2.1/bits/basic_string.h ****        *  @brief  Only internally used: Construct string from a string view
 140:/home/hubert/daisy/gcc/arm-none-eabi/include/c++/10.2.1/bits/basic_string.h ****        *          wrapper.
 141:/home/hubert/daisy/gcc/arm-none-eabi/include/c++/10.2.1/bits/basic_string.h ****        *  @param  __svw  string view wrapper.
 142:/home/hubert/daisy/gcc/arm-none-eabi/include/c++/10.2.1/bits/basic_string.h ****        *  @param  __a  Allocator to use.
 143:/home/hubert/daisy/gcc/arm-none-eabi/include/c++/10.2.1/bits/basic_string.h ****        */
 144:/home/hubert/daisy/gcc/arm-none-eabi/include/c++/10.2.1/bits/basic_string.h ****       explicit
 145:/home/hubert/daisy/gcc/arm-none-eabi/include/c++/10.2.1/bits/basic_string.h ****       basic_string(__sv_wrapper __svw, const _Alloc& __a)
 146:/home/hubert/daisy/gcc/arm-none-eabi/include/c++/10.2.1/bits/basic_string.h ****       : basic_string(__svw._M_sv.data(), __svw._M_sv.size(), __a) { }
 147:/home/hubert/daisy/gcc/arm-none-eabi/include/c++/10.2.1/bits/basic_string.h **** #endif
 148:/home/hubert/daisy/gcc/arm-none-eabi/include/c++/10.2.1/bits/basic_string.h **** 
 149:/home/hubert/daisy/gcc/arm-none-eabi/include/c++/10.2.1/bits/basic_string.h ****       // Use empty-base optimization: http://www.cantrip.org/emptyopt.html
 150:/home/hubert/daisy/gcc/arm-none-eabi/include/c++/10.2.1/bits/basic_string.h ****       struct _Alloc_hider : allocator_type // TODO check __is_final
 151:/home/hubert/daisy/gcc/arm-none-eabi/include/c++/10.2.1/bits/basic_string.h ****       {
 152:/home/hubert/daisy/gcc/arm-none-eabi/include/c++/10.2.1/bits/basic_string.h **** #if __cplusplus < 201103L
 153:/home/hubert/daisy/gcc/arm-none-eabi/include/c++/10.2.1/bits/basic_string.h **** 	_Alloc_hider(pointer __dat, const _Alloc& __a = _Alloc())
 154:/home/hubert/daisy/gcc/arm-none-eabi/include/c++/10.2.1/bits/basic_string.h **** 	: allocator_type(__a), _M_p(__dat) { }
 155:/home/hubert/daisy/gcc/arm-none-eabi/include/c++/10.2.1/bits/basic_string.h **** #else
 156:/home/hubert/daisy/gcc/arm-none-eabi/include/c++/10.2.1/bits/basic_string.h **** 	_Alloc_hider(pointer __dat, const _Alloc& __a)
 157:/home/hubert/daisy/gcc/arm-none-eabi/include/c++/10.2.1/bits/basic_string.h **** 	: allocator_type(__a), _M_p(__dat) { }
 158:/home/hubert/daisy/gcc/arm-none-eabi/include/c++/10.2.1/bits/basic_string.h **** 
 159:/home/hubert/daisy/gcc/arm-none-eabi/include/c++/10.2.1/bits/basic_string.h **** 	_Alloc_hider(pointer __dat, _Alloc&& __a = _Alloc())
 160:/home/hubert/daisy/gcc/arm-none-eabi/include/c++/10.2.1/bits/basic_string.h **** 	: allocator_type(std::move(__a)), _M_p(__dat) { }
 161:/home/hubert/daisy/gcc/arm-none-eabi/include/c++/10.2.1/bits/basic_string.h **** #endif
 162:/home/hubert/daisy/gcc/arm-none-eabi/include/c++/10.2.1/bits/basic_string.h **** 
 163:/home/hubert/daisy/gcc/arm-none-eabi/include/c++/10.2.1/bits/basic_string.h **** 	pointer _M_p; // The actual data.
 164:/home/hubert/daisy/gcc/arm-none-eabi/include/c++/10.2.1/bits/basic_string.h ****       };
 165:/home/hubert/daisy/gcc/arm-none-eabi/include/c++/10.2.1/bits/basic_string.h **** 
 166:/home/hubert/daisy/gcc/arm-none-eabi/include/c++/10.2.1/bits/basic_string.h ****       _Alloc_hider	_M_dataplus;
 167:/home/hubert/daisy/gcc/arm-none-eabi/include/c++/10.2.1/bits/basic_string.h ****       size_type		_M_string_length;
 168:/home/hubert/daisy/gcc/arm-none-eabi/include/c++/10.2.1/bits/basic_string.h **** 
 169:/home/hubert/daisy/gcc/arm-none-eabi/include/c++/10.2.1/bits/basic_string.h ****       enum { _S_local_capacity = 15 / sizeof(_CharT) };
 170:/home/hubert/daisy/gcc/arm-none-eabi/include/c++/10.2.1/bits/basic_string.h **** 
 171:/home/hubert/daisy/gcc/arm-none-eabi/include/c++/10.2.1/bits/basic_string.h ****       union
 172:/home/hubert/daisy/gcc/arm-none-eabi/include/c++/10.2.1/bits/basic_string.h ****       {
 173:/home/hubert/daisy/gcc/arm-none-eabi/include/c++/10.2.1/bits/basic_string.h **** 	_CharT           _M_local_buf[_S_local_capacity + 1];
 174:/home/hubert/daisy/gcc/arm-none-eabi/include/c++/10.2.1/bits/basic_string.h **** 	size_type        _M_allocated_capacity;
 175:/home/hubert/daisy/gcc/arm-none-eabi/include/c++/10.2.1/bits/basic_string.h ****       };
 176:/home/hubert/daisy/gcc/arm-none-eabi/include/c++/10.2.1/bits/basic_string.h **** 
 177:/home/hubert/daisy/gcc/arm-none-eabi/include/c++/10.2.1/bits/basic_string.h ****       void
 178:/home/hubert/daisy/gcc/arm-none-eabi/include/c++/10.2.1/bits/basic_string.h ****       _M_data(pointer __p)
 179:/home/hubert/daisy/gcc/arm-none-eabi/include/c++/10.2.1/bits/basic_string.h ****       { _M_dataplus._M_p = __p; }
 180:/home/hubert/daisy/gcc/arm-none-eabi/include/c++/10.2.1/bits/basic_string.h **** 
 181:/home/hubert/daisy/gcc/arm-none-eabi/include/c++/10.2.1/bits/basic_string.h ****       void
 182:/home/hubert/daisy/gcc/arm-none-eabi/include/c++/10.2.1/bits/basic_string.h ****       _M_length(size_type __length)
 183:/home/hubert/daisy/gcc/arm-none-eabi/include/c++/10.2.1/bits/basic_string.h ****       { _M_string_length = __length; }
 184:/home/hubert/daisy/gcc/arm-none-eabi/include/c++/10.2.1/bits/basic_string.h **** 
ARM GAS  /tmp/cczoWLZx.s 			page 24


 185:/home/hubert/daisy/gcc/arm-none-eabi/include/c++/10.2.1/bits/basic_string.h ****       pointer
 186:/home/hubert/daisy/gcc/arm-none-eabi/include/c++/10.2.1/bits/basic_string.h ****       _M_data() const
 187:/home/hubert/daisy/gcc/arm-none-eabi/include/c++/10.2.1/bits/basic_string.h ****       { return _M_dataplus._M_p; }
 188:/home/hubert/daisy/gcc/arm-none-eabi/include/c++/10.2.1/bits/basic_string.h **** 
 189:/home/hubert/daisy/gcc/arm-none-eabi/include/c++/10.2.1/bits/basic_string.h ****       pointer
 190:/home/hubert/daisy/gcc/arm-none-eabi/include/c++/10.2.1/bits/basic_string.h ****       _M_local_data()
 191:/home/hubert/daisy/gcc/arm-none-eabi/include/c++/10.2.1/bits/basic_string.h ****       {
 192:/home/hubert/daisy/gcc/arm-none-eabi/include/c++/10.2.1/bits/basic_string.h **** #if __cplusplus >= 201103L
 193:/home/hubert/daisy/gcc/arm-none-eabi/include/c++/10.2.1/bits/basic_string.h **** 	return std::pointer_traits<pointer>::pointer_to(*_M_local_buf);
 194:/home/hubert/daisy/gcc/arm-none-eabi/include/c++/10.2.1/bits/basic_string.h **** #else
 195:/home/hubert/daisy/gcc/arm-none-eabi/include/c++/10.2.1/bits/basic_string.h **** 	return pointer(_M_local_buf);
 196:/home/hubert/daisy/gcc/arm-none-eabi/include/c++/10.2.1/bits/basic_string.h **** #endif
 197:/home/hubert/daisy/gcc/arm-none-eabi/include/c++/10.2.1/bits/basic_string.h ****       }
 198:/home/hubert/daisy/gcc/arm-none-eabi/include/c++/10.2.1/bits/basic_string.h **** 
 199:/home/hubert/daisy/gcc/arm-none-eabi/include/c++/10.2.1/bits/basic_string.h ****       const_pointer
 200:/home/hubert/daisy/gcc/arm-none-eabi/include/c++/10.2.1/bits/basic_string.h ****       _M_local_data() const
 201:/home/hubert/daisy/gcc/arm-none-eabi/include/c++/10.2.1/bits/basic_string.h ****       {
 202:/home/hubert/daisy/gcc/arm-none-eabi/include/c++/10.2.1/bits/basic_string.h **** #if __cplusplus >= 201103L
 203:/home/hubert/daisy/gcc/arm-none-eabi/include/c++/10.2.1/bits/basic_string.h **** 	return std::pointer_traits<const_pointer>::pointer_to(*_M_local_buf);
 204:/home/hubert/daisy/gcc/arm-none-eabi/include/c++/10.2.1/bits/basic_string.h **** #else
 205:/home/hubert/daisy/gcc/arm-none-eabi/include/c++/10.2.1/bits/basic_string.h **** 	return const_pointer(_M_local_buf);
 206:/home/hubert/daisy/gcc/arm-none-eabi/include/c++/10.2.1/bits/basic_string.h **** #endif
 207:/home/hubert/daisy/gcc/arm-none-eabi/include/c++/10.2.1/bits/basic_string.h ****       }
 208:/home/hubert/daisy/gcc/arm-none-eabi/include/c++/10.2.1/bits/basic_string.h **** 
 209:/home/hubert/daisy/gcc/arm-none-eabi/include/c++/10.2.1/bits/basic_string.h ****       void
 210:/home/hubert/daisy/gcc/arm-none-eabi/include/c++/10.2.1/bits/basic_string.h ****       _M_capacity(size_type __capacity)
 211:/home/hubert/daisy/gcc/arm-none-eabi/include/c++/10.2.1/bits/basic_string.h ****       { _M_allocated_capacity = __capacity; }
 212:/home/hubert/daisy/gcc/arm-none-eabi/include/c++/10.2.1/bits/basic_string.h **** 
 213:/home/hubert/daisy/gcc/arm-none-eabi/include/c++/10.2.1/bits/basic_string.h ****       void
 214:/home/hubert/daisy/gcc/arm-none-eabi/include/c++/10.2.1/bits/basic_string.h ****       _M_set_length(size_type __n)
 215:/home/hubert/daisy/gcc/arm-none-eabi/include/c++/10.2.1/bits/basic_string.h ****       {
 216:/home/hubert/daisy/gcc/arm-none-eabi/include/c++/10.2.1/bits/basic_string.h **** 	_M_length(__n);
 217:/home/hubert/daisy/gcc/arm-none-eabi/include/c++/10.2.1/bits/basic_string.h **** 	traits_type::assign(_M_data()[__n], _CharT());
 218:/home/hubert/daisy/gcc/arm-none-eabi/include/c++/10.2.1/bits/basic_string.h ****       }
 219:/home/hubert/daisy/gcc/arm-none-eabi/include/c++/10.2.1/bits/basic_string.h **** 
 220:/home/hubert/daisy/gcc/arm-none-eabi/include/c++/10.2.1/bits/basic_string.h ****       bool
 221:/home/hubert/daisy/gcc/arm-none-eabi/include/c++/10.2.1/bits/basic_string.h ****       _M_is_local() const
 222:/home/hubert/daisy/gcc/arm-none-eabi/include/c++/10.2.1/bits/basic_string.h ****       { return _M_data() == _M_local_data(); }
 223:/home/hubert/daisy/gcc/arm-none-eabi/include/c++/10.2.1/bits/basic_string.h **** 
 224:/home/hubert/daisy/gcc/arm-none-eabi/include/c++/10.2.1/bits/basic_string.h ****       // Create & Destroy
 225:/home/hubert/daisy/gcc/arm-none-eabi/include/c++/10.2.1/bits/basic_string.h ****       pointer
 226:/home/hubert/daisy/gcc/arm-none-eabi/include/c++/10.2.1/bits/basic_string.h ****       _M_create(size_type&, size_type);
 227:/home/hubert/daisy/gcc/arm-none-eabi/include/c++/10.2.1/bits/basic_string.h **** 
 228:/home/hubert/daisy/gcc/arm-none-eabi/include/c++/10.2.1/bits/basic_string.h ****       void
 229:/home/hubert/daisy/gcc/arm-none-eabi/include/c++/10.2.1/bits/basic_string.h ****       _M_dispose()
 230:/home/hubert/daisy/gcc/arm-none-eabi/include/c++/10.2.1/bits/basic_string.h ****       {
 231:/home/hubert/daisy/gcc/arm-none-eabi/include/c++/10.2.1/bits/basic_string.h **** 	if (!_M_is_local())
 232:/home/hubert/daisy/gcc/arm-none-eabi/include/c++/10.2.1/bits/basic_string.h **** 	  _M_destroy(_M_allocated_capacity);
 233:/home/hubert/daisy/gcc/arm-none-eabi/include/c++/10.2.1/bits/basic_string.h ****       }
 234:/home/hubert/daisy/gcc/arm-none-eabi/include/c++/10.2.1/bits/basic_string.h **** 
 235:/home/hubert/daisy/gcc/arm-none-eabi/include/c++/10.2.1/bits/basic_string.h ****       void
 236:/home/hubert/daisy/gcc/arm-none-eabi/include/c++/10.2.1/bits/basic_string.h ****       _M_destroy(size_type __size) throw()
 237:/home/hubert/daisy/gcc/arm-none-eabi/include/c++/10.2.1/bits/basic_string.h ****       { _Alloc_traits::deallocate(_M_get_allocator(), _M_data(), __size + 1); }
 238:/home/hubert/daisy/gcc/arm-none-eabi/include/c++/10.2.1/bits/basic_string.h **** 
 239:/home/hubert/daisy/gcc/arm-none-eabi/include/c++/10.2.1/bits/basic_string.h ****       // _M_construct_aux is used to implement the 21.3.1 para 15 which
 240:/home/hubert/daisy/gcc/arm-none-eabi/include/c++/10.2.1/bits/basic_string.h ****       // requires special behaviour if _InIterator is an integral type
 241:/home/hubert/daisy/gcc/arm-none-eabi/include/c++/10.2.1/bits/basic_string.h ****       template<typename _InIterator>
ARM GAS  /tmp/cczoWLZx.s 			page 25


 242:/home/hubert/daisy/gcc/arm-none-eabi/include/c++/10.2.1/bits/basic_string.h ****         void
 243:/home/hubert/daisy/gcc/arm-none-eabi/include/c++/10.2.1/bits/basic_string.h ****         _M_construct_aux(_InIterator __beg, _InIterator __end,
 244:/home/hubert/daisy/gcc/arm-none-eabi/include/c++/10.2.1/bits/basic_string.h **** 			 std::__false_type)
 245:/home/hubert/daisy/gcc/arm-none-eabi/include/c++/10.2.1/bits/basic_string.h **** 	{
 246:/home/hubert/daisy/gcc/arm-none-eabi/include/c++/10.2.1/bits/basic_string.h ****           typedef typename iterator_traits<_InIterator>::iterator_category _Tag;
 247:/home/hubert/daisy/gcc/arm-none-eabi/include/c++/10.2.1/bits/basic_string.h ****           _M_construct(__beg, __end, _Tag());
 248:/home/hubert/daisy/gcc/arm-none-eabi/include/c++/10.2.1/bits/basic_string.h **** 	}
 249:/home/hubert/daisy/gcc/arm-none-eabi/include/c++/10.2.1/bits/basic_string.h **** 
 250:/home/hubert/daisy/gcc/arm-none-eabi/include/c++/10.2.1/bits/basic_string.h ****       // _GLIBCXX_RESOLVE_LIB_DEFECTS
 251:/home/hubert/daisy/gcc/arm-none-eabi/include/c++/10.2.1/bits/basic_string.h ****       // 438. Ambiguity in the "do the right thing" clause
 252:/home/hubert/daisy/gcc/arm-none-eabi/include/c++/10.2.1/bits/basic_string.h ****       template<typename _Integer>
 253:/home/hubert/daisy/gcc/arm-none-eabi/include/c++/10.2.1/bits/basic_string.h ****         void
 254:/home/hubert/daisy/gcc/arm-none-eabi/include/c++/10.2.1/bits/basic_string.h ****         _M_construct_aux(_Integer __beg, _Integer __end, std::__true_type)
 255:/home/hubert/daisy/gcc/arm-none-eabi/include/c++/10.2.1/bits/basic_string.h **** 	{ _M_construct_aux_2(static_cast<size_type>(__beg), __end); }
 256:/home/hubert/daisy/gcc/arm-none-eabi/include/c++/10.2.1/bits/basic_string.h **** 
 257:/home/hubert/daisy/gcc/arm-none-eabi/include/c++/10.2.1/bits/basic_string.h ****       void
 258:/home/hubert/daisy/gcc/arm-none-eabi/include/c++/10.2.1/bits/basic_string.h ****       _M_construct_aux_2(size_type __req, _CharT __c)
 259:/home/hubert/daisy/gcc/arm-none-eabi/include/c++/10.2.1/bits/basic_string.h ****       { _M_construct(__req, __c); }
 260:/home/hubert/daisy/gcc/arm-none-eabi/include/c++/10.2.1/bits/basic_string.h **** 
 261:/home/hubert/daisy/gcc/arm-none-eabi/include/c++/10.2.1/bits/basic_string.h ****       template<typename _InIterator>
 262:/home/hubert/daisy/gcc/arm-none-eabi/include/c++/10.2.1/bits/basic_string.h ****         void
 263:/home/hubert/daisy/gcc/arm-none-eabi/include/c++/10.2.1/bits/basic_string.h ****         _M_construct(_InIterator __beg, _InIterator __end)
 264:/home/hubert/daisy/gcc/arm-none-eabi/include/c++/10.2.1/bits/basic_string.h **** 	{
 265:/home/hubert/daisy/gcc/arm-none-eabi/include/c++/10.2.1/bits/basic_string.h **** 	  typedef typename std::__is_integer<_InIterator>::__type _Integral;
 266:/home/hubert/daisy/gcc/arm-none-eabi/include/c++/10.2.1/bits/basic_string.h **** 	  _M_construct_aux(__beg, __end, _Integral());
 267:/home/hubert/daisy/gcc/arm-none-eabi/include/c++/10.2.1/bits/basic_string.h ****         }
 268:/home/hubert/daisy/gcc/arm-none-eabi/include/c++/10.2.1/bits/basic_string.h **** 
 269:/home/hubert/daisy/gcc/arm-none-eabi/include/c++/10.2.1/bits/basic_string.h ****       // For Input Iterators, used in istreambuf_iterators, etc.
 270:/home/hubert/daisy/gcc/arm-none-eabi/include/c++/10.2.1/bits/basic_string.h ****       template<typename _InIterator>
 271:/home/hubert/daisy/gcc/arm-none-eabi/include/c++/10.2.1/bits/basic_string.h ****         void
 272:/home/hubert/daisy/gcc/arm-none-eabi/include/c++/10.2.1/bits/basic_string.h ****         _M_construct(_InIterator __beg, _InIterator __end,
 273:/home/hubert/daisy/gcc/arm-none-eabi/include/c++/10.2.1/bits/basic_string.h **** 		     std::input_iterator_tag);
 274:/home/hubert/daisy/gcc/arm-none-eabi/include/c++/10.2.1/bits/basic_string.h **** 
 275:/home/hubert/daisy/gcc/arm-none-eabi/include/c++/10.2.1/bits/basic_string.h ****       // For forward_iterators up to random_access_iterators, used for
 276:/home/hubert/daisy/gcc/arm-none-eabi/include/c++/10.2.1/bits/basic_string.h ****       // string::iterator, _CharT*, etc.
 277:/home/hubert/daisy/gcc/arm-none-eabi/include/c++/10.2.1/bits/basic_string.h ****       template<typename _FwdIterator>
 278:/home/hubert/daisy/gcc/arm-none-eabi/include/c++/10.2.1/bits/basic_string.h ****         void
 279:/home/hubert/daisy/gcc/arm-none-eabi/include/c++/10.2.1/bits/basic_string.h ****         _M_construct(_FwdIterator __beg, _FwdIterator __end,
 280:/home/hubert/daisy/gcc/arm-none-eabi/include/c++/10.2.1/bits/basic_string.h **** 		     std::forward_iterator_tag);
 281:/home/hubert/daisy/gcc/arm-none-eabi/include/c++/10.2.1/bits/basic_string.h **** 
 282:/home/hubert/daisy/gcc/arm-none-eabi/include/c++/10.2.1/bits/basic_string.h ****       void
 283:/home/hubert/daisy/gcc/arm-none-eabi/include/c++/10.2.1/bits/basic_string.h ****       _M_construct(size_type __req, _CharT __c);
 284:/home/hubert/daisy/gcc/arm-none-eabi/include/c++/10.2.1/bits/basic_string.h **** 
 285:/home/hubert/daisy/gcc/arm-none-eabi/include/c++/10.2.1/bits/basic_string.h ****       allocator_type&
 286:/home/hubert/daisy/gcc/arm-none-eabi/include/c++/10.2.1/bits/basic_string.h ****       _M_get_allocator()
 287:/home/hubert/daisy/gcc/arm-none-eabi/include/c++/10.2.1/bits/basic_string.h ****       { return _M_dataplus; }
 288:/home/hubert/daisy/gcc/arm-none-eabi/include/c++/10.2.1/bits/basic_string.h **** 
 289:/home/hubert/daisy/gcc/arm-none-eabi/include/c++/10.2.1/bits/basic_string.h ****       const allocator_type&
 290:/home/hubert/daisy/gcc/arm-none-eabi/include/c++/10.2.1/bits/basic_string.h ****       _M_get_allocator() const
 291:/home/hubert/daisy/gcc/arm-none-eabi/include/c++/10.2.1/bits/basic_string.h ****       { return _M_dataplus; }
 292:/home/hubert/daisy/gcc/arm-none-eabi/include/c++/10.2.1/bits/basic_string.h **** 
 293:/home/hubert/daisy/gcc/arm-none-eabi/include/c++/10.2.1/bits/basic_string.h ****     private:
 294:/home/hubert/daisy/gcc/arm-none-eabi/include/c++/10.2.1/bits/basic_string.h **** 
 295:/home/hubert/daisy/gcc/arm-none-eabi/include/c++/10.2.1/bits/basic_string.h **** #ifdef _GLIBCXX_DISAMBIGUATE_REPLACE_INST
 296:/home/hubert/daisy/gcc/arm-none-eabi/include/c++/10.2.1/bits/basic_string.h ****       // The explicit instantiations in misc-inst.cc require this due to
 297:/home/hubert/daisy/gcc/arm-none-eabi/include/c++/10.2.1/bits/basic_string.h ****       // https://gcc.gnu.org/bugzilla/show_bug.cgi?id=64063
 298:/home/hubert/daisy/gcc/arm-none-eabi/include/c++/10.2.1/bits/basic_string.h ****       template<typename _Tp, bool _Requires =
ARM GAS  /tmp/cczoWLZx.s 			page 26


 299:/home/hubert/daisy/gcc/arm-none-eabi/include/c++/10.2.1/bits/basic_string.h **** 	       !__are_same<_Tp, _CharT*>::__value
 300:/home/hubert/daisy/gcc/arm-none-eabi/include/c++/10.2.1/bits/basic_string.h **** 	       && !__are_same<_Tp, const _CharT*>::__value
 301:/home/hubert/daisy/gcc/arm-none-eabi/include/c++/10.2.1/bits/basic_string.h **** 	       && !__are_same<_Tp, iterator>::__value
 302:/home/hubert/daisy/gcc/arm-none-eabi/include/c++/10.2.1/bits/basic_string.h **** 	       && !__are_same<_Tp, const_iterator>::__value>
 303:/home/hubert/daisy/gcc/arm-none-eabi/include/c++/10.2.1/bits/basic_string.h **** 	struct __enable_if_not_native_iterator
 304:/home/hubert/daisy/gcc/arm-none-eabi/include/c++/10.2.1/bits/basic_string.h **** 	{ typedef basic_string& __type; };
 305:/home/hubert/daisy/gcc/arm-none-eabi/include/c++/10.2.1/bits/basic_string.h ****       template<typename _Tp>
 306:/home/hubert/daisy/gcc/arm-none-eabi/include/c++/10.2.1/bits/basic_string.h **** 	struct __enable_if_not_native_iterator<_Tp, false> { };
 307:/home/hubert/daisy/gcc/arm-none-eabi/include/c++/10.2.1/bits/basic_string.h **** #endif
 308:/home/hubert/daisy/gcc/arm-none-eabi/include/c++/10.2.1/bits/basic_string.h **** 
 309:/home/hubert/daisy/gcc/arm-none-eabi/include/c++/10.2.1/bits/basic_string.h ****       size_type
 310:/home/hubert/daisy/gcc/arm-none-eabi/include/c++/10.2.1/bits/basic_string.h ****       _M_check(size_type __pos, const char* __s) const
 311:/home/hubert/daisy/gcc/arm-none-eabi/include/c++/10.2.1/bits/basic_string.h ****       {
 312:/home/hubert/daisy/gcc/arm-none-eabi/include/c++/10.2.1/bits/basic_string.h **** 	if (__pos > this->size())
 313:/home/hubert/daisy/gcc/arm-none-eabi/include/c++/10.2.1/bits/basic_string.h **** 	  __throw_out_of_range_fmt(__N("%s: __pos (which is %zu) > "
 314:/home/hubert/daisy/gcc/arm-none-eabi/include/c++/10.2.1/bits/basic_string.h **** 				       "this->size() (which is %zu)"),
 315:/home/hubert/daisy/gcc/arm-none-eabi/include/c++/10.2.1/bits/basic_string.h **** 				   __s, __pos, this->size());
 316:/home/hubert/daisy/gcc/arm-none-eabi/include/c++/10.2.1/bits/basic_string.h **** 	return __pos;
 317:/home/hubert/daisy/gcc/arm-none-eabi/include/c++/10.2.1/bits/basic_string.h ****       }
 318:/home/hubert/daisy/gcc/arm-none-eabi/include/c++/10.2.1/bits/basic_string.h **** 
 319:/home/hubert/daisy/gcc/arm-none-eabi/include/c++/10.2.1/bits/basic_string.h ****       void
 320:/home/hubert/daisy/gcc/arm-none-eabi/include/c++/10.2.1/bits/basic_string.h ****       _M_check_length(size_type __n1, size_type __n2, const char* __s) const
 321:/home/hubert/daisy/gcc/arm-none-eabi/include/c++/10.2.1/bits/basic_string.h ****       {
 322:/home/hubert/daisy/gcc/arm-none-eabi/include/c++/10.2.1/bits/basic_string.h **** 	if (this->max_size() - (this->size() - __n1) < __n2)
 323:/home/hubert/daisy/gcc/arm-none-eabi/include/c++/10.2.1/bits/basic_string.h **** 	  __throw_length_error(__N(__s));
 324:/home/hubert/daisy/gcc/arm-none-eabi/include/c++/10.2.1/bits/basic_string.h ****       }
 325:/home/hubert/daisy/gcc/arm-none-eabi/include/c++/10.2.1/bits/basic_string.h **** 
 326:/home/hubert/daisy/gcc/arm-none-eabi/include/c++/10.2.1/bits/basic_string.h **** 
 327:/home/hubert/daisy/gcc/arm-none-eabi/include/c++/10.2.1/bits/basic_string.h ****       // NB: _M_limit doesn't check for a bad __pos value.
 328:/home/hubert/daisy/gcc/arm-none-eabi/include/c++/10.2.1/bits/basic_string.h ****       size_type
 329:/home/hubert/daisy/gcc/arm-none-eabi/include/c++/10.2.1/bits/basic_string.h ****       _M_limit(size_type __pos, size_type __off) const _GLIBCXX_NOEXCEPT
 330:/home/hubert/daisy/gcc/arm-none-eabi/include/c++/10.2.1/bits/basic_string.h ****       {
 331:/home/hubert/daisy/gcc/arm-none-eabi/include/c++/10.2.1/bits/basic_string.h **** 	const bool __testoff =  __off < this->size() - __pos;
 332:/home/hubert/daisy/gcc/arm-none-eabi/include/c++/10.2.1/bits/basic_string.h **** 	return __testoff ? __off : this->size() - __pos;
 333:/home/hubert/daisy/gcc/arm-none-eabi/include/c++/10.2.1/bits/basic_string.h ****       }
 334:/home/hubert/daisy/gcc/arm-none-eabi/include/c++/10.2.1/bits/basic_string.h **** 
 335:/home/hubert/daisy/gcc/arm-none-eabi/include/c++/10.2.1/bits/basic_string.h ****       // True if _Rep and source do not overlap.
 336:/home/hubert/daisy/gcc/arm-none-eabi/include/c++/10.2.1/bits/basic_string.h ****       bool
 337:/home/hubert/daisy/gcc/arm-none-eabi/include/c++/10.2.1/bits/basic_string.h ****       _M_disjunct(const _CharT* __s) const _GLIBCXX_NOEXCEPT
 338:/home/hubert/daisy/gcc/arm-none-eabi/include/c++/10.2.1/bits/basic_string.h ****       {
 339:/home/hubert/daisy/gcc/arm-none-eabi/include/c++/10.2.1/bits/basic_string.h **** 	return (less<const _CharT*>()(__s, _M_data())
 340:/home/hubert/daisy/gcc/arm-none-eabi/include/c++/10.2.1/bits/basic_string.h **** 		|| less<const _CharT*>()(_M_data() + this->size(), __s));
 341:/home/hubert/daisy/gcc/arm-none-eabi/include/c++/10.2.1/bits/basic_string.h ****       }
 342:/home/hubert/daisy/gcc/arm-none-eabi/include/c++/10.2.1/bits/basic_string.h **** 
 343:/home/hubert/daisy/gcc/arm-none-eabi/include/c++/10.2.1/bits/basic_string.h ****       // When __n = 1 way faster than the general multichar
 344:/home/hubert/daisy/gcc/arm-none-eabi/include/c++/10.2.1/bits/basic_string.h ****       // traits_type::copy/move/assign.
 345:/home/hubert/daisy/gcc/arm-none-eabi/include/c++/10.2.1/bits/basic_string.h ****       static void
 346:/home/hubert/daisy/gcc/arm-none-eabi/include/c++/10.2.1/bits/basic_string.h ****       _S_copy(_CharT* __d, const _CharT* __s, size_type __n)
 347:/home/hubert/daisy/gcc/arm-none-eabi/include/c++/10.2.1/bits/basic_string.h ****       {
 348:/home/hubert/daisy/gcc/arm-none-eabi/include/c++/10.2.1/bits/basic_string.h **** 	if (__n == 1)
 349:/home/hubert/daisy/gcc/arm-none-eabi/include/c++/10.2.1/bits/basic_string.h **** 	  traits_type::assign(*__d, *__s);
 350:/home/hubert/daisy/gcc/arm-none-eabi/include/c++/10.2.1/bits/basic_string.h **** 	else
 351:/home/hubert/daisy/gcc/arm-none-eabi/include/c++/10.2.1/bits/basic_string.h **** 	  traits_type::copy(__d, __s, __n);
 352:/home/hubert/daisy/gcc/arm-none-eabi/include/c++/10.2.1/bits/basic_string.h ****       }
 353:/home/hubert/daisy/gcc/arm-none-eabi/include/c++/10.2.1/bits/basic_string.h **** 
 354:/home/hubert/daisy/gcc/arm-none-eabi/include/c++/10.2.1/bits/basic_string.h ****       static void
 355:/home/hubert/daisy/gcc/arm-none-eabi/include/c++/10.2.1/bits/basic_string.h ****       _S_move(_CharT* __d, const _CharT* __s, size_type __n)
ARM GAS  /tmp/cczoWLZx.s 			page 27


 356:/home/hubert/daisy/gcc/arm-none-eabi/include/c++/10.2.1/bits/basic_string.h ****       {
 357:/home/hubert/daisy/gcc/arm-none-eabi/include/c++/10.2.1/bits/basic_string.h **** 	if (__n == 1)
 358:/home/hubert/daisy/gcc/arm-none-eabi/include/c++/10.2.1/bits/basic_string.h **** 	  traits_type::assign(*__d, *__s);
 359:/home/hubert/daisy/gcc/arm-none-eabi/include/c++/10.2.1/bits/basic_string.h **** 	else
 360:/home/hubert/daisy/gcc/arm-none-eabi/include/c++/10.2.1/bits/basic_string.h **** 	  traits_type::move(__d, __s, __n);
 361:/home/hubert/daisy/gcc/arm-none-eabi/include/c++/10.2.1/bits/basic_string.h ****       }
 362:/home/hubert/daisy/gcc/arm-none-eabi/include/c++/10.2.1/bits/basic_string.h **** 
 363:/home/hubert/daisy/gcc/arm-none-eabi/include/c++/10.2.1/bits/basic_string.h ****       static void
 364:/home/hubert/daisy/gcc/arm-none-eabi/include/c++/10.2.1/bits/basic_string.h ****       _S_assign(_CharT* __d, size_type __n, _CharT __c)
 365:/home/hubert/daisy/gcc/arm-none-eabi/include/c++/10.2.1/bits/basic_string.h ****       {
 366:/home/hubert/daisy/gcc/arm-none-eabi/include/c++/10.2.1/bits/basic_string.h **** 	if (__n == 1)
 367:/home/hubert/daisy/gcc/arm-none-eabi/include/c++/10.2.1/bits/basic_string.h **** 	  traits_type::assign(*__d, __c);
 368:/home/hubert/daisy/gcc/arm-none-eabi/include/c++/10.2.1/bits/basic_string.h **** 	else
 369:/home/hubert/daisy/gcc/arm-none-eabi/include/c++/10.2.1/bits/basic_string.h **** 	  traits_type::assign(__d, __n, __c);
 370:/home/hubert/daisy/gcc/arm-none-eabi/include/c++/10.2.1/bits/basic_string.h ****       }
 371:/home/hubert/daisy/gcc/arm-none-eabi/include/c++/10.2.1/bits/basic_string.h **** 
 372:/home/hubert/daisy/gcc/arm-none-eabi/include/c++/10.2.1/bits/basic_string.h ****       // _S_copy_chars is a separate template to permit specialization
 373:/home/hubert/daisy/gcc/arm-none-eabi/include/c++/10.2.1/bits/basic_string.h ****       // to optimize for the common case of pointers as iterators.
 374:/home/hubert/daisy/gcc/arm-none-eabi/include/c++/10.2.1/bits/basic_string.h ****       template<class _Iterator>
 375:/home/hubert/daisy/gcc/arm-none-eabi/include/c++/10.2.1/bits/basic_string.h ****         static void
 376:/home/hubert/daisy/gcc/arm-none-eabi/include/c++/10.2.1/bits/basic_string.h ****         _S_copy_chars(_CharT* __p, _Iterator __k1, _Iterator __k2)
 377:/home/hubert/daisy/gcc/arm-none-eabi/include/c++/10.2.1/bits/basic_string.h ****         {
 378:/home/hubert/daisy/gcc/arm-none-eabi/include/c++/10.2.1/bits/basic_string.h **** 	  for (; __k1 != __k2; ++__k1, (void)++__p)
 379:/home/hubert/daisy/gcc/arm-none-eabi/include/c++/10.2.1/bits/basic_string.h **** 	    traits_type::assign(*__p, *__k1); // These types are off.
 380:/home/hubert/daisy/gcc/arm-none-eabi/include/c++/10.2.1/bits/basic_string.h **** 	}
 381:/home/hubert/daisy/gcc/arm-none-eabi/include/c++/10.2.1/bits/basic_string.h **** 
 382:/home/hubert/daisy/gcc/arm-none-eabi/include/c++/10.2.1/bits/basic_string.h ****       static void
 383:/home/hubert/daisy/gcc/arm-none-eabi/include/c++/10.2.1/bits/basic_string.h ****       _S_copy_chars(_CharT* __p, iterator __k1, iterator __k2) _GLIBCXX_NOEXCEPT
 384:/home/hubert/daisy/gcc/arm-none-eabi/include/c++/10.2.1/bits/basic_string.h ****       { _S_copy_chars(__p, __k1.base(), __k2.base()); }
 385:/home/hubert/daisy/gcc/arm-none-eabi/include/c++/10.2.1/bits/basic_string.h **** 
 386:/home/hubert/daisy/gcc/arm-none-eabi/include/c++/10.2.1/bits/basic_string.h ****       static void
 387:/home/hubert/daisy/gcc/arm-none-eabi/include/c++/10.2.1/bits/basic_string.h ****       _S_copy_chars(_CharT* __p, const_iterator __k1, const_iterator __k2)
 388:/home/hubert/daisy/gcc/arm-none-eabi/include/c++/10.2.1/bits/basic_string.h ****       _GLIBCXX_NOEXCEPT
 389:/home/hubert/daisy/gcc/arm-none-eabi/include/c++/10.2.1/bits/basic_string.h ****       { _S_copy_chars(__p, __k1.base(), __k2.base()); }
 390:/home/hubert/daisy/gcc/arm-none-eabi/include/c++/10.2.1/bits/basic_string.h **** 
 391:/home/hubert/daisy/gcc/arm-none-eabi/include/c++/10.2.1/bits/basic_string.h ****       static void
 392:/home/hubert/daisy/gcc/arm-none-eabi/include/c++/10.2.1/bits/basic_string.h ****       _S_copy_chars(_CharT* __p, _CharT* __k1, _CharT* __k2) _GLIBCXX_NOEXCEPT
 393:/home/hubert/daisy/gcc/arm-none-eabi/include/c++/10.2.1/bits/basic_string.h ****       { _S_copy(__p, __k1, __k2 - __k1); }
 394:/home/hubert/daisy/gcc/arm-none-eabi/include/c++/10.2.1/bits/basic_string.h **** 
 395:/home/hubert/daisy/gcc/arm-none-eabi/include/c++/10.2.1/bits/basic_string.h ****       static void
 396:/home/hubert/daisy/gcc/arm-none-eabi/include/c++/10.2.1/bits/basic_string.h ****       _S_copy_chars(_CharT* __p, const _CharT* __k1, const _CharT* __k2)
 397:/home/hubert/daisy/gcc/arm-none-eabi/include/c++/10.2.1/bits/basic_string.h ****       _GLIBCXX_NOEXCEPT
 398:/home/hubert/daisy/gcc/arm-none-eabi/include/c++/10.2.1/bits/basic_string.h ****       { _S_copy(__p, __k1, __k2 - __k1); }
 399:/home/hubert/daisy/gcc/arm-none-eabi/include/c++/10.2.1/bits/basic_string.h **** 
 400:/home/hubert/daisy/gcc/arm-none-eabi/include/c++/10.2.1/bits/basic_string.h ****       static int
 401:/home/hubert/daisy/gcc/arm-none-eabi/include/c++/10.2.1/bits/basic_string.h ****       _S_compare(size_type __n1, size_type __n2) _GLIBCXX_NOEXCEPT
 402:/home/hubert/daisy/gcc/arm-none-eabi/include/c++/10.2.1/bits/basic_string.h ****       {
 403:/home/hubert/daisy/gcc/arm-none-eabi/include/c++/10.2.1/bits/basic_string.h **** 	const difference_type __d = difference_type(__n1 - __n2);
 404:/home/hubert/daisy/gcc/arm-none-eabi/include/c++/10.2.1/bits/basic_string.h **** 
 405:/home/hubert/daisy/gcc/arm-none-eabi/include/c++/10.2.1/bits/basic_string.h **** 	if (__d > __gnu_cxx::__numeric_traits<int>::__max)
 406:/home/hubert/daisy/gcc/arm-none-eabi/include/c++/10.2.1/bits/basic_string.h **** 	  return __gnu_cxx::__numeric_traits<int>::__max;
 407:/home/hubert/daisy/gcc/arm-none-eabi/include/c++/10.2.1/bits/basic_string.h **** 	else if (__d < __gnu_cxx::__numeric_traits<int>::__min)
 408:/home/hubert/daisy/gcc/arm-none-eabi/include/c++/10.2.1/bits/basic_string.h **** 	  return __gnu_cxx::__numeric_traits<int>::__min;
 409:/home/hubert/daisy/gcc/arm-none-eabi/include/c++/10.2.1/bits/basic_string.h **** 	else
 410:/home/hubert/daisy/gcc/arm-none-eabi/include/c++/10.2.1/bits/basic_string.h **** 	  return int(__d);
 411:/home/hubert/daisy/gcc/arm-none-eabi/include/c++/10.2.1/bits/basic_string.h ****       }
 412:/home/hubert/daisy/gcc/arm-none-eabi/include/c++/10.2.1/bits/basic_string.h **** 
ARM GAS  /tmp/cczoWLZx.s 			page 28


 413:/home/hubert/daisy/gcc/arm-none-eabi/include/c++/10.2.1/bits/basic_string.h ****       void
 414:/home/hubert/daisy/gcc/arm-none-eabi/include/c++/10.2.1/bits/basic_string.h ****       _M_assign(const basic_string&);
 415:/home/hubert/daisy/gcc/arm-none-eabi/include/c++/10.2.1/bits/basic_string.h **** 
 416:/home/hubert/daisy/gcc/arm-none-eabi/include/c++/10.2.1/bits/basic_string.h ****       void
 417:/home/hubert/daisy/gcc/arm-none-eabi/include/c++/10.2.1/bits/basic_string.h ****       _M_mutate(size_type __pos, size_type __len1, const _CharT* __s,
 418:/home/hubert/daisy/gcc/arm-none-eabi/include/c++/10.2.1/bits/basic_string.h **** 		size_type __len2);
 419:/home/hubert/daisy/gcc/arm-none-eabi/include/c++/10.2.1/bits/basic_string.h **** 
 420:/home/hubert/daisy/gcc/arm-none-eabi/include/c++/10.2.1/bits/basic_string.h ****       void
 421:/home/hubert/daisy/gcc/arm-none-eabi/include/c++/10.2.1/bits/basic_string.h ****       _M_erase(size_type __pos, size_type __n);
 422:/home/hubert/daisy/gcc/arm-none-eabi/include/c++/10.2.1/bits/basic_string.h **** 
 423:/home/hubert/daisy/gcc/arm-none-eabi/include/c++/10.2.1/bits/basic_string.h ****     public:
 424:/home/hubert/daisy/gcc/arm-none-eabi/include/c++/10.2.1/bits/basic_string.h ****       // Construct/copy/destroy:
 425:/home/hubert/daisy/gcc/arm-none-eabi/include/c++/10.2.1/bits/basic_string.h ****       // NB: We overload ctors in some cases instead of using default
 426:/home/hubert/daisy/gcc/arm-none-eabi/include/c++/10.2.1/bits/basic_string.h ****       // arguments, per 17.4.4.4 para. 2 item 2.
 427:/home/hubert/daisy/gcc/arm-none-eabi/include/c++/10.2.1/bits/basic_string.h **** 
 428:/home/hubert/daisy/gcc/arm-none-eabi/include/c++/10.2.1/bits/basic_string.h ****       /**
 429:/home/hubert/daisy/gcc/arm-none-eabi/include/c++/10.2.1/bits/basic_string.h ****        *  @brief  Default constructor creates an empty string.
 430:/home/hubert/daisy/gcc/arm-none-eabi/include/c++/10.2.1/bits/basic_string.h ****        */
 431:/home/hubert/daisy/gcc/arm-none-eabi/include/c++/10.2.1/bits/basic_string.h ****       basic_string()
 432:/home/hubert/daisy/gcc/arm-none-eabi/include/c++/10.2.1/bits/basic_string.h ****       _GLIBCXX_NOEXCEPT_IF(is_nothrow_default_constructible<_Alloc>::value)
 433:/home/hubert/daisy/gcc/arm-none-eabi/include/c++/10.2.1/bits/basic_string.h ****       : _M_dataplus(_M_local_data())
 434:/home/hubert/daisy/gcc/arm-none-eabi/include/c++/10.2.1/bits/basic_string.h ****       { _M_set_length(0); }
 435:/home/hubert/daisy/gcc/arm-none-eabi/include/c++/10.2.1/bits/basic_string.h **** 
 436:/home/hubert/daisy/gcc/arm-none-eabi/include/c++/10.2.1/bits/basic_string.h ****       /**
 437:/home/hubert/daisy/gcc/arm-none-eabi/include/c++/10.2.1/bits/basic_string.h ****        *  @brief  Construct an empty string using allocator @a a.
 438:/home/hubert/daisy/gcc/arm-none-eabi/include/c++/10.2.1/bits/basic_string.h ****        */
 439:/home/hubert/daisy/gcc/arm-none-eabi/include/c++/10.2.1/bits/basic_string.h ****       explicit
 440:/home/hubert/daisy/gcc/arm-none-eabi/include/c++/10.2.1/bits/basic_string.h ****       basic_string(const _Alloc& __a) _GLIBCXX_NOEXCEPT
 441:/home/hubert/daisy/gcc/arm-none-eabi/include/c++/10.2.1/bits/basic_string.h ****       : _M_dataplus(_M_local_data(), __a)
 442:/home/hubert/daisy/gcc/arm-none-eabi/include/c++/10.2.1/bits/basic_string.h ****       { _M_set_length(0); }
 443:/home/hubert/daisy/gcc/arm-none-eabi/include/c++/10.2.1/bits/basic_string.h **** 
 444:/home/hubert/daisy/gcc/arm-none-eabi/include/c++/10.2.1/bits/basic_string.h ****       /**
 445:/home/hubert/daisy/gcc/arm-none-eabi/include/c++/10.2.1/bits/basic_string.h ****        *  @brief  Construct string with copy of value of @a __str.
 446:/home/hubert/daisy/gcc/arm-none-eabi/include/c++/10.2.1/bits/basic_string.h ****        *  @param  __str  Source string.
 447:/home/hubert/daisy/gcc/arm-none-eabi/include/c++/10.2.1/bits/basic_string.h ****        */
 448:/home/hubert/daisy/gcc/arm-none-eabi/include/c++/10.2.1/bits/basic_string.h ****       basic_string(const basic_string& __str)
 449:/home/hubert/daisy/gcc/arm-none-eabi/include/c++/10.2.1/bits/basic_string.h ****       : _M_dataplus(_M_local_data(),
 450:/home/hubert/daisy/gcc/arm-none-eabi/include/c++/10.2.1/bits/basic_string.h **** 		    _Alloc_traits::_S_select_on_copy(__str._M_get_allocator()))
 451:/home/hubert/daisy/gcc/arm-none-eabi/include/c++/10.2.1/bits/basic_string.h ****       { _M_construct(__str._M_data(), __str._M_data() + __str.length()); }
 452:/home/hubert/daisy/gcc/arm-none-eabi/include/c++/10.2.1/bits/basic_string.h **** 
 453:/home/hubert/daisy/gcc/arm-none-eabi/include/c++/10.2.1/bits/basic_string.h ****       // _GLIBCXX_RESOLVE_LIB_DEFECTS
 454:/home/hubert/daisy/gcc/arm-none-eabi/include/c++/10.2.1/bits/basic_string.h ****       // 2583. no way to supply an allocator for basic_string(str, pos)
 455:/home/hubert/daisy/gcc/arm-none-eabi/include/c++/10.2.1/bits/basic_string.h ****       /**
 456:/home/hubert/daisy/gcc/arm-none-eabi/include/c++/10.2.1/bits/basic_string.h ****        *  @brief  Construct string as copy of a substring.
 457:/home/hubert/daisy/gcc/arm-none-eabi/include/c++/10.2.1/bits/basic_string.h ****        *  @param  __str  Source string.
 458:/home/hubert/daisy/gcc/arm-none-eabi/include/c++/10.2.1/bits/basic_string.h ****        *  @param  __pos  Index of first character to copy from.
 459:/home/hubert/daisy/gcc/arm-none-eabi/include/c++/10.2.1/bits/basic_string.h ****        *  @param  __a  Allocator to use.
 460:/home/hubert/daisy/gcc/arm-none-eabi/include/c++/10.2.1/bits/basic_string.h ****        */
 461:/home/hubert/daisy/gcc/arm-none-eabi/include/c++/10.2.1/bits/basic_string.h ****       basic_string(const basic_string& __str, size_type __pos,
 462:/home/hubert/daisy/gcc/arm-none-eabi/include/c++/10.2.1/bits/basic_string.h **** 		   const _Alloc& __a = _Alloc())
 463:/home/hubert/daisy/gcc/arm-none-eabi/include/c++/10.2.1/bits/basic_string.h ****       : _M_dataplus(_M_local_data(), __a)
 464:/home/hubert/daisy/gcc/arm-none-eabi/include/c++/10.2.1/bits/basic_string.h ****       {
 465:/home/hubert/daisy/gcc/arm-none-eabi/include/c++/10.2.1/bits/basic_string.h **** 	const _CharT* __start = __str._M_data()
 466:/home/hubert/daisy/gcc/arm-none-eabi/include/c++/10.2.1/bits/basic_string.h **** 	  + __str._M_check(__pos, "basic_string::basic_string");
 467:/home/hubert/daisy/gcc/arm-none-eabi/include/c++/10.2.1/bits/basic_string.h **** 	_M_construct(__start, __start + __str._M_limit(__pos, npos));
 468:/home/hubert/daisy/gcc/arm-none-eabi/include/c++/10.2.1/bits/basic_string.h ****       }
 469:/home/hubert/daisy/gcc/arm-none-eabi/include/c++/10.2.1/bits/basic_string.h **** 
ARM GAS  /tmp/cczoWLZx.s 			page 29


 470:/home/hubert/daisy/gcc/arm-none-eabi/include/c++/10.2.1/bits/basic_string.h ****       /**
 471:/home/hubert/daisy/gcc/arm-none-eabi/include/c++/10.2.1/bits/basic_string.h ****        *  @brief  Construct string as copy of a substring.
 472:/home/hubert/daisy/gcc/arm-none-eabi/include/c++/10.2.1/bits/basic_string.h ****        *  @param  __str  Source string.
 473:/home/hubert/daisy/gcc/arm-none-eabi/include/c++/10.2.1/bits/basic_string.h ****        *  @param  __pos  Index of first character to copy from.
 474:/home/hubert/daisy/gcc/arm-none-eabi/include/c++/10.2.1/bits/basic_string.h ****        *  @param  __n  Number of characters to copy.
 475:/home/hubert/daisy/gcc/arm-none-eabi/include/c++/10.2.1/bits/basic_string.h ****        */
 476:/home/hubert/daisy/gcc/arm-none-eabi/include/c++/10.2.1/bits/basic_string.h ****       basic_string(const basic_string& __str, size_type __pos,
 477:/home/hubert/daisy/gcc/arm-none-eabi/include/c++/10.2.1/bits/basic_string.h **** 		   size_type __n)
 478:/home/hubert/daisy/gcc/arm-none-eabi/include/c++/10.2.1/bits/basic_string.h ****       : _M_dataplus(_M_local_data())
 479:/home/hubert/daisy/gcc/arm-none-eabi/include/c++/10.2.1/bits/basic_string.h ****       {
 480:/home/hubert/daisy/gcc/arm-none-eabi/include/c++/10.2.1/bits/basic_string.h **** 	const _CharT* __start = __str._M_data()
 481:/home/hubert/daisy/gcc/arm-none-eabi/include/c++/10.2.1/bits/basic_string.h **** 	  + __str._M_check(__pos, "basic_string::basic_string");
 482:/home/hubert/daisy/gcc/arm-none-eabi/include/c++/10.2.1/bits/basic_string.h **** 	_M_construct(__start, __start + __str._M_limit(__pos, __n));
 483:/home/hubert/daisy/gcc/arm-none-eabi/include/c++/10.2.1/bits/basic_string.h ****       }
 484:/home/hubert/daisy/gcc/arm-none-eabi/include/c++/10.2.1/bits/basic_string.h **** 
 485:/home/hubert/daisy/gcc/arm-none-eabi/include/c++/10.2.1/bits/basic_string.h ****       /**
 486:/home/hubert/daisy/gcc/arm-none-eabi/include/c++/10.2.1/bits/basic_string.h ****        *  @brief  Construct string as copy of a substring.
 487:/home/hubert/daisy/gcc/arm-none-eabi/include/c++/10.2.1/bits/basic_string.h ****        *  @param  __str  Source string.
 488:/home/hubert/daisy/gcc/arm-none-eabi/include/c++/10.2.1/bits/basic_string.h ****        *  @param  __pos  Index of first character to copy from.
 489:/home/hubert/daisy/gcc/arm-none-eabi/include/c++/10.2.1/bits/basic_string.h ****        *  @param  __n  Number of characters to copy.
 490:/home/hubert/daisy/gcc/arm-none-eabi/include/c++/10.2.1/bits/basic_string.h ****        *  @param  __a  Allocator to use.
 491:/home/hubert/daisy/gcc/arm-none-eabi/include/c++/10.2.1/bits/basic_string.h ****        */
 492:/home/hubert/daisy/gcc/arm-none-eabi/include/c++/10.2.1/bits/basic_string.h ****       basic_string(const basic_string& __str, size_type __pos,
 493:/home/hubert/daisy/gcc/arm-none-eabi/include/c++/10.2.1/bits/basic_string.h **** 		   size_type __n, const _Alloc& __a)
 494:/home/hubert/daisy/gcc/arm-none-eabi/include/c++/10.2.1/bits/basic_string.h ****       : _M_dataplus(_M_local_data(), __a)
 495:/home/hubert/daisy/gcc/arm-none-eabi/include/c++/10.2.1/bits/basic_string.h ****       {
 496:/home/hubert/daisy/gcc/arm-none-eabi/include/c++/10.2.1/bits/basic_string.h **** 	const _CharT* __start
 497:/home/hubert/daisy/gcc/arm-none-eabi/include/c++/10.2.1/bits/basic_string.h **** 	  = __str._M_data() + __str._M_check(__pos, "string::string");
 498:/home/hubert/daisy/gcc/arm-none-eabi/include/c++/10.2.1/bits/basic_string.h **** 	_M_construct(__start, __start + __str._M_limit(__pos, __n));
 499:/home/hubert/daisy/gcc/arm-none-eabi/include/c++/10.2.1/bits/basic_string.h ****       }
 500:/home/hubert/daisy/gcc/arm-none-eabi/include/c++/10.2.1/bits/basic_string.h **** 
 501:/home/hubert/daisy/gcc/arm-none-eabi/include/c++/10.2.1/bits/basic_string.h ****       /**
 502:/home/hubert/daisy/gcc/arm-none-eabi/include/c++/10.2.1/bits/basic_string.h ****        *  @brief  Construct string initialized by a character %array.
 503:/home/hubert/daisy/gcc/arm-none-eabi/include/c++/10.2.1/bits/basic_string.h ****        *  @param  __s  Source character %array.
 504:/home/hubert/daisy/gcc/arm-none-eabi/include/c++/10.2.1/bits/basic_string.h ****        *  @param  __n  Number of characters to copy.
 505:/home/hubert/daisy/gcc/arm-none-eabi/include/c++/10.2.1/bits/basic_string.h ****        *  @param  __a  Allocator to use (default is default allocator).
 506:/home/hubert/daisy/gcc/arm-none-eabi/include/c++/10.2.1/bits/basic_string.h ****        *
 507:/home/hubert/daisy/gcc/arm-none-eabi/include/c++/10.2.1/bits/basic_string.h ****        *  NB: @a __s must have at least @a __n characters, &apos;\\0&apos;
 508:/home/hubert/daisy/gcc/arm-none-eabi/include/c++/10.2.1/bits/basic_string.h ****        *  has no special meaning.
 509:/home/hubert/daisy/gcc/arm-none-eabi/include/c++/10.2.1/bits/basic_string.h ****        */
 510:/home/hubert/daisy/gcc/arm-none-eabi/include/c++/10.2.1/bits/basic_string.h ****       basic_string(const _CharT* __s, size_type __n,
 511:/home/hubert/daisy/gcc/arm-none-eabi/include/c++/10.2.1/bits/basic_string.h **** 		   const _Alloc& __a = _Alloc())
 512:/home/hubert/daisy/gcc/arm-none-eabi/include/c++/10.2.1/bits/basic_string.h ****       : _M_dataplus(_M_local_data(), __a)
 513:/home/hubert/daisy/gcc/arm-none-eabi/include/c++/10.2.1/bits/basic_string.h ****       { _M_construct(__s, __s + __n); }
 514:/home/hubert/daisy/gcc/arm-none-eabi/include/c++/10.2.1/bits/basic_string.h **** 
 515:/home/hubert/daisy/gcc/arm-none-eabi/include/c++/10.2.1/bits/basic_string.h ****       /**
 516:/home/hubert/daisy/gcc/arm-none-eabi/include/c++/10.2.1/bits/basic_string.h ****        *  @brief  Construct string as copy of a C string.
 517:/home/hubert/daisy/gcc/arm-none-eabi/include/c++/10.2.1/bits/basic_string.h ****        *  @param  __s  Source C string.
 518:/home/hubert/daisy/gcc/arm-none-eabi/include/c++/10.2.1/bits/basic_string.h ****        *  @param  __a  Allocator to use (default is default allocator).
 519:/home/hubert/daisy/gcc/arm-none-eabi/include/c++/10.2.1/bits/basic_string.h ****        */
 520:/home/hubert/daisy/gcc/arm-none-eabi/include/c++/10.2.1/bits/basic_string.h **** #if __cpp_deduction_guides && ! defined _GLIBCXX_DEFINING_STRING_INSTANTIATIONS
 521:/home/hubert/daisy/gcc/arm-none-eabi/include/c++/10.2.1/bits/basic_string.h ****       // _GLIBCXX_RESOLVE_LIB_DEFECTS
 522:/home/hubert/daisy/gcc/arm-none-eabi/include/c++/10.2.1/bits/basic_string.h ****       // 3076. basic_string CTAD ambiguity
 523:/home/hubert/daisy/gcc/arm-none-eabi/include/c++/10.2.1/bits/basic_string.h ****       template<typename = _RequireAllocator<_Alloc>>
 524:/home/hubert/daisy/gcc/arm-none-eabi/include/c++/10.2.1/bits/basic_string.h **** #endif
 525:/home/hubert/daisy/gcc/arm-none-eabi/include/c++/10.2.1/bits/basic_string.h ****       basic_string(const _CharT* __s, const _Alloc& __a = _Alloc())
 526:/home/hubert/daisy/gcc/arm-none-eabi/include/c++/10.2.1/bits/basic_string.h ****       : _M_dataplus(_M_local_data(), __a)
ARM GAS  /tmp/cczoWLZx.s 			page 30


 527:/home/hubert/daisy/gcc/arm-none-eabi/include/c++/10.2.1/bits/basic_string.h ****       { _M_construct(__s, __s ? __s + traits_type::length(__s) : __s+npos); }
 528:/home/hubert/daisy/gcc/arm-none-eabi/include/c++/10.2.1/bits/basic_string.h **** 
 529:/home/hubert/daisy/gcc/arm-none-eabi/include/c++/10.2.1/bits/basic_string.h ****       /**
 530:/home/hubert/daisy/gcc/arm-none-eabi/include/c++/10.2.1/bits/basic_string.h ****        *  @brief  Construct string as multiple characters.
 531:/home/hubert/daisy/gcc/arm-none-eabi/include/c++/10.2.1/bits/basic_string.h ****        *  @param  __n  Number of characters.
 532:/home/hubert/daisy/gcc/arm-none-eabi/include/c++/10.2.1/bits/basic_string.h ****        *  @param  __c  Character to use.
 533:/home/hubert/daisy/gcc/arm-none-eabi/include/c++/10.2.1/bits/basic_string.h ****        *  @param  __a  Allocator to use (default is default allocator).
 534:/home/hubert/daisy/gcc/arm-none-eabi/include/c++/10.2.1/bits/basic_string.h ****        */
 535:/home/hubert/daisy/gcc/arm-none-eabi/include/c++/10.2.1/bits/basic_string.h **** #if __cpp_deduction_guides && ! defined _GLIBCXX_DEFINING_STRING_INSTANTIATIONS
 536:/home/hubert/daisy/gcc/arm-none-eabi/include/c++/10.2.1/bits/basic_string.h ****       // _GLIBCXX_RESOLVE_LIB_DEFECTS
 537:/home/hubert/daisy/gcc/arm-none-eabi/include/c++/10.2.1/bits/basic_string.h ****       // 3076. basic_string CTAD ambiguity
 538:/home/hubert/daisy/gcc/arm-none-eabi/include/c++/10.2.1/bits/basic_string.h ****       template<typename = _RequireAllocator<_Alloc>>
 539:/home/hubert/daisy/gcc/arm-none-eabi/include/c++/10.2.1/bits/basic_string.h **** #endif
 540:/home/hubert/daisy/gcc/arm-none-eabi/include/c++/10.2.1/bits/basic_string.h ****       basic_string(size_type __n, _CharT __c, const _Alloc& __a = _Alloc())
 541:/home/hubert/daisy/gcc/arm-none-eabi/include/c++/10.2.1/bits/basic_string.h ****       : _M_dataplus(_M_local_data(), __a)
 542:/home/hubert/daisy/gcc/arm-none-eabi/include/c++/10.2.1/bits/basic_string.h ****       { _M_construct(__n, __c); }
 543:/home/hubert/daisy/gcc/arm-none-eabi/include/c++/10.2.1/bits/basic_string.h **** 
 544:/home/hubert/daisy/gcc/arm-none-eabi/include/c++/10.2.1/bits/basic_string.h **** #if __cplusplus >= 201103L
 545:/home/hubert/daisy/gcc/arm-none-eabi/include/c++/10.2.1/bits/basic_string.h ****       /**
 546:/home/hubert/daisy/gcc/arm-none-eabi/include/c++/10.2.1/bits/basic_string.h ****        *  @brief  Move construct string.
 547:/home/hubert/daisy/gcc/arm-none-eabi/include/c++/10.2.1/bits/basic_string.h ****        *  @param  __str  Source string.
 548:/home/hubert/daisy/gcc/arm-none-eabi/include/c++/10.2.1/bits/basic_string.h ****        *
 549:/home/hubert/daisy/gcc/arm-none-eabi/include/c++/10.2.1/bits/basic_string.h ****        *  The newly-created string contains the exact contents of @a __str.
 550:/home/hubert/daisy/gcc/arm-none-eabi/include/c++/10.2.1/bits/basic_string.h ****        *  @a __str is a valid, but unspecified string.
 551:/home/hubert/daisy/gcc/arm-none-eabi/include/c++/10.2.1/bits/basic_string.h ****        **/
 552:/home/hubert/daisy/gcc/arm-none-eabi/include/c++/10.2.1/bits/basic_string.h ****       basic_string(basic_string&& __str) noexcept
 553:/home/hubert/daisy/gcc/arm-none-eabi/include/c++/10.2.1/bits/basic_string.h ****       : _M_dataplus(_M_local_data(), std::move(__str._M_get_allocator()))
 554:/home/hubert/daisy/gcc/arm-none-eabi/include/c++/10.2.1/bits/basic_string.h ****       {
 555:/home/hubert/daisy/gcc/arm-none-eabi/include/c++/10.2.1/bits/basic_string.h **** 	if (__str._M_is_local())
 556:/home/hubert/daisy/gcc/arm-none-eabi/include/c++/10.2.1/bits/basic_string.h **** 	  {
 557:/home/hubert/daisy/gcc/arm-none-eabi/include/c++/10.2.1/bits/basic_string.h **** 	    traits_type::copy(_M_local_buf, __str._M_local_buf,
 558:/home/hubert/daisy/gcc/arm-none-eabi/include/c++/10.2.1/bits/basic_string.h **** 			      _S_local_capacity + 1);
 559:/home/hubert/daisy/gcc/arm-none-eabi/include/c++/10.2.1/bits/basic_string.h **** 	  }
 560:/home/hubert/daisy/gcc/arm-none-eabi/include/c++/10.2.1/bits/basic_string.h **** 	else
 561:/home/hubert/daisy/gcc/arm-none-eabi/include/c++/10.2.1/bits/basic_string.h **** 	  {
 562:/home/hubert/daisy/gcc/arm-none-eabi/include/c++/10.2.1/bits/basic_string.h **** 	    _M_data(__str._M_data());
 563:/home/hubert/daisy/gcc/arm-none-eabi/include/c++/10.2.1/bits/basic_string.h **** 	    _M_capacity(__str._M_allocated_capacity);
 564:/home/hubert/daisy/gcc/arm-none-eabi/include/c++/10.2.1/bits/basic_string.h **** 	  }
 565:/home/hubert/daisy/gcc/arm-none-eabi/include/c++/10.2.1/bits/basic_string.h **** 
 566:/home/hubert/daisy/gcc/arm-none-eabi/include/c++/10.2.1/bits/basic_string.h **** 	// Must use _M_length() here not _M_set_length() because
 567:/home/hubert/daisy/gcc/arm-none-eabi/include/c++/10.2.1/bits/basic_string.h **** 	// basic_stringbuf relies on writing into unallocated capacity so
 568:/home/hubert/daisy/gcc/arm-none-eabi/include/c++/10.2.1/bits/basic_string.h **** 	// we mess up the contents if we put a '\0' in the string.
 569:/home/hubert/daisy/gcc/arm-none-eabi/include/c++/10.2.1/bits/basic_string.h **** 	_M_length(__str.length());
 570:/home/hubert/daisy/gcc/arm-none-eabi/include/c++/10.2.1/bits/basic_string.h **** 	__str._M_data(__str._M_local_data());
 571:/home/hubert/daisy/gcc/arm-none-eabi/include/c++/10.2.1/bits/basic_string.h **** 	__str._M_set_length(0);
 572:/home/hubert/daisy/gcc/arm-none-eabi/include/c++/10.2.1/bits/basic_string.h ****       }
 573:/home/hubert/daisy/gcc/arm-none-eabi/include/c++/10.2.1/bits/basic_string.h **** 
 574:/home/hubert/daisy/gcc/arm-none-eabi/include/c++/10.2.1/bits/basic_string.h ****       /**
 575:/home/hubert/daisy/gcc/arm-none-eabi/include/c++/10.2.1/bits/basic_string.h ****        *  @brief  Construct string from an initializer %list.
 576:/home/hubert/daisy/gcc/arm-none-eabi/include/c++/10.2.1/bits/basic_string.h ****        *  @param  __l  std::initializer_list of characters.
 577:/home/hubert/daisy/gcc/arm-none-eabi/include/c++/10.2.1/bits/basic_string.h ****        *  @param  __a  Allocator to use (default is default allocator).
 578:/home/hubert/daisy/gcc/arm-none-eabi/include/c++/10.2.1/bits/basic_string.h ****        */
 579:/home/hubert/daisy/gcc/arm-none-eabi/include/c++/10.2.1/bits/basic_string.h ****       basic_string(initializer_list<_CharT> __l, const _Alloc& __a = _Alloc())
 580:/home/hubert/daisy/gcc/arm-none-eabi/include/c++/10.2.1/bits/basic_string.h ****       : _M_dataplus(_M_local_data(), __a)
 581:/home/hubert/daisy/gcc/arm-none-eabi/include/c++/10.2.1/bits/basic_string.h ****       { _M_construct(__l.begin(), __l.end()); }
 582:/home/hubert/daisy/gcc/arm-none-eabi/include/c++/10.2.1/bits/basic_string.h **** 
 583:/home/hubert/daisy/gcc/arm-none-eabi/include/c++/10.2.1/bits/basic_string.h ****       basic_string(const basic_string& __str, const _Alloc& __a)
ARM GAS  /tmp/cczoWLZx.s 			page 31


 584:/home/hubert/daisy/gcc/arm-none-eabi/include/c++/10.2.1/bits/basic_string.h ****       : _M_dataplus(_M_local_data(), __a)
 585:/home/hubert/daisy/gcc/arm-none-eabi/include/c++/10.2.1/bits/basic_string.h ****       { _M_construct(__str.begin(), __str.end()); }
 586:/home/hubert/daisy/gcc/arm-none-eabi/include/c++/10.2.1/bits/basic_string.h **** 
 587:/home/hubert/daisy/gcc/arm-none-eabi/include/c++/10.2.1/bits/basic_string.h ****       basic_string(basic_string&& __str, const _Alloc& __a)
 588:/home/hubert/daisy/gcc/arm-none-eabi/include/c++/10.2.1/bits/basic_string.h ****       noexcept(_Alloc_traits::_S_always_equal())
 589:/home/hubert/daisy/gcc/arm-none-eabi/include/c++/10.2.1/bits/basic_string.h ****       : _M_dataplus(_M_local_data(), __a)
 590:/home/hubert/daisy/gcc/arm-none-eabi/include/c++/10.2.1/bits/basic_string.h ****       {
 591:/home/hubert/daisy/gcc/arm-none-eabi/include/c++/10.2.1/bits/basic_string.h **** 	if (__str._M_is_local())
 592:/home/hubert/daisy/gcc/arm-none-eabi/include/c++/10.2.1/bits/basic_string.h **** 	  {
 593:/home/hubert/daisy/gcc/arm-none-eabi/include/c++/10.2.1/bits/basic_string.h **** 	    traits_type::copy(_M_local_buf, __str._M_local_buf,
 594:/home/hubert/daisy/gcc/arm-none-eabi/include/c++/10.2.1/bits/basic_string.h **** 			      _S_local_capacity + 1);
 595:/home/hubert/daisy/gcc/arm-none-eabi/include/c++/10.2.1/bits/basic_string.h **** 	    _M_length(__str.length());
 596:/home/hubert/daisy/gcc/arm-none-eabi/include/c++/10.2.1/bits/basic_string.h **** 	    __str._M_set_length(0);
 597:/home/hubert/daisy/gcc/arm-none-eabi/include/c++/10.2.1/bits/basic_string.h **** 	  }
 598:/home/hubert/daisy/gcc/arm-none-eabi/include/c++/10.2.1/bits/basic_string.h **** 	else if (_Alloc_traits::_S_always_equal()
 599:/home/hubert/daisy/gcc/arm-none-eabi/include/c++/10.2.1/bits/basic_string.h **** 	    || __str.get_allocator() == __a)
 600:/home/hubert/daisy/gcc/arm-none-eabi/include/c++/10.2.1/bits/basic_string.h **** 	  {
 601:/home/hubert/daisy/gcc/arm-none-eabi/include/c++/10.2.1/bits/basic_string.h **** 	    _M_data(__str._M_data());
 602:/home/hubert/daisy/gcc/arm-none-eabi/include/c++/10.2.1/bits/basic_string.h **** 	    _M_length(__str.length());
 603:/home/hubert/daisy/gcc/arm-none-eabi/include/c++/10.2.1/bits/basic_string.h **** 	    _M_capacity(__str._M_allocated_capacity);
 604:/home/hubert/daisy/gcc/arm-none-eabi/include/c++/10.2.1/bits/basic_string.h **** 	    __str._M_data(__str._M_local_buf);
 605:/home/hubert/daisy/gcc/arm-none-eabi/include/c++/10.2.1/bits/basic_string.h **** 	    __str._M_set_length(0);
 606:/home/hubert/daisy/gcc/arm-none-eabi/include/c++/10.2.1/bits/basic_string.h **** 	  }
 607:/home/hubert/daisy/gcc/arm-none-eabi/include/c++/10.2.1/bits/basic_string.h **** 	else
 608:/home/hubert/daisy/gcc/arm-none-eabi/include/c++/10.2.1/bits/basic_string.h **** 	  _M_construct(__str.begin(), __str.end());
 609:/home/hubert/daisy/gcc/arm-none-eabi/include/c++/10.2.1/bits/basic_string.h ****       }
 610:/home/hubert/daisy/gcc/arm-none-eabi/include/c++/10.2.1/bits/basic_string.h **** 
 611:/home/hubert/daisy/gcc/arm-none-eabi/include/c++/10.2.1/bits/basic_string.h **** #endif // C++11
 612:/home/hubert/daisy/gcc/arm-none-eabi/include/c++/10.2.1/bits/basic_string.h **** 
 613:/home/hubert/daisy/gcc/arm-none-eabi/include/c++/10.2.1/bits/basic_string.h ****       /**
 614:/home/hubert/daisy/gcc/arm-none-eabi/include/c++/10.2.1/bits/basic_string.h ****        *  @brief  Construct string as copy of a range.
 615:/home/hubert/daisy/gcc/arm-none-eabi/include/c++/10.2.1/bits/basic_string.h ****        *  @param  __beg  Start of range.
 616:/home/hubert/daisy/gcc/arm-none-eabi/include/c++/10.2.1/bits/basic_string.h ****        *  @param  __end  End of range.
 617:/home/hubert/daisy/gcc/arm-none-eabi/include/c++/10.2.1/bits/basic_string.h ****        *  @param  __a  Allocator to use (default is default allocator).
 618:/home/hubert/daisy/gcc/arm-none-eabi/include/c++/10.2.1/bits/basic_string.h ****        */
 619:/home/hubert/daisy/gcc/arm-none-eabi/include/c++/10.2.1/bits/basic_string.h **** #if __cplusplus >= 201103L
 620:/home/hubert/daisy/gcc/arm-none-eabi/include/c++/10.2.1/bits/basic_string.h ****       template<typename _InputIterator,
 621:/home/hubert/daisy/gcc/arm-none-eabi/include/c++/10.2.1/bits/basic_string.h **** 	       typename = std::_RequireInputIter<_InputIterator>>
 622:/home/hubert/daisy/gcc/arm-none-eabi/include/c++/10.2.1/bits/basic_string.h **** #else
 623:/home/hubert/daisy/gcc/arm-none-eabi/include/c++/10.2.1/bits/basic_string.h ****       template<typename _InputIterator>
 624:/home/hubert/daisy/gcc/arm-none-eabi/include/c++/10.2.1/bits/basic_string.h **** #endif
 625:/home/hubert/daisy/gcc/arm-none-eabi/include/c++/10.2.1/bits/basic_string.h ****         basic_string(_InputIterator __beg, _InputIterator __end,
 626:/home/hubert/daisy/gcc/arm-none-eabi/include/c++/10.2.1/bits/basic_string.h **** 		     const _Alloc& __a = _Alloc())
 627:/home/hubert/daisy/gcc/arm-none-eabi/include/c++/10.2.1/bits/basic_string.h **** 	: _M_dataplus(_M_local_data(), __a)
 628:/home/hubert/daisy/gcc/arm-none-eabi/include/c++/10.2.1/bits/basic_string.h **** 	{ _M_construct(__beg, __end); }
 629:/home/hubert/daisy/gcc/arm-none-eabi/include/c++/10.2.1/bits/basic_string.h **** 
 630:/home/hubert/daisy/gcc/arm-none-eabi/include/c++/10.2.1/bits/basic_string.h **** #if __cplusplus >= 201703L
 631:/home/hubert/daisy/gcc/arm-none-eabi/include/c++/10.2.1/bits/basic_string.h ****       /**
 632:/home/hubert/daisy/gcc/arm-none-eabi/include/c++/10.2.1/bits/basic_string.h ****        *  @brief  Construct string from a substring of a string_view.
 633:/home/hubert/daisy/gcc/arm-none-eabi/include/c++/10.2.1/bits/basic_string.h ****        *  @param  __t   Source object convertible to string view.
 634:/home/hubert/daisy/gcc/arm-none-eabi/include/c++/10.2.1/bits/basic_string.h ****        *  @param  __pos The index of the first character to copy from __t.
 635:/home/hubert/daisy/gcc/arm-none-eabi/include/c++/10.2.1/bits/basic_string.h ****        *  @param  __n   The number of characters to copy from __t.
 636:/home/hubert/daisy/gcc/arm-none-eabi/include/c++/10.2.1/bits/basic_string.h ****        *  @param  __a   Allocator to use.
 637:/home/hubert/daisy/gcc/arm-none-eabi/include/c++/10.2.1/bits/basic_string.h ****        */
 638:/home/hubert/daisy/gcc/arm-none-eabi/include/c++/10.2.1/bits/basic_string.h ****       template<typename _Tp, typename = _If_sv<_Tp, void>>
 639:/home/hubert/daisy/gcc/arm-none-eabi/include/c++/10.2.1/bits/basic_string.h **** 	basic_string(const _Tp& __t, size_type __pos, size_type __n,
 640:/home/hubert/daisy/gcc/arm-none-eabi/include/c++/10.2.1/bits/basic_string.h **** 		     const _Alloc& __a = _Alloc())
ARM GAS  /tmp/cczoWLZx.s 			page 32


 641:/home/hubert/daisy/gcc/arm-none-eabi/include/c++/10.2.1/bits/basic_string.h **** 	: basic_string(_S_to_string_view(__t).substr(__pos, __n), __a) { }
 642:/home/hubert/daisy/gcc/arm-none-eabi/include/c++/10.2.1/bits/basic_string.h **** 
 643:/home/hubert/daisy/gcc/arm-none-eabi/include/c++/10.2.1/bits/basic_string.h ****       /**
 644:/home/hubert/daisy/gcc/arm-none-eabi/include/c++/10.2.1/bits/basic_string.h ****        *  @brief  Construct string from a string_view.
 645:/home/hubert/daisy/gcc/arm-none-eabi/include/c++/10.2.1/bits/basic_string.h ****        *  @param  __t  Source object convertible to string view.
 646:/home/hubert/daisy/gcc/arm-none-eabi/include/c++/10.2.1/bits/basic_string.h ****        *  @param  __a  Allocator to use (default is default allocator).
 647:/home/hubert/daisy/gcc/arm-none-eabi/include/c++/10.2.1/bits/basic_string.h ****        */
 648:/home/hubert/daisy/gcc/arm-none-eabi/include/c++/10.2.1/bits/basic_string.h ****       template<typename _Tp, typename = _If_sv<_Tp, void>>
 649:/home/hubert/daisy/gcc/arm-none-eabi/include/c++/10.2.1/bits/basic_string.h **** 	explicit
 650:/home/hubert/daisy/gcc/arm-none-eabi/include/c++/10.2.1/bits/basic_string.h **** 	basic_string(const _Tp& __t, const _Alloc& __a = _Alloc())
 651:/home/hubert/daisy/gcc/arm-none-eabi/include/c++/10.2.1/bits/basic_string.h **** 	: basic_string(__sv_wrapper(_S_to_string_view(__t)), __a) { }
 652:/home/hubert/daisy/gcc/arm-none-eabi/include/c++/10.2.1/bits/basic_string.h **** #endif // C++17
 653:/home/hubert/daisy/gcc/arm-none-eabi/include/c++/10.2.1/bits/basic_string.h **** 
 654:/home/hubert/daisy/gcc/arm-none-eabi/include/c++/10.2.1/bits/basic_string.h ****       /**
 655:/home/hubert/daisy/gcc/arm-none-eabi/include/c++/10.2.1/bits/basic_string.h ****        *  @brief  Destroy the string instance.
 656:/home/hubert/daisy/gcc/arm-none-eabi/include/c++/10.2.1/bits/basic_string.h ****        */
 657:/home/hubert/daisy/gcc/arm-none-eabi/include/c++/10.2.1/bits/basic_string.h ****       ~basic_string()
 658:/home/hubert/daisy/gcc/arm-none-eabi/include/c++/10.2.1/bits/basic_string.h ****       { _M_dispose(); }
 659:/home/hubert/daisy/gcc/arm-none-eabi/include/c++/10.2.1/bits/basic_string.h **** 
 660:/home/hubert/daisy/gcc/arm-none-eabi/include/c++/10.2.1/bits/basic_string.h ****       /**
 661:/home/hubert/daisy/gcc/arm-none-eabi/include/c++/10.2.1/bits/basic_string.h ****        *  @brief  Assign the value of @a str to this string.
 662:/home/hubert/daisy/gcc/arm-none-eabi/include/c++/10.2.1/bits/basic_string.h ****        *  @param  __str  Source string.
 663:/home/hubert/daisy/gcc/arm-none-eabi/include/c++/10.2.1/bits/basic_string.h ****        */
 664:/home/hubert/daisy/gcc/arm-none-eabi/include/c++/10.2.1/bits/basic_string.h ****       basic_string&
 665:/home/hubert/daisy/gcc/arm-none-eabi/include/c++/10.2.1/bits/basic_string.h ****       operator=(const basic_string& __str)
 666:/home/hubert/daisy/gcc/arm-none-eabi/include/c++/10.2.1/bits/basic_string.h ****       {
 667:/home/hubert/daisy/gcc/arm-none-eabi/include/c++/10.2.1/bits/basic_string.h **** 	return this->assign(__str);
 668:/home/hubert/daisy/gcc/arm-none-eabi/include/c++/10.2.1/bits/basic_string.h ****       }
 669:/home/hubert/daisy/gcc/arm-none-eabi/include/c++/10.2.1/bits/basic_string.h **** 
 670:/home/hubert/daisy/gcc/arm-none-eabi/include/c++/10.2.1/bits/basic_string.h ****       /**
 671:/home/hubert/daisy/gcc/arm-none-eabi/include/c++/10.2.1/bits/basic_string.h ****        *  @brief  Copy contents of @a s into this string.
 672:/home/hubert/daisy/gcc/arm-none-eabi/include/c++/10.2.1/bits/basic_string.h ****        *  @param  __s  Source null-terminated string.
 673:/home/hubert/daisy/gcc/arm-none-eabi/include/c++/10.2.1/bits/basic_string.h ****        */
 674:/home/hubert/daisy/gcc/arm-none-eabi/include/c++/10.2.1/bits/basic_string.h ****       basic_string&
 675:/home/hubert/daisy/gcc/arm-none-eabi/include/c++/10.2.1/bits/basic_string.h ****       operator=(const _CharT* __s)
 676:/home/hubert/daisy/gcc/arm-none-eabi/include/c++/10.2.1/bits/basic_string.h ****       { return this->assign(__s); }
 677:/home/hubert/daisy/gcc/arm-none-eabi/include/c++/10.2.1/bits/basic_string.h **** 
 678:/home/hubert/daisy/gcc/arm-none-eabi/include/c++/10.2.1/bits/basic_string.h ****       /**
 679:/home/hubert/daisy/gcc/arm-none-eabi/include/c++/10.2.1/bits/basic_string.h ****        *  @brief  Set value to string of length 1.
 680:/home/hubert/daisy/gcc/arm-none-eabi/include/c++/10.2.1/bits/basic_string.h ****        *  @param  __c  Source character.
 681:/home/hubert/daisy/gcc/arm-none-eabi/include/c++/10.2.1/bits/basic_string.h ****        *
 682:/home/hubert/daisy/gcc/arm-none-eabi/include/c++/10.2.1/bits/basic_string.h ****        *  Assigning to a character makes this string length 1 and
 683:/home/hubert/daisy/gcc/arm-none-eabi/include/c++/10.2.1/bits/basic_string.h ****        *  (*this)[0] == @a c.
 684:/home/hubert/daisy/gcc/arm-none-eabi/include/c++/10.2.1/bits/basic_string.h ****        */
 685:/home/hubert/daisy/gcc/arm-none-eabi/include/c++/10.2.1/bits/basic_string.h ****       basic_string&
 686:/home/hubert/daisy/gcc/arm-none-eabi/include/c++/10.2.1/bits/basic_string.h ****       operator=(_CharT __c)
 687:/home/hubert/daisy/gcc/arm-none-eabi/include/c++/10.2.1/bits/basic_string.h ****       {
 688:/home/hubert/daisy/gcc/arm-none-eabi/include/c++/10.2.1/bits/basic_string.h **** 	this->assign(1, __c);
 689:/home/hubert/daisy/gcc/arm-none-eabi/include/c++/10.2.1/bits/basic_string.h **** 	return *this;
 690:/home/hubert/daisy/gcc/arm-none-eabi/include/c++/10.2.1/bits/basic_string.h ****       }
 691:/home/hubert/daisy/gcc/arm-none-eabi/include/c++/10.2.1/bits/basic_string.h **** 
 692:/home/hubert/daisy/gcc/arm-none-eabi/include/c++/10.2.1/bits/basic_string.h **** #if __cplusplus >= 201103L
 693:/home/hubert/daisy/gcc/arm-none-eabi/include/c++/10.2.1/bits/basic_string.h ****       /**
 694:/home/hubert/daisy/gcc/arm-none-eabi/include/c++/10.2.1/bits/basic_string.h ****        *  @brief  Move assign the value of @a str to this string.
 695:/home/hubert/daisy/gcc/arm-none-eabi/include/c++/10.2.1/bits/basic_string.h ****        *  @param  __str  Source string.
 696:/home/hubert/daisy/gcc/arm-none-eabi/include/c++/10.2.1/bits/basic_string.h ****        *
 697:/home/hubert/daisy/gcc/arm-none-eabi/include/c++/10.2.1/bits/basic_string.h ****        *  The contents of @a str are moved into this string (without copying).
ARM GAS  /tmp/cczoWLZx.s 			page 33


 698:/home/hubert/daisy/gcc/arm-none-eabi/include/c++/10.2.1/bits/basic_string.h ****        *  @a str is a valid, but unspecified string.
 699:/home/hubert/daisy/gcc/arm-none-eabi/include/c++/10.2.1/bits/basic_string.h ****        **/
 700:/home/hubert/daisy/gcc/arm-none-eabi/include/c++/10.2.1/bits/basic_string.h ****       // _GLIBCXX_RESOLVE_LIB_DEFECTS
 701:/home/hubert/daisy/gcc/arm-none-eabi/include/c++/10.2.1/bits/basic_string.h ****       // 2063. Contradictory requirements for string move assignment
 702:/home/hubert/daisy/gcc/arm-none-eabi/include/c++/10.2.1/bits/basic_string.h ****       basic_string&
 703:/home/hubert/daisy/gcc/arm-none-eabi/include/c++/10.2.1/bits/basic_string.h ****       operator=(basic_string&& __str)
 704:/home/hubert/daisy/gcc/arm-none-eabi/include/c++/10.2.1/bits/basic_string.h ****       noexcept(_Alloc_traits::_S_nothrow_move())
 705:/home/hubert/daisy/gcc/arm-none-eabi/include/c++/10.2.1/bits/basic_string.h ****       {
 706:/home/hubert/daisy/gcc/arm-none-eabi/include/c++/10.2.1/bits/basic_string.h **** 	if (!_M_is_local() && _Alloc_traits::_S_propagate_on_move_assign()
 707:/home/hubert/daisy/gcc/arm-none-eabi/include/c++/10.2.1/bits/basic_string.h **** 	    && !_Alloc_traits::_S_always_equal()
 708:/home/hubert/daisy/gcc/arm-none-eabi/include/c++/10.2.1/bits/basic_string.h **** 	    && _M_get_allocator() != __str._M_get_allocator())
 709:/home/hubert/daisy/gcc/arm-none-eabi/include/c++/10.2.1/bits/basic_string.h **** 	  {
 710:/home/hubert/daisy/gcc/arm-none-eabi/include/c++/10.2.1/bits/basic_string.h **** 	    // Destroy existing storage before replacing allocator.
 711:/home/hubert/daisy/gcc/arm-none-eabi/include/c++/10.2.1/bits/basic_string.h **** 	    _M_destroy(_M_allocated_capacity);
 712:/home/hubert/daisy/gcc/arm-none-eabi/include/c++/10.2.1/bits/basic_string.h **** 	    _M_data(_M_local_data());
 713:/home/hubert/daisy/gcc/arm-none-eabi/include/c++/10.2.1/bits/basic_string.h **** 	    _M_set_length(0);
 714:/home/hubert/daisy/gcc/arm-none-eabi/include/c++/10.2.1/bits/basic_string.h **** 	  }
 715:/home/hubert/daisy/gcc/arm-none-eabi/include/c++/10.2.1/bits/basic_string.h **** 	// Replace allocator if POCMA is true.
 716:/home/hubert/daisy/gcc/arm-none-eabi/include/c++/10.2.1/bits/basic_string.h **** 	std::__alloc_on_move(_M_get_allocator(), __str._M_get_allocator());
 717:/home/hubert/daisy/gcc/arm-none-eabi/include/c++/10.2.1/bits/basic_string.h **** 
 718:/home/hubert/daisy/gcc/arm-none-eabi/include/c++/10.2.1/bits/basic_string.h **** 	if (__str._M_is_local())
 719:/home/hubert/daisy/gcc/arm-none-eabi/include/c++/10.2.1/bits/basic_string.h **** 	  {
 720:/home/hubert/daisy/gcc/arm-none-eabi/include/c++/10.2.1/bits/basic_string.h **** 	    // We've always got room for a short string, just copy it.
 721:/home/hubert/daisy/gcc/arm-none-eabi/include/c++/10.2.1/bits/basic_string.h **** 	    if (__str.size())
 722:/home/hubert/daisy/gcc/arm-none-eabi/include/c++/10.2.1/bits/basic_string.h **** 	      this->_S_copy(_M_data(), __str._M_data(), __str.size());
 723:/home/hubert/daisy/gcc/arm-none-eabi/include/c++/10.2.1/bits/basic_string.h **** 	    _M_set_length(__str.size());
 724:/home/hubert/daisy/gcc/arm-none-eabi/include/c++/10.2.1/bits/basic_string.h **** 	  }
 725:/home/hubert/daisy/gcc/arm-none-eabi/include/c++/10.2.1/bits/basic_string.h **** 	else if (_Alloc_traits::_S_propagate_on_move_assign()
 726:/home/hubert/daisy/gcc/arm-none-eabi/include/c++/10.2.1/bits/basic_string.h **** 	    || _Alloc_traits::_S_always_equal()
 727:/home/hubert/daisy/gcc/arm-none-eabi/include/c++/10.2.1/bits/basic_string.h **** 	    || _M_get_allocator() == __str._M_get_allocator())
 728:/home/hubert/daisy/gcc/arm-none-eabi/include/c++/10.2.1/bits/basic_string.h **** 	  {
 729:/home/hubert/daisy/gcc/arm-none-eabi/include/c++/10.2.1/bits/basic_string.h **** 	    // Just move the allocated pointer, our allocator can free it.
 730:/home/hubert/daisy/gcc/arm-none-eabi/include/c++/10.2.1/bits/basic_string.h **** 	    pointer __data = nullptr;
 731:/home/hubert/daisy/gcc/arm-none-eabi/include/c++/10.2.1/bits/basic_string.h **** 	    size_type __capacity;
 732:/home/hubert/daisy/gcc/arm-none-eabi/include/c++/10.2.1/bits/basic_string.h **** 	    if (!_M_is_local())
 733:/home/hubert/daisy/gcc/arm-none-eabi/include/c++/10.2.1/bits/basic_string.h **** 	      {
 734:/home/hubert/daisy/gcc/arm-none-eabi/include/c++/10.2.1/bits/basic_string.h **** 		if (_Alloc_traits::_S_always_equal())
 735:/home/hubert/daisy/gcc/arm-none-eabi/include/c++/10.2.1/bits/basic_string.h **** 		  {
 736:/home/hubert/daisy/gcc/arm-none-eabi/include/c++/10.2.1/bits/basic_string.h **** 		    // __str can reuse our existing storage.
 737:/home/hubert/daisy/gcc/arm-none-eabi/include/c++/10.2.1/bits/basic_string.h **** 		    __data = _M_data();
 738:/home/hubert/daisy/gcc/arm-none-eabi/include/c++/10.2.1/bits/basic_string.h **** 		    __capacity = _M_allocated_capacity;
 739:/home/hubert/daisy/gcc/arm-none-eabi/include/c++/10.2.1/bits/basic_string.h **** 		  }
 740:/home/hubert/daisy/gcc/arm-none-eabi/include/c++/10.2.1/bits/basic_string.h **** 		else // __str can't use it, so free it.
 741:/home/hubert/daisy/gcc/arm-none-eabi/include/c++/10.2.1/bits/basic_string.h **** 		  _M_destroy(_M_allocated_capacity);
 742:/home/hubert/daisy/gcc/arm-none-eabi/include/c++/10.2.1/bits/basic_string.h **** 	      }
 743:/home/hubert/daisy/gcc/arm-none-eabi/include/c++/10.2.1/bits/basic_string.h **** 
 744:/home/hubert/daisy/gcc/arm-none-eabi/include/c++/10.2.1/bits/basic_string.h **** 	    _M_data(__str._M_data());
 745:/home/hubert/daisy/gcc/arm-none-eabi/include/c++/10.2.1/bits/basic_string.h **** 	    _M_length(__str.length());
 746:/home/hubert/daisy/gcc/arm-none-eabi/include/c++/10.2.1/bits/basic_string.h **** 	    _M_capacity(__str._M_allocated_capacity);
 747:/home/hubert/daisy/gcc/arm-none-eabi/include/c++/10.2.1/bits/basic_string.h **** 	    if (__data)
 748:/home/hubert/daisy/gcc/arm-none-eabi/include/c++/10.2.1/bits/basic_string.h **** 	      {
 749:/home/hubert/daisy/gcc/arm-none-eabi/include/c++/10.2.1/bits/basic_string.h **** 		__str._M_data(__data);
 750:/home/hubert/daisy/gcc/arm-none-eabi/include/c++/10.2.1/bits/basic_string.h **** 		__str._M_capacity(__capacity);
 751:/home/hubert/daisy/gcc/arm-none-eabi/include/c++/10.2.1/bits/basic_string.h **** 	      }
 752:/home/hubert/daisy/gcc/arm-none-eabi/include/c++/10.2.1/bits/basic_string.h **** 	    else
 753:/home/hubert/daisy/gcc/arm-none-eabi/include/c++/10.2.1/bits/basic_string.h **** 	      __str._M_data(__str._M_local_buf);
 754:/home/hubert/daisy/gcc/arm-none-eabi/include/c++/10.2.1/bits/basic_string.h **** 	  }
ARM GAS  /tmp/cczoWLZx.s 			page 34


 755:/home/hubert/daisy/gcc/arm-none-eabi/include/c++/10.2.1/bits/basic_string.h **** 	else // Need to do a deep copy
 756:/home/hubert/daisy/gcc/arm-none-eabi/include/c++/10.2.1/bits/basic_string.h **** 	  assign(__str);
 757:/home/hubert/daisy/gcc/arm-none-eabi/include/c++/10.2.1/bits/basic_string.h **** 	__str.clear();
 758:/home/hubert/daisy/gcc/arm-none-eabi/include/c++/10.2.1/bits/basic_string.h **** 	return *this;
 759:/home/hubert/daisy/gcc/arm-none-eabi/include/c++/10.2.1/bits/basic_string.h ****       }
 760:/home/hubert/daisy/gcc/arm-none-eabi/include/c++/10.2.1/bits/basic_string.h **** 
 761:/home/hubert/daisy/gcc/arm-none-eabi/include/c++/10.2.1/bits/basic_string.h ****       /**
 762:/home/hubert/daisy/gcc/arm-none-eabi/include/c++/10.2.1/bits/basic_string.h ****        *  @brief  Set value to string constructed from initializer %list.
 763:/home/hubert/daisy/gcc/arm-none-eabi/include/c++/10.2.1/bits/basic_string.h ****        *  @param  __l  std::initializer_list.
 764:/home/hubert/daisy/gcc/arm-none-eabi/include/c++/10.2.1/bits/basic_string.h ****        */
 765:/home/hubert/daisy/gcc/arm-none-eabi/include/c++/10.2.1/bits/basic_string.h ****       basic_string&
 766:/home/hubert/daisy/gcc/arm-none-eabi/include/c++/10.2.1/bits/basic_string.h ****       operator=(initializer_list<_CharT> __l)
 767:/home/hubert/daisy/gcc/arm-none-eabi/include/c++/10.2.1/bits/basic_string.h ****       {
 768:/home/hubert/daisy/gcc/arm-none-eabi/include/c++/10.2.1/bits/basic_string.h **** 	this->assign(__l.begin(), __l.size());
 769:/home/hubert/daisy/gcc/arm-none-eabi/include/c++/10.2.1/bits/basic_string.h **** 	return *this;
 770:/home/hubert/daisy/gcc/arm-none-eabi/include/c++/10.2.1/bits/basic_string.h ****       }
 771:/home/hubert/daisy/gcc/arm-none-eabi/include/c++/10.2.1/bits/basic_string.h **** #endif // C++11
 772:/home/hubert/daisy/gcc/arm-none-eabi/include/c++/10.2.1/bits/basic_string.h **** 
 773:/home/hubert/daisy/gcc/arm-none-eabi/include/c++/10.2.1/bits/basic_string.h **** #if __cplusplus >= 201703L
 774:/home/hubert/daisy/gcc/arm-none-eabi/include/c++/10.2.1/bits/basic_string.h ****       /**
 775:/home/hubert/daisy/gcc/arm-none-eabi/include/c++/10.2.1/bits/basic_string.h ****        *  @brief  Set value to string constructed from a string_view.
 776:/home/hubert/daisy/gcc/arm-none-eabi/include/c++/10.2.1/bits/basic_string.h ****        *  @param  __svt  An object convertible to string_view.
 777:/home/hubert/daisy/gcc/arm-none-eabi/include/c++/10.2.1/bits/basic_string.h ****        */
 778:/home/hubert/daisy/gcc/arm-none-eabi/include/c++/10.2.1/bits/basic_string.h ****      template<typename _Tp>
 779:/home/hubert/daisy/gcc/arm-none-eabi/include/c++/10.2.1/bits/basic_string.h ****        _If_sv<_Tp, basic_string&>
 780:/home/hubert/daisy/gcc/arm-none-eabi/include/c++/10.2.1/bits/basic_string.h ****        operator=(const _Tp& __svt)
 781:/home/hubert/daisy/gcc/arm-none-eabi/include/c++/10.2.1/bits/basic_string.h ****        { return this->assign(__svt); }
 782:/home/hubert/daisy/gcc/arm-none-eabi/include/c++/10.2.1/bits/basic_string.h **** 
 783:/home/hubert/daisy/gcc/arm-none-eabi/include/c++/10.2.1/bits/basic_string.h ****       /**
 784:/home/hubert/daisy/gcc/arm-none-eabi/include/c++/10.2.1/bits/basic_string.h ****        *  @brief  Convert to a string_view.
 785:/home/hubert/daisy/gcc/arm-none-eabi/include/c++/10.2.1/bits/basic_string.h ****        *  @return A string_view.
 786:/home/hubert/daisy/gcc/arm-none-eabi/include/c++/10.2.1/bits/basic_string.h ****        */
 787:/home/hubert/daisy/gcc/arm-none-eabi/include/c++/10.2.1/bits/basic_string.h ****       operator __sv_type() const noexcept
 788:/home/hubert/daisy/gcc/arm-none-eabi/include/c++/10.2.1/bits/basic_string.h ****       { return __sv_type(data(), size()); }
 789:/home/hubert/daisy/gcc/arm-none-eabi/include/c++/10.2.1/bits/basic_string.h **** #endif // C++17
 790:/home/hubert/daisy/gcc/arm-none-eabi/include/c++/10.2.1/bits/basic_string.h **** 
 791:/home/hubert/daisy/gcc/arm-none-eabi/include/c++/10.2.1/bits/basic_string.h ****       // Iterators:
 792:/home/hubert/daisy/gcc/arm-none-eabi/include/c++/10.2.1/bits/basic_string.h ****       /**
 793:/home/hubert/daisy/gcc/arm-none-eabi/include/c++/10.2.1/bits/basic_string.h ****        *  Returns a read/write iterator that points to the first character in
 794:/home/hubert/daisy/gcc/arm-none-eabi/include/c++/10.2.1/bits/basic_string.h ****        *  the %string.
 795:/home/hubert/daisy/gcc/arm-none-eabi/include/c++/10.2.1/bits/basic_string.h ****        */
 796:/home/hubert/daisy/gcc/arm-none-eabi/include/c++/10.2.1/bits/basic_string.h ****       iterator
 797:/home/hubert/daisy/gcc/arm-none-eabi/include/c++/10.2.1/bits/basic_string.h ****       begin() _GLIBCXX_NOEXCEPT
 798:/home/hubert/daisy/gcc/arm-none-eabi/include/c++/10.2.1/bits/basic_string.h ****       { return iterator(_M_data()); }
 799:/home/hubert/daisy/gcc/arm-none-eabi/include/c++/10.2.1/bits/basic_string.h **** 
 800:/home/hubert/daisy/gcc/arm-none-eabi/include/c++/10.2.1/bits/basic_string.h ****       /**
 801:/home/hubert/daisy/gcc/arm-none-eabi/include/c++/10.2.1/bits/basic_string.h ****        *  Returns a read-only (constant) iterator that points to the first
 802:/home/hubert/daisy/gcc/arm-none-eabi/include/c++/10.2.1/bits/basic_string.h ****        *  character in the %string.
 803:/home/hubert/daisy/gcc/arm-none-eabi/include/c++/10.2.1/bits/basic_string.h ****        */
 804:/home/hubert/daisy/gcc/arm-none-eabi/include/c++/10.2.1/bits/basic_string.h ****       const_iterator
 805:/home/hubert/daisy/gcc/arm-none-eabi/include/c++/10.2.1/bits/basic_string.h ****       begin() const _GLIBCXX_NOEXCEPT
 806:/home/hubert/daisy/gcc/arm-none-eabi/include/c++/10.2.1/bits/basic_string.h ****       { return const_iterator(_M_data()); }
 807:/home/hubert/daisy/gcc/arm-none-eabi/include/c++/10.2.1/bits/basic_string.h **** 
 808:/home/hubert/daisy/gcc/arm-none-eabi/include/c++/10.2.1/bits/basic_string.h ****       /**
 809:/home/hubert/daisy/gcc/arm-none-eabi/include/c++/10.2.1/bits/basic_string.h ****        *  Returns a read/write iterator that points one past the last
 810:/home/hubert/daisy/gcc/arm-none-eabi/include/c++/10.2.1/bits/basic_string.h ****        *  character in the %string.
 811:/home/hubert/daisy/gcc/arm-none-eabi/include/c++/10.2.1/bits/basic_string.h ****        */
ARM GAS  /tmp/cczoWLZx.s 			page 35


 812:/home/hubert/daisy/gcc/arm-none-eabi/include/c++/10.2.1/bits/basic_string.h ****       iterator
 813:/home/hubert/daisy/gcc/arm-none-eabi/include/c++/10.2.1/bits/basic_string.h ****       end() _GLIBCXX_NOEXCEPT
 814:/home/hubert/daisy/gcc/arm-none-eabi/include/c++/10.2.1/bits/basic_string.h ****       { return iterator(_M_data() + this->size()); }
 815:/home/hubert/daisy/gcc/arm-none-eabi/include/c++/10.2.1/bits/basic_string.h **** 
 816:/home/hubert/daisy/gcc/arm-none-eabi/include/c++/10.2.1/bits/basic_string.h ****       /**
 817:/home/hubert/daisy/gcc/arm-none-eabi/include/c++/10.2.1/bits/basic_string.h ****        *  Returns a read-only (constant) iterator that points one past the
 818:/home/hubert/daisy/gcc/arm-none-eabi/include/c++/10.2.1/bits/basic_string.h ****        *  last character in the %string.
 819:/home/hubert/daisy/gcc/arm-none-eabi/include/c++/10.2.1/bits/basic_string.h ****        */
 820:/home/hubert/daisy/gcc/arm-none-eabi/include/c++/10.2.1/bits/basic_string.h ****       const_iterator
 821:/home/hubert/daisy/gcc/arm-none-eabi/include/c++/10.2.1/bits/basic_string.h ****       end() const _GLIBCXX_NOEXCEPT
 822:/home/hubert/daisy/gcc/arm-none-eabi/include/c++/10.2.1/bits/basic_string.h ****       { return const_iterator(_M_data() + this->size()); }
 823:/home/hubert/daisy/gcc/arm-none-eabi/include/c++/10.2.1/bits/basic_string.h **** 
 824:/home/hubert/daisy/gcc/arm-none-eabi/include/c++/10.2.1/bits/basic_string.h ****       /**
 825:/home/hubert/daisy/gcc/arm-none-eabi/include/c++/10.2.1/bits/basic_string.h ****        *  Returns a read/write reverse iterator that points to the last
 826:/home/hubert/daisy/gcc/arm-none-eabi/include/c++/10.2.1/bits/basic_string.h ****        *  character in the %string.  Iteration is done in reverse element
 827:/home/hubert/daisy/gcc/arm-none-eabi/include/c++/10.2.1/bits/basic_string.h ****        *  order.
 828:/home/hubert/daisy/gcc/arm-none-eabi/include/c++/10.2.1/bits/basic_string.h ****        */
 829:/home/hubert/daisy/gcc/arm-none-eabi/include/c++/10.2.1/bits/basic_string.h ****       reverse_iterator
 830:/home/hubert/daisy/gcc/arm-none-eabi/include/c++/10.2.1/bits/basic_string.h ****       rbegin() _GLIBCXX_NOEXCEPT
 831:/home/hubert/daisy/gcc/arm-none-eabi/include/c++/10.2.1/bits/basic_string.h ****       { return reverse_iterator(this->end()); }
 832:/home/hubert/daisy/gcc/arm-none-eabi/include/c++/10.2.1/bits/basic_string.h **** 
 833:/home/hubert/daisy/gcc/arm-none-eabi/include/c++/10.2.1/bits/basic_string.h ****       /**
 834:/home/hubert/daisy/gcc/arm-none-eabi/include/c++/10.2.1/bits/basic_string.h ****        *  Returns a read-only (constant) reverse iterator that points
 835:/home/hubert/daisy/gcc/arm-none-eabi/include/c++/10.2.1/bits/basic_string.h ****        *  to the last character in the %string.  Iteration is done in
 836:/home/hubert/daisy/gcc/arm-none-eabi/include/c++/10.2.1/bits/basic_string.h ****        *  reverse element order.
 837:/home/hubert/daisy/gcc/arm-none-eabi/include/c++/10.2.1/bits/basic_string.h ****        */
 838:/home/hubert/daisy/gcc/arm-none-eabi/include/c++/10.2.1/bits/basic_string.h ****       const_reverse_iterator
 839:/home/hubert/daisy/gcc/arm-none-eabi/include/c++/10.2.1/bits/basic_string.h ****       rbegin() const _GLIBCXX_NOEXCEPT
 840:/home/hubert/daisy/gcc/arm-none-eabi/include/c++/10.2.1/bits/basic_string.h ****       { return const_reverse_iterator(this->end()); }
 841:/home/hubert/daisy/gcc/arm-none-eabi/include/c++/10.2.1/bits/basic_string.h **** 
 842:/home/hubert/daisy/gcc/arm-none-eabi/include/c++/10.2.1/bits/basic_string.h ****       /**
 843:/home/hubert/daisy/gcc/arm-none-eabi/include/c++/10.2.1/bits/basic_string.h ****        *  Returns a read/write reverse iterator that points to one before the
 844:/home/hubert/daisy/gcc/arm-none-eabi/include/c++/10.2.1/bits/basic_string.h ****        *  first character in the %string.  Iteration is done in reverse
 845:/home/hubert/daisy/gcc/arm-none-eabi/include/c++/10.2.1/bits/basic_string.h ****        *  element order.
 846:/home/hubert/daisy/gcc/arm-none-eabi/include/c++/10.2.1/bits/basic_string.h ****        */
 847:/home/hubert/daisy/gcc/arm-none-eabi/include/c++/10.2.1/bits/basic_string.h ****       reverse_iterator
 848:/home/hubert/daisy/gcc/arm-none-eabi/include/c++/10.2.1/bits/basic_string.h ****       rend() _GLIBCXX_NOEXCEPT
 849:/home/hubert/daisy/gcc/arm-none-eabi/include/c++/10.2.1/bits/basic_string.h ****       { return reverse_iterator(this->begin()); }
 850:/home/hubert/daisy/gcc/arm-none-eabi/include/c++/10.2.1/bits/basic_string.h **** 
 851:/home/hubert/daisy/gcc/arm-none-eabi/include/c++/10.2.1/bits/basic_string.h ****       /**
 852:/home/hubert/daisy/gcc/arm-none-eabi/include/c++/10.2.1/bits/basic_string.h ****        *  Returns a read-only (constant) reverse iterator that points
 853:/home/hubert/daisy/gcc/arm-none-eabi/include/c++/10.2.1/bits/basic_string.h ****        *  to one before the first character in the %string.  Iteration
 854:/home/hubert/daisy/gcc/arm-none-eabi/include/c++/10.2.1/bits/basic_string.h ****        *  is done in reverse element order.
 855:/home/hubert/daisy/gcc/arm-none-eabi/include/c++/10.2.1/bits/basic_string.h ****        */
 856:/home/hubert/daisy/gcc/arm-none-eabi/include/c++/10.2.1/bits/basic_string.h ****       const_reverse_iterator
 857:/home/hubert/daisy/gcc/arm-none-eabi/include/c++/10.2.1/bits/basic_string.h ****       rend() const _GLIBCXX_NOEXCEPT
 858:/home/hubert/daisy/gcc/arm-none-eabi/include/c++/10.2.1/bits/basic_string.h ****       { return const_reverse_iterator(this->begin()); }
 859:/home/hubert/daisy/gcc/arm-none-eabi/include/c++/10.2.1/bits/basic_string.h **** 
 860:/home/hubert/daisy/gcc/arm-none-eabi/include/c++/10.2.1/bits/basic_string.h **** #if __cplusplus >= 201103L
 861:/home/hubert/daisy/gcc/arm-none-eabi/include/c++/10.2.1/bits/basic_string.h ****       /**
 862:/home/hubert/daisy/gcc/arm-none-eabi/include/c++/10.2.1/bits/basic_string.h ****        *  Returns a read-only (constant) iterator that points to the first
 863:/home/hubert/daisy/gcc/arm-none-eabi/include/c++/10.2.1/bits/basic_string.h ****        *  character in the %string.
 864:/home/hubert/daisy/gcc/arm-none-eabi/include/c++/10.2.1/bits/basic_string.h ****        */
 865:/home/hubert/daisy/gcc/arm-none-eabi/include/c++/10.2.1/bits/basic_string.h ****       const_iterator
 866:/home/hubert/daisy/gcc/arm-none-eabi/include/c++/10.2.1/bits/basic_string.h ****       cbegin() const noexcept
 867:/home/hubert/daisy/gcc/arm-none-eabi/include/c++/10.2.1/bits/basic_string.h ****       { return const_iterator(this->_M_data()); }
 868:/home/hubert/daisy/gcc/arm-none-eabi/include/c++/10.2.1/bits/basic_string.h **** 
ARM GAS  /tmp/cczoWLZx.s 			page 36


 869:/home/hubert/daisy/gcc/arm-none-eabi/include/c++/10.2.1/bits/basic_string.h ****       /**
 870:/home/hubert/daisy/gcc/arm-none-eabi/include/c++/10.2.1/bits/basic_string.h ****        *  Returns a read-only (constant) iterator that points one past the
 871:/home/hubert/daisy/gcc/arm-none-eabi/include/c++/10.2.1/bits/basic_string.h ****        *  last character in the %string.
 872:/home/hubert/daisy/gcc/arm-none-eabi/include/c++/10.2.1/bits/basic_string.h ****        */
 873:/home/hubert/daisy/gcc/arm-none-eabi/include/c++/10.2.1/bits/basic_string.h ****       const_iterator
 874:/home/hubert/daisy/gcc/arm-none-eabi/include/c++/10.2.1/bits/basic_string.h ****       cend() const noexcept
 875:/home/hubert/daisy/gcc/arm-none-eabi/include/c++/10.2.1/bits/basic_string.h ****       { return const_iterator(this->_M_data() + this->size()); }
 876:/home/hubert/daisy/gcc/arm-none-eabi/include/c++/10.2.1/bits/basic_string.h **** 
 877:/home/hubert/daisy/gcc/arm-none-eabi/include/c++/10.2.1/bits/basic_string.h ****       /**
 878:/home/hubert/daisy/gcc/arm-none-eabi/include/c++/10.2.1/bits/basic_string.h ****        *  Returns a read-only (constant) reverse iterator that points
 879:/home/hubert/daisy/gcc/arm-none-eabi/include/c++/10.2.1/bits/basic_string.h ****        *  to the last character in the %string.  Iteration is done in
 880:/home/hubert/daisy/gcc/arm-none-eabi/include/c++/10.2.1/bits/basic_string.h ****        *  reverse element order.
 881:/home/hubert/daisy/gcc/arm-none-eabi/include/c++/10.2.1/bits/basic_string.h ****        */
 882:/home/hubert/daisy/gcc/arm-none-eabi/include/c++/10.2.1/bits/basic_string.h ****       const_reverse_iterator
 883:/home/hubert/daisy/gcc/arm-none-eabi/include/c++/10.2.1/bits/basic_string.h ****       crbegin() const noexcept
 884:/home/hubert/daisy/gcc/arm-none-eabi/include/c++/10.2.1/bits/basic_string.h ****       { return const_reverse_iterator(this->end()); }
 885:/home/hubert/daisy/gcc/arm-none-eabi/include/c++/10.2.1/bits/basic_string.h **** 
 886:/home/hubert/daisy/gcc/arm-none-eabi/include/c++/10.2.1/bits/basic_string.h ****       /**
 887:/home/hubert/daisy/gcc/arm-none-eabi/include/c++/10.2.1/bits/basic_string.h ****        *  Returns a read-only (constant) reverse iterator that points
 888:/home/hubert/daisy/gcc/arm-none-eabi/include/c++/10.2.1/bits/basic_string.h ****        *  to one before the first character in the %string.  Iteration
 889:/home/hubert/daisy/gcc/arm-none-eabi/include/c++/10.2.1/bits/basic_string.h ****        *  is done in reverse element order.
 890:/home/hubert/daisy/gcc/arm-none-eabi/include/c++/10.2.1/bits/basic_string.h ****        */
 891:/home/hubert/daisy/gcc/arm-none-eabi/include/c++/10.2.1/bits/basic_string.h ****       const_reverse_iterator
 892:/home/hubert/daisy/gcc/arm-none-eabi/include/c++/10.2.1/bits/basic_string.h ****       crend() const noexcept
 893:/home/hubert/daisy/gcc/arm-none-eabi/include/c++/10.2.1/bits/basic_string.h ****       { return const_reverse_iterator(this->begin()); }
 894:/home/hubert/daisy/gcc/arm-none-eabi/include/c++/10.2.1/bits/basic_string.h **** #endif
 895:/home/hubert/daisy/gcc/arm-none-eabi/include/c++/10.2.1/bits/basic_string.h **** 
 896:/home/hubert/daisy/gcc/arm-none-eabi/include/c++/10.2.1/bits/basic_string.h ****     public:
 897:/home/hubert/daisy/gcc/arm-none-eabi/include/c++/10.2.1/bits/basic_string.h ****       // Capacity:
 898:/home/hubert/daisy/gcc/arm-none-eabi/include/c++/10.2.1/bits/basic_string.h ****       ///  Returns the number of characters in the string, not including any
 899:/home/hubert/daisy/gcc/arm-none-eabi/include/c++/10.2.1/bits/basic_string.h ****       ///  null-termination.
 900:/home/hubert/daisy/gcc/arm-none-eabi/include/c++/10.2.1/bits/basic_string.h ****       size_type
 901:/home/hubert/daisy/gcc/arm-none-eabi/include/c++/10.2.1/bits/basic_string.h ****       size() const _GLIBCXX_NOEXCEPT
 902:/home/hubert/daisy/gcc/arm-none-eabi/include/c++/10.2.1/bits/basic_string.h ****       { return _M_string_length; }
 903:/home/hubert/daisy/gcc/arm-none-eabi/include/c++/10.2.1/bits/basic_string.h **** 
 904:/home/hubert/daisy/gcc/arm-none-eabi/include/c++/10.2.1/bits/basic_string.h ****       ///  Returns the number of characters in the string, not including any
 905:/home/hubert/daisy/gcc/arm-none-eabi/include/c++/10.2.1/bits/basic_string.h ****       ///  null-termination.
 906:/home/hubert/daisy/gcc/arm-none-eabi/include/c++/10.2.1/bits/basic_string.h ****       size_type
 907:/home/hubert/daisy/gcc/arm-none-eabi/include/c++/10.2.1/bits/basic_string.h ****       length() const _GLIBCXX_NOEXCEPT
 908:/home/hubert/daisy/gcc/arm-none-eabi/include/c++/10.2.1/bits/basic_string.h ****       { return _M_string_length; }
 909:/home/hubert/daisy/gcc/arm-none-eabi/include/c++/10.2.1/bits/basic_string.h **** 
 910:/home/hubert/daisy/gcc/arm-none-eabi/include/c++/10.2.1/bits/basic_string.h ****       ///  Returns the size() of the largest possible %string.
 911:/home/hubert/daisy/gcc/arm-none-eabi/include/c++/10.2.1/bits/basic_string.h ****       size_type
 912:/home/hubert/daisy/gcc/arm-none-eabi/include/c++/10.2.1/bits/basic_string.h ****       max_size() const _GLIBCXX_NOEXCEPT
 913:/home/hubert/daisy/gcc/arm-none-eabi/include/c++/10.2.1/bits/basic_string.h ****       { return (_Alloc_traits::max_size(_M_get_allocator()) - 1) / 2; }
 914:/home/hubert/daisy/gcc/arm-none-eabi/include/c++/10.2.1/bits/basic_string.h **** 
 915:/home/hubert/daisy/gcc/arm-none-eabi/include/c++/10.2.1/bits/basic_string.h ****       /**
 916:/home/hubert/daisy/gcc/arm-none-eabi/include/c++/10.2.1/bits/basic_string.h ****        *  @brief  Resizes the %string to the specified number of characters.
 917:/home/hubert/daisy/gcc/arm-none-eabi/include/c++/10.2.1/bits/basic_string.h ****        *  @param  __n  Number of characters the %string should contain.
 918:/home/hubert/daisy/gcc/arm-none-eabi/include/c++/10.2.1/bits/basic_string.h ****        *  @param  __c  Character to fill any new elements.
 919:/home/hubert/daisy/gcc/arm-none-eabi/include/c++/10.2.1/bits/basic_string.h ****        *
 920:/home/hubert/daisy/gcc/arm-none-eabi/include/c++/10.2.1/bits/basic_string.h ****        *  This function will %resize the %string to the specified
 921:/home/hubert/daisy/gcc/arm-none-eabi/include/c++/10.2.1/bits/basic_string.h ****        *  number of characters.  If the number is smaller than the
 922:/home/hubert/daisy/gcc/arm-none-eabi/include/c++/10.2.1/bits/basic_string.h ****        *  %string's current size the %string is truncated, otherwise
 923:/home/hubert/daisy/gcc/arm-none-eabi/include/c++/10.2.1/bits/basic_string.h ****        *  the %string is extended and new elements are %set to @a __c.
 924:/home/hubert/daisy/gcc/arm-none-eabi/include/c++/10.2.1/bits/basic_string.h ****        */
 925:/home/hubert/daisy/gcc/arm-none-eabi/include/c++/10.2.1/bits/basic_string.h ****       void
ARM GAS  /tmp/cczoWLZx.s 			page 37


 926:/home/hubert/daisy/gcc/arm-none-eabi/include/c++/10.2.1/bits/basic_string.h ****       resize(size_type __n, _CharT __c);
 927:/home/hubert/daisy/gcc/arm-none-eabi/include/c++/10.2.1/bits/basic_string.h **** 
 928:/home/hubert/daisy/gcc/arm-none-eabi/include/c++/10.2.1/bits/basic_string.h ****       /**
 929:/home/hubert/daisy/gcc/arm-none-eabi/include/c++/10.2.1/bits/basic_string.h ****        *  @brief  Resizes the %string to the specified number of characters.
 930:/home/hubert/daisy/gcc/arm-none-eabi/include/c++/10.2.1/bits/basic_string.h ****        *  @param  __n  Number of characters the %string should contain.
 931:/home/hubert/daisy/gcc/arm-none-eabi/include/c++/10.2.1/bits/basic_string.h ****        *
 932:/home/hubert/daisy/gcc/arm-none-eabi/include/c++/10.2.1/bits/basic_string.h ****        *  This function will resize the %string to the specified length.  If
 933:/home/hubert/daisy/gcc/arm-none-eabi/include/c++/10.2.1/bits/basic_string.h ****        *  the new size is smaller than the %string's current size the %string
 934:/home/hubert/daisy/gcc/arm-none-eabi/include/c++/10.2.1/bits/basic_string.h ****        *  is truncated, otherwise the %string is extended and new characters
 935:/home/hubert/daisy/gcc/arm-none-eabi/include/c++/10.2.1/bits/basic_string.h ****        *  are default-constructed.  For basic types such as char, this means
 936:/home/hubert/daisy/gcc/arm-none-eabi/include/c++/10.2.1/bits/basic_string.h ****        *  setting them to 0.
 937:/home/hubert/daisy/gcc/arm-none-eabi/include/c++/10.2.1/bits/basic_string.h ****        */
 938:/home/hubert/daisy/gcc/arm-none-eabi/include/c++/10.2.1/bits/basic_string.h ****       void
 939:/home/hubert/daisy/gcc/arm-none-eabi/include/c++/10.2.1/bits/basic_string.h ****       resize(size_type __n)
 940:/home/hubert/daisy/gcc/arm-none-eabi/include/c++/10.2.1/bits/basic_string.h ****       { this->resize(__n, _CharT()); }
 941:/home/hubert/daisy/gcc/arm-none-eabi/include/c++/10.2.1/bits/basic_string.h **** 
 942:/home/hubert/daisy/gcc/arm-none-eabi/include/c++/10.2.1/bits/basic_string.h **** #if __cplusplus >= 201103L
 943:/home/hubert/daisy/gcc/arm-none-eabi/include/c++/10.2.1/bits/basic_string.h ****       ///  A non-binding request to reduce capacity() to size().
 944:/home/hubert/daisy/gcc/arm-none-eabi/include/c++/10.2.1/bits/basic_string.h ****       void
 945:/home/hubert/daisy/gcc/arm-none-eabi/include/c++/10.2.1/bits/basic_string.h ****       shrink_to_fit() noexcept
 946:/home/hubert/daisy/gcc/arm-none-eabi/include/c++/10.2.1/bits/basic_string.h ****       {
 947:/home/hubert/daisy/gcc/arm-none-eabi/include/c++/10.2.1/bits/basic_string.h **** #if __cpp_exceptions
 948:/home/hubert/daisy/gcc/arm-none-eabi/include/c++/10.2.1/bits/basic_string.h **** 	if (capacity() > size())
 949:/home/hubert/daisy/gcc/arm-none-eabi/include/c++/10.2.1/bits/basic_string.h **** 	  {
 950:/home/hubert/daisy/gcc/arm-none-eabi/include/c++/10.2.1/bits/basic_string.h **** 	    try
 951:/home/hubert/daisy/gcc/arm-none-eabi/include/c++/10.2.1/bits/basic_string.h **** 	      { reserve(0); }
 952:/home/hubert/daisy/gcc/arm-none-eabi/include/c++/10.2.1/bits/basic_string.h **** 	    catch(...)
 953:/home/hubert/daisy/gcc/arm-none-eabi/include/c++/10.2.1/bits/basic_string.h **** 	      { }
 954:/home/hubert/daisy/gcc/arm-none-eabi/include/c++/10.2.1/bits/basic_string.h **** 	  }
 955:/home/hubert/daisy/gcc/arm-none-eabi/include/c++/10.2.1/bits/basic_string.h **** #endif
 956:/home/hubert/daisy/gcc/arm-none-eabi/include/c++/10.2.1/bits/basic_string.h ****       }
 957:/home/hubert/daisy/gcc/arm-none-eabi/include/c++/10.2.1/bits/basic_string.h **** #endif
 958:/home/hubert/daisy/gcc/arm-none-eabi/include/c++/10.2.1/bits/basic_string.h **** 
 959:/home/hubert/daisy/gcc/arm-none-eabi/include/c++/10.2.1/bits/basic_string.h ****       /**
 960:/home/hubert/daisy/gcc/arm-none-eabi/include/c++/10.2.1/bits/basic_string.h ****        *  Returns the total number of characters that the %string can hold
 961:/home/hubert/daisy/gcc/arm-none-eabi/include/c++/10.2.1/bits/basic_string.h ****        *  before needing to allocate more memory.
 962:/home/hubert/daisy/gcc/arm-none-eabi/include/c++/10.2.1/bits/basic_string.h ****        */
 963:/home/hubert/daisy/gcc/arm-none-eabi/include/c++/10.2.1/bits/basic_string.h ****       size_type
 964:/home/hubert/daisy/gcc/arm-none-eabi/include/c++/10.2.1/bits/basic_string.h ****       capacity() const _GLIBCXX_NOEXCEPT
 965:/home/hubert/daisy/gcc/arm-none-eabi/include/c++/10.2.1/bits/basic_string.h ****       {
 966:/home/hubert/daisy/gcc/arm-none-eabi/include/c++/10.2.1/bits/basic_string.h **** 	return _M_is_local() ? size_type(_S_local_capacity)
 967:/home/hubert/daisy/gcc/arm-none-eabi/include/c++/10.2.1/bits/basic_string.h **** 	                     : _M_allocated_capacity;
 968:/home/hubert/daisy/gcc/arm-none-eabi/include/c++/10.2.1/bits/basic_string.h ****       }
 969:/home/hubert/daisy/gcc/arm-none-eabi/include/c++/10.2.1/bits/basic_string.h **** 
 970:/home/hubert/daisy/gcc/arm-none-eabi/include/c++/10.2.1/bits/basic_string.h ****       /**
 971:/home/hubert/daisy/gcc/arm-none-eabi/include/c++/10.2.1/bits/basic_string.h ****        *  @brief  Attempt to preallocate enough memory for specified number of
 972:/home/hubert/daisy/gcc/arm-none-eabi/include/c++/10.2.1/bits/basic_string.h ****        *          characters.
 973:/home/hubert/daisy/gcc/arm-none-eabi/include/c++/10.2.1/bits/basic_string.h ****        *  @param  __res_arg  Number of characters required.
 974:/home/hubert/daisy/gcc/arm-none-eabi/include/c++/10.2.1/bits/basic_string.h ****        *  @throw  std::length_error  If @a __res_arg exceeds @c max_size().
 975:/home/hubert/daisy/gcc/arm-none-eabi/include/c++/10.2.1/bits/basic_string.h ****        *
 976:/home/hubert/daisy/gcc/arm-none-eabi/include/c++/10.2.1/bits/basic_string.h ****        *  This function attempts to reserve enough memory for the
 977:/home/hubert/daisy/gcc/arm-none-eabi/include/c++/10.2.1/bits/basic_string.h ****        *  %string to hold the specified number of characters.  If the
 978:/home/hubert/daisy/gcc/arm-none-eabi/include/c++/10.2.1/bits/basic_string.h ****        *  number requested is more than max_size(), length_error is
 979:/home/hubert/daisy/gcc/arm-none-eabi/include/c++/10.2.1/bits/basic_string.h ****        *  thrown.
 980:/home/hubert/daisy/gcc/arm-none-eabi/include/c++/10.2.1/bits/basic_string.h ****        *
 981:/home/hubert/daisy/gcc/arm-none-eabi/include/c++/10.2.1/bits/basic_string.h ****        *  The advantage of this function is that if optimal code is a
 982:/home/hubert/daisy/gcc/arm-none-eabi/include/c++/10.2.1/bits/basic_string.h ****        *  necessity and the user can determine the string length that will be
ARM GAS  /tmp/cczoWLZx.s 			page 38


 983:/home/hubert/daisy/gcc/arm-none-eabi/include/c++/10.2.1/bits/basic_string.h ****        *  required, the user can reserve the memory in %advance, and thus
 984:/home/hubert/daisy/gcc/arm-none-eabi/include/c++/10.2.1/bits/basic_string.h ****        *  prevent a possible reallocation of memory and copying of %string
 985:/home/hubert/daisy/gcc/arm-none-eabi/include/c++/10.2.1/bits/basic_string.h ****        *  data.
 986:/home/hubert/daisy/gcc/arm-none-eabi/include/c++/10.2.1/bits/basic_string.h ****        */
 987:/home/hubert/daisy/gcc/arm-none-eabi/include/c++/10.2.1/bits/basic_string.h ****       void
 988:/home/hubert/daisy/gcc/arm-none-eabi/include/c++/10.2.1/bits/basic_string.h ****       reserve(size_type __res_arg = 0);
 989:/home/hubert/daisy/gcc/arm-none-eabi/include/c++/10.2.1/bits/basic_string.h **** 
 990:/home/hubert/daisy/gcc/arm-none-eabi/include/c++/10.2.1/bits/basic_string.h ****       /**
 991:/home/hubert/daisy/gcc/arm-none-eabi/include/c++/10.2.1/bits/basic_string.h ****        *  Erases the string, making it empty.
 992:/home/hubert/daisy/gcc/arm-none-eabi/include/c++/10.2.1/bits/basic_string.h ****        */
 993:/home/hubert/daisy/gcc/arm-none-eabi/include/c++/10.2.1/bits/basic_string.h ****       void
 994:/home/hubert/daisy/gcc/arm-none-eabi/include/c++/10.2.1/bits/basic_string.h ****       clear() _GLIBCXX_NOEXCEPT
 995:/home/hubert/daisy/gcc/arm-none-eabi/include/c++/10.2.1/bits/basic_string.h ****       { _M_set_length(0); }
 996:/home/hubert/daisy/gcc/arm-none-eabi/include/c++/10.2.1/bits/basic_string.h **** 
 997:/home/hubert/daisy/gcc/arm-none-eabi/include/c++/10.2.1/bits/basic_string.h ****       /**
 998:/home/hubert/daisy/gcc/arm-none-eabi/include/c++/10.2.1/bits/basic_string.h ****        *  Returns true if the %string is empty.  Equivalent to 
 999:/home/hubert/daisy/gcc/arm-none-eabi/include/c++/10.2.1/bits/basic_string.h ****        *  <code>*this == ""</code>.
1000:/home/hubert/daisy/gcc/arm-none-eabi/include/c++/10.2.1/bits/basic_string.h ****        */
1001:/home/hubert/daisy/gcc/arm-none-eabi/include/c++/10.2.1/bits/basic_string.h ****       _GLIBCXX_NODISCARD bool
1002:/home/hubert/daisy/gcc/arm-none-eabi/include/c++/10.2.1/bits/basic_string.h ****       empty() const _GLIBCXX_NOEXCEPT
1003:/home/hubert/daisy/gcc/arm-none-eabi/include/c++/10.2.1/bits/basic_string.h ****       { return this->size() == 0; }
1004:/home/hubert/daisy/gcc/arm-none-eabi/include/c++/10.2.1/bits/basic_string.h **** 
1005:/home/hubert/daisy/gcc/arm-none-eabi/include/c++/10.2.1/bits/basic_string.h ****       // Element access:
1006:/home/hubert/daisy/gcc/arm-none-eabi/include/c++/10.2.1/bits/basic_string.h ****       /**
1007:/home/hubert/daisy/gcc/arm-none-eabi/include/c++/10.2.1/bits/basic_string.h ****        *  @brief  Subscript access to the data contained in the %string.
1008:/home/hubert/daisy/gcc/arm-none-eabi/include/c++/10.2.1/bits/basic_string.h ****        *  @param  __pos  The index of the character to access.
1009:/home/hubert/daisy/gcc/arm-none-eabi/include/c++/10.2.1/bits/basic_string.h ****        *  @return  Read-only (constant) reference to the character.
1010:/home/hubert/daisy/gcc/arm-none-eabi/include/c++/10.2.1/bits/basic_string.h ****        *
1011:/home/hubert/daisy/gcc/arm-none-eabi/include/c++/10.2.1/bits/basic_string.h ****        *  This operator allows for easy, array-style, data access.
1012:/home/hubert/daisy/gcc/arm-none-eabi/include/c++/10.2.1/bits/basic_string.h ****        *  Note that data access with this operator is unchecked and
1013:/home/hubert/daisy/gcc/arm-none-eabi/include/c++/10.2.1/bits/basic_string.h ****        *  out_of_range lookups are not defined. (For checked lookups
1014:/home/hubert/daisy/gcc/arm-none-eabi/include/c++/10.2.1/bits/basic_string.h ****        *  see at().)
1015:/home/hubert/daisy/gcc/arm-none-eabi/include/c++/10.2.1/bits/basic_string.h ****        */
1016:/home/hubert/daisy/gcc/arm-none-eabi/include/c++/10.2.1/bits/basic_string.h ****       const_reference
1017:/home/hubert/daisy/gcc/arm-none-eabi/include/c++/10.2.1/bits/basic_string.h ****       operator[] (size_type __pos) const _GLIBCXX_NOEXCEPT
1018:/home/hubert/daisy/gcc/arm-none-eabi/include/c++/10.2.1/bits/basic_string.h ****       {
1019:/home/hubert/daisy/gcc/arm-none-eabi/include/c++/10.2.1/bits/basic_string.h **** 	__glibcxx_assert(__pos <= size());
1020:/home/hubert/daisy/gcc/arm-none-eabi/include/c++/10.2.1/bits/basic_string.h **** 	return _M_data()[__pos];
1021:/home/hubert/daisy/gcc/arm-none-eabi/include/c++/10.2.1/bits/basic_string.h ****       }
1022:/home/hubert/daisy/gcc/arm-none-eabi/include/c++/10.2.1/bits/basic_string.h **** 
1023:/home/hubert/daisy/gcc/arm-none-eabi/include/c++/10.2.1/bits/basic_string.h ****       /**
1024:/home/hubert/daisy/gcc/arm-none-eabi/include/c++/10.2.1/bits/basic_string.h ****        *  @brief  Subscript access to the data contained in the %string.
1025:/home/hubert/daisy/gcc/arm-none-eabi/include/c++/10.2.1/bits/basic_string.h ****        *  @param  __pos  The index of the character to access.
1026:/home/hubert/daisy/gcc/arm-none-eabi/include/c++/10.2.1/bits/basic_string.h ****        *  @return  Read/write reference to the character.
1027:/home/hubert/daisy/gcc/arm-none-eabi/include/c++/10.2.1/bits/basic_string.h ****        *
1028:/home/hubert/daisy/gcc/arm-none-eabi/include/c++/10.2.1/bits/basic_string.h ****        *  This operator allows for easy, array-style, data access.
1029:/home/hubert/daisy/gcc/arm-none-eabi/include/c++/10.2.1/bits/basic_string.h ****        *  Note that data access with this operator is unchecked and
1030:/home/hubert/daisy/gcc/arm-none-eabi/include/c++/10.2.1/bits/basic_string.h ****        *  out_of_range lookups are not defined. (For checked lookups
1031:/home/hubert/daisy/gcc/arm-none-eabi/include/c++/10.2.1/bits/basic_string.h ****        *  see at().)
1032:/home/hubert/daisy/gcc/arm-none-eabi/include/c++/10.2.1/bits/basic_string.h ****        */
1033:/home/hubert/daisy/gcc/arm-none-eabi/include/c++/10.2.1/bits/basic_string.h ****       reference
1034:/home/hubert/daisy/gcc/arm-none-eabi/include/c++/10.2.1/bits/basic_string.h ****       operator[](size_type __pos)
1035:/home/hubert/daisy/gcc/arm-none-eabi/include/c++/10.2.1/bits/basic_string.h ****       {
1036:/home/hubert/daisy/gcc/arm-none-eabi/include/c++/10.2.1/bits/basic_string.h ****         // Allow pos == size() both in C++98 mode, as v3 extension,
1037:/home/hubert/daisy/gcc/arm-none-eabi/include/c++/10.2.1/bits/basic_string.h **** 	// and in C++11 mode.
1038:/home/hubert/daisy/gcc/arm-none-eabi/include/c++/10.2.1/bits/basic_string.h **** 	__glibcxx_assert(__pos <= size());
1039:/home/hubert/daisy/gcc/arm-none-eabi/include/c++/10.2.1/bits/basic_string.h ****         // In pedantic mode be strict in C++98 mode.
ARM GAS  /tmp/cczoWLZx.s 			page 39


1040:/home/hubert/daisy/gcc/arm-none-eabi/include/c++/10.2.1/bits/basic_string.h **** 	_GLIBCXX_DEBUG_PEDASSERT(__cplusplus >= 201103L || __pos < size());
1041:/home/hubert/daisy/gcc/arm-none-eabi/include/c++/10.2.1/bits/basic_string.h **** 	return _M_data()[__pos];
1042:/home/hubert/daisy/gcc/arm-none-eabi/include/c++/10.2.1/bits/basic_string.h ****       }
1043:/home/hubert/daisy/gcc/arm-none-eabi/include/c++/10.2.1/bits/basic_string.h **** 
1044:/home/hubert/daisy/gcc/arm-none-eabi/include/c++/10.2.1/bits/basic_string.h ****       /**
1045:/home/hubert/daisy/gcc/arm-none-eabi/include/c++/10.2.1/bits/basic_string.h ****        *  @brief  Provides access to the data contained in the %string.
1046:/home/hubert/daisy/gcc/arm-none-eabi/include/c++/10.2.1/bits/basic_string.h ****        *  @param __n The index of the character to access.
1047:/home/hubert/daisy/gcc/arm-none-eabi/include/c++/10.2.1/bits/basic_string.h ****        *  @return  Read-only (const) reference to the character.
1048:/home/hubert/daisy/gcc/arm-none-eabi/include/c++/10.2.1/bits/basic_string.h ****        *  @throw  std::out_of_range  If @a n is an invalid index.
1049:/home/hubert/daisy/gcc/arm-none-eabi/include/c++/10.2.1/bits/basic_string.h ****        *
1050:/home/hubert/daisy/gcc/arm-none-eabi/include/c++/10.2.1/bits/basic_string.h ****        *  This function provides for safer data access.  The parameter is
1051:/home/hubert/daisy/gcc/arm-none-eabi/include/c++/10.2.1/bits/basic_string.h ****        *  first checked that it is in the range of the string.  The function
1052:/home/hubert/daisy/gcc/arm-none-eabi/include/c++/10.2.1/bits/basic_string.h ****        *  throws out_of_range if the check fails.
1053:/home/hubert/daisy/gcc/arm-none-eabi/include/c++/10.2.1/bits/basic_string.h ****        */
1054:/home/hubert/daisy/gcc/arm-none-eabi/include/c++/10.2.1/bits/basic_string.h ****       const_reference
1055:/home/hubert/daisy/gcc/arm-none-eabi/include/c++/10.2.1/bits/basic_string.h ****       at(size_type __n) const
1056:/home/hubert/daisy/gcc/arm-none-eabi/include/c++/10.2.1/bits/basic_string.h ****       {
1057:/home/hubert/daisy/gcc/arm-none-eabi/include/c++/10.2.1/bits/basic_string.h **** 	if (__n >= this->size())
1058:/home/hubert/daisy/gcc/arm-none-eabi/include/c++/10.2.1/bits/basic_string.h **** 	  __throw_out_of_range_fmt(__N("basic_string::at: __n "
1059:/home/hubert/daisy/gcc/arm-none-eabi/include/c++/10.2.1/bits/basic_string.h **** 				       "(which is %zu) >= this->size() "
1060:/home/hubert/daisy/gcc/arm-none-eabi/include/c++/10.2.1/bits/basic_string.h **** 				       "(which is %zu)"),
1061:/home/hubert/daisy/gcc/arm-none-eabi/include/c++/10.2.1/bits/basic_string.h **** 				   __n, this->size());
1062:/home/hubert/daisy/gcc/arm-none-eabi/include/c++/10.2.1/bits/basic_string.h **** 	return _M_data()[__n];
1063:/home/hubert/daisy/gcc/arm-none-eabi/include/c++/10.2.1/bits/basic_string.h ****       }
1064:/home/hubert/daisy/gcc/arm-none-eabi/include/c++/10.2.1/bits/basic_string.h **** 
1065:/home/hubert/daisy/gcc/arm-none-eabi/include/c++/10.2.1/bits/basic_string.h ****       /**
1066:/home/hubert/daisy/gcc/arm-none-eabi/include/c++/10.2.1/bits/basic_string.h ****        *  @brief  Provides access to the data contained in the %string.
1067:/home/hubert/daisy/gcc/arm-none-eabi/include/c++/10.2.1/bits/basic_string.h ****        *  @param __n The index of the character to access.
1068:/home/hubert/daisy/gcc/arm-none-eabi/include/c++/10.2.1/bits/basic_string.h ****        *  @return  Read/write reference to the character.
1069:/home/hubert/daisy/gcc/arm-none-eabi/include/c++/10.2.1/bits/basic_string.h ****        *  @throw  std::out_of_range  If @a n is an invalid index.
1070:/home/hubert/daisy/gcc/arm-none-eabi/include/c++/10.2.1/bits/basic_string.h ****        *
1071:/home/hubert/daisy/gcc/arm-none-eabi/include/c++/10.2.1/bits/basic_string.h ****        *  This function provides for safer data access.  The parameter is
1072:/home/hubert/daisy/gcc/arm-none-eabi/include/c++/10.2.1/bits/basic_string.h ****        *  first checked that it is in the range of the string.  The function
1073:/home/hubert/daisy/gcc/arm-none-eabi/include/c++/10.2.1/bits/basic_string.h ****        *  throws out_of_range if the check fails.
1074:/home/hubert/daisy/gcc/arm-none-eabi/include/c++/10.2.1/bits/basic_string.h ****        */
1075:/home/hubert/daisy/gcc/arm-none-eabi/include/c++/10.2.1/bits/basic_string.h ****       reference
1076:/home/hubert/daisy/gcc/arm-none-eabi/include/c++/10.2.1/bits/basic_string.h ****       at(size_type __n)
1077:/home/hubert/daisy/gcc/arm-none-eabi/include/c++/10.2.1/bits/basic_string.h ****       {
1078:/home/hubert/daisy/gcc/arm-none-eabi/include/c++/10.2.1/bits/basic_string.h **** 	if (__n >= size())
1079:/home/hubert/daisy/gcc/arm-none-eabi/include/c++/10.2.1/bits/basic_string.h **** 	  __throw_out_of_range_fmt(__N("basic_string::at: __n "
1080:/home/hubert/daisy/gcc/arm-none-eabi/include/c++/10.2.1/bits/basic_string.h **** 				       "(which is %zu) >= this->size() "
1081:/home/hubert/daisy/gcc/arm-none-eabi/include/c++/10.2.1/bits/basic_string.h **** 				       "(which is %zu)"),
1082:/home/hubert/daisy/gcc/arm-none-eabi/include/c++/10.2.1/bits/basic_string.h **** 				   __n, this->size());
1083:/home/hubert/daisy/gcc/arm-none-eabi/include/c++/10.2.1/bits/basic_string.h **** 	return _M_data()[__n];
1084:/home/hubert/daisy/gcc/arm-none-eabi/include/c++/10.2.1/bits/basic_string.h ****       }
1085:/home/hubert/daisy/gcc/arm-none-eabi/include/c++/10.2.1/bits/basic_string.h **** 
1086:/home/hubert/daisy/gcc/arm-none-eabi/include/c++/10.2.1/bits/basic_string.h **** #if __cplusplus >= 201103L
1087:/home/hubert/daisy/gcc/arm-none-eabi/include/c++/10.2.1/bits/basic_string.h ****       /**
1088:/home/hubert/daisy/gcc/arm-none-eabi/include/c++/10.2.1/bits/basic_string.h ****        *  Returns a read/write reference to the data at the first
1089:/home/hubert/daisy/gcc/arm-none-eabi/include/c++/10.2.1/bits/basic_string.h ****        *  element of the %string.
1090:/home/hubert/daisy/gcc/arm-none-eabi/include/c++/10.2.1/bits/basic_string.h ****        */
1091:/home/hubert/daisy/gcc/arm-none-eabi/include/c++/10.2.1/bits/basic_string.h ****       reference
1092:/home/hubert/daisy/gcc/arm-none-eabi/include/c++/10.2.1/bits/basic_string.h ****       front() noexcept
1093:/home/hubert/daisy/gcc/arm-none-eabi/include/c++/10.2.1/bits/basic_string.h ****       {
1094:/home/hubert/daisy/gcc/arm-none-eabi/include/c++/10.2.1/bits/basic_string.h **** 	__glibcxx_assert(!empty());
1095:/home/hubert/daisy/gcc/arm-none-eabi/include/c++/10.2.1/bits/basic_string.h **** 	return operator[](0);
1096:/home/hubert/daisy/gcc/arm-none-eabi/include/c++/10.2.1/bits/basic_string.h ****       }
ARM GAS  /tmp/cczoWLZx.s 			page 40


1097:/home/hubert/daisy/gcc/arm-none-eabi/include/c++/10.2.1/bits/basic_string.h **** 
1098:/home/hubert/daisy/gcc/arm-none-eabi/include/c++/10.2.1/bits/basic_string.h ****       /**
1099:/home/hubert/daisy/gcc/arm-none-eabi/include/c++/10.2.1/bits/basic_string.h ****        *  Returns a read-only (constant) reference to the data at the first
1100:/home/hubert/daisy/gcc/arm-none-eabi/include/c++/10.2.1/bits/basic_string.h ****        *  element of the %string.
1101:/home/hubert/daisy/gcc/arm-none-eabi/include/c++/10.2.1/bits/basic_string.h ****        */
1102:/home/hubert/daisy/gcc/arm-none-eabi/include/c++/10.2.1/bits/basic_string.h ****       const_reference
1103:/home/hubert/daisy/gcc/arm-none-eabi/include/c++/10.2.1/bits/basic_string.h ****       front() const noexcept
1104:/home/hubert/daisy/gcc/arm-none-eabi/include/c++/10.2.1/bits/basic_string.h ****       {
1105:/home/hubert/daisy/gcc/arm-none-eabi/include/c++/10.2.1/bits/basic_string.h **** 	__glibcxx_assert(!empty());
1106:/home/hubert/daisy/gcc/arm-none-eabi/include/c++/10.2.1/bits/basic_string.h **** 	return operator[](0);
1107:/home/hubert/daisy/gcc/arm-none-eabi/include/c++/10.2.1/bits/basic_string.h ****       }
1108:/home/hubert/daisy/gcc/arm-none-eabi/include/c++/10.2.1/bits/basic_string.h **** 
1109:/home/hubert/daisy/gcc/arm-none-eabi/include/c++/10.2.1/bits/basic_string.h ****       /**
1110:/home/hubert/daisy/gcc/arm-none-eabi/include/c++/10.2.1/bits/basic_string.h ****        *  Returns a read/write reference to the data at the last
1111:/home/hubert/daisy/gcc/arm-none-eabi/include/c++/10.2.1/bits/basic_string.h ****        *  element of the %string.
1112:/home/hubert/daisy/gcc/arm-none-eabi/include/c++/10.2.1/bits/basic_string.h ****        */
1113:/home/hubert/daisy/gcc/arm-none-eabi/include/c++/10.2.1/bits/basic_string.h ****       reference
1114:/home/hubert/daisy/gcc/arm-none-eabi/include/c++/10.2.1/bits/basic_string.h ****       back() noexcept
1115:/home/hubert/daisy/gcc/arm-none-eabi/include/c++/10.2.1/bits/basic_string.h ****       {
1116:/home/hubert/daisy/gcc/arm-none-eabi/include/c++/10.2.1/bits/basic_string.h **** 	__glibcxx_assert(!empty());
1117:/home/hubert/daisy/gcc/arm-none-eabi/include/c++/10.2.1/bits/basic_string.h **** 	return operator[](this->size() - 1);
1118:/home/hubert/daisy/gcc/arm-none-eabi/include/c++/10.2.1/bits/basic_string.h ****       }
1119:/home/hubert/daisy/gcc/arm-none-eabi/include/c++/10.2.1/bits/basic_string.h **** 
1120:/home/hubert/daisy/gcc/arm-none-eabi/include/c++/10.2.1/bits/basic_string.h ****       /**
1121:/home/hubert/daisy/gcc/arm-none-eabi/include/c++/10.2.1/bits/basic_string.h ****        *  Returns a read-only (constant) reference to the data at the
1122:/home/hubert/daisy/gcc/arm-none-eabi/include/c++/10.2.1/bits/basic_string.h ****        *  last element of the %string.
1123:/home/hubert/daisy/gcc/arm-none-eabi/include/c++/10.2.1/bits/basic_string.h ****        */
1124:/home/hubert/daisy/gcc/arm-none-eabi/include/c++/10.2.1/bits/basic_string.h ****       const_reference
1125:/home/hubert/daisy/gcc/arm-none-eabi/include/c++/10.2.1/bits/basic_string.h ****       back() const noexcept
1126:/home/hubert/daisy/gcc/arm-none-eabi/include/c++/10.2.1/bits/basic_string.h ****       {
1127:/home/hubert/daisy/gcc/arm-none-eabi/include/c++/10.2.1/bits/basic_string.h **** 	__glibcxx_assert(!empty());
1128:/home/hubert/daisy/gcc/arm-none-eabi/include/c++/10.2.1/bits/basic_string.h **** 	return operator[](this->size() - 1);
1129:/home/hubert/daisy/gcc/arm-none-eabi/include/c++/10.2.1/bits/basic_string.h ****       }
1130:/home/hubert/daisy/gcc/arm-none-eabi/include/c++/10.2.1/bits/basic_string.h **** #endif
1131:/home/hubert/daisy/gcc/arm-none-eabi/include/c++/10.2.1/bits/basic_string.h **** 
1132:/home/hubert/daisy/gcc/arm-none-eabi/include/c++/10.2.1/bits/basic_string.h ****       // Modifiers:
1133:/home/hubert/daisy/gcc/arm-none-eabi/include/c++/10.2.1/bits/basic_string.h ****       /**
1134:/home/hubert/daisy/gcc/arm-none-eabi/include/c++/10.2.1/bits/basic_string.h ****        *  @brief  Append a string to this string.
1135:/home/hubert/daisy/gcc/arm-none-eabi/include/c++/10.2.1/bits/basic_string.h ****        *  @param __str  The string to append.
1136:/home/hubert/daisy/gcc/arm-none-eabi/include/c++/10.2.1/bits/basic_string.h ****        *  @return  Reference to this string.
1137:/home/hubert/daisy/gcc/arm-none-eabi/include/c++/10.2.1/bits/basic_string.h ****        */
1138:/home/hubert/daisy/gcc/arm-none-eabi/include/c++/10.2.1/bits/basic_string.h ****       basic_string&
1139:/home/hubert/daisy/gcc/arm-none-eabi/include/c++/10.2.1/bits/basic_string.h ****       operator+=(const basic_string& __str)
1140:/home/hubert/daisy/gcc/arm-none-eabi/include/c++/10.2.1/bits/basic_string.h ****       { return this->append(__str); }
1141:/home/hubert/daisy/gcc/arm-none-eabi/include/c++/10.2.1/bits/basic_string.h **** 
1142:/home/hubert/daisy/gcc/arm-none-eabi/include/c++/10.2.1/bits/basic_string.h ****       /**
1143:/home/hubert/daisy/gcc/arm-none-eabi/include/c++/10.2.1/bits/basic_string.h ****        *  @brief  Append a C string.
1144:/home/hubert/daisy/gcc/arm-none-eabi/include/c++/10.2.1/bits/basic_string.h ****        *  @param __s  The C string to append.
1145:/home/hubert/daisy/gcc/arm-none-eabi/include/c++/10.2.1/bits/basic_string.h ****        *  @return  Reference to this string.
1146:/home/hubert/daisy/gcc/arm-none-eabi/include/c++/10.2.1/bits/basic_string.h ****        */
1147:/home/hubert/daisy/gcc/arm-none-eabi/include/c++/10.2.1/bits/basic_string.h ****       basic_string&
1148:/home/hubert/daisy/gcc/arm-none-eabi/include/c++/10.2.1/bits/basic_string.h ****       operator+=(const _CharT* __s)
1149:/home/hubert/daisy/gcc/arm-none-eabi/include/c++/10.2.1/bits/basic_string.h ****       { return this->append(__s); }
1150:/home/hubert/daisy/gcc/arm-none-eabi/include/c++/10.2.1/bits/basic_string.h **** 
1151:/home/hubert/daisy/gcc/arm-none-eabi/include/c++/10.2.1/bits/basic_string.h ****       /**
1152:/home/hubert/daisy/gcc/arm-none-eabi/include/c++/10.2.1/bits/basic_string.h ****        *  @brief  Append a character.
1153:/home/hubert/daisy/gcc/arm-none-eabi/include/c++/10.2.1/bits/basic_string.h ****        *  @param __c  The character to append.
ARM GAS  /tmp/cczoWLZx.s 			page 41


1154:/home/hubert/daisy/gcc/arm-none-eabi/include/c++/10.2.1/bits/basic_string.h ****        *  @return  Reference to this string.
1155:/home/hubert/daisy/gcc/arm-none-eabi/include/c++/10.2.1/bits/basic_string.h ****        */
1156:/home/hubert/daisy/gcc/arm-none-eabi/include/c++/10.2.1/bits/basic_string.h ****       basic_string&
1157:/home/hubert/daisy/gcc/arm-none-eabi/include/c++/10.2.1/bits/basic_string.h ****       operator+=(_CharT __c)
1158:/home/hubert/daisy/gcc/arm-none-eabi/include/c++/10.2.1/bits/basic_string.h ****       {
1159:/home/hubert/daisy/gcc/arm-none-eabi/include/c++/10.2.1/bits/basic_string.h **** 	this->push_back(__c);
1160:/home/hubert/daisy/gcc/arm-none-eabi/include/c++/10.2.1/bits/basic_string.h **** 	return *this;
1161:/home/hubert/daisy/gcc/arm-none-eabi/include/c++/10.2.1/bits/basic_string.h ****       }
1162:/home/hubert/daisy/gcc/arm-none-eabi/include/c++/10.2.1/bits/basic_string.h **** 
1163:/home/hubert/daisy/gcc/arm-none-eabi/include/c++/10.2.1/bits/basic_string.h **** #if __cplusplus >= 201103L
1164:/home/hubert/daisy/gcc/arm-none-eabi/include/c++/10.2.1/bits/basic_string.h ****       /**
1165:/home/hubert/daisy/gcc/arm-none-eabi/include/c++/10.2.1/bits/basic_string.h ****        *  @brief  Append an initializer_list of characters.
1166:/home/hubert/daisy/gcc/arm-none-eabi/include/c++/10.2.1/bits/basic_string.h ****        *  @param __l  The initializer_list of characters to be appended.
1167:/home/hubert/daisy/gcc/arm-none-eabi/include/c++/10.2.1/bits/basic_string.h ****        *  @return  Reference to this string.
1168:/home/hubert/daisy/gcc/arm-none-eabi/include/c++/10.2.1/bits/basic_string.h ****        */
1169:/home/hubert/daisy/gcc/arm-none-eabi/include/c++/10.2.1/bits/basic_string.h ****       basic_string&
